; Listing generated by Microsoft (R) Optimizing Compiler Version 19.36.32535.0 

include listing.inc

INCLUDELIB OLDNAMES

PUBLIC	??_C@_0P@CEJPOEEF@Example?5Canvas@		; `string'
PUBLIC	??_C@_0L@DCCGFMBN@Error?3?5?$CFs?6@		; `string'
PUBLIC	??_C@_01HIHLOKLC@1@				; `string'
PUBLIC	??_C@_0BA@JCFIKKMK@SDL_IME_SHOW_UI@		; `string'
PUBLIC	??_C@_0N@DDOGMLBE@Photo?5Studio@		; `string'
PUBLIC	??_C@_0BP@BFEIMJMJ@Error?3?5SDL_CreateWindow?$CI?$CJ?3?5?$CFs?6@ ; `string'
PUBLIC	??_C@_0P@JLOCEAMK@OpenGL?5loaded?6@		; `string'
PUBLIC	??_C@_0O@BLOPLMMI@Vendor?3?5?5?5?$CFs?6@	; `string'
PUBLIC	??_C@_0O@IPGAJLBD@Renderer?3?5?$CFs?6@		; `string'
PUBLIC	??_C@_0O@NHGDCGCA@Version?3?5?5?$CFs?6@		; `string'
PUBLIC	??_C@_06JNNJGBCL@1?490?45@			; `string'
PUBLIC	??_C@_0BJ@HCOBDBIG@Fonts?1Roboto?9Regular?4ttf@	; `string'
PUBLIC	??_C@_0P@IHLBBLJK@DockSpace?5Demo@		; `string'
PUBLIC	??_C@_0M@MOJOFFHL@MyDockSpace@			; `string'
PUBLIC	??_C@_0L@KOOGALIH@Properties@			; `string'
PUBLIC	??_C@_09MELPKEIH@Title?5Bar@			; `string'
PUBLIC	??_C@_0P@BMAFCKK@?5Photo?5Studio?5@		; `string'
PUBLIC	??_C@_04PBAHLACE@File@				; `string'
PUBLIC	??_C@_06CPMDDACM@Ctrl?$CLN@			; `string'
PUBLIC	??_C@_0M@BKCCDHAN@New?5project@			; `string'
PUBLIC	??_C@_06NAKPFMDA@Ctrl?$CLS@			; `string'
PUBLIC	??_C@_04INACKGJP@Save@				; `string'
PUBLIC	??_C@_0N@CGJKLENG@Shift?$CLCtrl?$CLS@		; `string'
PUBLIC	??_C@_07NCJKBBP@Save?5as@			; `string'
PUBLIC	??_C@_04BBNPPDNC@Edit@				; `string'
PUBLIC	??_C@_06BGNOHHJ@Ctrl?$CLZ@			; `string'
PUBLIC	??_C@_04LPGMNMPN@Undo@				; `string'
PUBLIC	??_C@_0N@HANJOMON@Ctrl?$CLShift?$CLZ@		; `string'
PUBLIC	??_C@_04NKENIHOM@Redo@				; `string'
PUBLIC	??_C@_05NBEAGECF@Image@				; `string'
PUBLIC	??_C@_05NHNHDHBP@Layer@				; `string'
PUBLIC	??_C@_06BNPFFCKO@Ctrl?$CLL@			; `string'
PUBLIC	??_C@_09HNJMKJBB@New?5layer@			; `string'
PUBLIC	??_C@_04KOACHJEN@Type@				; `string'
PUBLIC	??_C@_06HJGPBJLE@Select@			; `string'
PUBLIC	??_C@_06IBDJIBGI@Filter@			; `string'
PUBLIC	??_C@_04OGMCGMPK@View@				; `string'
PUBLIC	??_C@_0N@LIAAGGOF@Ctrl?$CLShift?$CLR@		; `string'
PUBLIC	??_C@_0L@NDBEAOBP@Reset?5view@			; `string'
PUBLIC	??_C@_06BKKJGDHO@Window@			; `string'
PUBLIC	??_C@_04DDFEFHOJ@Help@				; `string'
PUBLIC	??_C@_0M@GEIJOAJB@New?5Canvas?5@		; `string'
PUBLIC	??_R1A@?0A@EA@?$_Ref_count_obj2@VCanvas@@@std@@8 ; std::_Ref_count_obj2<Canvas>::`RTTI Base Class Descriptor at (0,-1,0,64)'
PUBLIC	?_OptionsStorage@?1??__local_stdio_printf_options@@9@4_KA ; `__local_stdio_printf_options'::`2'::_OptionsStorage
PUBLIC	??_R3?$_Ref_count_obj2@VCanvas@@@std@@8		; std::_Ref_count_obj2<Canvas>::`RTTI Class Hierarchy Descriptor'
PUBLIC	??_7?$_Ref_count_obj2@VCanvas@@@std@@6B@	; std::_Ref_count_obj2<Canvas>::`vftable'
PUBLIC	?m_GLContext@Application@@0PEAXEA		; Application::m_GLContext
PUBLIC	??_R0?AV?$_Ref_count_obj2@VCanvas@@@std@@@8	; std::_Ref_count_obj2<Canvas> `RTTI Type Descriptor'
PUBLIC	??_R4?$_Ref_count_obj2@VCanvas@@@std@@6B@	; std::_Ref_count_obj2<Canvas>::`RTTI Complete Object Locator'
PUBLIC	??_R2?$_Ref_count_obj2@VCanvas@@@std@@8		; std::_Ref_count_obj2<Canvas>::`RTTI Base Class Array'
EXTRN	__imp_SDL_GetWindowSize:PROC
EXTRN	__imp_SDL_CreateWindow:PROC
EXTRN	__imp_SDL_GL_SetSwapInterval:PROC
EXTRN	__imp_SDL_PollEvent:PROC
EXTRN	__imp_SDL_GL_CreateContext:PROC
EXTRN	__imp___stdio_common_vfprintf:PROC
EXTRN	__imp_SDL_GL_SetAttribute:PROC
EXTRN	__imp_SDL_GL_GetProcAddress:PROC
EXTRN	__imp_SDL_GetWindowID:PROC
EXTRN	__imp_SDL_Quit:PROC
EXTRN	__imp_SDL_SetHint:PROC
EXTRN	__imp_SDL_DestroyWindow:PROC
EXTRN	__imp_SDL_AddEventWatch:PROC
EXTRN	__imp_SDL_Init:PROC
EXTRN	__imp___acrt_iob_func:PROC
EXTRN	__imp_SDL_GL_MakeCurrent:PROC
EXTRN	__imp_SDL_GL_DeleteContext:PROC
EXTRN	__imp_SDL_GL_SwapWindow:PROC
EXTRN	__imp_SDL_GL_GetCurrentContext:PROC
;	COMDAT ?_OptionsStorage@?1??__local_stdio_printf_options@@9@4_KA
_BSS	SEGMENT
?_OptionsStorage@?1??__local_stdio_printf_options@@9@4_KA DQ 01H DUP (?) ; `__local_stdio_printf_options'::`2'::_OptionsStorage
_BSS	ENDS
;	COMDAT ?m_GLContext@Application@@0PEAXEA
_BSS	SEGMENT
?m_GLContext@Application@@0PEAXEA DQ 01H DUP (?)	; Application::m_GLContext
_BSS	ENDS
;	COMDAT ??_R2?$_Ref_count_obj2@VCanvas@@@std@@8
rdata$r	SEGMENT
??_R2?$_Ref_count_obj2@VCanvas@@@std@@8 DD imagerel ??_R1A@?0A@EA@?$_Ref_count_obj2@VCanvas@@@std@@8 ; std::_Ref_count_obj2<Canvas>::`RTTI Base Class Array'
	DD	imagerel ??_R1A@?0A@EA@_Ref_count_base@std@@8
	ORG $+3
rdata$r	ENDS
;	COMDAT ??_R4?$_Ref_count_obj2@VCanvas@@@std@@6B@
rdata$r	SEGMENT
??_R4?$_Ref_count_obj2@VCanvas@@@std@@6B@ DD 01H	; std::_Ref_count_obj2<Canvas>::`RTTI Complete Object Locator'
	DD	00H
	DD	00H
	DD	imagerel ??_R0?AV?$_Ref_count_obj2@VCanvas@@@std@@@8
	DD	imagerel ??_R3?$_Ref_count_obj2@VCanvas@@@std@@8
	DD	imagerel ??_R4?$_Ref_count_obj2@VCanvas@@@std@@6B@
rdata$r	ENDS
;	COMDAT ??_R0?AV?$_Ref_count_obj2@VCanvas@@@std@@@8
data$rs	SEGMENT
??_R0?AV?$_Ref_count_obj2@VCanvas@@@std@@@8 DQ FLAT:??_7type_info@@6B@ ; std::_Ref_count_obj2<Canvas> `RTTI Type Descriptor'
	DQ	0000000000000000H
	DB	'.?AV?$_Ref_count_obj2@VCanvas@@@std@@', 00H
data$rs	ENDS
;	COMDAT ??_7?$_Ref_count_obj2@VCanvas@@@std@@6B@
CONST	SEGMENT
??_7?$_Ref_count_obj2@VCanvas@@@std@@6B@ DQ FLAT:??_R4?$_Ref_count_obj2@VCanvas@@@std@@6B@ ; std::_Ref_count_obj2<Canvas>::`vftable'
	DQ	FLAT:?_Destroy@?$_Ref_count_obj2@VCanvas@@@std@@EEAAXXZ
	DQ	FLAT:?_Delete_this@?$_Ref_count_obj2@VCanvas@@@std@@EEAAXXZ
	DQ	FLAT:??_E?$_Ref_count_obj2@VCanvas@@@std@@UEAAPEAXI@Z
	DQ	FLAT:?_Get_deleter@_Ref_count_base@std@@UEBAPEAXAEBVtype_info@@@Z
CONST	ENDS
;	COMDAT ??_R3?$_Ref_count_obj2@VCanvas@@@std@@8
rdata$r	SEGMENT
??_R3?$_Ref_count_obj2@VCanvas@@@std@@8 DD 00H		; std::_Ref_count_obj2<Canvas>::`RTTI Class Hierarchy Descriptor'
	DD	00H
	DD	02H
	DD	imagerel ??_R2?$_Ref_count_obj2@VCanvas@@@std@@8
rdata$r	ENDS
;	COMDAT ??_R1A@?0A@EA@?$_Ref_count_obj2@VCanvas@@@std@@8
rdata$r	SEGMENT
??_R1A@?0A@EA@?$_Ref_count_obj2@VCanvas@@@std@@8 DD imagerel ??_R0?AV?$_Ref_count_obj2@VCanvas@@@std@@@8 ; std::_Ref_count_obj2<Canvas>::`RTTI Base Class Descriptor at (0,-1,0,64)'
	DD	01H
	DD	00H
	DD	0ffffffffH
	DD	00H
	DD	040H
	DD	imagerel ??_R3?$_Ref_count_obj2@VCanvas@@@std@@8
rdata$r	ENDS
;	COMDAT ?ProjNumber@?DK@??DrawTitleBar@Application@@AEAAXXZ@4HA
_DATA	SEGMENT
?ProjNumber@?DK@??DrawTitleBar@Application@@AEAAXXZ@4HA DD 01H ; `Application::DrawTitleBar'::`58'::ProjNumber
_DATA	ENDS
;	COMDAT ??_C@_0M@GEIJOAJB@New?5Canvas?5@
CONST	SEGMENT
??_C@_0M@GEIJOAJB@New?5Canvas?5@ DB 'New Canvas ', 00H	; `string'
CONST	ENDS
;	COMDAT ??_C@_04DDFEFHOJ@Help@
CONST	SEGMENT
??_C@_04DDFEFHOJ@Help@ DB 'Help', 00H			; `string'
CONST	ENDS
;	COMDAT ??_C@_06BKKJGDHO@Window@
CONST	SEGMENT
??_C@_06BKKJGDHO@Window@ DB 'Window', 00H		; `string'
CONST	ENDS
;	COMDAT ??_C@_0L@NDBEAOBP@Reset?5view@
CONST	SEGMENT
??_C@_0L@NDBEAOBP@Reset?5view@ DB 'Reset view', 00H	; `string'
CONST	ENDS
;	COMDAT ??_C@_0N@LIAAGGOF@Ctrl?$CLShift?$CLR@
CONST	SEGMENT
??_C@_0N@LIAAGGOF@Ctrl?$CLShift?$CLR@ DB 'Ctrl+Shift+R', 00H ; `string'
CONST	ENDS
;	COMDAT ??_C@_04OGMCGMPK@View@
CONST	SEGMENT
??_C@_04OGMCGMPK@View@ DB 'View', 00H			; `string'
CONST	ENDS
;	COMDAT ??_C@_06IBDJIBGI@Filter@
CONST	SEGMENT
??_C@_06IBDJIBGI@Filter@ DB 'Filter', 00H		; `string'
CONST	ENDS
;	COMDAT ??_C@_06HJGPBJLE@Select@
CONST	SEGMENT
??_C@_06HJGPBJLE@Select@ DB 'Select', 00H		; `string'
CONST	ENDS
;	COMDAT ??_C@_04KOACHJEN@Type@
CONST	SEGMENT
??_C@_04KOACHJEN@Type@ DB 'Type', 00H			; `string'
CONST	ENDS
;	COMDAT ??_C@_09HNJMKJBB@New?5layer@
CONST	SEGMENT
??_C@_09HNJMKJBB@New?5layer@ DB 'New layer', 00H	; `string'
CONST	ENDS
;	COMDAT ??_C@_06BNPFFCKO@Ctrl?$CLL@
CONST	SEGMENT
??_C@_06BNPFFCKO@Ctrl?$CLL@ DB 'Ctrl+L', 00H		; `string'
CONST	ENDS
;	COMDAT ??_C@_05NHNHDHBP@Layer@
CONST	SEGMENT
??_C@_05NHNHDHBP@Layer@ DB 'Layer', 00H			; `string'
CONST	ENDS
;	COMDAT ??_C@_05NBEAGECF@Image@
CONST	SEGMENT
??_C@_05NBEAGECF@Image@ DB 'Image', 00H			; `string'
CONST	ENDS
;	COMDAT ??_C@_04NKENIHOM@Redo@
CONST	SEGMENT
??_C@_04NKENIHOM@Redo@ DB 'Redo', 00H			; `string'
CONST	ENDS
;	COMDAT ??_C@_0N@HANJOMON@Ctrl?$CLShift?$CLZ@
CONST	SEGMENT
??_C@_0N@HANJOMON@Ctrl?$CLShift?$CLZ@ DB 'Ctrl+Shift+Z', 00H ; `string'
CONST	ENDS
;	COMDAT ??_C@_04LPGMNMPN@Undo@
CONST	SEGMENT
??_C@_04LPGMNMPN@Undo@ DB 'Undo', 00H			; `string'
CONST	ENDS
;	COMDAT ??_C@_06BGNOHHJ@Ctrl?$CLZ@
CONST	SEGMENT
??_C@_06BGNOHHJ@Ctrl?$CLZ@ DB 'Ctrl+Z', 00H		; `string'
CONST	ENDS
;	COMDAT ??_C@_04BBNPPDNC@Edit@
CONST	SEGMENT
??_C@_04BBNPPDNC@Edit@ DB 'Edit', 00H			; `string'
CONST	ENDS
;	COMDAT ??_C@_07NCJKBBP@Save?5as@
CONST	SEGMENT
??_C@_07NCJKBBP@Save?5as@ DB 'Save as', 00H		; `string'
CONST	ENDS
;	COMDAT ??_C@_0N@CGJKLENG@Shift?$CLCtrl?$CLS@
CONST	SEGMENT
??_C@_0N@CGJKLENG@Shift?$CLCtrl?$CLS@ DB 'Shift+Ctrl+S', 00H ; `string'
CONST	ENDS
;	COMDAT ??_C@_04INACKGJP@Save@
CONST	SEGMENT
??_C@_04INACKGJP@Save@ DB 'Save', 00H			; `string'
CONST	ENDS
;	COMDAT ??_C@_06NAKPFMDA@Ctrl?$CLS@
CONST	SEGMENT
??_C@_06NAKPFMDA@Ctrl?$CLS@ DB 'Ctrl+S', 00H		; `string'
CONST	ENDS
;	COMDAT ??_C@_0M@BKCCDHAN@New?5project@
CONST	SEGMENT
??_C@_0M@BKCCDHAN@New?5project@ DB 'New project', 00H	; `string'
CONST	ENDS
;	COMDAT ??_C@_06CPMDDACM@Ctrl?$CLN@
CONST	SEGMENT
??_C@_06CPMDDACM@Ctrl?$CLN@ DB 'Ctrl+N', 00H		; `string'
CONST	ENDS
;	COMDAT ??_C@_04PBAHLACE@File@
CONST	SEGMENT
??_C@_04PBAHLACE@File@ DB 'File', 00H			; `string'
CONST	ENDS
;	COMDAT ??_C@_0P@BMAFCKK@?5Photo?5Studio?5@
CONST	SEGMENT
??_C@_0P@BMAFCKK@?5Photo?5Studio?5@ DB ' Photo Studio ', 00H ; `string'
CONST	ENDS
;	COMDAT ??_C@_09MELPKEIH@Title?5Bar@
CONST	SEGMENT
??_C@_09MELPKEIH@Title?5Bar@ DB 'Title Bar', 00H	; `string'
CONST	ENDS
;	COMDAT ??_C@_0L@KOOGALIH@Properties@
CONST	SEGMENT
??_C@_0L@KOOGALIH@Properties@ DB 'Properties', 00H	; `string'
CONST	ENDS
;	COMDAT ??_C@_0M@MOJOFFHL@MyDockSpace@
CONST	SEGMENT
??_C@_0M@MOJOFFHL@MyDockSpace@ DB 'MyDockSpace', 00H	; `string'
CONST	ENDS
;	COMDAT ??_C@_0P@IHLBBLJK@DockSpace?5Demo@
CONST	SEGMENT
??_C@_0P@IHLBBLJK@DockSpace?5Demo@ DB 'DockSpace Demo', 00H ; `string'
CONST	ENDS
;	COMDAT ??_C@_0BJ@HCOBDBIG@Fonts?1Roboto?9Regular?4ttf@
CONST	SEGMENT
??_C@_0BJ@HCOBDBIG@Fonts?1Roboto?9Regular?4ttf@ DB 'Fonts/Roboto-Regular.'
	DB	'ttf', 00H					; `string'
CONST	ENDS
;	COMDAT ??_C@_06JNNJGBCL@1?490?45@
CONST	SEGMENT
??_C@_06JNNJGBCL@1?490?45@ DB '1.90.5', 00H		; `string'
CONST	ENDS
;	COMDAT ??_C@_0O@NHGDCGCA@Version?3?5?5?$CFs?6@
CONST	SEGMENT
??_C@_0O@NHGDCGCA@Version?3?5?5?$CFs?6@ DB 'Version:  %s', 0aH, 00H ; `string'
CONST	ENDS
;	COMDAT ??_C@_0O@IPGAJLBD@Renderer?3?5?$CFs?6@
CONST	SEGMENT
??_C@_0O@IPGAJLBD@Renderer?3?5?$CFs?6@ DB 'Renderer: %s', 0aH, 00H ; `string'
CONST	ENDS
;	COMDAT ??_C@_0O@BLOPLMMI@Vendor?3?5?5?5?$CFs?6@
CONST	SEGMENT
??_C@_0O@BLOPLMMI@Vendor?3?5?5?5?$CFs?6@ DB 'Vendor:   %s', 0aH, 00H ; `string'
CONST	ENDS
;	COMDAT ??_C@_0P@JLOCEAMK@OpenGL?5loaded?6@
CONST	SEGMENT
??_C@_0P@JLOCEAMK@OpenGL?5loaded?6@ DB 'OpenGL loaded', 0aH, 00H ; `string'
CONST	ENDS
;	COMDAT ??_C@_0BP@BFEIMJMJ@Error?3?5SDL_CreateWindow?$CI?$CJ?3?5?$CFs?6@
CONST	SEGMENT
??_C@_0BP@BFEIMJMJ@Error?3?5SDL_CreateWindow?$CI?$CJ?3?5?$CFs?6@ DB 'Erro'
	DB	'r: SDL_CreateWindow(): %s', 0aH, 00H	; `string'
CONST	ENDS
;	COMDAT ??_C@_0N@DDOGMLBE@Photo?5Studio@
CONST	SEGMENT
??_C@_0N@DDOGMLBE@Photo?5Studio@ DB 'Photo Studio', 00H	; `string'
CONST	ENDS
;	COMDAT ??_C@_0BA@JCFIKKMK@SDL_IME_SHOW_UI@
CONST	SEGMENT
??_C@_0BA@JCFIKKMK@SDL_IME_SHOW_UI@ DB 'SDL_IME_SHOW_UI', 00H ; `string'
CONST	ENDS
;	COMDAT ??_C@_01HIHLOKLC@1@
CONST	SEGMENT
??_C@_01HIHLOKLC@1@ DB '1', 00H				; `string'
CONST	ENDS
;	COMDAT ??_C@_0L@DCCGFMBN@Error?3?5?$CFs?6@
CONST	SEGMENT
??_C@_0L@DCCGFMBN@Error?3?5?$CFs?6@ DB 'Error: %s', 0aH, 00H ; `string'
CONST	ENDS
;	COMDAT ??_C@_0P@CEJPOEEF@Example?5Canvas@
CONST	SEGMENT
??_C@_0P@CEJPOEEF@Example?5Canvas@ DB 'Example Canvas', 00H ; `string'
PUBLIC	??$_Emplace_back@V?$shared_ptr@VCanvas@@@std@@@?$_Uninitialized_backout_al@V?$allocator@V?$shared_ptr@VCanvas@@@std@@@std@@@std@@QEAAX$$QEAV?$shared_ptr@VCanvas@@@1@@Z ; std::_Uninitialized_backout_al<std::allocator<std::shared_ptr<Canvas> > >::_Emplace_back<std::shared_ptr<Canvas> >
PUBLIC	??$_Voidify_iter@PEAV?$shared_ptr@VCanvas@@@std@@@std@@YAPEAXPEAV?$shared_ptr@VCanvas@@@0@@Z ; std::_Voidify_iter<std::shared_ptr<Canvas> *>
PUBLIC	??$construct_at@V?$shared_ptr@VCanvas@@@std@@V12@$0A@@std@@YAPEAV?$shared_ptr@VCanvas@@@0@QEAV10@$$QEAV10@@Z ; std::construct_at<std::shared_ptr<Canvas>,std::shared_ptr<Canvas>,0>
PUBLIC	??$addressof@V?$shared_ptr@VCanvas@@@std@@@std@@YAPEAV?$shared_ptr@VCanvas@@@0@AEAV10@@Z ; std::addressof<std::shared_ptr<Canvas> >
PUBLIC	??$construct_at@VCanvas@@AEAVTools@@V?$basic_string@DU?$char_traits@D@std@@V?$allocator@D@2@@std@@U?$vec@$01M$0A@@glm@@_K$0A@@std@@YAPEAVCanvas@@QEAV1@AEAVTools@@$$QEAV?$basic_string@DU?$char_traits@D@std@@V?$allocator@D@2@@0@$$QEAU?$vec@$01M$0A@@glm@@$$QEA_K@Z ; std::construct_at<Canvas,Tools &,std::basic_string<char,std::char_traits<char>,std::allocator<char> >,glm::vec<2,float,0>,unsigned __int64,0>
PUBLIC	??$_Voidify_iter@PEAVCanvas@@@std@@YAPEAXPEAVCanvas@@@Z ; std::_Voidify_iter<Canvas *>
PUBLIC	??$construct_at@VCanvas@@AEAVTools@@AEAY0P@$$CBDU?$vec@$01M$0A@@glm@@_K$0A@@std@@YAPEAVCanvas@@QEAV1@AEAVTools@@AEAY0P@$$CBD$$QEAU?$vec@$01M$0A@@glm@@$$QEA_K@Z ; std::construct_at<Canvas,Tools &,char const (&)[15],glm::vec<2,float,0>,unsigned __int64,0>
PUBLIC	??0?$_Uninitialized_backout_al@V?$allocator@V?$shared_ptr@VCanvas@@@std@@@std@@@std@@QEAA@PEAV?$shared_ptr@VCanvas@@@1@AEAV?$allocator@V?$shared_ptr@VCanvas@@@std@@@1@@Z ; std::_Uninitialized_backout_al<std::allocator<std::shared_ptr<Canvas> > >::_Uninitialized_backout_al<std::allocator<std::shared_ptr<Canvas> > >
PUBLIC	??1?$_Uninitialized_backout_al@V?$allocator@V?$shared_ptr@VCanvas@@@std@@@std@@@std@@QEAA@XZ ; std::_Uninitialized_backout_al<std::allocator<std::shared_ptr<Canvas> > >::~_Uninitialized_backout_al<std::allocator<std::shared_ptr<Canvas> > >
PUBLIC	?_Release@?$_Uninitialized_backout_al@V?$allocator@V?$shared_ptr@VCanvas@@@std@@@std@@@std@@QEAAPEAV?$shared_ptr@VCanvas@@@2@XZ ; std::_Uninitialized_backout_al<std::allocator<std::shared_ptr<Canvas> > >::_Release
PUBLIC	??_G?$shared_ptr@VCanvas@@@std@@QEAAPEAXI@Z	; std::shared_ptr<Canvas>::`scalar deleting destructor'
PUBLIC	?__autoclassinit2@?$_Uninitialized_backout_al@V?$allocator@V?$shared_ptr@VCanvas@@@std@@@std@@@std@@QEAAX_K@Z ; std::_Uninitialized_backout_al<std::allocator<std::shared_ptr<Canvas> > >::__autoclassinit2
PUBLIC	??$destroy_at@V?$shared_ptr@VCanvas@@@std@@@std@@YAXQEAV?$shared_ptr@VCanvas@@@0@@Z ; std::destroy_at<std::shared_ptr<Canvas> >
PUBLIC	??$_Uninitialized_move@PEAV?$shared_ptr@VCanvas@@@std@@V?$allocator@V?$shared_ptr@VCanvas@@@std@@@2@@std@@YAPEAV?$shared_ptr@VCanvas@@@0@QEAV10@0PEAV10@AEAV?$allocator@V?$shared_ptr@VCanvas@@@std@@@0@@Z ; std::_Uninitialized_move<std::shared_ptr<Canvas> *,std::allocator<std::shared_ptr<Canvas> > >
PUBLIC	??$_Get_unwrapped@AEBQEAV?$shared_ptr@VCanvas@@@std@@@std@@YA?A_TAEBQEAV?$shared_ptr@VCanvas@@@0@@Z ; std::_Get_unwrapped<std::shared_ptr<Canvas> * const &>
PUBLIC	??$construct@V?$shared_ptr@VCanvas@@@std@@V12@@?$_Default_allocator_traits@V?$allocator@V?$shared_ptr@VCanvas@@@std@@@std@@@std@@SAXAEAV?$allocator@V?$shared_ptr@VCanvas@@@std@@@1@QEAV?$shared_ptr@VCanvas@@@1@$$QEAV31@@Z ; std::_Default_allocator_traits<std::allocator<std::shared_ptr<Canvas> > >::construct<std::shared_ptr<Canvas>,std::shared_ptr<Canvas> >
PUBLIC	??$_Construct_in_place@V?$shared_ptr@VCanvas@@@std@@V12@@std@@YAXAEAV?$shared_ptr@VCanvas@@@0@$$QEAV10@@Z ; std::_Construct_in_place<std::shared_ptr<Canvas>,std::shared_ptr<Canvas> >
PUBLIC	??$_Construct_in_place@VCanvas@@AEAVTools@@V?$basic_string@DU?$char_traits@D@std@@V?$allocator@D@2@@std@@U?$vec@$01M$0A@@glm@@_K@std@@YAXAEAVCanvas@@AEAVTools@@$$QEAV?$basic_string@DU?$char_traits@D@std@@V?$allocator@D@2@@0@$$QEAU?$vec@$01M$0A@@glm@@$$QEA_K@Z ; std::_Construct_in_place<Canvas,Tools &,std::basic_string<char,std::char_traits<char>,std::allocator<char> >,glm::vec<2,float,0>,unsigned __int64>
PUBLIC	??$_Construct_in_place@VCanvas@@AEAVTools@@AEAY0P@$$CBDU?$vec@$01M$0A@@glm@@_K@std@@YAXAEAVCanvas@@AEAVTools@@AEAY0P@$$CBD$$QEAU?$vec@$01M$0A@@glm@@$$QEA_K@Z ; std::_Construct_in_place<Canvas,Tools &,char const (&)[15],glm::vec<2,float,0>,unsigned __int64>
PUBLIC	?_Get_first@?$_Compressed_pair@V?$allocator@V?$shared_ptr@VCanvas@@@std@@@std@@V?$_Vector_val@U?$_Simple_types@V?$shared_ptr@VCanvas@@@std@@@std@@@2@$00@std@@QEBAAEBV?$allocator@V?$shared_ptr@VCanvas@@@std@@@2@XZ ; std::_Compressed_pair<std::allocator<std::shared_ptr<Canvas> >,std::_Vector_val<std::_Simple_types<std::shared_ptr<Canvas> > >,1>::_Get_first
PUBLIC	?max_size@?$_Default_allocator_traits@V?$allocator@V?$shared_ptr@VCanvas@@@std@@@std@@@std@@SA_KAEBV?$allocator@V?$shared_ptr@VCanvas@@@std@@@2@@Z ; std::_Default_allocator_traits<std::allocator<std::shared_ptr<Canvas> > >::max_size
PUBLIC	?capacity@?$vector@V?$shared_ptr@VCanvas@@@std@@V?$allocator@V?$shared_ptr@VCanvas@@@std@@@2@@std@@QEBA_KXZ ; std::vector<std::shared_ptr<Canvas>,std::allocator<std::shared_ptr<Canvas> > >::capacity
PUBLIC	?_Getal@?$vector@V?$shared_ptr@VCanvas@@@std@@V?$allocator@V?$shared_ptr@VCanvas@@@std@@@2@@std@@AEBAAEBV?$allocator@V?$shared_ptr@VCanvas@@@std@@@2@XZ ; std::vector<std::shared_ptr<Canvas>,std::allocator<std::shared_ptr<Canvas> > >::_Getal
PUBLIC	?allocate@?$allocator@V?$shared_ptr@VCanvas@@@std@@@std@@QEAAPEAV?$shared_ptr@VCanvas@@@2@_K@Z ; std::allocator<std::shared_ptr<Canvas> >::allocate
PUBLIC	?max_size@?$vector@V?$shared_ptr@VCanvas@@@std@@V?$allocator@V?$shared_ptr@VCanvas@@@std@@@2@@std@@QEBA_KXZ ; std::vector<std::shared_ptr<Canvas>,std::allocator<std::shared_ptr<Canvas> > >::max_size
PUBLIC	?_Calculate_growth@?$vector@V?$shared_ptr@VCanvas@@@std@@V?$allocator@V?$shared_ptr@VCanvas@@@std@@@2@@std@@AEBA_K_K@Z ; std::vector<std::shared_ptr<Canvas>,std::allocator<std::shared_ptr<Canvas> > >::_Calculate_growth
PUBLIC	?_Change_array@?$vector@V?$shared_ptr@VCanvas@@@std@@V?$allocator@V?$shared_ptr@VCanvas@@@std@@@2@@std@@AEAAXQEAV?$shared_ptr@VCanvas@@@2@_K1@Z ; std::vector<std::shared_ptr<Canvas>,std::allocator<std::shared_ptr<Canvas> > >::_Change_array
PUBLIC	?_Xlength@?$vector@V?$shared_ptr@VCanvas@@@std@@V?$allocator@V?$shared_ptr@VCanvas@@@std@@@2@@std@@CAXXZ ; std::vector<std::shared_ptr<Canvas>,std::allocator<std::shared_ptr<Canvas> > >::_Xlength
PUBLIC	?_Orphan_range@?$vector@V?$shared_ptr@VCanvas@@@std@@V?$allocator@V?$shared_ptr@VCanvas@@@std@@@2@@std@@AEBAXPEAV?$shared_ptr@VCanvas@@@2@0@Z ; std::vector<std::shared_ptr<Canvas>,std::allocator<std::shared_ptr<Canvas> > >::_Orphan_range
PUBLIC	??_GCanvas@@QEAAPEAXI@Z				; Canvas::`scalar deleting destructor'
PUBLIC	??$_Move_construct_from@VCanvas@@@?$_Ptr_base@VCanvas@@@std@@IEAAX$$QEAV01@@Z ; std::_Ptr_base<Canvas>::_Move_construct_from<Canvas>
PUBLIC	??$_Destroy_in_place@VCanvas@@@std@@YAXAEAVCanvas@@@Z ; std::_Destroy_in_place<Canvas>
PUBLIC	??$destroy@V?$shared_ptr@VCanvas@@@std@@@?$_Default_allocator_traits@V?$allocator@V?$shared_ptr@VCanvas@@@std@@@std@@@std@@SAXAEAV?$allocator@V?$shared_ptr@VCanvas@@@std@@@1@QEAV?$shared_ptr@VCanvas@@@1@@Z ; std::_Default_allocator_traits<std::allocator<std::shared_ptr<Canvas> > >::destroy<std::shared_ptr<Canvas> >
PUBLIC	??$_Unfancy@V?$shared_ptr@VCanvas@@@std@@@std@@YAPEAV?$shared_ptr@VCanvas@@@0@PEAV10@@Z ; std::_Unfancy<std::shared_ptr<Canvas> >
PUBLIC	??$_Emplace_reallocate@V?$shared_ptr@VCanvas@@@std@@@?$vector@V?$shared_ptr@VCanvas@@@std@@V?$allocator@V?$shared_ptr@VCanvas@@@std@@@2@@std@@AEAAPEAV?$shared_ptr@VCanvas@@@1@QEAV21@$$QEAV21@@Z ; std::vector<std::shared_ptr<Canvas>,std::allocator<std::shared_ptr<Canvas> > >::_Emplace_reallocate<std::shared_ptr<Canvas> >
PUBLIC	??$_Emplace_back_with_unused_capacity@V?$shared_ptr@VCanvas@@@std@@@?$vector@V?$shared_ptr@VCanvas@@@std@@V?$allocator@V?$shared_ptr@VCanvas@@@std@@@2@@std@@AEAAAEAV?$shared_ptr@VCanvas@@@1@$$QEAV21@@Z ; std::vector<std::shared_ptr<Canvas>,std::allocator<std::shared_ptr<Canvas> > >::_Emplace_back_with_unused_capacity<std::shared_ptr<Canvas> >
PUBLIC	??$forward@V?$shared_ptr@VCanvas@@@std@@@std@@YA$$QEAV?$shared_ptr@VCanvas@@@0@AEAV10@@Z ; std::forward<std::shared_ptr<Canvas> >
PUBLIC	??$?0AEAVTools@@V?$basic_string@DU?$char_traits@D@std@@V?$allocator@D@2@@std@@U?$vec@$01M$0A@@glm@@_K@?$_Ref_count_obj2@VCanvas@@@std@@QEAA@AEAVTools@@$$QEAV?$basic_string@DU?$char_traits@D@std@@V?$allocator@D@2@@1@$$QEAU?$vec@$01M$0A@@glm@@$$QEA_K@Z ; std::_Ref_count_obj2<Canvas>::_Ref_count_obj2<Canvas><Tools &,std::basic_string<char,std::char_traits<char>,std::allocator<char> >,glm::vec<2,float,0>,unsigned __int64>
PUBLIC	??$forward@V?$basic_string@DU?$char_traits@D@std@@V?$allocator@D@2@@std@@@std@@YA$$QEAV?$basic_string@DU?$char_traits@D@std@@V?$allocator@D@2@@0@AEAV10@@Z ; std::forward<std::basic_string<char,std::char_traits<char>,std::allocator<char> > >
PUBLIC	??$_Set_ptr_rep_and_enable_shared@VCanvas@@@?$shared_ptr@VCanvas@@@std@@AEAAXQEAVCanvas@@QEAV_Ref_count_base@1@@Z ; std::shared_ptr<Canvas>::_Set_ptr_rep_and_enable_shared<Canvas>
PUBLIC	??$addressof@VCanvas@@@std@@YAPEAVCanvas@@AEAV1@@Z ; std::addressof<Canvas>
PUBLIC	??$?0AEAVTools@@AEAY0P@$$CBDU?$vec@$01M$0A@@glm@@_K@?$_Ref_count_obj2@VCanvas@@@std@@QEAA@AEAVTools@@AEAY0P@$$CBD$$QEAU?$vec@$01M$0A@@glm@@$$QEA_K@Z ; std::_Ref_count_obj2<Canvas>::_Ref_count_obj2<Canvas><Tools &,char const (&)[15],glm::vec<2,float,0>,unsigned __int64>
PUBLIC	??$forward@U?$vec@$01M$0A@@glm@@@std@@YA$$QEAU?$vec@$01M$0A@@glm@@AEAU12@@Z ; std::forward<glm::vec<2,float,0> >
PUBLIC	??$forward@AEAY0P@$$CBD@std@@YAAEAY0P@$$CBDAEAY0P@$$CBD@Z ; std::forward<char const (&)[15]>
PUBLIC	??$forward@AEAVTools@@@std@@YAAEAVTools@@AEAV1@@Z ; std::forward<Tools &>
PUBLIC	??_G?$_Ref_count_obj2@VCanvas@@@std@@UEAAPEAXI@Z ; std::_Ref_count_obj2<Canvas>::`scalar deleting destructor'
PUBLIC	??0?$allocator@V?$shared_ptr@VCanvas@@@std@@@std@@QEAA@XZ ; std::allocator<std::shared_ptr<Canvas> >::allocator<std::shared_ptr<Canvas> >
PUBLIC	??0?$_Vector_val@U?$_Simple_types@V?$shared_ptr@VCanvas@@@std@@@std@@@std@@QEAA@XZ ; std::_Vector_val<std::_Simple_types<std::shared_ptr<Canvas> > >::_Vector_val<std::_Simple_types<std::shared_ptr<Canvas> > >
PUBLIC	?get@?$_Ptr_base@VCanvas@@@std@@IEBAPEAVCanvas@@XZ ; std::_Ptr_base<Canvas>::get
PUBLIC	??0?$shared_ptr@VCanvas@@@std@@QEAA@$$QEAV01@@Z	; std::shared_ptr<Canvas>::shared_ptr<Canvas>
PUBLIC	??1?$_Ref_count_obj2@VCanvas@@@std@@UEAA@XZ	; std::_Ref_count_obj2<Canvas>::~_Ref_count_obj2<Canvas>
PUBLIC	?_Destroy@?$_Ref_count_obj2@VCanvas@@@std@@EEAAXXZ ; std::_Ref_count_obj2<Canvas>::_Destroy
PUBLIC	?_Delete_this@?$_Ref_count_obj2@VCanvas@@@std@@EEAAXXZ ; std::_Ref_count_obj2<Canvas>::_Delete_this
PUBLIC	??0?$_Ptr_base@VCanvas@@@std@@IEAA@XZ		; std::_Ptr_base<Canvas>::_Ptr_base<Canvas>
PUBLIC	??0?$shared_ptr@VCanvas@@@std@@QEAA@XZ		; std::shared_ptr<Canvas>::shared_ptr<Canvas>
PUBLIC	??$_Destroy_range@V?$allocator@V?$shared_ptr@VCanvas@@@std@@@std@@@std@@YAXPEAV?$shared_ptr@VCanvas@@@0@QEAV10@AEAV?$allocator@V?$shared_ptr@VCanvas@@@std@@@0@@Z ; std::_Destroy_range<std::allocator<std::shared_ptr<Canvas> > >
PUBLIC	??$?0$$V@?$_Compressed_pair@V?$allocator@V?$shared_ptr@VCanvas@@@std@@@std@@V?$_Vector_val@U?$_Simple_types@V?$shared_ptr@VCanvas@@@std@@@std@@@2@$00@std@@QEAA@U_Zero_then_variadic_args_t@1@@Z ; std::_Compressed_pair<std::allocator<std::shared_ptr<Canvas> >,std::_Vector_val<std::_Simple_types<std::shared_ptr<Canvas> > >,1>::_Compressed_pair<std::allocator<std::shared_ptr<Canvas> >,std::_Vector_val<std::_Simple_types<std::shared_ptr<Canvas> > >,1><>
PUBLIC	??$_Emplace_one_at_back@V?$shared_ptr@VCanvas@@@std@@@?$vector@V?$shared_ptr@VCanvas@@@std@@V?$allocator@V?$shared_ptr@VCanvas@@@std@@@2@@std@@AEAAAEAV?$shared_ptr@VCanvas@@@1@$$QEAV21@@Z ; std::vector<std::shared_ptr<Canvas>,std::allocator<std::shared_ptr<Canvas> > >::_Emplace_one_at_back<std::shared_ptr<Canvas> >
PUBLIC	??$make_shared@VCanvas@@AEAVTools@@V?$basic_string@DU?$char_traits@D@std@@V?$allocator@D@2@@std@@U?$vec@$01M$0A@@glm@@_K@std@@YA?AV?$shared_ptr@VCanvas@@@0@AEAVTools@@$$QEAV?$basic_string@DU?$char_traits@D@std@@V?$allocator@D@2@@0@$$QEAU?$vec@$01M$0A@@glm@@$$QEA_K@Z ; std::make_shared<Canvas,Tools &,std::basic_string<char,std::char_traits<char>,std::allocator<char> >,glm::vec<2,float,0>,unsigned __int64>
PUBLIC	??$?CVCanvas@@$0A@@?$shared_ptr@VCanvas@@@std@@QEBAPEAVCanvas@@XZ ; std::shared_ptr<Canvas>::operator-><Canvas,0>
PUBLIC	??$move@AEAV?$shared_ptr@VCanvas@@@std@@@std@@YA$$QEAV?$shared_ptr@VCanvas@@@0@AEAV10@@Z ; std::move<std::shared_ptr<Canvas> &>
PUBLIC	??$make_shared@VCanvas@@AEAVTools@@AEAY0P@$$CBDU?$vec@$01M$0A@@glm@@_K@std@@YA?AV?$shared_ptr@VCanvas@@@0@AEAVTools@@AEAY0P@$$CBD$$QEAU?$vec@$01M$0A@@glm@@$$QEA_K@Z ; std::make_shared<Canvas,Tools &,char const (&)[15],glm::vec<2,float,0>,unsigned __int64>
PUBLIC	?_Get_first@?$_Compressed_pair@V?$allocator@V?$shared_ptr@VCanvas@@@std@@@std@@V?$_Vector_val@U?$_Simple_types@V?$shared_ptr@VCanvas@@@std@@@std@@@2@$00@std@@QEAAAEAV?$allocator@V?$shared_ptr@VCanvas@@@std@@@2@XZ ; std::_Compressed_pair<std::allocator<std::shared_ptr<Canvas> >,std::_Vector_val<std::_Simple_types<std::shared_ptr<Canvas> > >,1>::_Get_first
PUBLIC	?deallocate@?$allocator@V?$shared_ptr@VCanvas@@@std@@@std@@QEAAXQEAV?$shared_ptr@VCanvas@@@2@_K@Z ; std::allocator<std::shared_ptr<Canvas> >::deallocate
PUBLIC	?_Getal@?$vector@V?$shared_ptr@VCanvas@@@std@@V?$allocator@V?$shared_ptr@VCanvas@@@std@@@2@@std@@AEAAAEAV?$allocator@V?$shared_ptr@VCanvas@@@std@@@2@XZ ; std::vector<std::shared_ptr<Canvas>,std::allocator<std::shared_ptr<Canvas> > >::_Getal
PUBLIC	?_Tidy@?$vector@V?$shared_ptr@VCanvas@@@std@@V?$allocator@V?$shared_ptr@VCanvas@@@std@@@2@@std@@AEAAXXZ ; std::vector<std::shared_ptr<Canvas>,std::allocator<std::shared_ptr<Canvas> > >::_Tidy
PUBLIC	?_Xrange@?$vector@V?$shared_ptr@VCanvas@@@std@@V?$allocator@V?$shared_ptr@VCanvas@@@std@@@2@@std@@CAXXZ ; std::vector<std::shared_ptr<Canvas>,std::allocator<std::shared_ptr<Canvas> > >::_Xrange
PUBLIC	?_Decref@?$_Ptr_base@VCanvas@@@std@@IEAAXXZ	; std::_Ptr_base<Canvas>::_Decref
PUBLIC	??0?$vector@V?$shared_ptr@VCanvas@@@std@@V?$allocator@V?$shared_ptr@VCanvas@@@std@@@2@@std@@QEAA@XZ ; std::vector<std::shared_ptr<Canvas>,std::allocator<std::shared_ptr<Canvas> > >::vector<std::shared_ptr<Canvas>,std::allocator<std::shared_ptr<Canvas> > >
PUBLIC	??1?$vector@V?$shared_ptr@VCanvas@@@std@@V?$allocator@V?$shared_ptr@VCanvas@@@std@@@2@@std@@QEAA@XZ ; std::vector<std::shared_ptr<Canvas>,std::allocator<std::shared_ptr<Canvas> > >::~vector<std::shared_ptr<Canvas>,std::allocator<std::shared_ptr<Canvas> > >
PUBLIC	?push_back@?$vector@V?$shared_ptr@VCanvas@@@std@@V?$allocator@V?$shared_ptr@VCanvas@@@std@@@2@@std@@QEAAX$$QEAV?$shared_ptr@VCanvas@@@2@@Z ; std::vector<std::shared_ptr<Canvas>,std::allocator<std::shared_ptr<Canvas> > >::push_back
PUBLIC	?size@?$vector@V?$shared_ptr@VCanvas@@@std@@V?$allocator@V?$shared_ptr@VCanvas@@@std@@@2@@std@@QEBA_KXZ ; std::vector<std::shared_ptr<Canvas>,std::allocator<std::shared_ptr<Canvas> > >::size
PUBLIC	??A?$vector@V?$shared_ptr@VCanvas@@@std@@V?$allocator@V?$shared_ptr@VCanvas@@@std@@@2@@std@@QEAAAEAV?$shared_ptr@VCanvas@@@1@_K@Z ; std::vector<std::shared_ptr<Canvas>,std::allocator<std::shared_ptr<Canvas> > >::operator[]
PUBLIC	?at@?$vector@V?$shared_ptr@VCanvas@@@std@@V?$allocator@V?$shared_ptr@VCanvas@@@std@@@2@@std@@QEAAAEAV?$shared_ptr@VCanvas@@@2@_K@Z ; std::vector<std::shared_ptr<Canvas>,std::allocator<std::shared_ptr<Canvas> > >::at
PUBLIC	??1?$shared_ptr@VCanvas@@@std@@QEAA@XZ		; std::shared_ptr<Canvas>::~shared_ptr<Canvas>
PUBLIC	?Cleanup@Application@@AEAAXXZ			; Application::Cleanup
PUBLIC	?DrawTitleBar@Application@@AEAAXXZ		; Application::DrawTitleBar
PUBLIC	?RenderUI@Application@@QEAAXXZ			; Application::RenderUI
PUBLIC	?Render@Application@@AEAAXXZ			; Application::Render
PUBLIC	?Run@Application@@QEAAXXZ			; Application::Run
PUBLIC	?InitImGui@Application@@AEAAXXZ			; Application::InitImGui
PUBLIC	?InitGL@Application@@SAXXZ			; Application::InitGL
PUBLIC	?UpdateWindow@Application@@AEAAXXZ		; Application::UpdateWindow
PUBLIC	??1Application@@QEAA@XZ				; Application::~Application
PUBLIC	?__autoclassinit2@?$shared_ptr@VCanvas@@@std@@QEAAX_K@Z ; std::shared_ptr<Canvas>::__autoclassinit2
PUBLIC	??1Tools@@QEAA@XZ				; Tools::~Tools
PUBLIC	??0Application@@QEAA@XZ				; Application::Application
PUBLIC	?RedrawWindow@@YAHPEAXPEATSDL_Event@@@Z		; RedrawWindow
PUBLIC	printf
PUBLIC	_vfprintf_l
PUBLIC	__local_stdio_printf_options
EXTRN	??_E?$_Ref_count_obj2@VCanvas@@@std@@UEAAPEAXI@Z:PROC ; std::_Ref_count_obj2<Canvas>::`vector deleting destructor'
;	COMDAT pdata
pdata	SEGMENT
$pdata$??$construct_at@VCanvas@@AEAVTools@@V?$basic_string@DU?$char_traits@D@std@@V?$allocator@D@2@@std@@U?$vec@$01M$0A@@glm@@_K$0A@@std@@YAPEAVCanvas@@QEAV1@AEAVTools@@$$QEAV?$basic_string@DU?$char_traits@D@std@@V?$allocator@D@2@@0@$$QEAU?$vec@$01M$0A@@glm@@$$QEA_K@Z DD imagerel $LN42@construct_
	DD	imagerel $LN42@construct_+77
	DD	imagerel $unwind$??$construct_at@VCanvas@@AEAVTools@@V?$basic_string@DU?$char_traits@D@std@@V?$allocator@D@2@@std@@U?$vec@$01M$0A@@glm@@_K$0A@@std@@YAPEAVCanvas@@QEAV1@AEAVTools@@$$QEAV?$basic_string@DU?$char_traits@D@std@@V?$allocator@D@2@@0@$$QEAU?$vec@$01M$0A@@glm@@$$QEA_K@Z
pdata	ENDS
;	COMDAT pdata
pdata	SEGMENT
$pdata$??$construct_at@VCanvas@@AEAVTools@@AEAY0P@$$CBDU?$vec@$01M$0A@@glm@@_K$0A@@std@@YAPEAVCanvas@@QEAV1@AEAVTools@@AEAY0P@$$CBD$$QEAU?$vec@$01M$0A@@glm@@$$QEA_K@Z DD imagerel $LN6@construct_
	DD	imagerel $LN6@construct_+98
	DD	imagerel $unwind$??$construct_at@VCanvas@@AEAVTools@@AEAY0P@$$CBDU?$vec@$01M$0A@@glm@@_K$0A@@std@@YAPEAVCanvas@@QEAV1@AEAVTools@@AEAY0P@$$CBD$$QEAU?$vec@$01M$0A@@glm@@$$QEA_K@Z
pdata	ENDS
;	COMDAT pdata
pdata	SEGMENT
$pdata$??_G?$shared_ptr@VCanvas@@@std@@QEAAPEAXI@Z DD imagerel $LN24@scalar
	DD	imagerel $LN24@scalar+22
	DD	imagerel $unwind$??_G?$shared_ptr@VCanvas@@@std@@QEAAPEAXI@Z
pdata	ENDS
;	COMDAT pdata
pdata	SEGMENT
$pdata$0$??_G?$shared_ptr@VCanvas@@@std@@QEAAPEAXI@Z DD imagerel $LN24@scalar+22
	DD	imagerel $LN24@scalar+90
	DD	imagerel $chain$0$??_G?$shared_ptr@VCanvas@@@std@@QEAAPEAXI@Z
pdata	ENDS
;	COMDAT pdata
pdata	SEGMENT
$pdata$1$??_G?$shared_ptr@VCanvas@@@std@@QEAAPEAXI@Z DD imagerel $LN24@scalar+90
	DD	imagerel $LN24@scalar+104
	DD	imagerel $chain$1$??_G?$shared_ptr@VCanvas@@@std@@QEAAPEAXI@Z
pdata	ENDS
;	COMDAT pdata
pdata	SEGMENT
$pdata$??$destroy_at@V?$shared_ptr@VCanvas@@@std@@@std@@YAXQEAV?$shared_ptr@VCanvas@@@0@@Z DD imagerel $LN23@destroy_at
	DD	imagerel $LN23@destroy_at+15
	DD	imagerel $unwind$??$destroy_at@V?$shared_ptr@VCanvas@@@std@@@std@@YAXQEAV?$shared_ptr@VCanvas@@@0@@Z
pdata	ENDS
;	COMDAT pdata
pdata	SEGMENT
$pdata$0$??$destroy_at@V?$shared_ptr@VCanvas@@@std@@@std@@YAXQEAV?$shared_ptr@VCanvas@@@0@@Z DD imagerel $LN23@destroy_at+15
	DD	imagerel $LN23@destroy_at+69
	DD	imagerel $chain$0$??$destroy_at@V?$shared_ptr@VCanvas@@@std@@@std@@YAXQEAV?$shared_ptr@VCanvas@@@0@@Z
pdata	ENDS
;	COMDAT pdata
pdata	SEGMENT
$pdata$1$??$destroy_at@V?$shared_ptr@VCanvas@@@std@@@std@@YAXQEAV?$shared_ptr@VCanvas@@@0@@Z DD imagerel $LN23@destroy_at+69
	DD	imagerel $LN23@destroy_at+75
	DD	imagerel $chain$1$??$destroy_at@V?$shared_ptr@VCanvas@@@std@@@std@@YAXQEAV?$shared_ptr@VCanvas@@@0@@Z
pdata	ENDS
;	COMDAT pdata
pdata	SEGMENT
$pdata$??$_Uninitialized_move@PEAV?$shared_ptr@VCanvas@@@std@@V?$allocator@V?$shared_ptr@VCanvas@@@std@@@2@@std@@YAPEAV?$shared_ptr@VCanvas@@@0@QEAV10@0PEAV10@AEAV?$allocator@V?$shared_ptr@VCanvas@@@std@@@0@@Z DD imagerel $LN41@Uninitiali
	DD	imagerel $LN41@Uninitiali+97
	DD	imagerel $unwind$??$_Uninitialized_move@PEAV?$shared_ptr@VCanvas@@@std@@V?$allocator@V?$shared_ptr@VCanvas@@@std@@@2@@std@@YAPEAV?$shared_ptr@VCanvas@@@0@QEAV10@0PEAV10@AEAV?$allocator@V?$shared_ptr@VCanvas@@@std@@@0@@Z
pdata	ENDS
;	COMDAT pdata
pdata	SEGMENT
$pdata$??$_Construct_in_place@VCanvas@@AEAVTools@@V?$basic_string@DU?$char_traits@D@std@@V?$allocator@D@2@@std@@U?$vec@$01M$0A@@glm@@_K@std@@YAXAEAVCanvas@@AEAVTools@@$$QEAV?$basic_string@DU?$char_traits@D@std@@V?$allocator@D@2@@0@$$QEAU?$vec@$01M$0A@@glm@@$$QEA_K@Z DD imagerel $LN83@Construct_
	DD	imagerel $LN83@Construct_+77
	DD	imagerel $unwind$??$_Construct_in_place@VCanvas@@AEAVTools@@V?$basic_string@DU?$char_traits@D@std@@V?$allocator@D@2@@std@@U?$vec@$01M$0A@@glm@@_K@std@@YAXAEAVCanvas@@AEAVTools@@$$QEAV?$basic_string@DU?$char_traits@D@std@@V?$allocator@D@2@@0@$$QEAU?$vec@$01M$0A@@glm@@$$QEA_K@Z
pdata	ENDS
;	COMDAT pdata
pdata	SEGMENT
$pdata$??$_Construct_in_place@VCanvas@@AEAVTools@@AEAY0P@$$CBDU?$vec@$01M$0A@@glm@@_K@std@@YAXAEAVCanvas@@AEAVTools@@AEAY0P@$$CBD$$QEAU?$vec@$01M$0A@@glm@@$$QEA_K@Z DD imagerel $LN11@Construct_
	DD	imagerel $LN11@Construct_+98
	DD	imagerel $unwind$??$_Construct_in_place@VCanvas@@AEAVTools@@AEAY0P@$$CBDU?$vec@$01M$0A@@glm@@_K@std@@YAXAEAVCanvas@@AEAVTools@@AEAY0P@$$CBD$$QEAU?$vec@$01M$0A@@glm@@$$QEA_K@Z
pdata	ENDS
;	COMDAT pdata
pdata	SEGMENT
$pdata$?allocate@?$allocator@V?$shared_ptr@VCanvas@@@std@@@std@@QEAAPEAV?$shared_ptr@VCanvas@@@2@_K@Z DD imagerel $LN32@allocate
	DD	imagerel $LN32@allocate+108
	DD	imagerel $unwind$?allocate@?$allocator@V?$shared_ptr@VCanvas@@@std@@@std@@QEAAPEAV?$shared_ptr@VCanvas@@@2@_K@Z
pdata	ENDS
;	COMDAT pdata
pdata	SEGMENT
$pdata$?_Change_array@?$vector@V?$shared_ptr@VCanvas@@@std@@V?$allocator@V?$shared_ptr@VCanvas@@@std@@@2@@std@@AEAAXQEAV?$shared_ptr@VCanvas@@@2@_K1@Z DD imagerel $LN30@Change_arr
	DD	imagerel $LN30@Change_arr+154
	DD	imagerel $unwind$?_Change_array@?$vector@V?$shared_ptr@VCanvas@@@std@@V?$allocator@V?$shared_ptr@VCanvas@@@std@@@2@@std@@AEAAXQEAV?$shared_ptr@VCanvas@@@2@_K1@Z
pdata	ENDS
;	COMDAT pdata
pdata	SEGMENT
$pdata$?_Xlength@?$vector@V?$shared_ptr@VCanvas@@@std@@V?$allocator@V?$shared_ptr@VCanvas@@@std@@@2@@std@@CAXXZ DD imagerel $LN4@Xlength
	DD	imagerel $LN4@Xlength+18
	DD	imagerel $unwind$?_Xlength@?$vector@V?$shared_ptr@VCanvas@@@std@@V?$allocator@V?$shared_ptr@VCanvas@@@std@@@2@@std@@CAXXZ
pdata	ENDS
;	COMDAT pdata
pdata	SEGMENT
$pdata$??_GCanvas@@QEAAPEAXI@Z DD imagerel $LN52@scalar
	DD	imagerel $LN52@scalar+173
	DD	imagerel $unwind$??_GCanvas@@QEAAPEAXI@Z
pdata	ENDS
;	COMDAT pdata
pdata	SEGMENT
$pdata$??$_Destroy_in_place@VCanvas@@@std@@YAXAEAVCanvas@@@Z DD imagerel $LN55@Destroy_in
	DD	imagerel $LN55@Destroy_in+169
	DD	imagerel $unwind$??$_Destroy_in_place@VCanvas@@@std@@YAXAEAVCanvas@@@Z
pdata	ENDS
;	COMDAT pdata
pdata	SEGMENT
$pdata$??$destroy@V?$shared_ptr@VCanvas@@@std@@@?$_Default_allocator_traits@V?$allocator@V?$shared_ptr@VCanvas@@@std@@@std@@@std@@SAXAEAV?$allocator@V?$shared_ptr@VCanvas@@@std@@@1@QEAV?$shared_ptr@VCanvas@@@1@@Z DD imagerel $LN25@destroy
	DD	imagerel $LN25@destroy+15
	DD	imagerel $unwind$??$destroy@V?$shared_ptr@VCanvas@@@std@@@?$_Default_allocator_traits@V?$allocator@V?$shared_ptr@VCanvas@@@std@@@std@@@std@@SAXAEAV?$allocator@V?$shared_ptr@VCanvas@@@std@@@1@QEAV?$shared_ptr@VCanvas@@@1@@Z
pdata	ENDS
;	COMDAT pdata
pdata	SEGMENT
$pdata$0$??$destroy@V?$shared_ptr@VCanvas@@@std@@@?$_Default_allocator_traits@V?$allocator@V?$shared_ptr@VCanvas@@@std@@@std@@@std@@SAXAEAV?$allocator@V?$shared_ptr@VCanvas@@@std@@@1@QEAV?$shared_ptr@VCanvas@@@1@@Z DD imagerel $LN25@destroy+15
	DD	imagerel $LN25@destroy+69
	DD	imagerel $chain$0$??$destroy@V?$shared_ptr@VCanvas@@@std@@@?$_Default_allocator_traits@V?$allocator@V?$shared_ptr@VCanvas@@@std@@@std@@@std@@SAXAEAV?$allocator@V?$shared_ptr@VCanvas@@@std@@@1@QEAV?$shared_ptr@VCanvas@@@1@@Z
pdata	ENDS
;	COMDAT pdata
pdata	SEGMENT
$pdata$1$??$destroy@V?$shared_ptr@VCanvas@@@std@@@?$_Default_allocator_traits@V?$allocator@V?$shared_ptr@VCanvas@@@std@@@std@@@std@@SAXAEAV?$allocator@V?$shared_ptr@VCanvas@@@std@@@1@QEAV?$shared_ptr@VCanvas@@@1@@Z DD imagerel $LN25@destroy+69
	DD	imagerel $LN25@destroy+75
	DD	imagerel $chain$1$??$destroy@V?$shared_ptr@VCanvas@@@std@@@?$_Default_allocator_traits@V?$allocator@V?$shared_ptr@VCanvas@@@std@@@std@@@std@@SAXAEAV?$allocator@V?$shared_ptr@VCanvas@@@std@@@1@QEAV?$shared_ptr@VCanvas@@@1@@Z
pdata	ENDS
;	COMDAT pdata
pdata	SEGMENT
$pdata$??$_Emplace_reallocate@V?$shared_ptr@VCanvas@@@std@@@?$vector@V?$shared_ptr@VCanvas@@@std@@V?$allocator@V?$shared_ptr@VCanvas@@@std@@@2@@std@@AEAAPEAV?$shared_ptr@VCanvas@@@1@QEAV21@$$QEAV21@@Z DD imagerel $LN224@Emplace_re
	DD	imagerel $LN224@Emplace_re+66
	DD	imagerel $unwind$??$_Emplace_reallocate@V?$shared_ptr@VCanvas@@@std@@@?$vector@V?$shared_ptr@VCanvas@@@std@@V?$allocator@V?$shared_ptr@VCanvas@@@std@@@2@@std@@AEAAPEAV?$shared_ptr@VCanvas@@@1@QEAV21@$$QEAV21@@Z
pdata	ENDS
;	COMDAT pdata
pdata	SEGMENT
$pdata$3$??$_Emplace_reallocate@V?$shared_ptr@VCanvas@@@std@@@?$vector@V?$shared_ptr@VCanvas@@@std@@V?$allocator@V?$shared_ptr@VCanvas@@@std@@@2@@std@@AEAAPEAV?$shared_ptr@VCanvas@@@1@QEAV21@$$QEAV21@@Z DD imagerel $LN224@Emplace_re+66
	DD	imagerel $LN224@Emplace_re+584
	DD	imagerel $chain$3$??$_Emplace_reallocate@V?$shared_ptr@VCanvas@@@std@@@?$vector@V?$shared_ptr@VCanvas@@@std@@V?$allocator@V?$shared_ptr@VCanvas@@@std@@@2@@std@@AEAAPEAV?$shared_ptr@VCanvas@@@1@QEAV21@$$QEAV21@@Z
pdata	ENDS
;	COMDAT pdata
pdata	SEGMENT
$pdata$5$??$_Emplace_reallocate@V?$shared_ptr@VCanvas@@@std@@@?$vector@V?$shared_ptr@VCanvas@@@std@@V?$allocator@V?$shared_ptr@VCanvas@@@std@@@2@@std@@AEAAPEAV?$shared_ptr@VCanvas@@@1@QEAV21@$$QEAV21@@Z DD imagerel $LN224@Emplace_re+584
	DD	imagerel $LN224@Emplace_re+591
	DD	imagerel $chain$5$??$_Emplace_reallocate@V?$shared_ptr@VCanvas@@@std@@@?$vector@V?$shared_ptr@VCanvas@@@std@@V?$allocator@V?$shared_ptr@VCanvas@@@std@@@2@@std@@AEAAPEAV?$shared_ptr@VCanvas@@@1@QEAV21@$$QEAV21@@Z
pdata	ENDS
;	COMDAT pdata
pdata	SEGMENT
$pdata$6$??$_Emplace_reallocate@V?$shared_ptr@VCanvas@@@std@@@?$vector@V?$shared_ptr@VCanvas@@@std@@V?$allocator@V?$shared_ptr@VCanvas@@@std@@@2@@std@@AEAAPEAV?$shared_ptr@VCanvas@@@1@QEAV21@$$QEAV21@@Z DD imagerel $LN224@Emplace_re+591
	DD	imagerel $LN224@Emplace_re+597
	DD	imagerel $chain$6$??$_Emplace_reallocate@V?$shared_ptr@VCanvas@@@std@@@?$vector@V?$shared_ptr@VCanvas@@@std@@V?$allocator@V?$shared_ptr@VCanvas@@@std@@@2@@std@@AEAAPEAV?$shared_ptr@VCanvas@@@1@QEAV21@$$QEAV21@@Z
pdata	ENDS
;	COMDAT pdata
pdata	SEGMENT
$pdata$7$??$_Emplace_reallocate@V?$shared_ptr@VCanvas@@@std@@@?$vector@V?$shared_ptr@VCanvas@@@std@@V?$allocator@V?$shared_ptr@VCanvas@@@std@@@2@@std@@AEAAPEAV?$shared_ptr@VCanvas@@@1@QEAV21@$$QEAV21@@Z DD imagerel $LN224@Emplace_re+597
	DD	imagerel $LN224@Emplace_re+603
	DD	imagerel $chain$7$??$_Emplace_reallocate@V?$shared_ptr@VCanvas@@@std@@@?$vector@V?$shared_ptr@VCanvas@@@std@@V?$allocator@V?$shared_ptr@VCanvas@@@std@@@2@@std@@AEAAPEAV?$shared_ptr@VCanvas@@@1@QEAV21@$$QEAV21@@Z
pdata	ENDS
;	COMDAT pdata
pdata	SEGMENT
$pdata$??$?0AEAVTools@@V?$basic_string@DU?$char_traits@D@std@@V?$allocator@D@2@@std@@U?$vec@$01M$0A@@glm@@_K@?$_Ref_count_obj2@VCanvas@@@std@@QEAA@AEAVTools@@$$QEAV?$basic_string@DU?$char_traits@D@std@@V?$allocator@D@2@@1@$$QEAU?$vec@$01M$0A@@glm@@$$QEA_K@Z DD imagerel $LN87@Ref_count_
	DD	imagerel $LN87@Ref_count_+114
	DD	imagerel $unwind$??$?0AEAVTools@@V?$basic_string@DU?$char_traits@D@std@@V?$allocator@D@2@@std@@U?$vec@$01M$0A@@glm@@_K@?$_Ref_count_obj2@VCanvas@@@std@@QEAA@AEAVTools@@$$QEAV?$basic_string@DU?$char_traits@D@std@@V?$allocator@D@2@@1@$$QEAU?$vec@$01M$0A@@glm@@$$QEA_K@Z
pdata	ENDS
;	COMDAT pdata
pdata	SEGMENT
$pdata$??$?0AEAVTools@@AEAY0P@$$CBDU?$vec@$01M$0A@@glm@@_K@?$_Ref_count_obj2@VCanvas@@@std@@QEAA@AEAVTools@@AEAY0P@$$CBD$$QEAU?$vec@$01M$0A@@glm@@$$QEA_K@Z DD imagerel $LN15@Ref_count_
	DD	imagerel $LN15@Ref_count_+122
	DD	imagerel $unwind$??$?0AEAVTools@@AEAY0P@$$CBDU?$vec@$01M$0A@@glm@@_K@?$_Ref_count_obj2@VCanvas@@@std@@QEAA@AEAVTools@@AEAY0P@$$CBD$$QEAU?$vec@$01M$0A@@glm@@$$QEA_K@Z
pdata	ENDS
;	COMDAT pdata
pdata	SEGMENT
$pdata$??_G?$_Ref_count_obj2@VCanvas@@@std@@UEAAPEAXI@Z DD imagerel $LN8@scalar
	DD	imagerel $LN8@scalar+43
	DD	imagerel $unwind$??_G?$_Ref_count_obj2@VCanvas@@@std@@UEAAPEAXI@Z
pdata	ENDS
;	COMDAT pdata
pdata	SEGMENT
$pdata$?_Destroy@?$_Ref_count_obj2@VCanvas@@@std@@EEAAXXZ DD imagerel $LN58@Destroy
	DD	imagerel $LN58@Destroy+170
	DD	imagerel $unwind$?_Destroy@?$_Ref_count_obj2@VCanvas@@@std@@EEAAXXZ
pdata	ENDS
;	COMDAT pdata
pdata	SEGMENT
$pdata$??$_Destroy_range@V?$allocator@V?$shared_ptr@VCanvas@@@std@@@std@@@std@@YAXPEAV?$shared_ptr@VCanvas@@@0@QEAV10@AEAV?$allocator@V?$shared_ptr@VCanvas@@@std@@@0@@Z DD imagerel $LN35@Destroy_ra
	DD	imagerel $LN35@Destroy_ra+18
	DD	imagerel $unwind$??$_Destroy_range@V?$allocator@V?$shared_ptr@VCanvas@@@std@@@std@@@std@@YAXPEAV?$shared_ptr@VCanvas@@@0@QEAV10@AEAV?$allocator@V?$shared_ptr@VCanvas@@@std@@@0@@Z
pdata	ENDS
;	COMDAT pdata
pdata	SEGMENT
$pdata$0$??$_Destroy_range@V?$allocator@V?$shared_ptr@VCanvas@@@std@@@std@@@std@@YAXPEAV?$shared_ptr@VCanvas@@@0@QEAV10@AEAV?$allocator@V?$shared_ptr@VCanvas@@@std@@@0@@Z DD imagerel $LN35@Destroy_ra+18
	DD	imagerel $LN35@Destroy_ra+112
	DD	imagerel $chain$0$??$_Destroy_range@V?$allocator@V?$shared_ptr@VCanvas@@@std@@@std@@@std@@YAXPEAV?$shared_ptr@VCanvas@@@0@QEAV10@AEAV?$allocator@V?$shared_ptr@VCanvas@@@std@@@0@@Z
pdata	ENDS
;	COMDAT pdata
pdata	SEGMENT
$pdata$1$??$_Destroy_range@V?$allocator@V?$shared_ptr@VCanvas@@@std@@@std@@@std@@YAXPEAV?$shared_ptr@VCanvas@@@0@QEAV10@AEAV?$allocator@V?$shared_ptr@VCanvas@@@std@@@0@@Z DD imagerel $LN35@Destroy_ra+112
	DD	imagerel $LN35@Destroy_ra+113
	DD	imagerel $chain$1$??$_Destroy_range@V?$allocator@V?$shared_ptr@VCanvas@@@std@@@std@@@std@@YAXPEAV?$shared_ptr@VCanvas@@@0@QEAV10@AEAV?$allocator@V?$shared_ptr@VCanvas@@@std@@@0@@Z
pdata	ENDS
;	COMDAT pdata
pdata	SEGMENT
$pdata$??$make_shared@VCanvas@@AEAVTools@@V?$basic_string@DU?$char_traits@D@std@@V?$allocator@D@2@@std@@U?$vec@$01M$0A@@glm@@_K@std@@YA?AV?$shared_ptr@VCanvas@@@0@AEAVTools@@$$QEAV?$basic_string@DU?$char_traits@D@std@@V?$allocator@D@2@@0@$$QEAU?$vec@$01M$0A@@glm@@$$QEA_K@Z DD imagerel $LN102@make_share
	DD	imagerel $LN102@make_share+217
	DD	imagerel $unwind$??$make_shared@VCanvas@@AEAVTools@@V?$basic_string@DU?$char_traits@D@std@@V?$allocator@D@2@@std@@U?$vec@$01M$0A@@glm@@_K@std@@YA?AV?$shared_ptr@VCanvas@@@0@AEAVTools@@$$QEAV?$basic_string@DU?$char_traits@D@std@@V?$allocator@D@2@@0@$$QEAU?$vec@$01M$0A@@glm@@$$QEA_K@Z
pdata	ENDS
;	COMDAT pdata
pdata	SEGMENT
$pdata$?dtor$0@?0???$make_shared@VCanvas@@AEAVTools@@V?$basic_string@DU?$char_traits@D@std@@V?$allocator@D@2@@std@@U?$vec@$01M$0A@@glm@@_K@std@@YA?AV?$shared_ptr@VCanvas@@@0@AEAVTools@@$$QEAV?$basic_string@DU?$char_traits@D@std@@V?$allocator@D@2@@0@$$QEAU?$vec@$01M$0A@@glm@@$$QEA_K@Z@4HA DD imagerel ?dtor$0@?0???$make_shared@VCanvas@@AEAVTools@@V?$basic_string@DU?$char_traits@D@std@@V?$allocator@D@2@@std@@U?$vec@$01M$0A@@glm@@_K@std@@YA?AV?$shared_ptr@VCanvas@@@0@AEAVTools@@$$QEAV?$basic_string@DU?$char_traits@D@std@@V?$allocator@D@2@@0@$$QEAU?$vec@$01M$0A@@glm@@$$QEA_K@Z@4HA
	DD	imagerel ?dtor$0@?0???$make_shared@VCanvas@@AEAVTools@@V?$basic_string@DU?$char_traits@D@std@@V?$allocator@D@2@@std@@U?$vec@$01M$0A@@glm@@_K@std@@YA?AV?$shared_ptr@VCanvas@@@0@AEAVTools@@$$QEAV?$basic_string@DU?$char_traits@D@std@@V?$allocator@D@2@@0@$$QEAU?$vec@$01M$0A@@glm@@$$QEA_K@Z@4HA+32
	DD	imagerel $unwind$?dtor$0@?0???$make_shared@VCanvas@@AEAVTools@@V?$basic_string@DU?$char_traits@D@std@@V?$allocator@D@2@@std@@U?$vec@$01M$0A@@glm@@_K@std@@YA?AV?$shared_ptr@VCanvas@@@0@AEAVTools@@$$QEAV?$basic_string@DU?$char_traits@D@std@@V?$allocator@D@2@@0@$$QEAU?$vec@$01M$0A@@glm@@$$QEA_K@Z@4HA
pdata	ENDS
;	COMDAT pdata
pdata	SEGMENT
$pdata$??$make_shared@VCanvas@@AEAVTools@@AEAY0P@$$CBDU?$vec@$01M$0A@@glm@@_K@std@@YA?AV?$shared_ptr@VCanvas@@@0@AEAVTools@@AEAY0P@$$CBD$$QEAU?$vec@$01M$0A@@glm@@$$QEA_K@Z DD imagerel $LN30@make_share
	DD	imagerel $LN30@make_share+182
	DD	imagerel $unwind$??$make_shared@VCanvas@@AEAVTools@@AEAY0P@$$CBDU?$vec@$01M$0A@@glm@@_K@std@@YA?AV?$shared_ptr@VCanvas@@@0@AEAVTools@@AEAY0P@$$CBD$$QEAU?$vec@$01M$0A@@glm@@$$QEA_K@Z
pdata	ENDS
;	COMDAT pdata
pdata	SEGMENT
$pdata$?dtor$0@?0???$make_shared@VCanvas@@AEAVTools@@AEAY0P@$$CBDU?$vec@$01M$0A@@glm@@_K@std@@YA?AV?$shared_ptr@VCanvas@@@0@AEAVTools@@AEAY0P@$$CBD$$QEAU?$vec@$01M$0A@@glm@@$$QEA_K@Z@4HA DD imagerel ?dtor$0@?0???$make_shared@VCanvas@@AEAVTools@@AEAY0P@$$CBDU?$vec@$01M$0A@@glm@@_K@std@@YA?AV?$shared_ptr@VCanvas@@@0@AEAVTools@@AEAY0P@$$CBD$$QEAU?$vec@$01M$0A@@glm@@$$QEA_K@Z@4HA
	DD	imagerel ?dtor$0@?0???$make_shared@VCanvas@@AEAVTools@@AEAY0P@$$CBDU?$vec@$01M$0A@@glm@@_K@std@@YA?AV?$shared_ptr@VCanvas@@@0@AEAVTools@@AEAY0P@$$CBD$$QEAU?$vec@$01M$0A@@glm@@$$QEA_K@Z@4HA+32
	DD	imagerel $unwind$?dtor$0@?0???$make_shared@VCanvas@@AEAVTools@@AEAY0P@$$CBDU?$vec@$01M$0A@@glm@@_K@std@@YA?AV?$shared_ptr@VCanvas@@@0@AEAVTools@@AEAY0P@$$CBD$$QEAU?$vec@$01M$0A@@glm@@$$QEA_K@Z@4HA
pdata	ENDS
;	COMDAT pdata
pdata	SEGMENT
$pdata$?deallocate@?$allocator@V?$shared_ptr@VCanvas@@@std@@@std@@QEAAXQEAV?$shared_ptr@VCanvas@@@2@_K@Z DD imagerel $LN23@deallocate
	DD	imagerel $LN23@deallocate+66
	DD	imagerel $unwind$?deallocate@?$allocator@V?$shared_ptr@VCanvas@@@std@@@std@@QEAAXQEAV?$shared_ptr@VCanvas@@@2@_K@Z
pdata	ENDS
;	COMDAT pdata
pdata	SEGMENT
$pdata$?_Tidy@?$vector@V?$shared_ptr@VCanvas@@@std@@V?$allocator@V?$shared_ptr@VCanvas@@@std@@@2@@std@@AEAAXXZ DD imagerel $LN30@Tidy
	DD	imagerel $LN30@Tidy+104
	DD	imagerel $unwind$?_Tidy@?$vector@V?$shared_ptr@VCanvas@@@std@@V?$allocator@V?$shared_ptr@VCanvas@@@std@@@2@@std@@AEAAXXZ
pdata	ENDS
;	COMDAT pdata
pdata	SEGMENT
$pdata$?_Xrange@?$vector@V?$shared_ptr@VCanvas@@@std@@V?$allocator@V?$shared_ptr@VCanvas@@@std@@@2@@std@@CAXXZ DD imagerel $LN4@Xrange
	DD	imagerel $LN4@Xrange+18
	DD	imagerel $unwind$?_Xrange@?$vector@V?$shared_ptr@VCanvas@@@std@@V?$allocator@V?$shared_ptr@VCanvas@@@std@@@2@@std@@CAXXZ
pdata	ENDS
;	COMDAT pdata
pdata	SEGMENT
$pdata$?_Decref@?$_Ptr_base@VCanvas@@@std@@IEAAXXZ DD imagerel $LN16@Decref
	DD	imagerel $LN16@Decref+15
	DD	imagerel $unwind$?_Decref@?$_Ptr_base@VCanvas@@@std@@IEAAXXZ
pdata	ENDS
;	COMDAT pdata
pdata	SEGMENT
$pdata$0$?_Decref@?$_Ptr_base@VCanvas@@@std@@IEAAXXZ DD imagerel $LN16@Decref+15
	DD	imagerel $LN16@Decref+69
	DD	imagerel $chain$0$?_Decref@?$_Ptr_base@VCanvas@@@std@@IEAAXXZ
pdata	ENDS
;	COMDAT pdata
pdata	SEGMENT
$pdata$1$?_Decref@?$_Ptr_base@VCanvas@@@std@@IEAAXXZ DD imagerel $LN16@Decref+69
	DD	imagerel $LN16@Decref+75
	DD	imagerel $chain$1$?_Decref@?$_Ptr_base@VCanvas@@@std@@IEAAXXZ
pdata	ENDS
;	COMDAT pdata
pdata	SEGMENT
$pdata$??1?$vector@V?$shared_ptr@VCanvas@@@std@@V?$allocator@V?$shared_ptr@VCanvas@@@std@@@2@@std@@QEAA@XZ DD imagerel $LN33@vector
	DD	imagerel $LN33@vector+104
	DD	imagerel $unwind$??1?$vector@V?$shared_ptr@VCanvas@@@std@@V?$allocator@V?$shared_ptr@VCanvas@@@std@@@2@@std@@QEAA@XZ
pdata	ENDS
;	COMDAT pdata
pdata	SEGMENT
$pdata$?at@?$vector@V?$shared_ptr@VCanvas@@@std@@V?$allocator@V?$shared_ptr@VCanvas@@@std@@@2@@std@@QEAAAEAV?$shared_ptr@VCanvas@@@2@_K@Z DD imagerel $LN7@at
	DD	imagerel $LN7@at+41
	DD	imagerel $unwind$?at@?$vector@V?$shared_ptr@VCanvas@@@std@@V?$allocator@V?$shared_ptr@VCanvas@@@std@@@2@@std@@QEAAAEAV?$shared_ptr@VCanvas@@@2@_K@Z
pdata	ENDS
;	COMDAT pdata
pdata	SEGMENT
$pdata$??1?$shared_ptr@VCanvas@@@std@@QEAA@XZ DD imagerel $LN18@shared_ptr
	DD	imagerel $LN18@shared_ptr+15
	DD	imagerel $unwind$??1?$shared_ptr@VCanvas@@@std@@QEAA@XZ
pdata	ENDS
;	COMDAT pdata
pdata	SEGMENT
$pdata$0$??1?$shared_ptr@VCanvas@@@std@@QEAA@XZ DD imagerel $LN18@shared_ptr+15
	DD	imagerel $LN18@shared_ptr+69
	DD	imagerel $chain$0$??1?$shared_ptr@VCanvas@@@std@@QEAA@XZ
pdata	ENDS
;	COMDAT pdata
pdata	SEGMENT
$pdata$1$??1?$shared_ptr@VCanvas@@@std@@QEAA@XZ DD imagerel $LN18@shared_ptr+69
	DD	imagerel $LN18@shared_ptr+75
	DD	imagerel $chain$1$??1?$shared_ptr@VCanvas@@@std@@QEAA@XZ
pdata	ENDS
;	COMDAT pdata
pdata	SEGMENT
$pdata$?Cleanup@Application@@AEAAXXZ DD imagerel $LN138@Cleanup
	DD	imagerel $LN138@Cleanup+790
	DD	imagerel $unwind$?Cleanup@Application@@AEAAXXZ
pdata	ENDS
;	COMDAT pdata
pdata	SEGMENT
$pdata$?DrawTitleBar@Application@@AEAAXXZ DD imagerel $LN723@DrawTitleB
	DD	imagerel $LN723@DrawTitleB+3849
	DD	imagerel $unwind$?DrawTitleBar@Application@@AEAAXXZ
pdata	ENDS
;	COMDAT pdata
pdata	SEGMENT
$pdata$?dtor$8@?0??DrawTitleBar@Application@@AEAAXXZ@4HA DD imagerel ?dtor$8@?0??DrawTitleBar@Application@@AEAAXXZ@4HA
	DD	imagerel ?dtor$8@?0??DrawTitleBar@Application@@AEAAXXZ@4HA+32
	DD	imagerel $unwind$?dtor$8@?0??DrawTitleBar@Application@@AEAAXXZ@4HA
pdata	ENDS
;	COMDAT pdata
pdata	SEGMENT
$pdata$?RenderUI@Application@@QEAAXXZ DD imagerel $LN163
	DD	imagerel $LN163+1509
	DD	imagerel $unwind$?RenderUI@Application@@QEAAXXZ
pdata	ENDS
;	COMDAT pdata
pdata	SEGMENT
$pdata$?Run@Application@@QEAAXXZ DD imagerel $LN11@Run
	DD	imagerel $LN11@Run+70
	DD	imagerel $unwind$?Run@Application@@QEAAXXZ
pdata	ENDS
;	COMDAT pdata
pdata	SEGMENT
$pdata$?InitImGui@Application@@AEAAXXZ DD imagerel $LN130@InitImGui
	DD	imagerel $LN130@InitImGui+882
	DD	imagerel $unwind$?InitImGui@Application@@AEAAXXZ
pdata	ENDS
;	COMDAT pdata
pdata	SEGMENT
$pdata$?dtor$0@?0??InitImGui@Application@@AEAAXXZ@4HA DD imagerel ?dtor$0@?0??InitImGui@Application@@AEAAXXZ@4HA
	DD	imagerel ?dtor$0@?0??InitImGui@Application@@AEAAXXZ@4HA+35
	DD	imagerel $unwind$?dtor$0@?0??InitImGui@Application@@AEAAXXZ@4HA
pdata	ENDS
;	COMDAT pdata
pdata	SEGMENT
$pdata$?InitGL@Application@@SAXXZ DD imagerel $LN9@InitGL
	DD	imagerel $LN9@InitGL+51
	DD	imagerel $unwind$?InitGL@Application@@SAXXZ
pdata	ENDS
;	COMDAT pdata
pdata	SEGMENT
$pdata$0$?InitGL@Application@@SAXXZ DD imagerel $LN9@InitGL+51
	DD	imagerel $LN9@InitGL+234
	DD	imagerel $chain$0$?InitGL@Application@@SAXXZ
pdata	ENDS
;	COMDAT pdata
pdata	SEGMENT
$pdata$2$?InitGL@Application@@SAXXZ DD imagerel $LN9@InitGL+234
	DD	imagerel $LN9@InitGL+419
	DD	imagerel $chain$2$?InitGL@Application@@SAXXZ
pdata	ENDS
;	COMDAT pdata
pdata	SEGMENT
$pdata$?UpdateWindow@Application@@AEAAXXZ DD imagerel $LN78@UpdateWind
	DD	imagerel $LN78@UpdateWind+34
	DD	imagerel $unwind$?UpdateWindow@Application@@AEAAXXZ
pdata	ENDS
;	COMDAT pdata
pdata	SEGMENT
$pdata$6$?UpdateWindow@Application@@AEAAXXZ DD imagerel $LN78@UpdateWind+34
	DD	imagerel $LN78@UpdateWind+728
	DD	imagerel $chain$6$?UpdateWindow@Application@@AEAAXXZ
pdata	ENDS
;	COMDAT pdata
pdata	SEGMENT
$pdata$7$?UpdateWindow@Application@@AEAAXXZ DD imagerel $LN78@UpdateWind+728
	DD	imagerel $LN78@UpdateWind+745
	DD	imagerel $chain$7$?UpdateWindow@Application@@AEAAXXZ
pdata	ENDS
;	COMDAT pdata
pdata	SEGMENT
$pdata$??1Application@@QEAA@XZ DD imagerel $LN17@Applicatio
	DD	imagerel $LN17@Applicatio+42
	DD	imagerel $unwind$??1Application@@QEAA@XZ
pdata	ENDS
;	COMDAT pdata
pdata	SEGMENT
$pdata$??1Tools@@QEAA@XZ DD imagerel $LN14@Tools
	DD	imagerel $LN14@Tools+34
	DD	imagerel $unwind$??1Tools@@QEAA@XZ
pdata	ENDS
;	COMDAT pdata
pdata	SEGMENT
$pdata$??0Application@@QEAA@XZ DD imagerel $LN94@Applicatio
	DD	imagerel $LN94@Applicatio+460
	DD	imagerel $unwind$??0Application@@QEAA@XZ
pdata	ENDS
;	COMDAT pdata
pdata	SEGMENT
$pdata$?dtor$5@?0???0Application@@QEAA@XZ@4HA DD imagerel ?dtor$5@?0???0Application@@QEAA@XZ@4HA
	DD	imagerel ?dtor$5@?0???0Application@@QEAA@XZ@4HA+29
	DD	imagerel $unwind$?dtor$5@?0???0Application@@QEAA@XZ@4HA
pdata	ENDS
;	COMDAT pdata
pdata	SEGMENT
$pdata$?RedrawWindow@@YAHPEAXPEATSDL_Event@@@Z DD imagerel $LN8@RedrawWind
	DD	imagerel $LN8@RedrawWind+30
	DD	imagerel $unwind$?RedrawWindow@@YAHPEAXPEATSDL_Event@@@Z
pdata	ENDS
;	COMDAT pdata
pdata	SEGMENT
$pdata$printf DD imagerel $LN6@printf
	DD	imagerel $LN6@printf+82
	DD	imagerel $unwind$printf
pdata	ENDS
;	COMDAT pdata
pdata	SEGMENT
$pdata$_vfprintf_l DD imagerel $LN4@vfprintf_l
	DD	imagerel $LN4@vfprintf_l+68
	DD	imagerel $unwind$_vfprintf_l
;	COMDAT xdata
xdata	SEGMENT
$unwind$_vfprintf_l DQ 00009640f00060f01r	; 1.30596e-308
	DQ	0700b520f0008340fr		; 5.30195e+231
xdata	ENDS
;	COMDAT xdata
xdata	SEGMENT
$unwind$printf DQ 07016621a00031a01r		; 8.68758e+231
	DD	03015H
xdata	ENDS
;	COMDAT xdata
xdata	SEGMENT
$unwind$?RedrawWindow@@YAHPEAXPEATSDL_Event@@@Z DQ 00000420400010401r ; 3.58617e-310
xdata	ENDS
;	COMDAT xdata
xdata	SEGMENT
$unwind$?dtor$5@?0???0Application@@QEAA@XZ@4HA DQ 05002320600020601r ; 2.6336e+77
xdata	ENDS
;	COMDAT xdata
xdata	SEGMENT
$ip2state$??0Application@@QEAA@XZ DQ 03a067804bc02b80cr ; 3.54496e-29
	DD	0b4087c04H
	DB	00H
xdata	ENDS
;	COMDAT xdata
xdata	SEGMENT
$stateUnwindMap$??0Application@@QEAA@XZ DW 0e08H
	DD	imagerel ?dtor$0@?0???0Application@@QEAA@XZ@4HA
	DB	02eH
	DD	imagerel ?dtor$1@?0???0Application@@QEAA@XZ@4HA
	DB	02eH
	DD	imagerel ?dtor$5@?0???0Application@@QEAA@XZ@4HA
	DB	052H
	DD	imagerel ??1?$shared_ptr@VCanvas@@@std@@QEAA@XZ
	DB	0f0H
xdata	ENDS
;	COMDAT xdata
xdata	SEGMENT
$cppxdata$??0Application@@QEAA@XZ DB 028H
	DD	imagerel $stateUnwindMap$??0Application@@QEAA@XZ
	DD	imagerel $ip2state$??0Application@@QEAA@XZ
xdata	ENDS
;	COMDAT xdata
xdata	SEGMENT
$unwind$??0Application@@QEAA@XZ DQ 0001a5419000b2b19r ; 3.66143e-308
	DQ	00012011900193419r		; 2.5038e-308
	DQ	0700cc00ee010f012r		; 5.57941e+231
	DD	0600bH
	DD	imagerel __GSHandlerCheck_EH4
	DD	imagerel $cppxdata$??0Application@@QEAA@XZ
	DD	08aH
xdata	ENDS
;	COMDAT xdata
xdata	SEGMENT
$ip2state$??1Tools@@QEAA@XZ DW 01802H
	DB	02H
xdata	ENDS
;	COMDAT xdata
xdata	SEGMENT
$stateUnwindMap$??1Tools@@QEAA@XZ DW 0e02H
	DD	imagerel __std_terminate
xdata	ENDS
;	COMDAT xdata
xdata	SEGMENT
$cppxdata$??1Tools@@QEAA@XZ DB 068H
	DD	imagerel $stateUnwindMap$??1Tools@@QEAA@XZ
	DD	imagerel $ip2state$??1Tools@@QEAA@XZ
xdata	ENDS
;	COMDAT xdata
xdata	SEGMENT
$unwind$??1Tools@@QEAA@XZ DQ 03002320600020619r	; 1.96423e-77
	DD	imagerel __CxxFrameHandler4
	DD	imagerel $cppxdata$??1Tools@@QEAA@XZ
xdata	ENDS
;	COMDAT xdata
xdata	SEGMENT
$ip2state$??1Application@@QEAA@XZ DW 01802H
	DB	02H
xdata	ENDS
;	COMDAT xdata
xdata	SEGMENT
$stateUnwindMap$??1Application@@QEAA@XZ DW 0e02H
	DD	imagerel __std_terminate
xdata	ENDS
;	COMDAT xdata
xdata	SEGMENT
$cppxdata$??1Application@@QEAA@XZ DB 068H
	DD	imagerel $stateUnwindMap$??1Application@@QEAA@XZ
	DD	imagerel $ip2state$??1Application@@QEAA@XZ
xdata	ENDS
;	COMDAT xdata
xdata	SEGMENT
$unwind$??1Application@@QEAA@XZ DQ 03002320600020619r ; 1.96423e-77
	DD	imagerel __CxxFrameHandler4
	DD	imagerel $cppxdata$??1Application@@QEAA@XZ
xdata	ENDS
;	COMDAT xdata
xdata	SEGMENT
$chain$7$?UpdateWindow@Application@@AEAAXXZ DD 021H
	DD	imagerel $LN78@UpdateWind
	DD	imagerel $LN78@UpdateWind+34
	DD	imagerel $unwind$?UpdateWindow@Application@@AEAAXXZ
xdata	ENDS
;	COMDAT xdata
xdata	SEGMENT
$chain$6$?UpdateWindow@Application@@AEAAXXZ DQ 00002c85a000e5a21r ; 3.86971e-309
	DQ	00004a83c0003b84br		; 6.47659e-309
	DQ	00006881e0005982dr		; 9.08346e-309
	DQ	00008680800077810r		; 1.16905e-308
	DD	imagerel $LN78@UpdateWind
	DD	imagerel $LN78@UpdateWind+34
	DD	imagerel $unwind$?UpdateWindow@Application@@AEAAXXZ
xdata	ENDS
;	COMDAT xdata
xdata	SEGMENT
$unwind$?UpdateWindow@Application@@AEAAXXZ DQ 00014340d00050d01r ; 2.80962e-308
	DQ	0000070060012010dr		; 6.08546e-310
xdata	ENDS
;	COMDAT xdata
xdata	SEGMENT
$chain$2$?InitGL@Application@@SAXXZ DQ 00006340000020021r ; 8.62651e-309
	DD	imagerel $LN9@InitGL
	DD	imagerel $LN9@InitGL+51
	DD	imagerel $unwind$?InitGL@Application@@SAXXZ
xdata	ENDS
;	COMDAT xdata
xdata	SEGMENT
$chain$0$?InitGL@Application@@SAXXZ DQ 00006340500020521r ; 8.62661e-309
	DD	imagerel $LN9@InitGL
	DD	imagerel $LN9@InitGL+51
	DD	imagerel $unwind$?InitGL@Application@@SAXXZ
xdata	ENDS
;	COMDAT xdata
xdata	SEGMENT
$unwind$?InitGL@Application@@SAXXZ DQ 00000620400010401r ; 5.32451e-310
xdata	ENDS
;	COMDAT xdata
xdata	SEGMENT
$unwind$?dtor$0@?0??InitImGui@Application@@AEAAXXZ@4HA DQ 05002320600020601r ; 2.6336e+77
xdata	ENDS
;	COMDAT xdata
xdata	SEGMENT
$ip2state$?InitImGui@Application@@AEAAXXZ DQ 00022020251003006r ; 5.0086e-308
xdata	ENDS
;	COMDAT xdata
xdata	SEGMENT
$stateUnwindMap$?InitImGui@Application@@AEAAXXZ DW 0e02H
	DD	imagerel ?dtor$0@?0??InitImGui@Application@@AEAAXXZ@4HA
xdata	ENDS
;	COMDAT xdata
xdata	SEGMENT
$cppxdata$?InitImGui@Application@@AEAAXXZ DB 028H
	DD	imagerel $stateUnwindMap$?InitImGui@Application@@AEAAXXZ
	DD	imagerel $ip2state$?InitImGui@Application@@AEAAXXZ
xdata	ENDS
;	COMDAT xdata
xdata	SEGMENT
$unwind$?InitImGui@Application@@AEAAXXZ DQ 07005620900050911r ; 4.14968e+231
	DQ	00000300250036004r		; 2.608e-310
	DD	imagerel __CxxFrameHandler4
	DD	imagerel $cppxdata$?InitImGui@Application@@AEAAXXZ
xdata	ENDS
;	COMDAT xdata
xdata	SEGMENT
$unwind$?Run@Application@@QEAAXXZ DQ 03002320600020601r ; 1.96423e-77
xdata	ENDS
;	COMDAT xdata
xdata	SEGMENT
$unwind$?RenderUI@Application@@QEAAXXZ DD 0d3219H
	DD	0217424H
	DD	0206424H
	DD	01f3424H
	DD	0180124H
	DD	0e016f018H
	DD	0c012d014H
	DD	05010H
	DD	imagerel __GSHandlerCheck
	DD	0b0H
xdata	ENDS
;	COMDAT xdata
xdata	SEGMENT
$unwind$?dtor$8@?0??DrawTitleBar@Application@@AEAAXXZ@4HA DQ 05002320600020601r ; 2.6336e+77
xdata	ENDS
;	COMDAT xdata
xdata	SEGMENT
$ip2state$?DrawTitleBar@Application@@AEAAXXZ DQ 099022b7d0003350er ; -3.26246e-188
	DQ	0025504c806280403r		; 2.00867e-297
	DD	02150cH
xdata	ENDS
;	COMDAT xdata
xdata	SEGMENT
$stateUnwindMap$?DrawTitleBar@Application@@AEAAXXZ DW 0a0cH
	DD	imagerel ??1?$basic_string@DU?$char_traits@D@std@@V?$allocator@D@2@@std@@QEAA@XZ
	DW	03290H
	DD	imagerel ??1?$basic_string@DU?$char_traits@D@std@@V?$allocator@D@2@@std@@QEAA@XZ
	DW	0681H
	DB	03eH
	DD	imagerel ?dtor$8@?0??DrawTitleBar@Application@@AEAAXXZ@4HA
	DB	062H
	DD	imagerel ??1?$shared_ptr@VCanvas@@@std@@QEAA@XZ
	DW	0861H
	DB	0caH
	DD	imagerel ??1?$shared_ptr@VCanvas@@@std@@QEAA@XZ
	DD	02150861H
	DD	imagerel ??1?$shared_ptr@VCanvas@@@std@@QEAA@XZ
	DW	0861H
xdata	ENDS
;	COMDAT xdata
xdata	SEGMENT
$cppxdata$?DrawTitleBar@Application@@AEAAXXZ DB 028H
	DD	imagerel $stateUnwindMap$?DrawTitleBar@Application@@AEAAXXZ
	DD	imagerel $ip2state$?DrawTitleBar@Application@@AEAAXXZ
xdata	ENDS
;	COMDAT xdata
xdata	SEGMENT
$unwind$?DrawTitleBar@Application@@AEAAXXZ DQ 00023782e00113f19r ; 5.41512e-308
	DQ	0005374260024682ar		; 4.32859e-307
	DQ	00051342600526426r		; 3.82795e-307
	DQ	0e016f018004a0126r		; -7.68866e+154
	DQ	000005010c012d014r		; 4.3494e-310
	DD	imagerel __GSHandlerCheck_EH4
	DD	imagerel $cppxdata$?DrawTitleBar@Application@@AEAAXXZ
	DD	022aH
xdata	ENDS
;	COMDAT xdata
xdata	SEGMENT
$unwind$?Cleanup@Application@@AEAAXXZ DQ 0000b741e000c1e01r ; 1.59282e-308
	DQ	00009541e000a641er		; 1.2973e-308
	DQ	0f01a321e0008341er		; -1.01674e+232
	DD	0c016e018H
xdata	ENDS
;	COMDAT xdata
xdata	SEGMENT
$chain$1$??1?$shared_ptr@VCanvas@@@std@@QEAA@XZ DD 021H
	DD	imagerel $LN18@shared_ptr
	DD	imagerel $LN18@shared_ptr+15
	DD	imagerel $unwind$??1?$shared_ptr@VCanvas@@@std@@QEAA@XZ
xdata	ENDS
;	COMDAT xdata
xdata	SEGMENT
$chain$0$??1?$shared_ptr@VCanvas@@@std@@QEAA@XZ DQ 00006740500020521r ; 8.97428e-309
	DD	imagerel $LN18@shared_ptr
	DD	imagerel $LN18@shared_ptr+15
	DD	imagerel $unwind$??1?$shared_ptr@VCanvas@@@std@@QEAA@XZ
xdata	ENDS
;	COMDAT xdata
xdata	SEGMENT
$unwind$??1?$shared_ptr@VCanvas@@@std@@QEAA@XZ DQ 03002320600020601r ; 1.96423e-77
xdata	ENDS
;	COMDAT xdata
xdata	SEGMENT
$unwind$?at@?$vector@V?$shared_ptr@VCanvas@@@std@@V?$allocator@V?$shared_ptr@VCanvas@@@std@@@2@@std@@QEAAAEAV?$shared_ptr@VCanvas@@@2@_K@Z DQ 00000420400010401r ; 3.58617e-310
xdata	ENDS
;	COMDAT xdata
xdata	SEGMENT
$unwind$??1?$vector@V?$shared_ptr@VCanvas@@@std@@V?$allocator@V?$shared_ptr@VCanvas@@@std@@@2@@std@@QEAA@XZ DQ 03002320600020601r ; 1.96423e-77
xdata	ENDS
;	COMDAT xdata
xdata	SEGMENT
$chain$1$?_Decref@?$_Ptr_base@VCanvas@@@std@@IEAAXXZ DD 021H
	DD	imagerel $LN16@Decref
	DD	imagerel $LN16@Decref+15
	DD	imagerel $unwind$?_Decref@?$_Ptr_base@VCanvas@@@std@@IEAAXXZ
xdata	ENDS
;	COMDAT xdata
xdata	SEGMENT
$chain$0$?_Decref@?$_Ptr_base@VCanvas@@@std@@IEAAXXZ DQ 00006740500020521r ; 8.97428e-309
	DD	imagerel $LN16@Decref
	DD	imagerel $LN16@Decref+15
	DD	imagerel $unwind$?_Decref@?$_Ptr_base@VCanvas@@@std@@IEAAXXZ
xdata	ENDS
;	COMDAT xdata
xdata	SEGMENT
$unwind$?_Decref@?$_Ptr_base@VCanvas@@@std@@IEAAXXZ DQ 03002320600020601r ; 1.96423e-77
xdata	ENDS
;	COMDAT xdata
xdata	SEGMENT
$unwind$?_Xrange@?$vector@V?$shared_ptr@VCanvas@@@std@@V?$allocator@V?$shared_ptr@VCanvas@@@std@@@2@@std@@CAXXZ DQ 00000420400010401r ; 3.58617e-310
xdata	ENDS
;	COMDAT xdata
xdata	SEGMENT
$unwind$?_Tidy@?$vector@V?$shared_ptr@VCanvas@@@std@@V?$allocator@V?$shared_ptr@VCanvas@@@std@@@2@@std@@AEAAXXZ DQ 03002320600020601r ; 1.96423e-77
xdata	ENDS
;	COMDAT xdata
xdata	SEGMENT
$unwind$?deallocate@?$allocator@V?$shared_ptr@VCanvas@@@std@@@std@@QEAAXQEAV?$shared_ptr@VCanvas@@@2@_K@Z DQ 00000420400010401r ; 3.58617e-310
xdata	ENDS
;	COMDAT xdata
xdata	SEGMENT
$unwind$?dtor$0@?0???$make_shared@VCanvas@@AEAVTools@@AEAY0P@$$CBDU?$vec@$01M$0A@@glm@@_K@std@@YA?AV?$shared_ptr@VCanvas@@@0@AEAVTools@@AEAY0P@$$CBD$$QEAU?$vec@$01M$0A@@glm@@$$QEA_K@Z@4HA DQ 05002320600020601r ; 2.6336e+77
xdata	ENDS
;	COMDAT xdata
xdata	SEGMENT
$ip2state$??$make_shared@VCanvas@@AEAVTools@@AEAY0P@$$CBDU?$vec@$01M$0A@@glm@@_K@std@@YA?AV?$shared_ptr@VCanvas@@@0@AEAVTools@@AEAY0P@$$CBD$$QEAU?$vec@$01M$0A@@glm@@$$QEA_K@Z DD 096004606H
	DW	03602H
	DB	00H
xdata	ENDS
;	COMDAT xdata
xdata	SEGMENT
$stateUnwindMap$??$make_shared@VCanvas@@AEAVTools@@AEAY0P@$$CBDU?$vec@$01M$0A@@glm@@_K@std@@YA?AV?$shared_ptr@VCanvas@@@0@AEAVTools@@AEAY0P@$$CBD$$QEAU?$vec@$01M$0A@@glm@@$$QEA_K@Z DW 0e02H
	DD	imagerel ?dtor$0@?0???$make_shared@VCanvas@@AEAVTools@@AEAY0P@$$CBDU?$vec@$01M$0A@@glm@@_K@std@@YA?AV?$shared_ptr@VCanvas@@@0@AEAVTools@@AEAY0P@$$CBD$$QEAU?$vec@$01M$0A@@glm@@$$QEA_K@Z@4HA
xdata	ENDS
;	COMDAT xdata
xdata	SEGMENT
$cppxdata$??$make_shared@VCanvas@@AEAVTools@@AEAY0P@$$CBDU?$vec@$01M$0A@@glm@@_K@std@@YA?AV?$shared_ptr@VCanvas@@@0@AEAVTools@@AEAY0P@$$CBD$$QEAU?$vec@$01M$0A@@glm@@$$QEA_K@Z DB 028H
	DD	imagerel $stateUnwindMap$??$make_shared@VCanvas@@AEAVTools@@AEAY0P@$$CBDU?$vec@$01M$0A@@glm@@_K@std@@YA?AV?$shared_ptr@VCanvas@@@0@AEAVTools@@AEAY0P@$$CBD$$QEAU?$vec@$01M$0A@@glm@@$$QEA_K@Z
	DD	imagerel $ip2state$??$make_shared@VCanvas@@AEAVTools@@AEAY0P@$$CBDU?$vec@$01M$0A@@glm@@_K@std@@YA?AV?$shared_ptr@VCanvas@@@0@AEAVTools@@AEAY0P@$$CBD$$QEAU?$vec@$01M$0A@@glm@@$$QEA_K@Z
xdata	ENDS
;	COMDAT xdata
xdata	SEGMENT
$unwind$??$make_shared@VCanvas@@AEAVTools@@AEAY0P@$$CBDU?$vec@$01M$0A@@glm@@_K@std@@YA?AV?$shared_ptr@VCanvas@@@0@AEAVTools@@AEAY0P@$$CBD$$QEAU?$vec@$01M$0A@@glm@@$$QEA_K@Z DQ 00013341500081511r ; 2.67057e-308
	DQ	0700de00ff011b215r		; 5.79773e+231
	DD	0500b600cH
	DD	imagerel __CxxFrameHandler4
	DD	imagerel $cppxdata$??$make_shared@VCanvas@@AEAVTools@@AEAY0P@$$CBDU?$vec@$01M$0A@@glm@@_K@std@@YA?AV?$shared_ptr@VCanvas@@@0@AEAVTools@@AEAY0P@$$CBD$$QEAU?$vec@$01M$0A@@glm@@$$QEA_K@Z
xdata	ENDS
;	COMDAT xdata
xdata	SEGMENT
$unwind$?dtor$0@?0???$make_shared@VCanvas@@AEAVTools@@V?$basic_string@DU?$char_traits@D@std@@V?$allocator@D@2@@std@@U?$vec@$01M$0A@@glm@@_K@std@@YA?AV?$shared_ptr@VCanvas@@@0@AEAVTools@@$$QEAV?$basic_string@DU?$char_traits@D@std@@V?$allocator@D@2@@0@$$QEAU?$vec@$01M$0A@@glm@@$$QEA_K@Z@4HA DQ 05002320600020601r ; 2.6336e+77
xdata	ENDS
;	COMDAT xdata
xdata	SEGMENT
$ip2state$??$make_shared@VCanvas@@AEAVTools@@V?$basic_string@DU?$char_traits@D@std@@V?$allocator@D@2@@std@@U?$vec@$01M$0A@@glm@@_K@std@@YA?AV?$shared_ptr@VCanvas@@@0@AEAVTools@@$$QEAV?$basic_string@DU?$char_traits@D@std@@V?$allocator@D@2@@0@$$QEAU?$vec@$01M$0A@@glm@@$$QEA_K@Z DD 0e4005c04H
	DB	02H
xdata	ENDS
;	COMDAT xdata
xdata	SEGMENT
$stateUnwindMap$??$make_shared@VCanvas@@AEAVTools@@V?$basic_string@DU?$char_traits@D@std@@V?$allocator@D@2@@std@@U?$vec@$01M$0A@@glm@@_K@std@@YA?AV?$shared_ptr@VCanvas@@@0@AEAVTools@@$$QEAV?$basic_string@DU?$char_traits@D@std@@V?$allocator@D@2@@0@$$QEAU?$vec@$01M$0A@@glm@@$$QEA_K@Z DW 0e02H
	DD	imagerel ?dtor$0@?0???$make_shared@VCanvas@@AEAVTools@@V?$basic_string@DU?$char_traits@D@std@@V?$allocator@D@2@@std@@U?$vec@$01M$0A@@glm@@_K@std@@YA?AV?$shared_ptr@VCanvas@@@0@AEAVTools@@$$QEAV?$basic_string@DU?$char_traits@D@std@@V?$allocator@D@2@@0@$$QEAU?$vec@$01M$0A@@glm@@$$QEA_K@Z@4HA
xdata	ENDS
;	COMDAT xdata
xdata	SEGMENT
$cppxdata$??$make_shared@VCanvas@@AEAVTools@@V?$basic_string@DU?$char_traits@D@std@@V?$allocator@D@2@@std@@U?$vec@$01M$0A@@glm@@_K@std@@YA?AV?$shared_ptr@VCanvas@@@0@AEAVTools@@$$QEAV?$basic_string@DU?$char_traits@D@std@@V?$allocator@D@2@@0@$$QEAU?$vec@$01M$0A@@glm@@$$QEA_K@Z DB 028H
	DD	imagerel $stateUnwindMap$??$make_shared@VCanvas@@AEAVTools@@V?$basic_string@DU?$char_traits@D@std@@V?$allocator@D@2@@std@@U?$vec@$01M$0A@@glm@@_K@std@@YA?AV?$shared_ptr@VCanvas@@@0@AEAVTools@@$$QEAV?$basic_string@DU?$char_traits@D@std@@V?$allocator@D@2@@0@$$QEAU?$vec@$01M$0A@@glm@@$$QEA_K@Z
	DD	imagerel $ip2state$??$make_shared@VCanvas@@AEAVTools@@V?$basic_string@DU?$char_traits@D@std@@V?$allocator@D@2@@std@@U?$vec@$01M$0A@@glm@@_K@std@@YA?AV?$shared_ptr@VCanvas@@@0@AEAVTools@@$$QEAV?$basic_string@DU?$char_traits@D@std@@V?$allocator@D@2@@0@$$QEAU?$vec@$01M$0A@@glm@@$$QEA_K@Z
xdata	ENDS
;	COMDAT xdata
xdata	SEGMENT
$unwind$??$make_shared@VCanvas@@AEAVTools@@V?$basic_string@DU?$char_traits@D@std@@V?$allocator@D@2@@std@@U?$vec@$01M$0A@@glm@@_K@std@@YA?AV?$shared_ptr@VCanvas@@@0@AEAVTools@@$$QEAV?$basic_string@DU?$char_traits@D@std@@V?$allocator@D@2@@0@$$QEAU?$vec@$01M$0A@@glm@@$$QEA_K@Z DQ 00013641d000a1d11r ; 2.69666e-308
	DQ	00011341d0012541dr		; 2.39245e-308
	DQ	07015e017f019b21dr		; 8.49048e+231
	DD	imagerel __CxxFrameHandler4
	DD	imagerel $cppxdata$??$make_shared@VCanvas@@AEAVTools@@V?$basic_string@DU?$char_traits@D@std@@V?$allocator@D@2@@std@@U?$vec@$01M$0A@@glm@@_K@std@@YA?AV?$shared_ptr@VCanvas@@@0@AEAVTools@@$$QEAV?$basic_string@DU?$char_traits@D@std@@V?$allocator@D@2@@0@$$QEAU?$vec@$01M$0A@@glm@@$$QEA_K@Z
xdata	ENDS
;	COMDAT xdata
xdata	SEGMENT
$chain$1$??$_Destroy_range@V?$allocator@V?$shared_ptr@VCanvas@@@std@@@std@@@std@@YAXPEAV?$shared_ptr@VCanvas@@@0@QEAV10@AEAV?$allocator@V?$shared_ptr@VCanvas@@@std@@@0@@Z DD 021H
	DD	imagerel $LN35@Destroy_ra
	DD	imagerel $LN35@Destroy_ra+18
	DD	imagerel $unwind$??$_Destroy_range@V?$allocator@V?$shared_ptr@VCanvas@@@std@@@std@@@std@@YAXPEAV?$shared_ptr@VCanvas@@@0@QEAV10@AEAV?$allocator@V?$shared_ptr@VCanvas@@@std@@@0@@Z
xdata	ENDS
;	COMDAT xdata
xdata	SEGMENT
$chain$0$??$_Destroy_range@V?$allocator@V?$shared_ptr@VCanvas@@@std@@@std@@@std@@YAXPEAV?$shared_ptr@VCanvas@@@0@QEAV10@AEAV?$allocator@V?$shared_ptr@VCanvas@@@std@@@0@@Z DQ 00006340500020521r ; 8.62661e-309
	DD	imagerel $LN35@Destroy_ra
	DD	imagerel $LN35@Destroy_ra+18
	DD	imagerel $unwind$??$_Destroy_range@V?$allocator@V?$shared_ptr@VCanvas@@@std@@@std@@@std@@YAXPEAV?$shared_ptr@VCanvas@@@0@QEAV10@AEAV?$allocator@V?$shared_ptr@VCanvas@@@std@@@0@@Z
xdata	ENDS
;	COMDAT xdata
xdata	SEGMENT
$unwind$??$_Destroy_range@V?$allocator@V?$shared_ptr@VCanvas@@@std@@@std@@@std@@YAXPEAV?$shared_ptr@VCanvas@@@0@QEAV10@AEAV?$allocator@V?$shared_ptr@VCanvas@@@std@@@0@@Z DQ 00007640f00040f01r ; 1.02782e-308
	DD	0700b320fH
xdata	ENDS
;	COMDAT xdata
xdata	SEGMENT
$unwind$?_Destroy@?$_Ref_count_obj2@VCanvas@@@std@@EEAAXXZ DQ 03002320600020601r ; 1.96423e-77
xdata	ENDS
;	COMDAT xdata
xdata	SEGMENT
$unwind$??_G?$_Ref_count_obj2@VCanvas@@@std@@UEAAPEAXI@Z DQ 03002320600020601r ; 1.96423e-77
xdata	ENDS
;	COMDAT xdata
xdata	SEGMENT
$unwind$??$?0AEAVTools@@AEAY0P@$$CBDU?$vec@$01M$0A@@glm@@_K@?$_Ref_count_obj2@VCanvas@@@std@@QEAA@AEAVTools@@AEAY0P@$$CBD$$QEAU?$vec@$01M$0A@@glm@@$$QEA_K@Z DQ 0000f541200081201r ; 2.13168e-308
	DQ	0e00e9212000e3412r		; -5.12356e+154
	DD	0600b700cH
xdata	ENDS
;	COMDAT xdata
xdata	SEGMENT
$unwind$??$?0AEAVTools@@V?$basic_string@DU?$char_traits@D@std@@V?$allocator@D@2@@std@@U?$vec@$01M$0A@@glm@@_K@?$_Ref_count_obj2@VCanvas@@@std@@QEAA@AEAVTools@@$$QEAV?$basic_string@DU?$char_traits@D@std@@V?$allocator@D@2@@1@$$QEAU?$vec@$01M$0A@@glm@@$$QEA_K@Z DQ 03002920600020601r ; 2.00471e-77
xdata	ENDS
;	COMDAT xdata
xdata	SEGMENT
$chain$7$??$_Emplace_reallocate@V?$shared_ptr@VCanvas@@@std@@@?$vector@V?$shared_ptr@VCanvas@@@std@@V?$allocator@V?$shared_ptr@VCanvas@@@std@@@2@@std@@AEAAPEAV?$shared_ptr@VCanvas@@@1@QEAV21@$$QEAV21@@Z DQ 00004e40000080021r ; 6.80125e-309
	DQ	0000674000005d400r		; 8.97417e-309
	DD	0f5400H
	DD	imagerel $LN224@Emplace_re
	DD	imagerel $LN224@Emplace_re+66
	DD	imagerel $unwind$??$_Emplace_reallocate@V?$shared_ptr@VCanvas@@@std@@@?$vector@V?$shared_ptr@VCanvas@@@std@@V?$allocator@V?$shared_ptr@VCanvas@@@std@@@2@@std@@AEAAPEAV?$shared_ptr@VCanvas@@@1@QEAV21@$$QEAV21@@Z
xdata	ENDS
;	COMDAT xdata
xdata	SEGMENT
$chain$6$??$_Emplace_reallocate@V?$shared_ptr@VCanvas@@@std@@@?$vector@V?$shared_ptr@VCanvas@@@std@@V?$allocator@V?$shared_ptr@VCanvas@@@std@@@2@@std@@AEAAPEAV?$shared_ptr@VCanvas@@@1@QEAV21@$$QEAV21@@Z DD 021H
	DD	imagerel $LN224@Emplace_re
	DD	imagerel $LN224@Emplace_re+66
	DD	imagerel $unwind$??$_Emplace_reallocate@V?$shared_ptr@VCanvas@@@std@@@?$vector@V?$shared_ptr@VCanvas@@@std@@V?$allocator@V?$shared_ptr@VCanvas@@@std@@@2@@std@@AEAAPEAV?$shared_ptr@VCanvas@@@1@QEAV21@$$QEAV21@@Z
xdata	ENDS
;	COMDAT xdata
xdata	SEGMENT
$chain$5$??$_Emplace_reallocate@V?$shared_ptr@VCanvas@@@std@@@?$vector@V?$shared_ptr@VCanvas@@@std@@V?$allocator@V?$shared_ptr@VCanvas@@@std@@@2@@std@@AEAAPEAV?$shared_ptr@VCanvas@@@1@QEAV21@$$QEAV21@@Z DQ 00004e40000080021r ; 6.80125e-309
	DQ	0000674000005d400r		; 8.97417e-309
	DD	0f5400H
	DD	imagerel $LN224@Emplace_re
	DD	imagerel $LN224@Emplace_re+66
	DD	imagerel $unwind$??$_Emplace_reallocate@V?$shared_ptr@VCanvas@@@std@@@?$vector@V?$shared_ptr@VCanvas@@@std@@V?$allocator@V?$shared_ptr@VCanvas@@@std@@@2@@std@@AEAAPEAV?$shared_ptr@VCanvas@@@1@QEAV21@$$QEAV21@@Z
xdata	ENDS
;	COMDAT xdata
xdata	SEGMENT
$chain$3$??$_Emplace_reallocate@V?$shared_ptr@VCanvas@@@std@@@?$vector@V?$shared_ptr@VCanvas@@@std@@V?$allocator@V?$shared_ptr@VCanvas@@@std@@@2@@std@@AEAAPEAV?$shared_ptr@VCanvas@@@1@QEAV21@$$QEAV21@@Z DQ 00004e42800082821r ; 6.8021e-309
	DQ	0000674120005d423r		; 8.97456e-309
	DD	0f5405H
	DD	imagerel $LN224@Emplace_re
	DD	imagerel $LN224@Emplace_re+66
	DD	imagerel $unwind$??$_Emplace_reallocate@V?$shared_ptr@VCanvas@@@std@@@?$vector@V?$shared_ptr@VCanvas@@@std@@V?$allocator@V?$shared_ptr@VCanvas@@@std@@@2@@std@@AEAAPEAV?$shared_ptr@VCanvas@@@1@QEAV21@$$QEAV21@@Z
xdata	ENDS
;	COMDAT xdata
xdata	SEGMENT
$unwind$??$_Emplace_reallocate@V?$shared_ptr@VCanvas@@@std@@@?$vector@V?$shared_ptr@VCanvas@@@std@@V?$allocator@V?$shared_ptr@VCanvas@@@std@@@2@@std@@AEAAPEAV?$shared_ptr@VCanvas@@@1@QEAV21@$$QEAV21@@Z DQ 0f007620b00050b01r ; -4.53781e+231
	DQ	0000030026003c005r		; 2.60801e-310
xdata	ENDS
;	COMDAT xdata
xdata	SEGMENT
$chain$1$??$destroy@V?$shared_ptr@VCanvas@@@std@@@?$_Default_allocator_traits@V?$allocator@V?$shared_ptr@VCanvas@@@std@@@std@@@std@@SAXAEAV?$allocator@V?$shared_ptr@VCanvas@@@std@@@1@QEAV?$shared_ptr@VCanvas@@@1@@Z DD 021H
	DD	imagerel $LN25@destroy
	DD	imagerel $LN25@destroy+15
	DD	imagerel $unwind$??$destroy@V?$shared_ptr@VCanvas@@@std@@@?$_Default_allocator_traits@V?$allocator@V?$shared_ptr@VCanvas@@@std@@@std@@@std@@SAXAEAV?$allocator@V?$shared_ptr@VCanvas@@@std@@@1@QEAV?$shared_ptr@VCanvas@@@1@@Z
xdata	ENDS
;	COMDAT xdata
xdata	SEGMENT
$chain$0$??$destroy@V?$shared_ptr@VCanvas@@@std@@@?$_Default_allocator_traits@V?$allocator@V?$shared_ptr@VCanvas@@@std@@@std@@@std@@SAXAEAV?$allocator@V?$shared_ptr@VCanvas@@@std@@@1@QEAV?$shared_ptr@VCanvas@@@1@@Z DQ 00006740500020521r ; 8.97428e-309
	DD	imagerel $LN25@destroy
	DD	imagerel $LN25@destroy+15
	DD	imagerel $unwind$??$destroy@V?$shared_ptr@VCanvas@@@std@@@?$_Default_allocator_traits@V?$allocator@V?$shared_ptr@VCanvas@@@std@@@std@@@std@@SAXAEAV?$allocator@V?$shared_ptr@VCanvas@@@std@@@1@QEAV?$shared_ptr@VCanvas@@@1@@Z
xdata	ENDS
;	COMDAT xdata
xdata	SEGMENT
$unwind$??$destroy@V?$shared_ptr@VCanvas@@@std@@@?$_Default_allocator_traits@V?$allocator@V?$shared_ptr@VCanvas@@@std@@@std@@@std@@SAXAEAV?$allocator@V?$shared_ptr@VCanvas@@@std@@@1@QEAV?$shared_ptr@VCanvas@@@1@@Z DQ 03002320600020601r ; 1.96423e-77
xdata	ENDS
;	COMDAT xdata
xdata	SEGMENT
$unwind$??$_Destroy_in_place@VCanvas@@@std@@YAXAEAVCanvas@@@Z DQ 03002320600020601r ; 1.96423e-77
xdata	ENDS
;	COMDAT xdata
xdata	SEGMENT
$unwind$??_GCanvas@@QEAAPEAXI@Z DQ 03002320600020601r ; 1.96423e-77
xdata	ENDS
;	COMDAT xdata
xdata	SEGMENT
$unwind$?_Xlength@?$vector@V?$shared_ptr@VCanvas@@@std@@V?$allocator@V?$shared_ptr@VCanvas@@@std@@@2@@std@@CAXXZ DQ 00000420400010401r ; 3.58617e-310
xdata	ENDS
;	COMDAT xdata
xdata	SEGMENT
$unwind$?_Change_array@?$vector@V?$shared_ptr@VCanvas@@@std@@V?$allocator@V?$shared_ptr@VCanvas@@@std@@@2@@std@@AEAAXQEAV?$shared_ptr@VCanvas@@@2@_K1@Z DQ 00009641400081401r ; 1.30597e-308
	DQ	00007341400085414r		; 1.00176e-308
	DD	070103214H
xdata	ENDS
;	COMDAT xdata
xdata	SEGMENT
$unwind$?allocate@?$allocator@V?$shared_ptr@VCanvas@@@std@@@std@@QEAAPEAV?$shared_ptr@VCanvas@@@2@_K@Z DQ 00000420400010401r ; 3.58617e-310
xdata	ENDS
;	COMDAT xdata
xdata	SEGMENT
$unwind$??$_Construct_in_place@VCanvas@@AEAVTools@@AEAY0P@$$CBDU?$vec@$01M$0A@@glm@@_K@std@@YAXAEAVCanvas@@AEAVTools@@AEAY0P@$$CBD$$QEAU?$vec@$01M$0A@@glm@@$$QEA_K@Z DQ 0000f641400081401r ; 2.14037e-308
	DQ	0000c3414000d5414r		; 1.6971e-308
	DD	070109214H
xdata	ENDS
;	COMDAT xdata
xdata	SEGMENT
$unwind$??$_Construct_in_place@VCanvas@@AEAVTools@@V?$basic_string@DU?$char_traits@D@std@@V?$allocator@D@2@@std@@U?$vec@$01M$0A@@glm@@_K@std@@YAXAEAVCanvas@@AEAVTools@@$$QEAV?$basic_string@DU?$char_traits@D@std@@V?$allocator@D@2@@0@$$QEAU?$vec@$01M$0A@@glm@@$$QEA_K@Z DQ 00000c20400010401r ; 1.05395e-309
xdata	ENDS
;	COMDAT xdata
xdata	SEGMENT
$unwind$??$_Uninitialized_move@PEAV?$shared_ptr@VCanvas@@@std@@V?$allocator@V?$shared_ptr@VCanvas@@@std@@@2@@std@@YAPEAV?$shared_ptr@VCanvas@@@0@QEAV10@0PEAV10@AEAV?$allocator@V?$shared_ptr@VCanvas@@@std@@@0@@Z DQ 03002320600020601r ; 1.96423e-77
xdata	ENDS
;	COMDAT xdata
xdata	SEGMENT
$chain$1$??$destroy_at@V?$shared_ptr@VCanvas@@@std@@@std@@YAXQEAV?$shared_ptr@VCanvas@@@0@@Z DD 021H
	DD	imagerel $LN23@destroy_at
	DD	imagerel $LN23@destroy_at+15
	DD	imagerel $unwind$??$destroy_at@V?$shared_ptr@VCanvas@@@std@@@std@@YAXQEAV?$shared_ptr@VCanvas@@@0@@Z
xdata	ENDS
;	COMDAT xdata
xdata	SEGMENT
$chain$0$??$destroy_at@V?$shared_ptr@VCanvas@@@std@@@std@@YAXQEAV?$shared_ptr@VCanvas@@@0@@Z DQ 00006740500020521r ; 8.97428e-309
	DD	imagerel $LN23@destroy_at
	DD	imagerel $LN23@destroy_at+15
	DD	imagerel $unwind$??$destroy_at@V?$shared_ptr@VCanvas@@@std@@@std@@YAXQEAV?$shared_ptr@VCanvas@@@0@@Z
xdata	ENDS
;	COMDAT xdata
xdata	SEGMENT
$unwind$??$destroy_at@V?$shared_ptr@VCanvas@@@std@@@std@@YAXQEAV?$shared_ptr@VCanvas@@@0@@Z DQ 03002320600020601r ; 1.96423e-77
xdata	ENDS
;	COMDAT xdata
xdata	SEGMENT
$chain$1$??_G?$shared_ptr@VCanvas@@@std@@QEAAPEAXI@Z DD 021H
	DD	imagerel $LN24@scalar
	DD	imagerel $LN24@scalar+22
	DD	imagerel $unwind$??_G?$shared_ptr@VCanvas@@@std@@QEAAPEAXI@Z
xdata	ENDS
;	COMDAT xdata
xdata	SEGMENT
$chain$0$??_G?$shared_ptr@VCanvas@@@std@@QEAAPEAXI@Z DQ 00006640500020521r ; 8.88736e-309
	DD	imagerel $LN24@scalar
	DD	imagerel $LN24@scalar+22
	DD	imagerel $unwind$??_G?$shared_ptr@VCanvas@@@std@@QEAAPEAXI@Z
xdata	ENDS
;	COMDAT xdata
xdata	SEGMENT
$unwind$??_G?$shared_ptr@VCanvas@@@std@@QEAAPEAXI@Z DQ 00007340a00040a01r ; 1.00174e-308
	DD	07006320aH
xdata	ENDS
;	COMDAT xdata
xdata	SEGMENT
$unwind$??$construct_at@VCanvas@@AEAVTools@@AEAY0P@$$CBDU?$vec@$01M$0A@@glm@@_K$0A@@std@@YAPEAVCanvas@@QEAV1@AEAVTools@@AEAY0P@$$CBD$$QEAU?$vec@$01M$0A@@glm@@$$QEA_K@Z DQ 0000f641400081401r ; 2.14037e-308
	DQ	0000c3414000d5414r		; 1.6971e-308
	DD	070109214H
xdata	ENDS
;	COMDAT xdata
xdata	SEGMENT
$unwind$??$construct_at@VCanvas@@AEAVTools@@V?$basic_string@DU?$char_traits@D@std@@V?$allocator@D@2@@std@@U?$vec@$01M$0A@@glm@@_K$0A@@std@@YAPEAVCanvas@@QEAV1@AEAVTools@@$$QEAV?$basic_string@DU?$char_traits@D@std@@V?$allocator@D@2@@0@$$QEAU?$vec@$01M$0A@@glm@@$$QEA_K@Z DQ 00000a20400010401r ; 8.80119e-310
; Function compile flags: /Ogtpy
; File C:\dev\Photo Studio\Photo Studio\Source\Application.cpp
; File C:\dev\Photo Studio\Photo Studio\Dependencies\imgui\backends\imgui_impl_opengl2.cpp
; File C:\dev\Photo Studio\Photo Studio\Source\Application.cpp
; File C:\dev\Photo Studio\Photo Studio\Dependencies\imgui\backends\imgui_impl_opengl2.cpp
; File C:\dev\Photo Studio\Photo Studio\Source\Application.cpp
; File C:\dev\Photo Studio\Photo Studio\Dependencies\imgui\imgui_internal.h
; File C:\dev\Photo Studio\Photo Studio\Dependencies\imgui\imgui.h
; File C:\dev\Photo Studio\Photo Studio\Dependencies\imgui\imgui.cpp
; File C:\dev\Photo Studio\Photo Studio\Source\Application.cpp
; File C:\dev\Photo Studio\Photo Studio\Dependencies\imgui\imgui.cpp
; File C:\dev\Photo Studio\Photo Studio\Dependencies\imgui\imgui_internal.h
; File C:\dev\Photo Studio\Photo Studio\Dependencies\imgui\imgui.cpp
; File C:\dev\Photo Studio\Photo Studio\Dependencies\imgui\imgui_internal.h
; File C:\dev\Photo Studio\Photo Studio\Dependencies\imgui\imgui.cpp
; File C:\dev\Photo Studio\Photo Studio\Dependencies\imgui\imgui_internal.h
; File C:\dev\Photo Studio\Photo Studio\Dependencies\imgui\imgui.cpp
; File C:\dev\Photo Studio\Photo Studio\Dependencies\imgui\imgui_internal.h
; File C:\dev\Photo Studio\Photo Studio\Dependencies\imgui\imgui.cpp
; File C:\dev\Photo Studio\Photo Studio\Dependencies\imgui\imgui_internal.h
; File C:\dev\Photo Studio\Photo Studio\Dependencies\imgui\imgui.cpp
; File C:\dev\Photo Studio\Photo Studio\Source\Application.cpp
; File C:\dev\Photo Studio\Photo Studio\Dependencies\imgui\imgui.cpp
; File C:\dev\Photo Studio\Photo Studio\Source\Application.cpp
; File C:\dev\Photo Studio\Photo Studio\Dependencies\imgui\imgui.cpp
; File C:\dev\Photo Studio\Photo Studio\Dependencies\imgui\imgui.h
; File C:\dev\Photo Studio\Photo Studio\Dependencies\imgui\imgui.cpp
; File C:\dev\Photo Studio\Photo Studio\Source\Application.cpp
; File C:\dev\Photo Studio\Photo Studio\Dependencies\imgui\imgui.h
; File C:\dev\Photo Studio\Photo Studio\Source\Application.cpp
; File C:\Program Files\Microsoft Visual Studio\2022\Community\VC\Tools\MSVC\14.36.32532\include\vector
; File C:\dev\Photo Studio\Photo Studio\Source\Application.cpp
; File C:\Program Files\Microsoft Visual Studio\2022\Community\VC\Tools\MSVC\14.36.32532\include\vector
; File C:\dev\Photo Studio\Photo Studio\Source\Application.cpp
; File C:\Program Files\Microsoft Visual Studio\2022\Community\VC\Tools\MSVC\14.36.32532\include\vector
; File C:\dev\Photo Studio\Photo Studio\Source\Application.cpp
; File C:\Program Files\Microsoft Visual Studio\2022\Community\VC\Tools\MSVC\14.36.32532\include\vector
; File C:\dev\Photo Studio\Photo Studio\Source\Application.cpp
; File C:\Program Files\Microsoft Visual Studio\2022\Community\VC\Tools\MSVC\14.36.32532\include\vector
; File C:\dev\Photo Studio\Photo Studio\Source\Application.cpp
; File C:\Program Files\Microsoft Visual Studio\2022\Community\VC\Tools\MSVC\14.36.32532\include\vector
; File C:\dev\Photo Studio\Photo Studio\Source\Application.cpp
; File C:\Program Files\Microsoft Visual Studio\2022\Community\VC\Tools\MSVC\14.36.32532\include\vector
; File C:\dev\Photo Studio\Photo Studio\Source\Application.cpp
; File C:\Program Files\Microsoft Visual Studio\2022\Community\VC\Tools\MSVC\14.36.32532\include\vector
; File C:\dev\Photo Studio\Photo Studio\Source\Application.cpp
; File C:\dev\Photo Studio\Photo Studio\Dependencies\imgui\imgui.cpp
; File C:\dev\Photo Studio\Photo Studio\Source\WindowManager.cpp
; File C:\dev\Photo Studio\Photo Studio\Dependencies\imgui\imgui.h
; File C:\dev\Photo Studio\Photo Studio\Source\WindowManager.cpp
; File C:\dev\Photo Studio\Photo Studio\Dependencies\imgui\imgui.cpp
; File C:\dev\Photo Studio\Photo Studio\Source\WindowManager.cpp
; File C:\dev\Photo Studio\Photo Studio\Dependencies\imgui\imgui.h
; File C:\dev\Photo Studio\Photo Studio\Dependencies\imgui\imgui.cpp
; File C:\dev\Photo Studio\Photo Studio\Source\WindowManager.cpp
; File C:\dev\Photo Studio\Photo Studio\Dependencies\imgui\imgui.cpp
; File C:\dev\Photo Studio\Photo Studio\Source\WindowManager.cpp
; File C:\dev\Photo Studio\Photo Studio\Dependencies\imgui\imgui.cpp
; File C:\dev\Photo Studio\Photo Studio\Source\WindowManager.cpp
; File C:\dev\Photo Studio\Photo Studio\Dependencies\imgui\imgui.h
; File C:\dev\Photo Studio\Photo Studio\Source\WindowManager.cpp
; File C:\dev\Photo Studio\Photo Studio\Dependencies\imgui\imgui.cpp
; File C:\dev\Photo Studio\Photo Studio\Dependencies\imgui\imgui.h
; File C:\dev\Photo Studio\Photo Studio\Source\WindowManager.cpp
; File C:\dev\Photo Studio\Photo Studio\Dependencies\imgui\imgui.cpp
; File C:\dev\Photo Studio\Photo Studio\Source\WindowManager.cpp
; File C:\dev\Photo Studio\Photo Studio\Dependencies\imgui\imgui.cpp
; File C:\dev\Photo Studio\Photo Studio\Source\Application.cpp
; File C:\dev\Photo Studio\Photo Studio\Dependencies\imgui\imgui.h
; File C:\dev\Photo Studio\Photo Studio\Source\Application.cpp
; File C:\dev\Photo Studio\Photo Studio\Dependencies\imgui\imgui.cpp
; File C:\dev\Photo Studio\Photo Studio\Dependencies\imgui\imgui.h
; File C:\dev\Photo Studio\Photo Studio\Dependencies\imgui\imgui.cpp
; File C:\dev\Photo Studio\Photo Studio\Source\Application.cpp
; File C:\dev\Photo Studio\Photo Studio\Dependencies\imgui\imgui.cpp
; File C:\dev\Photo Studio\Photo Studio\Source\Application.cpp
; File C:\Program Files\Microsoft Visual Studio\2022\Community\VC\Tools\MSVC\14.36.32532\include\vector
; File C:\dev\Photo Studio\Photo Studio\Source\Application.cpp
; File C:\Program Files\Microsoft Visual Studio\2022\Community\VC\Tools\MSVC\14.36.32532\include\vector
; File C:\dev\Photo Studio\Photo Studio\Source\Application.cpp
; File C:\dev\Photo Studio\Photo Studio\Dependencies\imgui\imgui.h
; File C:\dev\Photo Studio\Photo Studio\Dependencies\imgui\imgui.cpp
; File C:\dev\Photo Studio\Photo Studio\Source\Application.cpp
; File C:\dev\Photo Studio\Photo Studio\Dependencies\imgui\imgui.cpp
; File C:\dev\Photo Studio\Photo Studio\Source\Application.cpp
; File C:\Program Files\Microsoft Visual Studio\2022\Community\VC\Tools\MSVC\14.36.32532\include\vector
; File C:\dev\Photo Studio\Photo Studio\Source\Application.cpp
;	COMDAT ?RenderUI@Application@@QEAAXXZ
_TEXT	SEGMENT
backup_current_context$1$ = 80
$T6 = 80
$T4 = 80
$T3 = 80
pixels$19 = 80
height$20 = 96
width$21 = 100
window_class$22 = 104
window_class$23 = 136
backup_current_window$1$ = 168
last_texture$24 = 168
$T7 = 168
__$ArrayPad$ = 176
this$ = 240
?RenderUI@Application@@QEAAXXZ PROC			; Application::RenderUI, COMDAT

; 189  : {

$LN163:
	mov	QWORD PTR [rsp+16], rbx
	mov	QWORD PTR [rsp+24], rsi
	mov	QWORD PTR [rsp+32], rdi
	push	rbp
	push	r12
	push	r13
	push	r14
	push	r15
	lea	rbp, QWORD PTR [rsp-55]
	sub	rsp, 192				; 000000c0H
	mov	rax, QWORD PTR __security_cookie
	xor	rax, rsp
	mov	QWORD PTR __$ArrayPad$[rbp-137], rax
; File C:\dev\Photo Studio\Photo Studio\Dependencies\imgui\backends\imgui_impl_opengl2.cpp

; 81   :     return ImGui::GetCurrentContext() ? (ImGui_ImplOpenGL2_Data*)ImGui::GetIO().BackendRendererUserData : nullptr;

	mov	rbx, QWORD PTR ?GImGui@@3PEAUImGuiContext@@EA ; GImGui
	xor	r12d, r12d
; File C:\dev\Photo Studio\Photo Studio\Source\Application.cpp

; 189  : {

	mov	r13, rcx
; File C:\dev\Photo Studio\Photo Studio\Dependencies\imgui\backends\imgui_impl_opengl2.cpp

; 81   :     return ImGui::GetCurrentContext() ? (ImGui_ImplOpenGL2_Data*)ImGui::GetIO().BackendRendererUserData : nullptr;

	test	rbx, rbx
	je	SHORT $LN66@RenderUI
	mov	rax, QWORD PTR [rbx+160]
	jmp	SHORT $LN67@RenderUI
$LN66@RenderUI:
	mov	rax, r12
$LN67@RenderUI:

; 125  :     if (!bd->FontTexture)

	mov	r14d, 1
	cmp	DWORD PTR [rax], r12d
	jne	$LN62@RenderUI

; 81   :     return ImGui::GetCurrentContext() ? (ImGui_ImplOpenGL2_Data*)ImGui::GetIO().BackendRendererUserData : nullptr;

	test	rbx, rbx
	je	SHORT $LN74@RenderUI
	mov	rdi, QWORD PTR [rbx+160]
	jmp	SHORT $LN75@RenderUI
$LN74@RenderUI:
	mov	rdi, r12
$LN75@RenderUI:

; 264  :     io.Fonts->GetTexDataAsRGBA32(&pixels, &width, &height);   // Load as RGBA 32-bit (75% of the memory is wasted, but default font is so small) because it is more likely to be compatible with user's existing shaders. If your ImTextureId represent a higher-level concept than just a GL texture id, consider calling GetTexDataAsAlpha8() instead to save on GPU memory.

	mov	rcx, QWORD PTR [rbx+56]
	lea	r9, QWORD PTR height$20[rbp-137]
	lea	r8, QWORD PTR width$21[rbp-137]
	lea	rdx, QWORD PTR pixels$19[rbp-137]
	call	?GetTexDataAsRGBA32@ImFontAtlas@@QEAAXPEAPEAEPEAH11@Z ; ImFontAtlas::GetTexDataAsRGBA32

; 265  : 
; 266  :     // Upload texture to graphics system
; 267  :     // (Bilinear sampling is required by default. Set 'io.Fonts->Flags |= ImFontAtlasFlags_NoBakedLines' or 'style.AntiAliasedLinesUseTex = false' to allow point/nearest sampling)
; 268  :     GLint last_texture;
; 269  :     glGetIntegerv(GL_TEXTURE_BINDING_2D, &last_texture);

	lea	rdx, QWORD PTR last_texture$24[rbp-137]
	mov	ecx, 32873				; 00008069H
	call	QWORD PTR __imp_glGetIntegerv

; 270  :     glGenTextures(1, &bd->FontTexture);

	mov	rdx, rdi
	mov	ecx, r14d
	call	QWORD PTR __imp_glGenTextures

; 271  :     glBindTexture(GL_TEXTURE_2D, bd->FontTexture);

	mov	edx, DWORD PTR [rdi]
	mov	ecx, 3553				; 00000de1H
	call	QWORD PTR __imp_glBindTexture

; 272  :     glTexParameteri(GL_TEXTURE_2D, GL_TEXTURE_MIN_FILTER, GL_LINEAR);

	mov	edx, 10241				; 00002801H
	mov	ecx, 3553				; 00000de1H
	mov	r8d, 9729				; 00002601H
	call	QWORD PTR __imp_glTexParameteri

; 273  :     glTexParameteri(GL_TEXTURE_2D, GL_TEXTURE_MAG_FILTER, GL_LINEAR);

	mov	edx, 10240				; 00002800H
	mov	ecx, 3553				; 00000de1H
	mov	r8d, 9729				; 00002601H
	call	QWORD PTR __imp_glTexParameteri

; 274  :     glPixelStorei(GL_UNPACK_ROW_LENGTH, 0);

	xor	edx, edx
	mov	ecx, 3314				; 00000cf2H
	call	QWORD PTR __imp_glPixelStorei

; 275  :     glTexImage2D(GL_TEXTURE_2D, 0, GL_RGBA, width, height, 0, GL_RGBA, GL_UNSIGNED_BYTE, pixels);

	mov	rax, QWORD PTR pixels$19[rbp-137]
	xor	edx, edx
	mov	r9d, DWORD PTR width$21[rbp-137]
	mov	ecx, 3553				; 00000de1H
	mov	QWORD PTR [rsp+64], rax
	mov	r8d, 6408				; 00001908H
	mov	eax, DWORD PTR height$20[rbp-137]
	mov	DWORD PTR [rsp+56], 5121		; 00001401H
	mov	DWORD PTR [rsp+48], 6408		; 00001908H
	mov	DWORD PTR [rsp+40], r12d
	mov	DWORD PTR [rsp+32], eax
	call	QWORD PTR __imp_glTexImage2D

; 276  : 
; 277  :     // Store our identifier
; 278  :     io.Fonts->SetTexID((ImTextureID)(intptr_t)bd->FontTexture);

	mov	ecx, DWORD PTR [rdi]
	mov	rax, QWORD PTR [rbx+56]
	mov	QWORD PTR [rax+8], rcx

; 279  : 
; 280  :     // Restore state
; 281  :     glBindTexture(GL_TEXTURE_2D, last_texture);

	mov	ecx, 3553				; 00000de1H
	mov	edx, DWORD PTR last_texture$24[rbp-137]
	call	QWORD PTR __imp_glBindTexture
$LN62@RenderUI:
; File C:\dev\Photo Studio\Photo Studio\Source\Application.cpp

; 192  :     ImGui_ImplSDL2_NewFrame();

	call	?ImGui_ImplSDL2_NewFrame@@YAXXZ		; ImGui_ImplSDL2_NewFrame

; 193  :     ImGui::NewFrame();

	call	?NewFrame@ImGui@@YAXXZ			; ImGui::NewFrame

; 194  : 
; 195  :     ImGuiIO& io = ImGui::GetIO(); (void)io;

	mov	r15, QWORD PTR ?GImGui@@3PEAUImGuiContext@@EA ; GImGui
; File C:\dev\Photo Studio\Photo Studio\Dependencies\imgui\imgui_internal.h

; 1015 :     ImGuiStyleMod(ImGuiStyleVar idx, float v)   { VarIdx = idx; BackupFloat[0] = v; }

	mov	DWORD PTR $T3[rbp-137], 3
; File C:\dev\Photo Studio\Photo Studio\Dependencies\imgui\imgui.h

; 2020 :     inline T&           operator[](int i)                   { IM_ASSERT(i >= 0 && i < Size); return Data[i]; }

	mov	rax, QWORD PTR [r15+19584]
; File C:\dev\Photo Studio\Photo Studio\Dependencies\imgui\imgui.cpp

; 8296 :     g.NextWindowData.Flags |= ImGuiNextWindowDataFlags_HasPos;

	mov	ecx, DWORD PTR [r15+19264]
	or	ecx, r14d

; 14572:     return g.Viewports[0];

	mov	rdx, QWORD PTR [rax]

; 8296 :     g.NextWindowData.Flags |= ImGuiNextWindowDataFlags_HasPos;

	mov	DWORD PTR [r15+19264], ecx

; 8307 :     g.NextWindowData.Flags |= ImGuiNextWindowDataFlags_HasSize;

	or	ecx, 2

; 8297 :     g.NextWindowData.PosVal = pos;

	movsd	xmm0, QWORD PTR [rdx+24]

; 8307 :     g.NextWindowData.Flags |= ImGuiNextWindowDataFlags_HasSize;

	mov	DWORD PTR [r15+19264], ecx

; 8366 :     g.NextWindowData.Flags |= ImGuiNextWindowDataFlags_HasViewport;

	bts	ecx, 9

; 8297 :     g.NextWindowData.PosVal = pos;

	movsd	QWORD PTR [r15+19284], xmm0

; 8298 :     g.NextWindowData.PosPivotVal = pivot;

	mov	QWORD PTR [r15+19292], r12

; 8299 :     g.NextWindowData.PosCond = cond ? cond : ImGuiCond_Always;

	mov	DWORD PTR [r15+19268], r14d

; 8300 :     g.NextWindowData.PosUndock = true;

	mov	BYTE PTR [r15+19328], r14b

; 8308 :     g.NextWindowData.SizeVal = size;

	movsd	xmm0, QWORD PTR [rdx+32]
	movsd	QWORD PTR [r15+19300], xmm0

; 8309 :     g.NextWindowData.SizeCond = cond ? cond : ImGuiCond_Always;

	mov	DWORD PTR [r15+19272], r14d
; File C:\dev\Photo Studio\Photo Studio\Source\Application.cpp

; 206  :     ImGui::SetNextWindowViewport(viewport->ID);

	mov	eax, DWORD PTR [rdx]
; File C:\dev\Photo Studio\Photo Studio\Dependencies\imgui\imgui.cpp

; 3222 :         g.StyleVarStack.push_back(ImGuiStyleMod(idx, *pvar));

	lea	rdx, QWORD PTR $T3[rbp-137]

; 8366 :     g.NextWindowData.Flags |= ImGuiNextWindowDataFlags_HasViewport;

	mov	DWORD PTR [r15+19264], ecx

; 3222 :         g.StyleVarStack.push_back(ImGuiStyleMod(idx, *pvar));

	lea	rcx, QWORD PTR [r15+19448]

; 8367 :     g.NextWindowData.ViewportId = id;

	mov	DWORD PTR [r15+19372], eax
; File C:\dev\Photo Studio\Photo Studio\Dependencies\imgui\imgui_internal.h

; 1015 :     ImGuiStyleMod(ImGuiStyleVar idx, float v)   { VarIdx = idx; BackupFloat[0] = v; }

	movss	xmm0, DWORD PTR [r15+14856]
	movss	DWORD PTR $T3[rbp-133], xmm0
; File C:\dev\Photo Studio\Photo Studio\Dependencies\imgui\imgui.cpp

; 3222 :         g.StyleVarStack.push_back(ImGuiStyleMod(idx, *pvar));

	call	?push_back@?$ImVector@UImGuiStyleMod@@@@QEAAXAEBUImGuiStyleMod@@@Z ; ImVector<ImGuiStyleMod>::push_back

; 3217 :     ImGuiContext& g = *GImGui;

	mov	rbx, QWORD PTR ?GImGui@@3PEAUImGuiContext@@EA ; GImGui

; 3222 :         g.StyleVarStack.push_back(ImGuiStyleMod(idx, *pvar));

	lea	rdx, QWORD PTR $T4[rbp-137]

; 3223 :         *pvar = val;

	mov	DWORD PTR [r15+14856], r12d
; File C:\dev\Photo Studio\Photo Studio\Dependencies\imgui\imgui_internal.h

; 1015 :     ImGuiStyleMod(ImGuiStyleVar idx, float v)   { VarIdx = idx; BackupFloat[0] = v; }

	mov	DWORD PTR $T4[rbp-137], 4
	movss	xmm0, DWORD PTR [rbx+14860]
; File C:\dev\Photo Studio\Photo Studio\Dependencies\imgui\imgui.cpp

; 3222 :         g.StyleVarStack.push_back(ImGuiStyleMod(idx, *pvar));

	lea	rcx, QWORD PTR [rbx+19448]
; File C:\dev\Photo Studio\Photo Studio\Dependencies\imgui\imgui_internal.h

; 1015 :     ImGuiStyleMod(ImGuiStyleVar idx, float v)   { VarIdx = idx; BackupFloat[0] = v; }

	movss	DWORD PTR $T4[rbp-133], xmm0
; File C:\dev\Photo Studio\Photo Studio\Dependencies\imgui\imgui.cpp

; 3222 :         g.StyleVarStack.push_back(ImGuiStyleMod(idx, *pvar));

	call	?push_back@?$ImVector@UImGuiStyleMod@@@@QEAAXAEBUImGuiStyleMod@@@Z ; ImVector<ImGuiStyleMod>::push_back

; 3223 :         *pvar = val;

	mov	DWORD PTR [rbx+14860], r12d

; 3236 :         g.StyleVarStack.push_back(ImGuiStyleMod(idx, *pvar));

	lea	rdx, QWORD PTR $T6[rbp-137]
	mov	rbx, QWORD PTR ?GImGui@@3PEAUImGuiContext@@EA ; GImGui
; File C:\dev\Photo Studio\Photo Studio\Dependencies\imgui\imgui_internal.h

; 1016 :     ImGuiStyleMod(ImGuiStyleVar idx, ImVec2 v)  { VarIdx = idx; BackupFloat[0] = v.x; BackupFloat[1] = v.y; }

	mov	DWORD PTR $T6[rbp-137], 2
; File C:\dev\Photo Studio\Photo Studio\Dependencies\imgui\imgui.cpp

; 3236 :         g.StyleVarStack.push_back(ImGuiStyleMod(idx, *pvar));

	movss	xmm1, DWORD PTR [rbx+14848]
	lea	rcx, QWORD PTR [rbx+19448]
	movss	xmm0, DWORD PTR [rbx+14852]
; File C:\dev\Photo Studio\Photo Studio\Dependencies\imgui\imgui_internal.h

; 1016 :     ImGuiStyleMod(ImGuiStyleVar idx, ImVec2 v)  { VarIdx = idx; BackupFloat[0] = v.x; BackupFloat[1] = v.y; }

	movss	DWORD PTR $T6[rbp-133], xmm1
	movss	DWORD PTR $T6[rbp-129], xmm0
; File C:\dev\Photo Studio\Photo Studio\Dependencies\imgui\imgui.cpp

; 3236 :         g.StyleVarStack.push_back(ImGuiStyleMod(idx, *pvar));

	call	?push_back@?$ImVector@UImGuiStyleMod@@@@QEAAXAEBUImGuiStyleMod@@@Z ; ImVector<ImGuiStyleMod>::push_back
; File C:\dev\Photo Studio\Photo Studio\Source\Application.cpp

; 212  :     ImGui::Begin("DockSpace Demo", nullptr, window_flags);

	xor	edx, edx
; File C:\dev\Photo Studio\Photo Studio\Dependencies\imgui\imgui.cpp

; 3237 :         *pvar = val;

	mov	QWORD PTR [rbx+14848], r12
; File C:\dev\Photo Studio\Photo Studio\Source\Application.cpp

; 212  :     ImGui::Begin("DockSpace Demo", nullptr, window_flags);

	mov	r8d, 139303				; 00022027H
	lea	rcx, OFFSET FLAT:??_C@_0P@IHLBBLJK@DockSpace?5Demo@
	call	?Begin@ImGui@@YA_NPEBDPEA_NH@Z		; ImGui::Begin

; 213  : 
; 214  :     ImGui::PopStyleVar(3);

	mov	ecx, 3
	call	?PopStyleVar@ImGui@@YAXH@Z		; ImGui::PopStyleVar
; File C:\dev\Photo Studio\Photo Studio\Dependencies\imgui\imgui.cpp

; 8710 :     ImGuiWindow* window = GImGui->CurrentWindow;

	mov	rax, QWORD PTR ?GImGui@@3PEAUImGuiContext@@EA ; GImGui

; 8590 :     ImGuiID id = ImHashStr(str, str_end ? (str_end - str) : 0, seed);

	xor	edx, edx

; 8710 :     ImGuiWindow* window = GImGui->CurrentWindow;

	mov	rbx, QWORD PTR [rax+16704]
; File C:\dev\Photo Studio\Photo Studio\Dependencies\imgui\imgui.h

; 2029 :     inline T&           back()                              { IM_ASSERT(Size > 0); return Data[Size - 1]; }

	movsxd	rcx, DWORD PTR [rbx+304]
; File C:\dev\Photo Studio\Photo Studio\Dependencies\imgui\imgui.cpp

; 8590 :     ImGuiID id = ImHashStr(str, str_end ? (str_end - str) : 0, seed);

	mov	rax, QWORD PTR [rbx+312]
	mov	r8d, DWORD PTR [rax+rcx*4-4]
	lea	rcx, OFFSET FLAT:??_C@_0M@MOJOFFHL@MyDockSpace@
	call	?ImHashStr@@YAIPEBD_KI@Z		; ImHashStr

; 8591 : #ifndef IMGUI_DISABLE_DEBUG_TOOLS
; 8592 :     ImGuiContext& g = *Ctx;
; 8593 :     if (g.DebugHookIdInfo == id)

	mov	rcx, QWORD PTR [rbx]
	mov	edi, eax
	cmp	DWORD PTR [rcx+16780], eax
	jne	SHORT $LN118@RenderUI

; 8594 :         ImGui::DebugHookIdInfo(id, ImGuiDataType_String, str, str_end);

	lea	r8, OFFSET FLAT:??_C@_0M@MOJOFFHL@MyDockSpace@
	mov	edx, 11
	mov	ecx, eax
	call	?DebugHookIdInfo@ImGui@@YAXIHPEBX0@Z	; ImGui::DebugHookIdInfo
$LN118@RenderUI:
; File C:\dev\Photo Studio\Photo Studio\Source\Application.cpp

; 217  :     ImGui::DockSpace(dockspace_id, ImVec2(0.0f, 0.0f), dockspace_flags);

	lea	rdx, QWORD PTR $T7[rbp-137]
; File C:\dev\Photo Studio\Photo Studio\Dependencies\imgui\imgui.h

; 279  :     constexpr ImVec2(float _x, float _y)    : x(_x), y(_y) { }

	mov	QWORD PTR $T7[rbp-137], r12
; File C:\dev\Photo Studio\Photo Studio\Source\Application.cpp

; 217  :     ImGui::DockSpace(dockspace_id, ImVec2(0.0f, 0.0f), dockspace_flags);

	mov	ecx, edi
	call	?DockSpace@ImGui@@YAIIAEBUImVec2@@HPEBUImGuiWindowClass@@@Z ; ImGui::DockSpace

; 218  : 
; 219  :     DrawTitleBar();

	mov	rcx, r13
	call	?DrawTitleBar@Application@@AEAAXXZ	; Application::DrawTitleBar

; 220  : 
; 221  : 
; 222  :     m_Tools.DrawToolPropertiesMenu();

	lea	rcx, QWORD PTR [r13+88]
	call	?DrawToolPropertiesMenu@Tools@@QEAAXXZ	; Tools::DrawToolPropertiesMenu

; 223  : 
; 224  :     m_Tools.DrawToolbar();

	lea	rcx, QWORD PTR [r13+88]
	call	?DrawToolbar@Tools@@QEAAXXZ		; Tools::DrawToolbar
; File C:\Program Files\Microsoft Visual Studio\2022\Community\VC\Tools\MSVC\14.36.32532\include\vector

; 1867 :         return static_cast<size_type>(_My_data._Mylast - _My_data._Myfirst);

	mov	rdx, QWORD PTR [r13+64]
; File C:\dev\Photo Studio\Photo Studio\Source\Application.cpp

; 228  :     for (int i = 0; i < m_Canvases.size(); ++i) {

	mov	edi, r12d
; File C:\Program Files\Microsoft Visual Studio\2022\Community\VC\Tools\MSVC\14.36.32532\include\vector

; 1867 :         return static_cast<size_type>(_My_data._Mylast - _My_data._Myfirst);

	mov	rax, QWORD PTR [r13+72]
	sub	rax, rdx
; File C:\dev\Photo Studio\Photo Studio\Source\Application.cpp

; 226  :     CanvasData::m_CanvasFocused = false;

	mov	BYTE PTR ?m_CanvasFocused@CanvasData@@2_NA, r12b ; CanvasData::m_CanvasFocused
; File C:\Program Files\Microsoft Visual Studio\2022\Community\VC\Tools\MSVC\14.36.32532\include\vector

; 1867 :         return static_cast<size_type>(_My_data._Mylast - _My_data._Myfirst);

	sar	rax, 4
; File C:\dev\Photo Studio\Photo Studio\Source\Application.cpp

; 227  :     CanvasData::m_CanvasHovered = false;

	mov	BYTE PTR ?m_CanvasHovered@CanvasData@@2_NA, r12b ; CanvasData::m_CanvasHovered

; 228  :     for (int i = 0; i < m_Canvases.size(); ++i) {

	test	rax, rax
	je	SHORT $LN3@RenderUI
; File C:\Program Files\Microsoft Visual Studio\2022\Community\VC\Tools\MSVC\14.36.32532\include\vector

; 1866 :         auto& _My_data = _Mypair._Myval2;

	mov	rbx, r12
$LL4@RenderUI:
; File C:\dev\Photo Studio\Photo Studio\Source\Application.cpp

; 229  :         m_Canvases[i]->DrawCanvas();

	mov	rcx, QWORD PTR [rbx+rdx]
	call	?DrawCanvas@Canvas@@QEAAXXZ		; Canvas::DrawCanvas
; File C:\Program Files\Microsoft Visual Studio\2022\Community\VC\Tools\MSVC\14.36.32532\include\vector

; 1867 :         return static_cast<size_type>(_My_data._Mylast - _My_data._Myfirst);

	mov	rdx, QWORD PTR [r13+64]
; File C:\dev\Photo Studio\Photo Studio\Source\Application.cpp

; 228  :     for (int i = 0; i < m_Canvases.size(); ++i) {

	lea	rbx, QWORD PTR [rbx+16]
; File C:\Program Files\Microsoft Visual Studio\2022\Community\VC\Tools\MSVC\14.36.32532\include\vector

; 1867 :         return static_cast<size_type>(_My_data._Mylast - _My_data._Myfirst);

	mov	rcx, QWORD PTR [r13+72]
; File C:\dev\Photo Studio\Photo Studio\Source\Application.cpp

; 228  :     for (int i = 0; i < m_Canvases.size(); ++i) {

	inc	edi
; File C:\Program Files\Microsoft Visual Studio\2022\Community\VC\Tools\MSVC\14.36.32532\include\vector

; 1867 :         return static_cast<size_type>(_My_data._Mylast - _My_data._Myfirst);

	sub	rcx, rdx
; File C:\dev\Photo Studio\Photo Studio\Source\Application.cpp

; 228  :     for (int i = 0; i < m_Canvases.size(); ++i) {

	movsxd	rax, edi
; File C:\Program Files\Microsoft Visual Studio\2022\Community\VC\Tools\MSVC\14.36.32532\include\vector

; 1867 :         return static_cast<size_type>(_My_data._Mylast - _My_data._Myfirst);

	sar	rcx, 4
; File C:\dev\Photo Studio\Photo Studio\Source\Application.cpp

; 228  :     for (int i = 0; i < m_Canvases.size(); ++i) {

	cmp	rax, rcx
	jb	SHORT $LL4@RenderUI
$LN3@RenderUI:
; File C:\dev\Photo Studio\Photo Studio\Dependencies\imgui\imgui.cpp

; 8380 :     ImGuiContext& g = *GImGui;

	mov	rax, QWORD PTR ?GImGui@@3PEAUImGuiContext@@EA ; GImGui
; File C:\dev\Photo Studio\Photo Studio\Source\WindowManager.cpp

; 18   :     ImGui::Begin("Color", nullptr, ImGuiWindowFlags_NoScrollbar);

	lea	rcx, OFFSET FLAT:??_C@_05PDOBBJNA@Color@
	xorps	xmm0, xmm0
	mov	esi, 8
; File C:\dev\Photo Studio\Photo Studio\Dependencies\imgui\imgui.h

; 2429 :     ImGuiWindowClass() { memset(this, 0, sizeof(*this)); ParentViewportId = (ImGuiID)-1; DockingAllowUnclassed = true; }

	movups	XMMWORD PTR window_class$22[rbp-121], xmm0
	mov	BYTE PTR window_class$22[rbp-108], r14b
; File C:\dev\Photo Studio\Photo Studio\Source\WindowManager.cpp

; 18   :     ImGui::Begin("Color", nullptr, ImGuiWindowFlags_NoScrollbar);

	mov	r8d, esi
; File C:\dev\Photo Studio\Photo Studio\Dependencies\imgui\imgui.cpp

; 8382 :     g.NextWindowData.Flags |= ImGuiNextWindowDataFlags_HasWindowClass;

	or	DWORD PTR [rax+19264], 2048		; 00000800H
; File C:\dev\Photo Studio\Photo Studio\Source\WindowManager.cpp

; 18   :     ImGui::Begin("Color", nullptr, ImGuiWindowFlags_NoScrollbar);

	xor	edx, edx
; File C:\dev\Photo Studio\Photo Studio\Dependencies\imgui\imgui.h

; 2429 :     ImGuiWindowClass() { memset(this, 0, sizeof(*this)); ParentViewportId = (ImGuiID)-1; DockingAllowUnclassed = true; }

	movups	XMMWORD PTR window_class$22[rbp-137], xmm0
	mov	DWORD PTR window_class$22[rbp-133], -1	; ffffffffH
; File C:\dev\Photo Studio\Photo Studio\Dependencies\imgui\imgui.cpp

; 8383 :     g.NextWindowData.WindowClass = *window_class;

	movups	xmm0, XMMWORD PTR window_class$22[rbp-137]
; File C:\dev\Photo Studio\Photo Studio\Source\WindowManager.cpp

; 15   :     window_class.DockNodeFlagsOverrideSet = ImGuiDockNodeFlags_NoWindowMenuButton;

	mov	DWORD PTR window_class$22[rbp-113], 16384 ; 00004000H
; File C:\dev\Photo Studio\Photo Studio\Dependencies\imgui\imgui.cpp

; 8383 :     g.NextWindowData.WindowClass = *window_class;

	movups	xmm1, XMMWORD PTR window_class$22[rbp-121]
	movups	XMMWORD PTR [rax+19380], xmm0
	movups	XMMWORD PTR [rax+19396], xmm1
; File C:\dev\Photo Studio\Photo Studio\Source\WindowManager.cpp

; 18   :     ImGui::Begin("Color", nullptr, ImGuiWindowFlags_NoScrollbar);

	call	?Begin@ImGui@@YA_NPEBDPEA_NH@Z		; ImGui::Begin
; File C:\dev\Photo Studio\Photo Studio\Dependencies\imgui\imgui.cpp

; 10935:     ImGuiWindow* window = GImGui->CurrentWindow;

	mov	rax, QWORD PTR ?GImGui@@3PEAUImGuiContext@@EA ; GImGui
	mov	r8, QWORD PTR [rax+16704]

; 10929:     ImVec2 mx = (window->DC.CurrentColumns || g.CurrentTable) ? window->WorkRect.Max : window->ContentRegionRect.Max;

	cmp	QWORD PTR [r8+488], r12
	jne	SHORT $LN29@RenderUI
	mov	ecx, 656				; 00000290H
	cmp	QWORD PTR [rax+20480], r12
	je	SHORT $LN30@RenderUI
$LN29@RenderUI:
	mov	ecx, 608				; 00000260H
$LN30@RenderUI:
	movss	xmm1, DWORD PTR [rcx+r8]
; File C:\dev\Photo Studio\Photo Studio\Source\WindowManager.cpp

; 22   :     ImGui::ColorPicker4("##MyColor##5", (float*)&WindowData::m_Color, ImGuiColorEditFlags_NoInputs);

	lea	rdx, OFFSET FLAT:?m_Color@WindowData@@2U?$vec@$03M$0A@@glm@@A ; WindowData::m_Color
; File C:\dev\Photo Studio\Photo Studio\Dependencies\imgui\imgui.h

; 2632 : static inline ImVec2  operator-(const ImVec2& lhs, const ImVec2& rhs)   { return ImVec2(lhs.x - rhs.x, lhs.y - rhs.y); }

	movss	xmm0, DWORD PTR [r8+320]
; File C:\dev\Photo Studio\Photo Studio\Source\WindowManager.cpp

; 22   :     ImGui::ColorPicker4("##MyColor##5", (float*)&WindowData::m_Color, ImGuiColorEditFlags_NoInputs);

	lea	rcx, OFFSET FLAT:??_C@_0N@HENPPCEP@?$CD?$CDMyColor?$CD?$CD5@
; File C:\dev\Photo Studio\Photo Studio\Dependencies\imgui\imgui.cpp

; 10803:     g.NextItemData.Flags |= ImGuiNextItemDataFlags_HasWidth;

	or	DWORD PTR [rax+19152], r14d
; File C:\dev\Photo Studio\Photo Studio\Dependencies\imgui\imgui.h

; 2632 : static inline ImVec2  operator-(const ImVec2& lhs, const ImVec2& rhs)   { return ImVec2(lhs.x - rhs.x, lhs.y - rhs.y); }

	subss	xmm1, xmm0
; File C:\dev\Photo Studio\Photo Studio\Source\WindowManager.cpp

; 22   :     ImGui::ColorPicker4("##MyColor##5", (float*)&WindowData::m_Color, ImGuiColorEditFlags_NoInputs);

	xor	r9d, r9d
	subss	xmm1, DWORD PTR [rax+14920]
	lea	r8d, QWORD PTR [r9+32]
; File C:\dev\Photo Studio\Photo Studio\Dependencies\imgui\imgui.cpp

; 10804:     g.NextItemData.Width = item_width;

	movss	DWORD PTR [rax+19168], xmm1
; File C:\dev\Photo Studio\Photo Studio\Source\WindowManager.cpp

; 22   :     ImGui::ColorPicker4("##MyColor##5", (float*)&WindowData::m_Color, ImGuiColorEditFlags_NoInputs);

	call	?ColorPicker4@ImGui@@YA_NPEBDQEAMHPEBM@Z ; ImGui::ColorPicker4

; 23   :     //std::cout << WindowData::m_Color.a << "\n";
; 24   :     //WindowData::m_Color.a = 1.0f;
; 25   :     ImGui::End();

	call	?End@ImGui@@YAXXZ			; ImGui::End
; File C:\dev\Photo Studio\Photo Studio\Dependencies\imgui\imgui.cpp

; 8380 :     ImGuiContext& g = *GImGui;

	mov	rax, QWORD PTR ?GImGui@@3PEAUImGuiContext@@EA ; GImGui
; File C:\dev\Photo Studio\Photo Studio\Source\Application.cpp

; 239  :         ImGui::Begin("Properties");

	lea	rcx, OFFSET FLAT:??_C@_0L@KOOGALIH@Properties@
	xorps	xmm0, xmm0
	xor	r8d, r8d
; File C:\dev\Photo Studio\Photo Studio\Dependencies\imgui\imgui.h

; 2429 :     ImGuiWindowClass() { memset(this, 0, sizeof(*this)); ParentViewportId = (ImGuiID)-1; DockingAllowUnclassed = true; }

	movups	XMMWORD PTR window_class$23[rbp-121], xmm0
	mov	BYTE PTR window_class$23[rbp-108], r14b
; File C:\dev\Photo Studio\Photo Studio\Source\Application.cpp

; 239  :         ImGui::Begin("Properties");

	xor	edx, edx
; File C:\dev\Photo Studio\Photo Studio\Dependencies\imgui\imgui.cpp

; 8382 :     g.NextWindowData.Flags |= ImGuiNextWindowDataFlags_HasWindowClass;

	or	DWORD PTR [rax+19264], 2048		; 00000800H
; File C:\dev\Photo Studio\Photo Studio\Dependencies\imgui\imgui.h

; 2429 :     ImGuiWindowClass() { memset(this, 0, sizeof(*this)); ParentViewportId = (ImGuiID)-1; DockingAllowUnclassed = true; }

	movups	XMMWORD PTR window_class$23[rbp-137], xmm0
	mov	DWORD PTR window_class$23[rbp-133], -1	; ffffffffH
; File C:\dev\Photo Studio\Photo Studio\Dependencies\imgui\imgui.cpp

; 8383 :     g.NextWindowData.WindowClass = *window_class;

	movups	xmm0, XMMWORD PTR window_class$23[rbp-137]
; File C:\dev\Photo Studio\Photo Studio\Source\Application.cpp

; 236  :         window_class.DockNodeFlagsOverrideSet = ImGuiDockNodeFlags_NoWindowMenuButton;

	mov	DWORD PTR window_class$23[rbp-113], 16384 ; 00004000H
; File C:\dev\Photo Studio\Photo Studio\Dependencies\imgui\imgui.cpp

; 8383 :     g.NextWindowData.WindowClass = *window_class;

	movups	xmm1, XMMWORD PTR window_class$23[rbp-121]
	movups	XMMWORD PTR [rax+19380], xmm0
	movups	XMMWORD PTR [rax+19396], xmm1
; File C:\dev\Photo Studio\Photo Studio\Source\Application.cpp

; 239  :         ImGui::Begin("Properties");

	call	?Begin@ImGui@@YA_NPEBDPEA_NH@Z		; ImGui::Begin

; 240  : 
; 241  :         ImGui::End();

	call	?End@ImGui@@YAXXZ			; ImGui::End
; File C:\Program Files\Microsoft Visual Studio\2022\Community\VC\Tools\MSVC\14.36.32532\include\vector

; 1902 :         if (static_cast<size_type>(_My_data._Mylast - _My_data._Myfirst) <= _Pos) {

	mov	rdx, QWORD PTR [r13+64]
	mov	rax, QWORD PTR [r13+72]
; File C:\dev\Photo Studio\Photo Studio\Source\Application.cpp

; 243  :         m_Canvases.at(CanvasData::m_ActiveCanvas)->DrawLayersWindow();

	movsxd	rcx, DWORD PTR ?m_ActiveCanvas@CanvasData@@2HA ; CanvasData::m_ActiveCanvas
; File C:\Program Files\Microsoft Visual Studio\2022\Community\VC\Tools\MSVC\14.36.32532\include\vector

; 1902 :         if (static_cast<size_type>(_My_data._Mylast - _My_data._Myfirst) <= _Pos) {

	sub	rax, rdx
	sar	rax, 4
	cmp	rax, rcx
	jbe	$LN161@RenderUI

; 1904 :         }
; 1905 : 
; 1906 :         return _My_data._Myfirst[_Pos];

	add	rcx, rcx
; File C:\dev\Photo Studio\Photo Studio\Source\Application.cpp

; 243  :         m_Canvases.at(CanvasData::m_ActiveCanvas)->DrawLayersWindow();

	mov	rcx, QWORD PTR [rdx+rcx*8]
	call	?DrawLayersWindow@LayerManager@@QEAAXXZ	; LayerManager::DrawLayersWindow

; 244  :         /*ImGui::Begin("Layers");
; 245  :         ImGui::End();*/
; 246  :     }
; 247  : 
; 248  :     ImGui::End();

	call	?End@ImGui@@YAXXZ			; ImGui::End

; 249  : 
; 250  : 
; 251  : 
; 252  :     // Rendering
; 253  :     ImGui::Render();

	call	?Render@ImGui@@YAXXZ			; ImGui::Render
; File C:\dev\Photo Studio\Photo Studio\Dependencies\imgui\imgui.h

; 2020 :     inline T&           operator[](int i)                   { IM_ASSERT(i >= 0 && i < Size); return Data[i]; }

	mov	rax, QWORD PTR ?GImGui@@3PEAUImGuiContext@@EA ; GImGui
	mov	rcx, QWORD PTR [rax+19584]
; File C:\dev\Photo Studio\Photo Studio\Dependencies\imgui\imgui.cpp

; 4371 :     ImGuiViewportP* viewport = g.Viewports[0];

	mov	rcx, QWORD PTR [rcx]
	add	rcx, 168				; 000000a8H
; File C:\dev\Photo Studio\Photo Studio\Source\Application.cpp

; 256  :     ImGui_ImplOpenGL2_RenderDrawData(ImGui::GetDrawData());

	cmp	BYTE PTR [rcx], r12b
	cmove	rcx, r12
	call	?ImGui_ImplOpenGL2_RenderDrawData@@YAXPEAUImDrawData@@@Z ; ImGui_ImplOpenGL2_RenderDrawData

; 257  : 
; 258  :     if (io.ConfigFlags & ImGuiConfigFlags_ViewportsEnable)

	test	DWORD PTR [r15+8], 1024			; 00000400H
	je	$LN5@RenderUI

; 259  :     {
; 260  :         SDL_Window* backup_current_window = SDL_GL_GetCurrentWindow();

	call	QWORD PTR __imp_SDL_GL_GetCurrentWindow
	mov	QWORD PTR backup_current_window$1$[rbp-137], rax

; 261  :         SDL_GLContext backup_current_context = SDL_GL_GetCurrentContext();

	call	QWORD PTR __imp_SDL_GL_GetCurrentContext
	mov	QWORD PTR backup_current_context$1$[rbp-137], rax

; 262  :         ImGui::UpdatePlatformWindows();

	call	?UpdatePlatformWindows@ImGui@@YAXXZ	; ImGui::UpdatePlatformWindows
; File C:\dev\Photo Studio\Photo Studio\Dependencies\imgui\imgui.cpp

; 15415:     ImGuiPlatformIO& platform_io = ImGui::GetPlatformIO();

	mov	rbx, QWORD PTR ?GImGui@@3PEAUImGuiContext@@EA ; GImGui

; 15416:     for (int i = 1; i < platform_io.Viewports.Size; i++)

	mov	r12d, r14d
	cmp	DWORD PTR [rbx+14824], r14d
	jle	$LN48@RenderUI
	mov	r15, rsi
	npad	2
$LL46@RenderUI:

; 15417:     {
; 15418:         ImGuiViewport* viewport = platform_io.Viewports[i];

	mov	rax, QWORD PTR [rbx+14832]
	mov	rdi, QWORD PTR [r15+rax]

; 15419:         if (viewport->Flags & ImGuiViewportFlags_IsMinimized)

	test	DWORD PTR [rdi+4], 4096			; 00001000H
	jne	SHORT $LN44@RenderUI

; 15420:             continue;
; 15421:         if (platform_io.Platform_RenderWindow) platform_io.Platform_RenderWindow(viewport, platform_render_arg);

	mov	rax, QWORD PTR [rbx+14728]
	test	rax, rax
	je	SHORT $LN51@RenderUI
	xor	edx, edx
	mov	rcx, rdi
	call	rax
$LN51@RenderUI:

; 15422:         if (platform_io.Renderer_RenderWindow) platform_io.Renderer_RenderWindow(viewport, renderer_render_arg);

	mov	rax, QWORD PTR [rbx+14792]
	test	rax, rax
	je	SHORT $LN44@RenderUI
	xor	edx, edx
	mov	rcx, rdi
	call	rax
$LN44@RenderUI:

; 15416:     for (int i = 1; i < platform_io.Viewports.Size; i++)

	mov	eax, DWORD PTR [rbx+14824]
	inc	r12d
	add	r15, rsi
	cmp	r12d, eax
	jl	SHORT $LL46@RenderUI

; 15423:     }
; 15424:     for (int i = 1; i < platform_io.Viewports.Size; i++)

	cmp	eax, r14d
	jle	SHORT $LN48@RenderUI
$LL49@RenderUI:

; 15425:     {
; 15426:         ImGuiViewport* viewport = platform_io.Viewports[i];

	mov	rax, QWORD PTR [rbx+14832]
	mov	rdi, QWORD PTR [rsi+rax]

; 15427:         if (viewport->Flags & ImGuiViewportFlags_IsMinimized)

	test	DWORD PTR [rdi+4], 4096			; 00001000H
	jne	SHORT $LN47@RenderUI

; 15428:             continue;
; 15429:         if (platform_io.Platform_SwapBuffers) platform_io.Platform_SwapBuffers(viewport, platform_render_arg);

	mov	rax, QWORD PTR [rbx+14736]
	test	rax, rax
	je	SHORT $LN54@RenderUI
	xor	edx, edx
	mov	rcx, rdi
	call	rax
$LN54@RenderUI:

; 15430:         if (platform_io.Renderer_SwapBuffers) platform_io.Renderer_SwapBuffers(viewport, renderer_render_arg);

	mov	rax, QWORD PTR [rbx+14800]
	test	rax, rax
	je	SHORT $LN47@RenderUI
	xor	edx, edx
	mov	rcx, rdi
	call	rax
$LN47@RenderUI:

; 15423:     }
; 15424:     for (int i = 1; i < platform_io.Viewports.Size; i++)

	inc	r14d
	add	rsi, 8
	cmp	r14d, DWORD PTR [rbx+14824]
	jl	SHORT $LL49@RenderUI
$LN48@RenderUI:
; File C:\dev\Photo Studio\Photo Studio\Source\Application.cpp

; 264  :         SDL_GL_MakeCurrent(backup_current_window, backup_current_context);

	mov	rdx, QWORD PTR backup_current_context$1$[rbp-137]
	mov	rcx, QWORD PTR backup_current_window$1$[rbp-137]
	call	QWORD PTR __imp_SDL_GL_MakeCurrent
$LN5@RenderUI:

; 265  :     }
; 266  : 
; 267  :     SDL_GL_SwapWindow(m_Window);

	mov	rcx, QWORD PTR [r13]
	call	QWORD PTR __imp_SDL_GL_SwapWindow

; 268  : }

	mov	rcx, QWORD PTR __$ArrayPad$[rbp-137]
	xor	rcx, rsp
	call	__security_check_cookie
	lea	r11, QWORD PTR [rsp+192]
	mov	rbx, QWORD PTR [r11+56]
	mov	rsi, QWORD PTR [r11+64]
	mov	rdi, QWORD PTR [r11+72]
	mov	rsp, r11
	pop	r15
	pop	r14
	pop	r13
	pop	r12
	pop	rbp
	ret	0
$LN161@RenderUI:
; File C:\Program Files\Microsoft Visual Studio\2022\Community\VC\Tools\MSVC\14.36.32532\include\vector

; 1903 :             _Xrange();

	call	?_Xrange@?$vector@V?$shared_ptr@VCanvas@@@std@@V?$allocator@V?$shared_ptr@VCanvas@@@std@@@2@@std@@CAXXZ ; std::vector<std::shared_ptr<Canvas>,std::allocator<std::shared_ptr<Canvas> > >::_Xrange
	int	3
$LN159@RenderUI:
?RenderUI@Application@@QEAAXXZ ENDP			; Application::RenderUI
_TEXT	ENDS
END
