; Listing generated by Microsoft (R) Optimizing Compiler Version 19.36.32535.0 

include listing.inc

INCLUDELIB OLDNAMES

PUBLIC	??_C@_0P@CEJPOEEF@Example?5Canvas@		; `string'
PUBLIC	??_C@_0L@DCCGFMBN@Error?3?5?$CFs?6@		; `string'
PUBLIC	??_C@_01HIHLOKLC@1@				; `string'
PUBLIC	??_C@_0BA@JCFIKKMK@SDL_IME_SHOW_UI@		; `string'
PUBLIC	??_C@_0N@DDOGMLBE@Photo?5Studio@		; `string'
PUBLIC	??_C@_0BP@BFEIMJMJ@Error?3?5SDL_CreateWindow?$CI?$CJ?3?5?$CFs?6@ ; `string'
PUBLIC	??_C@_0P@JLOCEAMK@OpenGL?5loaded?6@		; `string'
PUBLIC	??_C@_0O@BLOPLMMI@Vendor?3?5?5?5?$CFs?6@	; `string'
PUBLIC	??_C@_0O@IPGAJLBD@Renderer?3?5?$CFs?6@		; `string'
PUBLIC	??_C@_0O@NHGDCGCA@Version?3?5?5?$CFs?6@		; `string'
PUBLIC	??_C@_06JNNJGBCL@1?490?45@			; `string'
PUBLIC	??_C@_0BJ@HCOBDBIG@Fonts?1Roboto?9Regular?4ttf@	; `string'
PUBLIC	??_C@_0P@IHLBBLJK@DockSpace?5Demo@		; `string'
PUBLIC	??_C@_0M@MOJOFFHL@MyDockSpace@			; `string'
PUBLIC	??_C@_0L@KOOGALIH@Properties@			; `string'
PUBLIC	??_C@_09MELPKEIH@Title?5Bar@			; `string'
PUBLIC	??_C@_04PBAHLACE@File@				; `string'
PUBLIC	??_C@_06CPMDDACM@Ctrl?$CLN@			; `string'
PUBLIC	??_C@_0M@BKCCDHAN@New?5project@			; `string'
PUBLIC	??_C@_06NAKPFMDA@Ctrl?$CLS@			; `string'
PUBLIC	??_C@_04INACKGJP@Save@				; `string'
PUBLIC	??_C@_0N@CGJKLENG@Shift?$CLCtrl?$CLS@		; `string'
PUBLIC	??_C@_07NCJKBBP@Save?5as@			; `string'
PUBLIC	??_C@_04BBNPPDNC@Edit@				; `string'
PUBLIC	??_C@_06BGNOHHJ@Ctrl?$CLZ@			; `string'
PUBLIC	??_C@_04LPGMNMPN@Undo@				; `string'
PUBLIC	??_C@_0N@HANJOMON@Ctrl?$CLShift?$CLZ@		; `string'
PUBLIC	??_C@_04NKENIHOM@Redo@				; `string'
PUBLIC	??_C@_05NBEAGECF@Image@				; `string'
PUBLIC	??_C@_05NHNHDHBP@Layer@				; `string'
PUBLIC	??_C@_06BNPFFCKO@Ctrl?$CLL@			; `string'
PUBLIC	??_C@_09HNJMKJBB@New?5layer@			; `string'
PUBLIC	??_C@_04KOACHJEN@Type@				; `string'
PUBLIC	??_C@_06HJGPBJLE@Select@			; `string'
PUBLIC	??_C@_06IBDJIBGI@Filter@			; `string'
PUBLIC	??_C@_04OGMCGMPK@View@				; `string'
PUBLIC	??_C@_0N@LIAAGGOF@Ctrl?$CLShift?$CLR@		; `string'
PUBLIC	??_C@_0L@NDBEAOBP@Reset?5view@			; `string'
PUBLIC	??_C@_06BKKJGDHO@Window@			; `string'
PUBLIC	??_C@_04DDFEFHOJ@Help@				; `string'
PUBLIC	??_C@_0M@GEIJOAJB@New?5Canvas?5@		; `string'
PUBLIC	??_R1A@?0A@EA@?$_Ref_count_obj2@VCanvas@@@std@@8 ; std::_Ref_count_obj2<Canvas>::`RTTI Base Class Descriptor at (0,-1,0,64)'
PUBLIC	?_OptionsStorage@?1??__local_stdio_printf_options@@9@4_KA ; `__local_stdio_printf_options'::`2'::_OptionsStorage
PUBLIC	??_R3?$_Ref_count_obj2@VCanvas@@@std@@8		; std::_Ref_count_obj2<Canvas>::`RTTI Class Hierarchy Descriptor'
PUBLIC	??_7?$_Ref_count_obj2@VCanvas@@@std@@6B@	; std::_Ref_count_obj2<Canvas>::`vftable'
PUBLIC	?m_GLContext@Application@@0PEAXEA		; Application::m_GLContext
PUBLIC	??_R0?AV?$_Ref_count_obj2@VCanvas@@@std@@@8	; std::_Ref_count_obj2<Canvas> `RTTI Type Descriptor'
PUBLIC	??_R4?$_Ref_count_obj2@VCanvas@@@std@@6B@	; std::_Ref_count_obj2<Canvas>::`RTTI Complete Object Locator'
PUBLIC	??_R2?$_Ref_count_obj2@VCanvas@@@std@@8		; std::_Ref_count_obj2<Canvas>::`RTTI Base Class Array'
EXTRN	__imp_SDL_GetWindowSize:PROC
EXTRN	__imp_SDL_CreateWindow:PROC
EXTRN	__imp_SDL_GL_SetSwapInterval:PROC
EXTRN	__imp_SDL_PollEvent:PROC
EXTRN	__imp_SDL_GL_CreateContext:PROC
EXTRN	__imp___stdio_common_vfprintf:PROC
EXTRN	__imp_SDL_GL_SetAttribute:PROC
EXTRN	__imp_SDL_GL_GetProcAddress:PROC
EXTRN	__imp_SDL_GetWindowID:PROC
EXTRN	__imp_SDL_GetWindowWMInfo:PROC
EXTRN	__imp_SDL_Quit:PROC
EXTRN	__imp_SDL_SetHint:PROC
EXTRN	__imp_SDL_AddEventWatch:PROC
EXTRN	__imp_SDL_DestroyWindow:PROC
EXTRN	__imp_SDL_Init:PROC
EXTRN	__imp___acrt_iob_func:PROC
EXTRN	__imp_SDL_GL_MakeCurrent:PROC
EXTRN	__imp_DwmSetWindowAttribute:PROC
EXTRN	__imp_SDL_GL_DeleteContext:PROC
EXTRN	__imp_SDL_GL_SwapWindow:PROC
EXTRN	__imp_SDL_GL_GetCurrentContext:PROC
;	COMDAT ?_OptionsStorage@?1??__local_stdio_printf_options@@9@4_KA
_BSS	SEGMENT
?_OptionsStorage@?1??__local_stdio_printf_options@@9@4_KA DQ 01H DUP (?) ; `__local_stdio_printf_options'::`2'::_OptionsStorage
_BSS	ENDS
;	COMDAT ?m_GLContext@Application@@0PEAXEA
_BSS	SEGMENT
?m_GLContext@Application@@0PEAXEA DQ 01H DUP (?)	; Application::m_GLContext
_BSS	ENDS
;	COMDAT ??_R2?$_Ref_count_obj2@VCanvas@@@std@@8
rdata$r	SEGMENT
??_R2?$_Ref_count_obj2@VCanvas@@@std@@8 DD imagerel ??_R1A@?0A@EA@?$_Ref_count_obj2@VCanvas@@@std@@8 ; std::_Ref_count_obj2<Canvas>::`RTTI Base Class Array'
	DD	imagerel ??_R1A@?0A@EA@_Ref_count_base@std@@8
	ORG $+3
rdata$r	ENDS
;	COMDAT ??_R4?$_Ref_count_obj2@VCanvas@@@std@@6B@
rdata$r	SEGMENT
??_R4?$_Ref_count_obj2@VCanvas@@@std@@6B@ DD 01H	; std::_Ref_count_obj2<Canvas>::`RTTI Complete Object Locator'
	DD	00H
	DD	00H
	DD	imagerel ??_R0?AV?$_Ref_count_obj2@VCanvas@@@std@@@8
	DD	imagerel ??_R3?$_Ref_count_obj2@VCanvas@@@std@@8
	DD	imagerel ??_R4?$_Ref_count_obj2@VCanvas@@@std@@6B@
rdata$r	ENDS
;	COMDAT ??_R0?AV?$_Ref_count_obj2@VCanvas@@@std@@@8
data$rs	SEGMENT
??_R0?AV?$_Ref_count_obj2@VCanvas@@@std@@@8 DQ FLAT:??_7type_info@@6B@ ; std::_Ref_count_obj2<Canvas> `RTTI Type Descriptor'
	DQ	0000000000000000H
	DB	'.?AV?$_Ref_count_obj2@VCanvas@@@std@@', 00H
data$rs	ENDS
;	COMDAT ??_7?$_Ref_count_obj2@VCanvas@@@std@@6B@
CONST	SEGMENT
??_7?$_Ref_count_obj2@VCanvas@@@std@@6B@ DQ FLAT:??_R4?$_Ref_count_obj2@VCanvas@@@std@@6B@ ; std::_Ref_count_obj2<Canvas>::`vftable'
	DQ	FLAT:?_Destroy@?$_Ref_count_obj2@VCanvas@@@std@@EEAAXXZ
	DQ	FLAT:?_Delete_this@?$_Ref_count_obj2@VCanvas@@@std@@EEAAXXZ
	DQ	FLAT:??_E?$_Ref_count_obj2@VCanvas@@@std@@UEAAPEAXI@Z
	DQ	FLAT:?_Get_deleter@_Ref_count_base@std@@UEBAPEAXAEBVtype_info@@@Z
CONST	ENDS
;	COMDAT ??_R3?$_Ref_count_obj2@VCanvas@@@std@@8
rdata$r	SEGMENT
??_R3?$_Ref_count_obj2@VCanvas@@@std@@8 DD 00H		; std::_Ref_count_obj2<Canvas>::`RTTI Class Hierarchy Descriptor'
	DD	00H
	DD	02H
	DD	imagerel ??_R2?$_Ref_count_obj2@VCanvas@@@std@@8
rdata$r	ENDS
;	COMDAT ??_R1A@?0A@EA@?$_Ref_count_obj2@VCanvas@@@std@@8
rdata$r	SEGMENT
??_R1A@?0A@EA@?$_Ref_count_obj2@VCanvas@@@std@@8 DD imagerel ??_R0?AV?$_Ref_count_obj2@VCanvas@@@std@@@8 ; std::_Ref_count_obj2<Canvas>::`RTTI Base Class Descriptor at (0,-1,0,64)'
	DD	01H
	DD	00H
	DD	0ffffffffH
	DD	00H
	DD	040H
	DD	imagerel ??_R3?$_Ref_count_obj2@VCanvas@@@std@@8
rdata$r	ENDS
;	COMDAT ?ProjNumber@?DK@??DrawTitleBar@Application@@AEAAXXZ@4HA
_DATA	SEGMENT
?ProjNumber@?DK@??DrawTitleBar@Application@@AEAAXXZ@4HA DD 01H ; `Application::DrawTitleBar'::`58'::ProjNumber
_DATA	ENDS
;	COMDAT ??_C@_0M@GEIJOAJB@New?5Canvas?5@
CONST	SEGMENT
??_C@_0M@GEIJOAJB@New?5Canvas?5@ DB 'New Canvas ', 00H	; `string'
CONST	ENDS
;	COMDAT ??_C@_04DDFEFHOJ@Help@
CONST	SEGMENT
??_C@_04DDFEFHOJ@Help@ DB 'Help', 00H			; `string'
CONST	ENDS
;	COMDAT ??_C@_06BKKJGDHO@Window@
CONST	SEGMENT
??_C@_06BKKJGDHO@Window@ DB 'Window', 00H		; `string'
CONST	ENDS
;	COMDAT ??_C@_0L@NDBEAOBP@Reset?5view@
CONST	SEGMENT
??_C@_0L@NDBEAOBP@Reset?5view@ DB 'Reset view', 00H	; `string'
CONST	ENDS
;	COMDAT ??_C@_0N@LIAAGGOF@Ctrl?$CLShift?$CLR@
CONST	SEGMENT
??_C@_0N@LIAAGGOF@Ctrl?$CLShift?$CLR@ DB 'Ctrl+Shift+R', 00H ; `string'
CONST	ENDS
;	COMDAT ??_C@_04OGMCGMPK@View@
CONST	SEGMENT
??_C@_04OGMCGMPK@View@ DB 'View', 00H			; `string'
CONST	ENDS
;	COMDAT ??_C@_06IBDJIBGI@Filter@
CONST	SEGMENT
??_C@_06IBDJIBGI@Filter@ DB 'Filter', 00H		; `string'
CONST	ENDS
;	COMDAT ??_C@_06HJGPBJLE@Select@
CONST	SEGMENT
??_C@_06HJGPBJLE@Select@ DB 'Select', 00H		; `string'
CONST	ENDS
;	COMDAT ??_C@_04KOACHJEN@Type@
CONST	SEGMENT
??_C@_04KOACHJEN@Type@ DB 'Type', 00H			; `string'
CONST	ENDS
;	COMDAT ??_C@_09HNJMKJBB@New?5layer@
CONST	SEGMENT
??_C@_09HNJMKJBB@New?5layer@ DB 'New layer', 00H	; `string'
CONST	ENDS
;	COMDAT ??_C@_06BNPFFCKO@Ctrl?$CLL@
CONST	SEGMENT
??_C@_06BNPFFCKO@Ctrl?$CLL@ DB 'Ctrl+L', 00H		; `string'
CONST	ENDS
;	COMDAT ??_C@_05NHNHDHBP@Layer@
CONST	SEGMENT
??_C@_05NHNHDHBP@Layer@ DB 'Layer', 00H			; `string'
CONST	ENDS
;	COMDAT ??_C@_05NBEAGECF@Image@
CONST	SEGMENT
??_C@_05NBEAGECF@Image@ DB 'Image', 00H			; `string'
CONST	ENDS
;	COMDAT ??_C@_04NKENIHOM@Redo@
CONST	SEGMENT
??_C@_04NKENIHOM@Redo@ DB 'Redo', 00H			; `string'
CONST	ENDS
;	COMDAT ??_C@_0N@HANJOMON@Ctrl?$CLShift?$CLZ@
CONST	SEGMENT
??_C@_0N@HANJOMON@Ctrl?$CLShift?$CLZ@ DB 'Ctrl+Shift+Z', 00H ; `string'
CONST	ENDS
;	COMDAT ??_C@_04LPGMNMPN@Undo@
CONST	SEGMENT
??_C@_04LPGMNMPN@Undo@ DB 'Undo', 00H			; `string'
CONST	ENDS
;	COMDAT ??_C@_06BGNOHHJ@Ctrl?$CLZ@
CONST	SEGMENT
??_C@_06BGNOHHJ@Ctrl?$CLZ@ DB 'Ctrl+Z', 00H		; `string'
CONST	ENDS
;	COMDAT ??_C@_04BBNPPDNC@Edit@
CONST	SEGMENT
??_C@_04BBNPPDNC@Edit@ DB 'Edit', 00H			; `string'
CONST	ENDS
;	COMDAT ??_C@_07NCJKBBP@Save?5as@
CONST	SEGMENT
??_C@_07NCJKBBP@Save?5as@ DB 'Save as', 00H		; `string'
CONST	ENDS
;	COMDAT ??_C@_0N@CGJKLENG@Shift?$CLCtrl?$CLS@
CONST	SEGMENT
??_C@_0N@CGJKLENG@Shift?$CLCtrl?$CLS@ DB 'Shift+Ctrl+S', 00H ; `string'
CONST	ENDS
;	COMDAT ??_C@_04INACKGJP@Save@
CONST	SEGMENT
??_C@_04INACKGJP@Save@ DB 'Save', 00H			; `string'
CONST	ENDS
;	COMDAT ??_C@_06NAKPFMDA@Ctrl?$CLS@
CONST	SEGMENT
??_C@_06NAKPFMDA@Ctrl?$CLS@ DB 'Ctrl+S', 00H		; `string'
CONST	ENDS
;	COMDAT ??_C@_0M@BKCCDHAN@New?5project@
CONST	SEGMENT
??_C@_0M@BKCCDHAN@New?5project@ DB 'New project', 00H	; `string'
CONST	ENDS
;	COMDAT ??_C@_06CPMDDACM@Ctrl?$CLN@
CONST	SEGMENT
??_C@_06CPMDDACM@Ctrl?$CLN@ DB 'Ctrl+N', 00H		; `string'
CONST	ENDS
;	COMDAT ??_C@_04PBAHLACE@File@
CONST	SEGMENT
??_C@_04PBAHLACE@File@ DB 'File', 00H			; `string'
CONST	ENDS
;	COMDAT ??_C@_09MELPKEIH@Title?5Bar@
CONST	SEGMENT
??_C@_09MELPKEIH@Title?5Bar@ DB 'Title Bar', 00H	; `string'
CONST	ENDS
;	COMDAT ??_C@_0L@KOOGALIH@Properties@
CONST	SEGMENT
??_C@_0L@KOOGALIH@Properties@ DB 'Properties', 00H	; `string'
CONST	ENDS
;	COMDAT ??_C@_0M@MOJOFFHL@MyDockSpace@
CONST	SEGMENT
??_C@_0M@MOJOFFHL@MyDockSpace@ DB 'MyDockSpace', 00H	; `string'
CONST	ENDS
;	COMDAT ??_C@_0P@IHLBBLJK@DockSpace?5Demo@
CONST	SEGMENT
??_C@_0P@IHLBBLJK@DockSpace?5Demo@ DB 'DockSpace Demo', 00H ; `string'
CONST	ENDS
;	COMDAT ??_C@_0BJ@HCOBDBIG@Fonts?1Roboto?9Regular?4ttf@
CONST	SEGMENT
??_C@_0BJ@HCOBDBIG@Fonts?1Roboto?9Regular?4ttf@ DB 'Fonts/Roboto-Regular.'
	DB	'ttf', 00H					; `string'
CONST	ENDS
;	COMDAT ??_C@_06JNNJGBCL@1?490?45@
CONST	SEGMENT
??_C@_06JNNJGBCL@1?490?45@ DB '1.90.5', 00H		; `string'
CONST	ENDS
;	COMDAT ??_C@_0O@NHGDCGCA@Version?3?5?5?$CFs?6@
CONST	SEGMENT
??_C@_0O@NHGDCGCA@Version?3?5?5?$CFs?6@ DB 'Version:  %s', 0aH, 00H ; `string'
CONST	ENDS
;	COMDAT ??_C@_0O@IPGAJLBD@Renderer?3?5?$CFs?6@
CONST	SEGMENT
??_C@_0O@IPGAJLBD@Renderer?3?5?$CFs?6@ DB 'Renderer: %s', 0aH, 00H ; `string'
CONST	ENDS
;	COMDAT ??_C@_0O@BLOPLMMI@Vendor?3?5?5?5?$CFs?6@
CONST	SEGMENT
??_C@_0O@BLOPLMMI@Vendor?3?5?5?5?$CFs?6@ DB 'Vendor:   %s', 0aH, 00H ; `string'
CONST	ENDS
;	COMDAT ??_C@_0P@JLOCEAMK@OpenGL?5loaded?6@
CONST	SEGMENT
??_C@_0P@JLOCEAMK@OpenGL?5loaded?6@ DB 'OpenGL loaded', 0aH, 00H ; `string'
CONST	ENDS
;	COMDAT ??_C@_0BP@BFEIMJMJ@Error?3?5SDL_CreateWindow?$CI?$CJ?3?5?$CFs?6@
CONST	SEGMENT
??_C@_0BP@BFEIMJMJ@Error?3?5SDL_CreateWindow?$CI?$CJ?3?5?$CFs?6@ DB 'Erro'
	DB	'r: SDL_CreateWindow(): %s', 0aH, 00H	; `string'
CONST	ENDS
;	COMDAT ??_C@_0N@DDOGMLBE@Photo?5Studio@
CONST	SEGMENT
??_C@_0N@DDOGMLBE@Photo?5Studio@ DB 'Photo Studio', 00H	; `string'
CONST	ENDS
;	COMDAT ??_C@_0BA@JCFIKKMK@SDL_IME_SHOW_UI@
CONST	SEGMENT
??_C@_0BA@JCFIKKMK@SDL_IME_SHOW_UI@ DB 'SDL_IME_SHOW_UI', 00H ; `string'
CONST	ENDS
;	COMDAT ??_C@_01HIHLOKLC@1@
CONST	SEGMENT
??_C@_01HIHLOKLC@1@ DB '1', 00H				; `string'
CONST	ENDS
;	COMDAT ??_C@_0L@DCCGFMBN@Error?3?5?$CFs?6@
CONST	SEGMENT
??_C@_0L@DCCGFMBN@Error?3?5?$CFs?6@ DB 'Error: %s', 0aH, 00H ; `string'
CONST	ENDS
;	COMDAT ??_C@_0P@CEJPOEEF@Example?5Canvas@
CONST	SEGMENT
??_C@_0P@CEJPOEEF@Example?5Canvas@ DB 'Example Canvas', 00H ; `string'
PUBLIC	??$_Emplace_back@V?$shared_ptr@VCanvas@@@std@@@?$_Uninitialized_backout_al@V?$allocator@V?$shared_ptr@VCanvas@@@std@@@std@@@std@@QEAAX$$QEAV?$shared_ptr@VCanvas@@@1@@Z ; std::_Uninitialized_backout_al<std::allocator<std::shared_ptr<Canvas> > >::_Emplace_back<std::shared_ptr<Canvas> >
PUBLIC	??$_Voidify_iter@PEAV?$shared_ptr@VCanvas@@@std@@@std@@YAPEAXPEAV?$shared_ptr@VCanvas@@@0@@Z ; std::_Voidify_iter<std::shared_ptr<Canvas> *>
PUBLIC	??$construct_at@V?$shared_ptr@VCanvas@@@std@@V12@$0A@@std@@YAPEAV?$shared_ptr@VCanvas@@@0@QEAV10@$$QEAV10@@Z ; std::construct_at<std::shared_ptr<Canvas>,std::shared_ptr<Canvas>,0>
PUBLIC	??$addressof@V?$shared_ptr@VCanvas@@@std@@@std@@YAPEAV?$shared_ptr@VCanvas@@@0@AEAV10@@Z ; std::addressof<std::shared_ptr<Canvas> >
PUBLIC	??$construct_at@VCanvas@@AEAVTools@@V?$basic_string@DU?$char_traits@D@std@@V?$allocator@D@2@@std@@U?$vec@$01M$0A@@glm@@_K$0A@@std@@YAPEAVCanvas@@QEAV1@AEAVTools@@$$QEAV?$basic_string@DU?$char_traits@D@std@@V?$allocator@D@2@@0@$$QEAU?$vec@$01M$0A@@glm@@$$QEA_K@Z ; std::construct_at<Canvas,Tools &,std::basic_string<char,std::char_traits<char>,std::allocator<char> >,glm::vec<2,float,0>,unsigned __int64,0>
PUBLIC	??$_Voidify_iter@PEAVCanvas@@@std@@YAPEAXPEAVCanvas@@@Z ; std::_Voidify_iter<Canvas *>
PUBLIC	??$construct_at@VCanvas@@AEAVTools@@AEAY0P@$$CBDU?$vec@$01M$0A@@glm@@_K$0A@@std@@YAPEAVCanvas@@QEAV1@AEAVTools@@AEAY0P@$$CBD$$QEAU?$vec@$01M$0A@@glm@@$$QEA_K@Z ; std::construct_at<Canvas,Tools &,char const (&)[15],glm::vec<2,float,0>,unsigned __int64,0>
PUBLIC	??0?$_Uninitialized_backout_al@V?$allocator@V?$shared_ptr@VCanvas@@@std@@@std@@@std@@QEAA@PEAV?$shared_ptr@VCanvas@@@1@AEAV?$allocator@V?$shared_ptr@VCanvas@@@std@@@1@@Z ; std::_Uninitialized_backout_al<std::allocator<std::shared_ptr<Canvas> > >::_Uninitialized_backout_al<std::allocator<std::shared_ptr<Canvas> > >
PUBLIC	??1?$_Uninitialized_backout_al@V?$allocator@V?$shared_ptr@VCanvas@@@std@@@std@@@std@@QEAA@XZ ; std::_Uninitialized_backout_al<std::allocator<std::shared_ptr<Canvas> > >::~_Uninitialized_backout_al<std::allocator<std::shared_ptr<Canvas> > >
PUBLIC	?_Release@?$_Uninitialized_backout_al@V?$allocator@V?$shared_ptr@VCanvas@@@std@@@std@@@std@@QEAAPEAV?$shared_ptr@VCanvas@@@2@XZ ; std::_Uninitialized_backout_al<std::allocator<std::shared_ptr<Canvas> > >::_Release
PUBLIC	??_G?$shared_ptr@VCanvas@@@std@@QEAAPEAXI@Z	; std::shared_ptr<Canvas>::`scalar deleting destructor'
PUBLIC	?__autoclassinit2@?$_Uninitialized_backout_al@V?$allocator@V?$shared_ptr@VCanvas@@@std@@@std@@@std@@QEAAX_K@Z ; std::_Uninitialized_backout_al<std::allocator<std::shared_ptr<Canvas> > >::__autoclassinit2
PUBLIC	??$destroy_at@V?$shared_ptr@VCanvas@@@std@@@std@@YAXQEAV?$shared_ptr@VCanvas@@@0@@Z ; std::destroy_at<std::shared_ptr<Canvas> >
PUBLIC	??$_Uninitialized_move@PEAV?$shared_ptr@VCanvas@@@std@@V?$allocator@V?$shared_ptr@VCanvas@@@std@@@2@@std@@YAPEAV?$shared_ptr@VCanvas@@@0@QEAV10@0PEAV10@AEAV?$allocator@V?$shared_ptr@VCanvas@@@std@@@0@@Z ; std::_Uninitialized_move<std::shared_ptr<Canvas> *,std::allocator<std::shared_ptr<Canvas> > >
PUBLIC	??$_Get_unwrapped@AEBQEAV?$shared_ptr@VCanvas@@@std@@@std@@YA?A_TAEBQEAV?$shared_ptr@VCanvas@@@0@@Z ; std::_Get_unwrapped<std::shared_ptr<Canvas> * const &>
PUBLIC	??$construct@V?$shared_ptr@VCanvas@@@std@@V12@@?$_Default_allocator_traits@V?$allocator@V?$shared_ptr@VCanvas@@@std@@@std@@@std@@SAXAEAV?$allocator@V?$shared_ptr@VCanvas@@@std@@@1@QEAV?$shared_ptr@VCanvas@@@1@$$QEAV31@@Z ; std::_Default_allocator_traits<std::allocator<std::shared_ptr<Canvas> > >::construct<std::shared_ptr<Canvas>,std::shared_ptr<Canvas> >
PUBLIC	??$_Construct_in_place@V?$shared_ptr@VCanvas@@@std@@V12@@std@@YAXAEAV?$shared_ptr@VCanvas@@@0@$$QEAV10@@Z ; std::_Construct_in_place<std::shared_ptr<Canvas>,std::shared_ptr<Canvas> >
PUBLIC	??$_Construct_in_place@VCanvas@@AEAVTools@@V?$basic_string@DU?$char_traits@D@std@@V?$allocator@D@2@@std@@U?$vec@$01M$0A@@glm@@_K@std@@YAXAEAVCanvas@@AEAVTools@@$$QEAV?$basic_string@DU?$char_traits@D@std@@V?$allocator@D@2@@0@$$QEAU?$vec@$01M$0A@@glm@@$$QEA_K@Z ; std::_Construct_in_place<Canvas,Tools &,std::basic_string<char,std::char_traits<char>,std::allocator<char> >,glm::vec<2,float,0>,unsigned __int64>
PUBLIC	??$_Construct_in_place@VCanvas@@AEAVTools@@AEAY0P@$$CBDU?$vec@$01M$0A@@glm@@_K@std@@YAXAEAVCanvas@@AEAVTools@@AEAY0P@$$CBD$$QEAU?$vec@$01M$0A@@glm@@$$QEA_K@Z ; std::_Construct_in_place<Canvas,Tools &,char const (&)[15],glm::vec<2,float,0>,unsigned __int64>
PUBLIC	?_Get_first@?$_Compressed_pair@V?$allocator@V?$shared_ptr@VCanvas@@@std@@@std@@V?$_Vector_val@U?$_Simple_types@V?$shared_ptr@VCanvas@@@std@@@std@@@2@$00@std@@QEBAAEBV?$allocator@V?$shared_ptr@VCanvas@@@std@@@2@XZ ; std::_Compressed_pair<std::allocator<std::shared_ptr<Canvas> >,std::_Vector_val<std::_Simple_types<std::shared_ptr<Canvas> > >,1>::_Get_first
PUBLIC	?max_size@?$_Default_allocator_traits@V?$allocator@V?$shared_ptr@VCanvas@@@std@@@std@@@std@@SA_KAEBV?$allocator@V?$shared_ptr@VCanvas@@@std@@@2@@Z ; std::_Default_allocator_traits<std::allocator<std::shared_ptr<Canvas> > >::max_size
PUBLIC	?capacity@?$vector@V?$shared_ptr@VCanvas@@@std@@V?$allocator@V?$shared_ptr@VCanvas@@@std@@@2@@std@@QEBA_KXZ ; std::vector<std::shared_ptr<Canvas>,std::allocator<std::shared_ptr<Canvas> > >::capacity
PUBLIC	?_Getal@?$vector@V?$shared_ptr@VCanvas@@@std@@V?$allocator@V?$shared_ptr@VCanvas@@@std@@@2@@std@@AEBAAEBV?$allocator@V?$shared_ptr@VCanvas@@@std@@@2@XZ ; std::vector<std::shared_ptr<Canvas>,std::allocator<std::shared_ptr<Canvas> > >::_Getal
PUBLIC	?allocate@?$allocator@V?$shared_ptr@VCanvas@@@std@@@std@@QEAAPEAV?$shared_ptr@VCanvas@@@2@_K@Z ; std::allocator<std::shared_ptr<Canvas> >::allocate
PUBLIC	?max_size@?$vector@V?$shared_ptr@VCanvas@@@std@@V?$allocator@V?$shared_ptr@VCanvas@@@std@@@2@@std@@QEBA_KXZ ; std::vector<std::shared_ptr<Canvas>,std::allocator<std::shared_ptr<Canvas> > >::max_size
PUBLIC	?_Calculate_growth@?$vector@V?$shared_ptr@VCanvas@@@std@@V?$allocator@V?$shared_ptr@VCanvas@@@std@@@2@@std@@AEBA_K_K@Z ; std::vector<std::shared_ptr<Canvas>,std::allocator<std::shared_ptr<Canvas> > >::_Calculate_growth
PUBLIC	?_Change_array@?$vector@V?$shared_ptr@VCanvas@@@std@@V?$allocator@V?$shared_ptr@VCanvas@@@std@@@2@@std@@AEAAXQEAV?$shared_ptr@VCanvas@@@2@_K1@Z ; std::vector<std::shared_ptr<Canvas>,std::allocator<std::shared_ptr<Canvas> > >::_Change_array
PUBLIC	?_Xlength@?$vector@V?$shared_ptr@VCanvas@@@std@@V?$allocator@V?$shared_ptr@VCanvas@@@std@@@2@@std@@CAXXZ ; std::vector<std::shared_ptr<Canvas>,std::allocator<std::shared_ptr<Canvas> > >::_Xlength
PUBLIC	?_Orphan_range@?$vector@V?$shared_ptr@VCanvas@@@std@@V?$allocator@V?$shared_ptr@VCanvas@@@std@@@2@@std@@AEBAXPEAV?$shared_ptr@VCanvas@@@2@0@Z ; std::vector<std::shared_ptr<Canvas>,std::allocator<std::shared_ptr<Canvas> > >::_Orphan_range
PUBLIC	??_GCanvas@@QEAAPEAXI@Z				; Canvas::`scalar deleting destructor'
PUBLIC	??$_Move_construct_from@VCanvas@@@?$_Ptr_base@VCanvas@@@std@@IEAAX$$QEAV01@@Z ; std::_Ptr_base<Canvas>::_Move_construct_from<Canvas>
PUBLIC	??$_Destroy_in_place@VCanvas@@@std@@YAXAEAVCanvas@@@Z ; std::_Destroy_in_place<Canvas>
PUBLIC	??$destroy@V?$shared_ptr@VCanvas@@@std@@@?$_Default_allocator_traits@V?$allocator@V?$shared_ptr@VCanvas@@@std@@@std@@@std@@SAXAEAV?$allocator@V?$shared_ptr@VCanvas@@@std@@@1@QEAV?$shared_ptr@VCanvas@@@1@@Z ; std::_Default_allocator_traits<std::allocator<std::shared_ptr<Canvas> > >::destroy<std::shared_ptr<Canvas> >
PUBLIC	??$_Unfancy@V?$shared_ptr@VCanvas@@@std@@@std@@YAPEAV?$shared_ptr@VCanvas@@@0@PEAV10@@Z ; std::_Unfancy<std::shared_ptr<Canvas> >
PUBLIC	??$_Emplace_reallocate@V?$shared_ptr@VCanvas@@@std@@@?$vector@V?$shared_ptr@VCanvas@@@std@@V?$allocator@V?$shared_ptr@VCanvas@@@std@@@2@@std@@AEAAPEAV?$shared_ptr@VCanvas@@@1@QEAV21@$$QEAV21@@Z ; std::vector<std::shared_ptr<Canvas>,std::allocator<std::shared_ptr<Canvas> > >::_Emplace_reallocate<std::shared_ptr<Canvas> >
PUBLIC	??$_Emplace_back_with_unused_capacity@V?$shared_ptr@VCanvas@@@std@@@?$vector@V?$shared_ptr@VCanvas@@@std@@V?$allocator@V?$shared_ptr@VCanvas@@@std@@@2@@std@@AEAAAEAV?$shared_ptr@VCanvas@@@1@$$QEAV21@@Z ; std::vector<std::shared_ptr<Canvas>,std::allocator<std::shared_ptr<Canvas> > >::_Emplace_back_with_unused_capacity<std::shared_ptr<Canvas> >
PUBLIC	??$forward@V?$shared_ptr@VCanvas@@@std@@@std@@YA$$QEAV?$shared_ptr@VCanvas@@@0@AEAV10@@Z ; std::forward<std::shared_ptr<Canvas> >
PUBLIC	??$?0AEAVTools@@V?$basic_string@DU?$char_traits@D@std@@V?$allocator@D@2@@std@@U?$vec@$01M$0A@@glm@@_K@?$_Ref_count_obj2@VCanvas@@@std@@QEAA@AEAVTools@@$$QEAV?$basic_string@DU?$char_traits@D@std@@V?$allocator@D@2@@1@$$QEAU?$vec@$01M$0A@@glm@@$$QEA_K@Z ; std::_Ref_count_obj2<Canvas>::_Ref_count_obj2<Canvas><Tools &,std::basic_string<char,std::char_traits<char>,std::allocator<char> >,glm::vec<2,float,0>,unsigned __int64>
PUBLIC	??$forward@V?$basic_string@DU?$char_traits@D@std@@V?$allocator@D@2@@std@@@std@@YA$$QEAV?$basic_string@DU?$char_traits@D@std@@V?$allocator@D@2@@0@AEAV10@@Z ; std::forward<std::basic_string<char,std::char_traits<char>,std::allocator<char> > >
PUBLIC	??$_Set_ptr_rep_and_enable_shared@VCanvas@@@?$shared_ptr@VCanvas@@@std@@AEAAXQEAVCanvas@@QEAV_Ref_count_base@1@@Z ; std::shared_ptr<Canvas>::_Set_ptr_rep_and_enable_shared<Canvas>
PUBLIC	??$addressof@VCanvas@@@std@@YAPEAVCanvas@@AEAV1@@Z ; std::addressof<Canvas>
PUBLIC	??$?0AEAVTools@@AEAY0P@$$CBDU?$vec@$01M$0A@@glm@@_K@?$_Ref_count_obj2@VCanvas@@@std@@QEAA@AEAVTools@@AEAY0P@$$CBD$$QEAU?$vec@$01M$0A@@glm@@$$QEA_K@Z ; std::_Ref_count_obj2<Canvas>::_Ref_count_obj2<Canvas><Tools &,char const (&)[15],glm::vec<2,float,0>,unsigned __int64>
PUBLIC	??$forward@U?$vec@$01M$0A@@glm@@@std@@YA$$QEAU?$vec@$01M$0A@@glm@@AEAU12@@Z ; std::forward<glm::vec<2,float,0> >
PUBLIC	??$forward@AEAY0P@$$CBD@std@@YAAEAY0P@$$CBDAEAY0P@$$CBD@Z ; std::forward<char const (&)[15]>
PUBLIC	??$forward@AEAVTools@@@std@@YAAEAVTools@@AEAV1@@Z ; std::forward<Tools &>
PUBLIC	??_G?$_Ref_count_obj2@VCanvas@@@std@@UEAAPEAXI@Z ; std::_Ref_count_obj2<Canvas>::`scalar deleting destructor'
PUBLIC	??0?$allocator@V?$shared_ptr@VCanvas@@@std@@@std@@QEAA@XZ ; std::allocator<std::shared_ptr<Canvas> >::allocator<std::shared_ptr<Canvas> >
PUBLIC	??0?$_Vector_val@U?$_Simple_types@V?$shared_ptr@VCanvas@@@std@@@std@@@std@@QEAA@XZ ; std::_Vector_val<std::_Simple_types<std::shared_ptr<Canvas> > >::_Vector_val<std::_Simple_types<std::shared_ptr<Canvas> > >
PUBLIC	?get@?$_Ptr_base@VCanvas@@@std@@IEBAPEAVCanvas@@XZ ; std::_Ptr_base<Canvas>::get
PUBLIC	??0?$shared_ptr@VCanvas@@@std@@QEAA@$$QEAV01@@Z	; std::shared_ptr<Canvas>::shared_ptr<Canvas>
PUBLIC	??1?$_Ref_count_obj2@VCanvas@@@std@@UEAA@XZ	; std::_Ref_count_obj2<Canvas>::~_Ref_count_obj2<Canvas>
PUBLIC	?_Destroy@?$_Ref_count_obj2@VCanvas@@@std@@EEAAXXZ ; std::_Ref_count_obj2<Canvas>::_Destroy
PUBLIC	?_Delete_this@?$_Ref_count_obj2@VCanvas@@@std@@EEAAXXZ ; std::_Ref_count_obj2<Canvas>::_Delete_this
PUBLIC	??0?$_Ptr_base@VCanvas@@@std@@IEAA@XZ		; std::_Ptr_base<Canvas>::_Ptr_base<Canvas>
PUBLIC	??0?$shared_ptr@VCanvas@@@std@@QEAA@XZ		; std::shared_ptr<Canvas>::shared_ptr<Canvas>
PUBLIC	??$_Destroy_range@V?$allocator@V?$shared_ptr@VCanvas@@@std@@@std@@@std@@YAXPEAV?$shared_ptr@VCanvas@@@0@QEAV10@AEAV?$allocator@V?$shared_ptr@VCanvas@@@std@@@0@@Z ; std::_Destroy_range<std::allocator<std::shared_ptr<Canvas> > >
PUBLIC	??$?0$$V@?$_Compressed_pair@V?$allocator@V?$shared_ptr@VCanvas@@@std@@@std@@V?$_Vector_val@U?$_Simple_types@V?$shared_ptr@VCanvas@@@std@@@std@@@2@$00@std@@QEAA@U_Zero_then_variadic_args_t@1@@Z ; std::_Compressed_pair<std::allocator<std::shared_ptr<Canvas> >,std::_Vector_val<std::_Simple_types<std::shared_ptr<Canvas> > >,1>::_Compressed_pair<std::allocator<std::shared_ptr<Canvas> >,std::_Vector_val<std::_Simple_types<std::shared_ptr<Canvas> > >,1><>
PUBLIC	??$_Emplace_one_at_back@V?$shared_ptr@VCanvas@@@std@@@?$vector@V?$shared_ptr@VCanvas@@@std@@V?$allocator@V?$shared_ptr@VCanvas@@@std@@@2@@std@@AEAAAEAV?$shared_ptr@VCanvas@@@1@$$QEAV21@@Z ; std::vector<std::shared_ptr<Canvas>,std::allocator<std::shared_ptr<Canvas> > >::_Emplace_one_at_back<std::shared_ptr<Canvas> >
PUBLIC	??$make_shared@VCanvas@@AEAVTools@@V?$basic_string@DU?$char_traits@D@std@@V?$allocator@D@2@@std@@U?$vec@$01M$0A@@glm@@_K@std@@YA?AV?$shared_ptr@VCanvas@@@0@AEAVTools@@$$QEAV?$basic_string@DU?$char_traits@D@std@@V?$allocator@D@2@@0@$$QEAU?$vec@$01M$0A@@glm@@$$QEA_K@Z ; std::make_shared<Canvas,Tools &,std::basic_string<char,std::char_traits<char>,std::allocator<char> >,glm::vec<2,float,0>,unsigned __int64>
PUBLIC	??$?CVCanvas@@$0A@@?$shared_ptr@VCanvas@@@std@@QEBAPEAVCanvas@@XZ ; std::shared_ptr<Canvas>::operator-><Canvas,0>
PUBLIC	??$move@AEAV?$shared_ptr@VCanvas@@@std@@@std@@YA$$QEAV?$shared_ptr@VCanvas@@@0@AEAV10@@Z ; std::move<std::shared_ptr<Canvas> &>
PUBLIC	??$make_shared@VCanvas@@AEAVTools@@AEAY0P@$$CBDU?$vec@$01M$0A@@glm@@_K@std@@YA?AV?$shared_ptr@VCanvas@@@0@AEAVTools@@AEAY0P@$$CBD$$QEAU?$vec@$01M$0A@@glm@@$$QEA_K@Z ; std::make_shared<Canvas,Tools &,char const (&)[15],glm::vec<2,float,0>,unsigned __int64>
PUBLIC	?_Get_first@?$_Compressed_pair@V?$allocator@V?$shared_ptr@VCanvas@@@std@@@std@@V?$_Vector_val@U?$_Simple_types@V?$shared_ptr@VCanvas@@@std@@@std@@@2@$00@std@@QEAAAEAV?$allocator@V?$shared_ptr@VCanvas@@@std@@@2@XZ ; std::_Compressed_pair<std::allocator<std::shared_ptr<Canvas> >,std::_Vector_val<std::_Simple_types<std::shared_ptr<Canvas> > >,1>::_Get_first
PUBLIC	?deallocate@?$allocator@V?$shared_ptr@VCanvas@@@std@@@std@@QEAAXQEAV?$shared_ptr@VCanvas@@@2@_K@Z ; std::allocator<std::shared_ptr<Canvas> >::deallocate
PUBLIC	?_Getal@?$vector@V?$shared_ptr@VCanvas@@@std@@V?$allocator@V?$shared_ptr@VCanvas@@@std@@@2@@std@@AEAAAEAV?$allocator@V?$shared_ptr@VCanvas@@@std@@@2@XZ ; std::vector<std::shared_ptr<Canvas>,std::allocator<std::shared_ptr<Canvas> > >::_Getal
PUBLIC	?_Tidy@?$vector@V?$shared_ptr@VCanvas@@@std@@V?$allocator@V?$shared_ptr@VCanvas@@@std@@@2@@std@@AEAAXXZ ; std::vector<std::shared_ptr<Canvas>,std::allocator<std::shared_ptr<Canvas> > >::_Tidy
PUBLIC	?_Xrange@?$vector@V?$shared_ptr@VCanvas@@@std@@V?$allocator@V?$shared_ptr@VCanvas@@@std@@@2@@std@@CAXXZ ; std::vector<std::shared_ptr<Canvas>,std::allocator<std::shared_ptr<Canvas> > >::_Xrange
PUBLIC	?_Decref@?$_Ptr_base@VCanvas@@@std@@IEAAXXZ	; std::_Ptr_base<Canvas>::_Decref
PUBLIC	??0?$vector@V?$shared_ptr@VCanvas@@@std@@V?$allocator@V?$shared_ptr@VCanvas@@@std@@@2@@std@@QEAA@XZ ; std::vector<std::shared_ptr<Canvas>,std::allocator<std::shared_ptr<Canvas> > >::vector<std::shared_ptr<Canvas>,std::allocator<std::shared_ptr<Canvas> > >
PUBLIC	??1?$vector@V?$shared_ptr@VCanvas@@@std@@V?$allocator@V?$shared_ptr@VCanvas@@@std@@@2@@std@@QEAA@XZ ; std::vector<std::shared_ptr<Canvas>,std::allocator<std::shared_ptr<Canvas> > >::~vector<std::shared_ptr<Canvas>,std::allocator<std::shared_ptr<Canvas> > >
PUBLIC	?push_back@?$vector@V?$shared_ptr@VCanvas@@@std@@V?$allocator@V?$shared_ptr@VCanvas@@@std@@@2@@std@@QEAAX$$QEAV?$shared_ptr@VCanvas@@@2@@Z ; std::vector<std::shared_ptr<Canvas>,std::allocator<std::shared_ptr<Canvas> > >::push_back
PUBLIC	?size@?$vector@V?$shared_ptr@VCanvas@@@std@@V?$allocator@V?$shared_ptr@VCanvas@@@std@@@2@@std@@QEBA_KXZ ; std::vector<std::shared_ptr<Canvas>,std::allocator<std::shared_ptr<Canvas> > >::size
PUBLIC	??A?$vector@V?$shared_ptr@VCanvas@@@std@@V?$allocator@V?$shared_ptr@VCanvas@@@std@@@2@@std@@QEAAAEAV?$shared_ptr@VCanvas@@@1@_K@Z ; std::vector<std::shared_ptr<Canvas>,std::allocator<std::shared_ptr<Canvas> > >::operator[]
PUBLIC	?at@?$vector@V?$shared_ptr@VCanvas@@@std@@V?$allocator@V?$shared_ptr@VCanvas@@@std@@@2@@std@@QEAAAEAV?$shared_ptr@VCanvas@@@2@_K@Z ; std::vector<std::shared_ptr<Canvas>,std::allocator<std::shared_ptr<Canvas> > >::at
PUBLIC	??1?$shared_ptr@VCanvas@@@std@@QEAA@XZ		; std::shared_ptr<Canvas>::~shared_ptr<Canvas>
PUBLIC	?Cleanup@Application@@AEAAXXZ			; Application::Cleanup
PUBLIC	?DrawTitleBar@Application@@AEAAXXZ		; Application::DrawTitleBar
PUBLIC	?RenderUI@Application@@QEAAXXZ			; Application::RenderUI
PUBLIC	?Render@Application@@AEAAXXZ			; Application::Render
PUBLIC	?Run@Application@@QEAAXXZ			; Application::Run
PUBLIC	?InitImGui@Application@@AEAAXXZ			; Application::InitImGui
PUBLIC	?InitGL@Application@@SAXXZ			; Application::InitGL
PUBLIC	?UpdateWindow@Application@@AEAAXXZ		; Application::UpdateWindow
PUBLIC	??1Application@@QEAA@XZ				; Application::~Application
PUBLIC	?__autoclassinit2@?$shared_ptr@VCanvas@@@std@@QEAAX_K@Z ; std::shared_ptr<Canvas>::__autoclassinit2
PUBLIC	??1Tools@@QEAA@XZ				; Tools::~Tools
PUBLIC	??0Application@@QEAA@XZ				; Application::Application
PUBLIC	?RedrawWindow@@YAHPEAXPEATSDL_Event@@@Z		; RedrawWindow
PUBLIC	printf
PUBLIC	_vfprintf_l
PUBLIC	__local_stdio_printf_options
EXTRN	??_E?$_Ref_count_obj2@VCanvas@@@std@@UEAAPEAXI@Z:PROC ; std::_Ref_count_obj2<Canvas>::`vector deleting destructor'
;	COMDAT pdata
pdata	SEGMENT
$pdata$??$construct_at@VCanvas@@AEAVTools@@V?$basic_string@DU?$char_traits@D@std@@V?$allocator@D@2@@std@@U?$vec@$01M$0A@@glm@@_K$0A@@std@@YAPEAVCanvas@@QEAV1@AEAVTools@@$$QEAV?$basic_string@DU?$char_traits@D@std@@V?$allocator@D@2@@0@$$QEAU?$vec@$01M$0A@@glm@@$$QEA_K@Z DD imagerel $LN42@construct_
	DD	imagerel $LN42@construct_+77
	DD	imagerel $unwind$??$construct_at@VCanvas@@AEAVTools@@V?$basic_string@DU?$char_traits@D@std@@V?$allocator@D@2@@std@@U?$vec@$01M$0A@@glm@@_K$0A@@std@@YAPEAVCanvas@@QEAV1@AEAVTools@@$$QEAV?$basic_string@DU?$char_traits@D@std@@V?$allocator@D@2@@0@$$QEAU?$vec@$01M$0A@@glm@@$$QEA_K@Z
pdata	ENDS
;	COMDAT pdata
pdata	SEGMENT
$pdata$??$construct_at@VCanvas@@AEAVTools@@AEAY0P@$$CBDU?$vec@$01M$0A@@glm@@_K$0A@@std@@YAPEAVCanvas@@QEAV1@AEAVTools@@AEAY0P@$$CBD$$QEAU?$vec@$01M$0A@@glm@@$$QEA_K@Z DD imagerel $LN6@construct_
	DD	imagerel $LN6@construct_+98
	DD	imagerel $unwind$??$construct_at@VCanvas@@AEAVTools@@AEAY0P@$$CBDU?$vec@$01M$0A@@glm@@_K$0A@@std@@YAPEAVCanvas@@QEAV1@AEAVTools@@AEAY0P@$$CBD$$QEAU?$vec@$01M$0A@@glm@@$$QEA_K@Z
pdata	ENDS
;	COMDAT pdata
pdata	SEGMENT
$pdata$??_G?$shared_ptr@VCanvas@@@std@@QEAAPEAXI@Z DD imagerel $LN24@scalar
	DD	imagerel $LN24@scalar+22
	DD	imagerel $unwind$??_G?$shared_ptr@VCanvas@@@std@@QEAAPEAXI@Z
pdata	ENDS
;	COMDAT pdata
pdata	SEGMENT
$pdata$0$??_G?$shared_ptr@VCanvas@@@std@@QEAAPEAXI@Z DD imagerel $LN24@scalar+22
	DD	imagerel $LN24@scalar+90
	DD	imagerel $chain$0$??_G?$shared_ptr@VCanvas@@@std@@QEAAPEAXI@Z
pdata	ENDS
;	COMDAT pdata
pdata	SEGMENT
$pdata$1$??_G?$shared_ptr@VCanvas@@@std@@QEAAPEAXI@Z DD imagerel $LN24@scalar+90
	DD	imagerel $LN24@scalar+104
	DD	imagerel $chain$1$??_G?$shared_ptr@VCanvas@@@std@@QEAAPEAXI@Z
pdata	ENDS
;	COMDAT pdata
pdata	SEGMENT
$pdata$??$destroy_at@V?$shared_ptr@VCanvas@@@std@@@std@@YAXQEAV?$shared_ptr@VCanvas@@@0@@Z DD imagerel $LN23@destroy_at
	DD	imagerel $LN23@destroy_at+15
	DD	imagerel $unwind$??$destroy_at@V?$shared_ptr@VCanvas@@@std@@@std@@YAXQEAV?$shared_ptr@VCanvas@@@0@@Z
pdata	ENDS
;	COMDAT pdata
pdata	SEGMENT
$pdata$0$??$destroy_at@V?$shared_ptr@VCanvas@@@std@@@std@@YAXQEAV?$shared_ptr@VCanvas@@@0@@Z DD imagerel $LN23@destroy_at+15
	DD	imagerel $LN23@destroy_at+69
	DD	imagerel $chain$0$??$destroy_at@V?$shared_ptr@VCanvas@@@std@@@std@@YAXQEAV?$shared_ptr@VCanvas@@@0@@Z
pdata	ENDS
;	COMDAT pdata
pdata	SEGMENT
$pdata$1$??$destroy_at@V?$shared_ptr@VCanvas@@@std@@@std@@YAXQEAV?$shared_ptr@VCanvas@@@0@@Z DD imagerel $LN23@destroy_at+69
	DD	imagerel $LN23@destroy_at+75
	DD	imagerel $chain$1$??$destroy_at@V?$shared_ptr@VCanvas@@@std@@@std@@YAXQEAV?$shared_ptr@VCanvas@@@0@@Z
pdata	ENDS
;	COMDAT pdata
pdata	SEGMENT
$pdata$??$_Uninitialized_move@PEAV?$shared_ptr@VCanvas@@@std@@V?$allocator@V?$shared_ptr@VCanvas@@@std@@@2@@std@@YAPEAV?$shared_ptr@VCanvas@@@0@QEAV10@0PEAV10@AEAV?$allocator@V?$shared_ptr@VCanvas@@@std@@@0@@Z DD imagerel $LN41@Uninitiali
	DD	imagerel $LN41@Uninitiali+97
	DD	imagerel $unwind$??$_Uninitialized_move@PEAV?$shared_ptr@VCanvas@@@std@@V?$allocator@V?$shared_ptr@VCanvas@@@std@@@2@@std@@YAPEAV?$shared_ptr@VCanvas@@@0@QEAV10@0PEAV10@AEAV?$allocator@V?$shared_ptr@VCanvas@@@std@@@0@@Z
pdata	ENDS
;	COMDAT pdata
pdata	SEGMENT
$pdata$??$_Construct_in_place@VCanvas@@AEAVTools@@V?$basic_string@DU?$char_traits@D@std@@V?$allocator@D@2@@std@@U?$vec@$01M$0A@@glm@@_K@std@@YAXAEAVCanvas@@AEAVTools@@$$QEAV?$basic_string@DU?$char_traits@D@std@@V?$allocator@D@2@@0@$$QEAU?$vec@$01M$0A@@glm@@$$QEA_K@Z DD imagerel $LN83@Construct_
	DD	imagerel $LN83@Construct_+77
	DD	imagerel $unwind$??$_Construct_in_place@VCanvas@@AEAVTools@@V?$basic_string@DU?$char_traits@D@std@@V?$allocator@D@2@@std@@U?$vec@$01M$0A@@glm@@_K@std@@YAXAEAVCanvas@@AEAVTools@@$$QEAV?$basic_string@DU?$char_traits@D@std@@V?$allocator@D@2@@0@$$QEAU?$vec@$01M$0A@@glm@@$$QEA_K@Z
pdata	ENDS
;	COMDAT pdata
pdata	SEGMENT
$pdata$??$_Construct_in_place@VCanvas@@AEAVTools@@AEAY0P@$$CBDU?$vec@$01M$0A@@glm@@_K@std@@YAXAEAVCanvas@@AEAVTools@@AEAY0P@$$CBD$$QEAU?$vec@$01M$0A@@glm@@$$QEA_K@Z DD imagerel $LN11@Construct_
	DD	imagerel $LN11@Construct_+98
	DD	imagerel $unwind$??$_Construct_in_place@VCanvas@@AEAVTools@@AEAY0P@$$CBDU?$vec@$01M$0A@@glm@@_K@std@@YAXAEAVCanvas@@AEAVTools@@AEAY0P@$$CBD$$QEAU?$vec@$01M$0A@@glm@@$$QEA_K@Z
pdata	ENDS
;	COMDAT pdata
pdata	SEGMENT
$pdata$?allocate@?$allocator@V?$shared_ptr@VCanvas@@@std@@@std@@QEAAPEAV?$shared_ptr@VCanvas@@@2@_K@Z DD imagerel $LN32@allocate
	DD	imagerel $LN32@allocate+108
	DD	imagerel $unwind$?allocate@?$allocator@V?$shared_ptr@VCanvas@@@std@@@std@@QEAAPEAV?$shared_ptr@VCanvas@@@2@_K@Z
pdata	ENDS
;	COMDAT pdata
pdata	SEGMENT
$pdata$?_Change_array@?$vector@V?$shared_ptr@VCanvas@@@std@@V?$allocator@V?$shared_ptr@VCanvas@@@std@@@2@@std@@AEAAXQEAV?$shared_ptr@VCanvas@@@2@_K1@Z DD imagerel $LN30@Change_arr
	DD	imagerel $LN30@Change_arr+154
	DD	imagerel $unwind$?_Change_array@?$vector@V?$shared_ptr@VCanvas@@@std@@V?$allocator@V?$shared_ptr@VCanvas@@@std@@@2@@std@@AEAAXQEAV?$shared_ptr@VCanvas@@@2@_K1@Z
pdata	ENDS
;	COMDAT pdata
pdata	SEGMENT
$pdata$?_Xlength@?$vector@V?$shared_ptr@VCanvas@@@std@@V?$allocator@V?$shared_ptr@VCanvas@@@std@@@2@@std@@CAXXZ DD imagerel $LN4@Xlength
	DD	imagerel $LN4@Xlength+18
	DD	imagerel $unwind$?_Xlength@?$vector@V?$shared_ptr@VCanvas@@@std@@V?$allocator@V?$shared_ptr@VCanvas@@@std@@@2@@std@@CAXXZ
pdata	ENDS
;	COMDAT pdata
pdata	SEGMENT
$pdata$??_GCanvas@@QEAAPEAXI@Z DD imagerel $LN52@scalar
	DD	imagerel $LN52@scalar+173
	DD	imagerel $unwind$??_GCanvas@@QEAAPEAXI@Z
pdata	ENDS
;	COMDAT pdata
pdata	SEGMENT
$pdata$??$_Destroy_in_place@VCanvas@@@std@@YAXAEAVCanvas@@@Z DD imagerel $LN55@Destroy_in
	DD	imagerel $LN55@Destroy_in+169
	DD	imagerel $unwind$??$_Destroy_in_place@VCanvas@@@std@@YAXAEAVCanvas@@@Z
pdata	ENDS
;	COMDAT pdata
pdata	SEGMENT
$pdata$??$destroy@V?$shared_ptr@VCanvas@@@std@@@?$_Default_allocator_traits@V?$allocator@V?$shared_ptr@VCanvas@@@std@@@std@@@std@@SAXAEAV?$allocator@V?$shared_ptr@VCanvas@@@std@@@1@QEAV?$shared_ptr@VCanvas@@@1@@Z DD imagerel $LN25@destroy
	DD	imagerel $LN25@destroy+15
	DD	imagerel $unwind$??$destroy@V?$shared_ptr@VCanvas@@@std@@@?$_Default_allocator_traits@V?$allocator@V?$shared_ptr@VCanvas@@@std@@@std@@@std@@SAXAEAV?$allocator@V?$shared_ptr@VCanvas@@@std@@@1@QEAV?$shared_ptr@VCanvas@@@1@@Z
pdata	ENDS
;	COMDAT pdata
pdata	SEGMENT
$pdata$0$??$destroy@V?$shared_ptr@VCanvas@@@std@@@?$_Default_allocator_traits@V?$allocator@V?$shared_ptr@VCanvas@@@std@@@std@@@std@@SAXAEAV?$allocator@V?$shared_ptr@VCanvas@@@std@@@1@QEAV?$shared_ptr@VCanvas@@@1@@Z DD imagerel $LN25@destroy+15
	DD	imagerel $LN25@destroy+69
	DD	imagerel $chain$0$??$destroy@V?$shared_ptr@VCanvas@@@std@@@?$_Default_allocator_traits@V?$allocator@V?$shared_ptr@VCanvas@@@std@@@std@@@std@@SAXAEAV?$allocator@V?$shared_ptr@VCanvas@@@std@@@1@QEAV?$shared_ptr@VCanvas@@@1@@Z
pdata	ENDS
;	COMDAT pdata
pdata	SEGMENT
$pdata$1$??$destroy@V?$shared_ptr@VCanvas@@@std@@@?$_Default_allocator_traits@V?$allocator@V?$shared_ptr@VCanvas@@@std@@@std@@@std@@SAXAEAV?$allocator@V?$shared_ptr@VCanvas@@@std@@@1@QEAV?$shared_ptr@VCanvas@@@1@@Z DD imagerel $LN25@destroy+69
	DD	imagerel $LN25@destroy+75
	DD	imagerel $chain$1$??$destroy@V?$shared_ptr@VCanvas@@@std@@@?$_Default_allocator_traits@V?$allocator@V?$shared_ptr@VCanvas@@@std@@@std@@@std@@SAXAEAV?$allocator@V?$shared_ptr@VCanvas@@@std@@@1@QEAV?$shared_ptr@VCanvas@@@1@@Z
pdata	ENDS
;	COMDAT pdata
pdata	SEGMENT
$pdata$??$_Emplace_reallocate@V?$shared_ptr@VCanvas@@@std@@@?$vector@V?$shared_ptr@VCanvas@@@std@@V?$allocator@V?$shared_ptr@VCanvas@@@std@@@2@@std@@AEAAPEAV?$shared_ptr@VCanvas@@@1@QEAV21@$$QEAV21@@Z DD imagerel $LN224@Emplace_re
	DD	imagerel $LN224@Emplace_re+66
	DD	imagerel $unwind$??$_Emplace_reallocate@V?$shared_ptr@VCanvas@@@std@@@?$vector@V?$shared_ptr@VCanvas@@@std@@V?$allocator@V?$shared_ptr@VCanvas@@@std@@@2@@std@@AEAAPEAV?$shared_ptr@VCanvas@@@1@QEAV21@$$QEAV21@@Z
pdata	ENDS
;	COMDAT pdata
pdata	SEGMENT
$pdata$3$??$_Emplace_reallocate@V?$shared_ptr@VCanvas@@@std@@@?$vector@V?$shared_ptr@VCanvas@@@std@@V?$allocator@V?$shared_ptr@VCanvas@@@std@@@2@@std@@AEAAPEAV?$shared_ptr@VCanvas@@@1@QEAV21@$$QEAV21@@Z DD imagerel $LN224@Emplace_re+66
	DD	imagerel $LN224@Emplace_re+584
	DD	imagerel $chain$3$??$_Emplace_reallocate@V?$shared_ptr@VCanvas@@@std@@@?$vector@V?$shared_ptr@VCanvas@@@std@@V?$allocator@V?$shared_ptr@VCanvas@@@std@@@2@@std@@AEAAPEAV?$shared_ptr@VCanvas@@@1@QEAV21@$$QEAV21@@Z
pdata	ENDS
;	COMDAT pdata
pdata	SEGMENT
$pdata$5$??$_Emplace_reallocate@V?$shared_ptr@VCanvas@@@std@@@?$vector@V?$shared_ptr@VCanvas@@@std@@V?$allocator@V?$shared_ptr@VCanvas@@@std@@@2@@std@@AEAAPEAV?$shared_ptr@VCanvas@@@1@QEAV21@$$QEAV21@@Z DD imagerel $LN224@Emplace_re+584
	DD	imagerel $LN224@Emplace_re+591
	DD	imagerel $chain$5$??$_Emplace_reallocate@V?$shared_ptr@VCanvas@@@std@@@?$vector@V?$shared_ptr@VCanvas@@@std@@V?$allocator@V?$shared_ptr@VCanvas@@@std@@@2@@std@@AEAAPEAV?$shared_ptr@VCanvas@@@1@QEAV21@$$QEAV21@@Z
pdata	ENDS
;	COMDAT pdata
pdata	SEGMENT
$pdata$6$??$_Emplace_reallocate@V?$shared_ptr@VCanvas@@@std@@@?$vector@V?$shared_ptr@VCanvas@@@std@@V?$allocator@V?$shared_ptr@VCanvas@@@std@@@2@@std@@AEAAPEAV?$shared_ptr@VCanvas@@@1@QEAV21@$$QEAV21@@Z DD imagerel $LN224@Emplace_re+591
	DD	imagerel $LN224@Emplace_re+597
	DD	imagerel $chain$6$??$_Emplace_reallocate@V?$shared_ptr@VCanvas@@@std@@@?$vector@V?$shared_ptr@VCanvas@@@std@@V?$allocator@V?$shared_ptr@VCanvas@@@std@@@2@@std@@AEAAPEAV?$shared_ptr@VCanvas@@@1@QEAV21@$$QEAV21@@Z
pdata	ENDS
;	COMDAT pdata
pdata	SEGMENT
$pdata$7$??$_Emplace_reallocate@V?$shared_ptr@VCanvas@@@std@@@?$vector@V?$shared_ptr@VCanvas@@@std@@V?$allocator@V?$shared_ptr@VCanvas@@@std@@@2@@std@@AEAAPEAV?$shared_ptr@VCanvas@@@1@QEAV21@$$QEAV21@@Z DD imagerel $LN224@Emplace_re+597
	DD	imagerel $LN224@Emplace_re+603
	DD	imagerel $chain$7$??$_Emplace_reallocate@V?$shared_ptr@VCanvas@@@std@@@?$vector@V?$shared_ptr@VCanvas@@@std@@V?$allocator@V?$shared_ptr@VCanvas@@@std@@@2@@std@@AEAAPEAV?$shared_ptr@VCanvas@@@1@QEAV21@$$QEAV21@@Z
pdata	ENDS
;	COMDAT pdata
pdata	SEGMENT
$pdata$??$?0AEAVTools@@V?$basic_string@DU?$char_traits@D@std@@V?$allocator@D@2@@std@@U?$vec@$01M$0A@@glm@@_K@?$_Ref_count_obj2@VCanvas@@@std@@QEAA@AEAVTools@@$$QEAV?$basic_string@DU?$char_traits@D@std@@V?$allocator@D@2@@1@$$QEAU?$vec@$01M$0A@@glm@@$$QEA_K@Z DD imagerel $LN87@Ref_count_
	DD	imagerel $LN87@Ref_count_+114
	DD	imagerel $unwind$??$?0AEAVTools@@V?$basic_string@DU?$char_traits@D@std@@V?$allocator@D@2@@std@@U?$vec@$01M$0A@@glm@@_K@?$_Ref_count_obj2@VCanvas@@@std@@QEAA@AEAVTools@@$$QEAV?$basic_string@DU?$char_traits@D@std@@V?$allocator@D@2@@1@$$QEAU?$vec@$01M$0A@@glm@@$$QEA_K@Z
pdata	ENDS
;	COMDAT pdata
pdata	SEGMENT
$pdata$??$?0AEAVTools@@AEAY0P@$$CBDU?$vec@$01M$0A@@glm@@_K@?$_Ref_count_obj2@VCanvas@@@std@@QEAA@AEAVTools@@AEAY0P@$$CBD$$QEAU?$vec@$01M$0A@@glm@@$$QEA_K@Z DD imagerel $LN15@Ref_count_
	DD	imagerel $LN15@Ref_count_+122
	DD	imagerel $unwind$??$?0AEAVTools@@AEAY0P@$$CBDU?$vec@$01M$0A@@glm@@_K@?$_Ref_count_obj2@VCanvas@@@std@@QEAA@AEAVTools@@AEAY0P@$$CBD$$QEAU?$vec@$01M$0A@@glm@@$$QEA_K@Z
pdata	ENDS
;	COMDAT pdata
pdata	SEGMENT
$pdata$??_G?$_Ref_count_obj2@VCanvas@@@std@@UEAAPEAXI@Z DD imagerel $LN8@scalar
	DD	imagerel $LN8@scalar+43
	DD	imagerel $unwind$??_G?$_Ref_count_obj2@VCanvas@@@std@@UEAAPEAXI@Z
pdata	ENDS
;	COMDAT pdata
pdata	SEGMENT
$pdata$?_Destroy@?$_Ref_count_obj2@VCanvas@@@std@@EEAAXXZ DD imagerel $LN58@Destroy
	DD	imagerel $LN58@Destroy+170
	DD	imagerel $unwind$?_Destroy@?$_Ref_count_obj2@VCanvas@@@std@@EEAAXXZ
pdata	ENDS
;	COMDAT pdata
pdata	SEGMENT
$pdata$??$_Destroy_range@V?$allocator@V?$shared_ptr@VCanvas@@@std@@@std@@@std@@YAXPEAV?$shared_ptr@VCanvas@@@0@QEAV10@AEAV?$allocator@V?$shared_ptr@VCanvas@@@std@@@0@@Z DD imagerel $LN35@Destroy_ra
	DD	imagerel $LN35@Destroy_ra+18
	DD	imagerel $unwind$??$_Destroy_range@V?$allocator@V?$shared_ptr@VCanvas@@@std@@@std@@@std@@YAXPEAV?$shared_ptr@VCanvas@@@0@QEAV10@AEAV?$allocator@V?$shared_ptr@VCanvas@@@std@@@0@@Z
pdata	ENDS
;	COMDAT pdata
pdata	SEGMENT
$pdata$0$??$_Destroy_range@V?$allocator@V?$shared_ptr@VCanvas@@@std@@@std@@@std@@YAXPEAV?$shared_ptr@VCanvas@@@0@QEAV10@AEAV?$allocator@V?$shared_ptr@VCanvas@@@std@@@0@@Z DD imagerel $LN35@Destroy_ra+18
	DD	imagerel $LN35@Destroy_ra+112
	DD	imagerel $chain$0$??$_Destroy_range@V?$allocator@V?$shared_ptr@VCanvas@@@std@@@std@@@std@@YAXPEAV?$shared_ptr@VCanvas@@@0@QEAV10@AEAV?$allocator@V?$shared_ptr@VCanvas@@@std@@@0@@Z
pdata	ENDS
;	COMDAT pdata
pdata	SEGMENT
$pdata$1$??$_Destroy_range@V?$allocator@V?$shared_ptr@VCanvas@@@std@@@std@@@std@@YAXPEAV?$shared_ptr@VCanvas@@@0@QEAV10@AEAV?$allocator@V?$shared_ptr@VCanvas@@@std@@@0@@Z DD imagerel $LN35@Destroy_ra+112
	DD	imagerel $LN35@Destroy_ra+113
	DD	imagerel $chain$1$??$_Destroy_range@V?$allocator@V?$shared_ptr@VCanvas@@@std@@@std@@@std@@YAXPEAV?$shared_ptr@VCanvas@@@0@QEAV10@AEAV?$allocator@V?$shared_ptr@VCanvas@@@std@@@0@@Z
pdata	ENDS
;	COMDAT pdata
pdata	SEGMENT
$pdata$??$make_shared@VCanvas@@AEAVTools@@V?$basic_string@DU?$char_traits@D@std@@V?$allocator@D@2@@std@@U?$vec@$01M$0A@@glm@@_K@std@@YA?AV?$shared_ptr@VCanvas@@@0@AEAVTools@@$$QEAV?$basic_string@DU?$char_traits@D@std@@V?$allocator@D@2@@0@$$QEAU?$vec@$01M$0A@@glm@@$$QEA_K@Z DD imagerel $LN102@make_share
	DD	imagerel $LN102@make_share+217
	DD	imagerel $unwind$??$make_shared@VCanvas@@AEAVTools@@V?$basic_string@DU?$char_traits@D@std@@V?$allocator@D@2@@std@@U?$vec@$01M$0A@@glm@@_K@std@@YA?AV?$shared_ptr@VCanvas@@@0@AEAVTools@@$$QEAV?$basic_string@DU?$char_traits@D@std@@V?$allocator@D@2@@0@$$QEAU?$vec@$01M$0A@@glm@@$$QEA_K@Z
pdata	ENDS
;	COMDAT pdata
pdata	SEGMENT
$pdata$?dtor$0@?0???$make_shared@VCanvas@@AEAVTools@@V?$basic_string@DU?$char_traits@D@std@@V?$allocator@D@2@@std@@U?$vec@$01M$0A@@glm@@_K@std@@YA?AV?$shared_ptr@VCanvas@@@0@AEAVTools@@$$QEAV?$basic_string@DU?$char_traits@D@std@@V?$allocator@D@2@@0@$$QEAU?$vec@$01M$0A@@glm@@$$QEA_K@Z@4HA DD imagerel ?dtor$0@?0???$make_shared@VCanvas@@AEAVTools@@V?$basic_string@DU?$char_traits@D@std@@V?$allocator@D@2@@std@@U?$vec@$01M$0A@@glm@@_K@std@@YA?AV?$shared_ptr@VCanvas@@@0@AEAVTools@@$$QEAV?$basic_string@DU?$char_traits@D@std@@V?$allocator@D@2@@0@$$QEAU?$vec@$01M$0A@@glm@@$$QEA_K@Z@4HA
	DD	imagerel ?dtor$0@?0???$make_shared@VCanvas@@AEAVTools@@V?$basic_string@DU?$char_traits@D@std@@V?$allocator@D@2@@std@@U?$vec@$01M$0A@@glm@@_K@std@@YA?AV?$shared_ptr@VCanvas@@@0@AEAVTools@@$$QEAV?$basic_string@DU?$char_traits@D@std@@V?$allocator@D@2@@0@$$QEAU?$vec@$01M$0A@@glm@@$$QEA_K@Z@4HA+32
	DD	imagerel $unwind$?dtor$0@?0???$make_shared@VCanvas@@AEAVTools@@V?$basic_string@DU?$char_traits@D@std@@V?$allocator@D@2@@std@@U?$vec@$01M$0A@@glm@@_K@std@@YA?AV?$shared_ptr@VCanvas@@@0@AEAVTools@@$$QEAV?$basic_string@DU?$char_traits@D@std@@V?$allocator@D@2@@0@$$QEAU?$vec@$01M$0A@@glm@@$$QEA_K@Z@4HA
pdata	ENDS
;	COMDAT pdata
pdata	SEGMENT
$pdata$??$make_shared@VCanvas@@AEAVTools@@AEAY0P@$$CBDU?$vec@$01M$0A@@glm@@_K@std@@YA?AV?$shared_ptr@VCanvas@@@0@AEAVTools@@AEAY0P@$$CBD$$QEAU?$vec@$01M$0A@@glm@@$$QEA_K@Z DD imagerel $LN30@make_share
	DD	imagerel $LN30@make_share+182
	DD	imagerel $unwind$??$make_shared@VCanvas@@AEAVTools@@AEAY0P@$$CBDU?$vec@$01M$0A@@glm@@_K@std@@YA?AV?$shared_ptr@VCanvas@@@0@AEAVTools@@AEAY0P@$$CBD$$QEAU?$vec@$01M$0A@@glm@@$$QEA_K@Z
pdata	ENDS
;	COMDAT pdata
pdata	SEGMENT
$pdata$?dtor$0@?0???$make_shared@VCanvas@@AEAVTools@@AEAY0P@$$CBDU?$vec@$01M$0A@@glm@@_K@std@@YA?AV?$shared_ptr@VCanvas@@@0@AEAVTools@@AEAY0P@$$CBD$$QEAU?$vec@$01M$0A@@glm@@$$QEA_K@Z@4HA DD imagerel ?dtor$0@?0???$make_shared@VCanvas@@AEAVTools@@AEAY0P@$$CBDU?$vec@$01M$0A@@glm@@_K@std@@YA?AV?$shared_ptr@VCanvas@@@0@AEAVTools@@AEAY0P@$$CBD$$QEAU?$vec@$01M$0A@@glm@@$$QEA_K@Z@4HA
	DD	imagerel ?dtor$0@?0???$make_shared@VCanvas@@AEAVTools@@AEAY0P@$$CBDU?$vec@$01M$0A@@glm@@_K@std@@YA?AV?$shared_ptr@VCanvas@@@0@AEAVTools@@AEAY0P@$$CBD$$QEAU?$vec@$01M$0A@@glm@@$$QEA_K@Z@4HA+32
	DD	imagerel $unwind$?dtor$0@?0???$make_shared@VCanvas@@AEAVTools@@AEAY0P@$$CBDU?$vec@$01M$0A@@glm@@_K@std@@YA?AV?$shared_ptr@VCanvas@@@0@AEAVTools@@AEAY0P@$$CBD$$QEAU?$vec@$01M$0A@@glm@@$$QEA_K@Z@4HA
pdata	ENDS
;	COMDAT pdata
pdata	SEGMENT
$pdata$?deallocate@?$allocator@V?$shared_ptr@VCanvas@@@std@@@std@@QEAAXQEAV?$shared_ptr@VCanvas@@@2@_K@Z DD imagerel $LN23@deallocate
	DD	imagerel $LN23@deallocate+66
	DD	imagerel $unwind$?deallocate@?$allocator@V?$shared_ptr@VCanvas@@@std@@@std@@QEAAXQEAV?$shared_ptr@VCanvas@@@2@_K@Z
pdata	ENDS
;	COMDAT pdata
pdata	SEGMENT
$pdata$?_Tidy@?$vector@V?$shared_ptr@VCanvas@@@std@@V?$allocator@V?$shared_ptr@VCanvas@@@std@@@2@@std@@AEAAXXZ DD imagerel $LN30@Tidy
	DD	imagerel $LN30@Tidy+104
	DD	imagerel $unwind$?_Tidy@?$vector@V?$shared_ptr@VCanvas@@@std@@V?$allocator@V?$shared_ptr@VCanvas@@@std@@@2@@std@@AEAAXXZ
pdata	ENDS
;	COMDAT pdata
pdata	SEGMENT
$pdata$?_Xrange@?$vector@V?$shared_ptr@VCanvas@@@std@@V?$allocator@V?$shared_ptr@VCanvas@@@std@@@2@@std@@CAXXZ DD imagerel $LN4@Xrange
	DD	imagerel $LN4@Xrange+18
	DD	imagerel $unwind$?_Xrange@?$vector@V?$shared_ptr@VCanvas@@@std@@V?$allocator@V?$shared_ptr@VCanvas@@@std@@@2@@std@@CAXXZ
pdata	ENDS
;	COMDAT pdata
pdata	SEGMENT
$pdata$?_Decref@?$_Ptr_base@VCanvas@@@std@@IEAAXXZ DD imagerel $LN16@Decref
	DD	imagerel $LN16@Decref+15
	DD	imagerel $unwind$?_Decref@?$_Ptr_base@VCanvas@@@std@@IEAAXXZ
pdata	ENDS
;	COMDAT pdata
pdata	SEGMENT
$pdata$0$?_Decref@?$_Ptr_base@VCanvas@@@std@@IEAAXXZ DD imagerel $LN16@Decref+15
	DD	imagerel $LN16@Decref+69
	DD	imagerel $chain$0$?_Decref@?$_Ptr_base@VCanvas@@@std@@IEAAXXZ
pdata	ENDS
;	COMDAT pdata
pdata	SEGMENT
$pdata$1$?_Decref@?$_Ptr_base@VCanvas@@@std@@IEAAXXZ DD imagerel $LN16@Decref+69
	DD	imagerel $LN16@Decref+75
	DD	imagerel $chain$1$?_Decref@?$_Ptr_base@VCanvas@@@std@@IEAAXXZ
pdata	ENDS
;	COMDAT pdata
pdata	SEGMENT
$pdata$??1?$vector@V?$shared_ptr@VCanvas@@@std@@V?$allocator@V?$shared_ptr@VCanvas@@@std@@@2@@std@@QEAA@XZ DD imagerel $LN33@vector
	DD	imagerel $LN33@vector+104
	DD	imagerel $unwind$??1?$vector@V?$shared_ptr@VCanvas@@@std@@V?$allocator@V?$shared_ptr@VCanvas@@@std@@@2@@std@@QEAA@XZ
pdata	ENDS
;	COMDAT pdata
pdata	SEGMENT
$pdata$?at@?$vector@V?$shared_ptr@VCanvas@@@std@@V?$allocator@V?$shared_ptr@VCanvas@@@std@@@2@@std@@QEAAAEAV?$shared_ptr@VCanvas@@@2@_K@Z DD imagerel $LN7@at
	DD	imagerel $LN7@at+41
	DD	imagerel $unwind$?at@?$vector@V?$shared_ptr@VCanvas@@@std@@V?$allocator@V?$shared_ptr@VCanvas@@@std@@@2@@std@@QEAAAEAV?$shared_ptr@VCanvas@@@2@_K@Z
pdata	ENDS
;	COMDAT pdata
pdata	SEGMENT
$pdata$??1?$shared_ptr@VCanvas@@@std@@QEAA@XZ DD imagerel $LN18@shared_ptr
	DD	imagerel $LN18@shared_ptr+15
	DD	imagerel $unwind$??1?$shared_ptr@VCanvas@@@std@@QEAA@XZ
pdata	ENDS
;	COMDAT pdata
pdata	SEGMENT
$pdata$0$??1?$shared_ptr@VCanvas@@@std@@QEAA@XZ DD imagerel $LN18@shared_ptr+15
	DD	imagerel $LN18@shared_ptr+69
	DD	imagerel $chain$0$??1?$shared_ptr@VCanvas@@@std@@QEAA@XZ
pdata	ENDS
;	COMDAT pdata
pdata	SEGMENT
$pdata$1$??1?$shared_ptr@VCanvas@@@std@@QEAA@XZ DD imagerel $LN18@shared_ptr+69
	DD	imagerel $LN18@shared_ptr+75
	DD	imagerel $chain$1$??1?$shared_ptr@VCanvas@@@std@@QEAA@XZ
pdata	ENDS
;	COMDAT pdata
pdata	SEGMENT
$pdata$?Cleanup@Application@@AEAAXXZ DD imagerel $LN138@Cleanup
	DD	imagerel $LN138@Cleanup+790
	DD	imagerel $unwind$?Cleanup@Application@@AEAAXXZ
pdata	ENDS
;	COMDAT pdata
pdata	SEGMENT
$pdata$?DrawTitleBar@Application@@AEAAXXZ DD imagerel $LN718@DrawTitleB
	DD	imagerel $LN718@DrawTitleB+3817
	DD	imagerel $unwind$?DrawTitleBar@Application@@AEAAXXZ
pdata	ENDS
;	COMDAT pdata
pdata	SEGMENT
$pdata$?dtor$8@?0??DrawTitleBar@Application@@AEAAXXZ@4HA DD imagerel ?dtor$8@?0??DrawTitleBar@Application@@AEAAXXZ@4HA
	DD	imagerel ?dtor$8@?0??DrawTitleBar@Application@@AEAAXXZ@4HA+32
	DD	imagerel $unwind$?dtor$8@?0??DrawTitleBar@Application@@AEAAXXZ@4HA
pdata	ENDS
;	COMDAT pdata
pdata	SEGMENT
$pdata$?RenderUI@Application@@QEAAXXZ DD imagerel $LN163@RenderUI
	DD	imagerel $LN163@RenderUI+1509
	DD	imagerel $unwind$?RenderUI@Application@@QEAAXXZ
pdata	ENDS
;	COMDAT pdata
pdata	SEGMENT
$pdata$?Run@Application@@QEAAXXZ DD imagerel $LN11@Run
	DD	imagerel $LN11@Run+70
	DD	imagerel $unwind$?Run@Application@@QEAAXXZ
pdata	ENDS
;	COMDAT pdata
pdata	SEGMENT
$pdata$?InitImGui@Application@@AEAAXXZ DD imagerel $LN130
	DD	imagerel $LN130+882
	DD	imagerel $unwind$?InitImGui@Application@@AEAAXXZ
pdata	ENDS
;	COMDAT pdata
pdata	SEGMENT
$pdata$?dtor$0@?0??InitImGui@Application@@AEAAXXZ@4HA DD imagerel ?dtor$0@?0??InitImGui@Application@@AEAAXXZ@4HA
	DD	imagerel ?dtor$0@?0??InitImGui@Application@@AEAAXXZ@4HA+35
	DD	imagerel $unwind$?dtor$0@?0??InitImGui@Application@@AEAAXXZ@4HA
pdata	ENDS
;	COMDAT pdata
pdata	SEGMENT
$pdata$?InitGL@Application@@SAXXZ DD imagerel $LN9@InitGL
	DD	imagerel $LN9@InitGL+547
	DD	imagerel $unwind$?InitGL@Application@@SAXXZ
pdata	ENDS
;	COMDAT pdata
pdata	SEGMENT
$pdata$?UpdateWindow@Application@@AEAAXXZ DD imagerel $LN78@UpdateWind
	DD	imagerel $LN78@UpdateWind+34
	DD	imagerel $unwind$?UpdateWindow@Application@@AEAAXXZ
pdata	ENDS
;	COMDAT pdata
pdata	SEGMENT
$pdata$6$?UpdateWindow@Application@@AEAAXXZ DD imagerel $LN78@UpdateWind+34
	DD	imagerel $LN78@UpdateWind+728
	DD	imagerel $chain$6$?UpdateWindow@Application@@AEAAXXZ
pdata	ENDS
;	COMDAT pdata
pdata	SEGMENT
$pdata$7$?UpdateWindow@Application@@AEAAXXZ DD imagerel $LN78@UpdateWind+728
	DD	imagerel $LN78@UpdateWind+745
	DD	imagerel $chain$7$?UpdateWindow@Application@@AEAAXXZ
pdata	ENDS
;	COMDAT pdata
pdata	SEGMENT
$pdata$??1Application@@QEAA@XZ DD imagerel $LN17@Applicatio
	DD	imagerel $LN17@Applicatio+42
	DD	imagerel $unwind$??1Application@@QEAA@XZ
pdata	ENDS
;	COMDAT pdata
pdata	SEGMENT
$pdata$??1Tools@@QEAA@XZ DD imagerel $LN14@Tools
	DD	imagerel $LN14@Tools+34
	DD	imagerel $unwind$??1Tools@@QEAA@XZ
pdata	ENDS
;	COMDAT pdata
pdata	SEGMENT
$pdata$??0Application@@QEAA@XZ DD imagerel $LN94@Applicatio
	DD	imagerel $LN94@Applicatio+460
	DD	imagerel $unwind$??0Application@@QEAA@XZ
pdata	ENDS
;	COMDAT pdata
pdata	SEGMENT
$pdata$?dtor$5@?0???0Application@@QEAA@XZ@4HA DD imagerel ?dtor$5@?0???0Application@@QEAA@XZ@4HA
	DD	imagerel ?dtor$5@?0???0Application@@QEAA@XZ@4HA+29
	DD	imagerel $unwind$?dtor$5@?0???0Application@@QEAA@XZ@4HA
pdata	ENDS
;	COMDAT pdata
pdata	SEGMENT
$pdata$?RedrawWindow@@YAHPEAXPEATSDL_Event@@@Z DD imagerel $LN8@RedrawWind
	DD	imagerel $LN8@RedrawWind+30
	DD	imagerel $unwind$?RedrawWindow@@YAHPEAXPEATSDL_Event@@@Z
pdata	ENDS
;	COMDAT pdata
pdata	SEGMENT
$pdata$printf DD imagerel $LN6@printf
	DD	imagerel $LN6@printf+82
	DD	imagerel $unwind$printf
pdata	ENDS
;	COMDAT pdata
pdata	SEGMENT
$pdata$_vfprintf_l DD imagerel $LN4@vfprintf_l
	DD	imagerel $LN4@vfprintf_l+68
	DD	imagerel $unwind$_vfprintf_l
;	COMDAT xdata
xdata	SEGMENT
$unwind$_vfprintf_l DQ 00009640f00060f01r	; 1.30596e-308
	DQ	0700b520f0008340fr		; 5.30195e+231
xdata	ENDS
;	COMDAT xdata
xdata	SEGMENT
$unwind$printf DQ 07016621a00031a01r		; 8.68758e+231
	DD	03015H
xdata	ENDS
;	COMDAT xdata
xdata	SEGMENT
$unwind$?RedrawWindow@@YAHPEAXPEATSDL_Event@@@Z DQ 00000420400010401r ; 3.58617e-310
xdata	ENDS
;	COMDAT xdata
xdata	SEGMENT
$unwind$?dtor$5@?0???0Application@@QEAA@XZ@4HA DQ 05002320600020601r ; 2.6336e+77
xdata	ENDS
;	COMDAT xdata
xdata	SEGMENT
$ip2state$??0Application@@QEAA@XZ DQ 03a067804bc02b80cr ; 3.54496e-29
	DD	0b4087c04H
	DB	00H
xdata	ENDS
;	COMDAT xdata
xdata	SEGMENT
$stateUnwindMap$??0Application@@QEAA@XZ DW 0e08H
	DD	imagerel ?dtor$0@?0???0Application@@QEAA@XZ@4HA
	DB	02eH
	DD	imagerel ?dtor$1@?0???0Application@@QEAA@XZ@4HA
	DB	02eH
	DD	imagerel ?dtor$5@?0???0Application@@QEAA@XZ@4HA
	DB	052H
	DD	imagerel ??1?$shared_ptr@VCanvas@@@std@@QEAA@XZ
	DB	0f0H
xdata	ENDS
;	COMDAT xdata
xdata	SEGMENT
$cppxdata$??0Application@@QEAA@XZ DB 028H
	DD	imagerel $stateUnwindMap$??0Application@@QEAA@XZ
	DD	imagerel $ip2state$??0Application@@QEAA@XZ
xdata	ENDS
;	COMDAT xdata
xdata	SEGMENT
$unwind$??0Application@@QEAA@XZ DQ 0001a5419000b2b19r ; 3.66143e-308
	DQ	00012011900193419r		; 2.5038e-308
	DQ	0700cc00ee010f012r		; 5.57941e+231
	DD	0600bH
	DD	imagerel __GSHandlerCheck_EH4
	DD	imagerel $cppxdata$??0Application@@QEAA@XZ
	DD	08aH
xdata	ENDS
;	COMDAT xdata
xdata	SEGMENT
$ip2state$??1Tools@@QEAA@XZ DW 01802H
	DB	02H
xdata	ENDS
;	COMDAT xdata
xdata	SEGMENT
$stateUnwindMap$??1Tools@@QEAA@XZ DW 0e02H
	DD	imagerel __std_terminate
xdata	ENDS
;	COMDAT xdata
xdata	SEGMENT
$cppxdata$??1Tools@@QEAA@XZ DB 068H
	DD	imagerel $stateUnwindMap$??1Tools@@QEAA@XZ
	DD	imagerel $ip2state$??1Tools@@QEAA@XZ
xdata	ENDS
;	COMDAT xdata
xdata	SEGMENT
$unwind$??1Tools@@QEAA@XZ DQ 03002320600020619r	; 1.96423e-77
	DD	imagerel __CxxFrameHandler4
	DD	imagerel $cppxdata$??1Tools@@QEAA@XZ
xdata	ENDS
;	COMDAT xdata
xdata	SEGMENT
$ip2state$??1Application@@QEAA@XZ DW 01802H
	DB	02H
xdata	ENDS
;	COMDAT xdata
xdata	SEGMENT
$stateUnwindMap$??1Application@@QEAA@XZ DW 0e02H
	DD	imagerel __std_terminate
xdata	ENDS
;	COMDAT xdata
xdata	SEGMENT
$cppxdata$??1Application@@QEAA@XZ DB 068H
	DD	imagerel $stateUnwindMap$??1Application@@QEAA@XZ
	DD	imagerel $ip2state$??1Application@@QEAA@XZ
xdata	ENDS
;	COMDAT xdata
xdata	SEGMENT
$unwind$??1Application@@QEAA@XZ DQ 03002320600020619r ; 1.96423e-77
	DD	imagerel __CxxFrameHandler4
	DD	imagerel $cppxdata$??1Application@@QEAA@XZ
xdata	ENDS
;	COMDAT xdata
xdata	SEGMENT
$chain$7$?UpdateWindow@Application@@AEAAXXZ DD 021H
	DD	imagerel $LN78@UpdateWind
	DD	imagerel $LN78@UpdateWind+34
	DD	imagerel $unwind$?UpdateWindow@Application@@AEAAXXZ
xdata	ENDS
;	COMDAT xdata
xdata	SEGMENT
$chain$6$?UpdateWindow@Application@@AEAAXXZ DQ 00002c85a000e5a21r ; 3.86971e-309
	DQ	00004a83c0003b84br		; 6.47659e-309
	DQ	00006881e0005982dr		; 9.08346e-309
	DQ	00008680800077810r		; 1.16905e-308
	DD	imagerel $LN78@UpdateWind
	DD	imagerel $LN78@UpdateWind+34
	DD	imagerel $unwind$?UpdateWindow@Application@@AEAAXXZ
xdata	ENDS
;	COMDAT xdata
xdata	SEGMENT
$unwind$?UpdateWindow@Application@@AEAAXXZ DQ 00014340d00050d01r ; 2.80962e-308
	DQ	0000070060012010dr		; 6.08546e-310
xdata	ENDS
;	COMDAT xdata
xdata	SEGMENT
$unwind$?InitGL@Application@@SAXXZ DQ 00012346400046419r ; 2.53167e-308
	DD	0130107H
	DD	imagerel __GSHandlerCheck
	DD	088H
xdata	ENDS
;	COMDAT xdata
xdata	SEGMENT
$unwind$?dtor$0@?0??InitImGui@Application@@AEAAXXZ@4HA DD 020601H
	DD	050023206H
xdata	ENDS
;	COMDAT xdata
xdata	SEGMENT
$ip2state$?InitImGui@Application@@AEAAXXZ DB 06H
	DB	'0'
	DB	00H
	DB	'Q', 02H
	DB	02H
	DB	'"'
	DB	00H
xdata	ENDS
;	COMDAT xdata
xdata	SEGMENT
$stateUnwindMap$?InitImGui@Application@@AEAAXXZ DB 02H
	DB	0eH
	DD	imagerel ?dtor$0@?0??InitImGui@Application@@AEAAXXZ@4HA
xdata	ENDS
;	COMDAT xdata
xdata	SEGMENT
$cppxdata$?InitImGui@Application@@AEAAXXZ DB 028H
	DD	imagerel $stateUnwindMap$?InitImGui@Application@@AEAAXXZ
	DD	imagerel $ip2state$?InitImGui@Application@@AEAAXXZ
xdata	ENDS
;	COMDAT xdata
xdata	SEGMENT
$unwind$?InitImGui@Application@@AEAAXXZ DD 050911H
	DD	070056209H
	DD	050036004H
	DD	03002H
	DD	imagerel __CxxFrameHandler4
	DD	imagerel $cppxdata$?InitImGui@Application@@AEAAXXZ
xdata	ENDS
;	COMDAT xdata
xdata	SEGMENT
$unwind$?Run@Application@@QEAAXXZ DQ 03002320600020601r ; 1.96423e-77
xdata	ENDS
;	COMDAT xdata
xdata	SEGMENT
$unwind$?RenderUI@Application@@QEAAXXZ DQ 000217424000d3219r ; 4.85446e-308
	DQ	0001f342400206424r		; 4.33941e-308
	DQ	0e016f01800180124r		; -7.68866e+154
	DQ	000005010c012d014r		; 4.3494e-310
	DD	imagerel __GSHandlerCheck
	DD	0b0H
xdata	ENDS
;	COMDAT xdata
xdata	SEGMENT
$unwind$?dtor$8@?0??DrawTitleBar@Application@@AEAAXXZ@4HA DQ 05002320600020601r ; 2.6336e+77
xdata	ENDS
;	COMDAT xdata
xdata	SEGMENT
$ip2state$?DrawTitleBar@Application@@AEAAXXZ DQ 099022b410003110er ; -3.26229e-188
	DQ	0025504c806280403r		; 2.00867e-297
	DD	02150cH
xdata	ENDS
;	COMDAT xdata
xdata	SEGMENT
$stateUnwindMap$?DrawTitleBar@Application@@AEAAXXZ DW 0a0cH
	DD	imagerel ??1?$basic_string@DU?$char_traits@D@std@@V?$allocator@D@2@@std@@QEAA@XZ
	DW	03290H
	DD	imagerel ??1?$basic_string@DU?$char_traits@D@std@@V?$allocator@D@2@@std@@QEAA@XZ
	DW	0661H
	DB	03eH
	DD	imagerel ?dtor$8@?0??DrawTitleBar@Application@@AEAAXXZ@4HA
	DB	062H
	DD	imagerel ??1?$shared_ptr@VCanvas@@@std@@QEAA@XZ
	DW	0841H
	DB	0caH
	DD	imagerel ??1?$shared_ptr@VCanvas@@@std@@QEAA@XZ
	DD	02150841H
	DD	imagerel ??1?$shared_ptr@VCanvas@@@std@@QEAA@XZ
	DW	0841H
xdata	ENDS
;	COMDAT xdata
xdata	SEGMENT
$cppxdata$?DrawTitleBar@Application@@AEAAXXZ DB 028H
	DD	imagerel $stateUnwindMap$?DrawTitleBar@Application@@AEAAXXZ
	DD	imagerel $ip2state$?DrawTitleBar@Application@@AEAAXXZ
xdata	ENDS
;	COMDAT xdata
xdata	SEGMENT
$unwind$?DrawTitleBar@Application@@AEAAXXZ DQ 00023782e00113f19r ; 5.41512e-308
	DQ	0005374260024682ar		; 4.32859e-307
	DQ	00051342600526426r		; 3.82795e-307
	DQ	0e016f018004a0126r		; -7.68866e+154
	DQ	000005010c012d014r		; 4.3494e-310
	DD	imagerel __GSHandlerCheck_EH4
	DD	imagerel $cppxdata$?DrawTitleBar@Application@@AEAAXXZ
	DD	0222H
xdata	ENDS
;	COMDAT xdata
xdata	SEGMENT
$unwind$?Cleanup@Application@@AEAAXXZ DQ 0000b741e000c1e01r ; 1.59282e-308
	DQ	00009541e000a641er		; 1.2973e-308
	DQ	0f01a321e0008341er		; -1.01674e+232
	DD	0c016e018H
xdata	ENDS
;	COMDAT xdata
xdata	SEGMENT
$chain$1$??1?$shared_ptr@VCanvas@@@std@@QEAA@XZ DD 021H
	DD	imagerel $LN18@shared_ptr
	DD	imagerel $LN18@shared_ptr+15
	DD	imagerel $unwind$??1?$shared_ptr@VCanvas@@@std@@QEAA@XZ
xdata	ENDS
;	COMDAT xdata
xdata	SEGMENT
$chain$0$??1?$shared_ptr@VCanvas@@@std@@QEAA@XZ DQ 00006740500020521r ; 8.97428e-309
	DD	imagerel $LN18@shared_ptr
	DD	imagerel $LN18@shared_ptr+15
	DD	imagerel $unwind$??1?$shared_ptr@VCanvas@@@std@@QEAA@XZ
xdata	ENDS
;	COMDAT xdata
xdata	SEGMENT
$unwind$??1?$shared_ptr@VCanvas@@@std@@QEAA@XZ DQ 03002320600020601r ; 1.96423e-77
xdata	ENDS
;	COMDAT xdata
xdata	SEGMENT
$unwind$?at@?$vector@V?$shared_ptr@VCanvas@@@std@@V?$allocator@V?$shared_ptr@VCanvas@@@std@@@2@@std@@QEAAAEAV?$shared_ptr@VCanvas@@@2@_K@Z DQ 00000420400010401r ; 3.58617e-310
xdata	ENDS
;	COMDAT xdata
xdata	SEGMENT
$unwind$??1?$vector@V?$shared_ptr@VCanvas@@@std@@V?$allocator@V?$shared_ptr@VCanvas@@@std@@@2@@std@@QEAA@XZ DQ 03002320600020601r ; 1.96423e-77
xdata	ENDS
;	COMDAT xdata
xdata	SEGMENT
$chain$1$?_Decref@?$_Ptr_base@VCanvas@@@std@@IEAAXXZ DD 021H
	DD	imagerel $LN16@Decref
	DD	imagerel $LN16@Decref+15
	DD	imagerel $unwind$?_Decref@?$_Ptr_base@VCanvas@@@std@@IEAAXXZ
xdata	ENDS
;	COMDAT xdata
xdata	SEGMENT
$chain$0$?_Decref@?$_Ptr_base@VCanvas@@@std@@IEAAXXZ DQ 00006740500020521r ; 8.97428e-309
	DD	imagerel $LN16@Decref
	DD	imagerel $LN16@Decref+15
	DD	imagerel $unwind$?_Decref@?$_Ptr_base@VCanvas@@@std@@IEAAXXZ
xdata	ENDS
;	COMDAT xdata
xdata	SEGMENT
$unwind$?_Decref@?$_Ptr_base@VCanvas@@@std@@IEAAXXZ DQ 03002320600020601r ; 1.96423e-77
xdata	ENDS
;	COMDAT xdata
xdata	SEGMENT
$unwind$?_Xrange@?$vector@V?$shared_ptr@VCanvas@@@std@@V?$allocator@V?$shared_ptr@VCanvas@@@std@@@2@@std@@CAXXZ DQ 00000420400010401r ; 3.58617e-310
xdata	ENDS
;	COMDAT xdata
xdata	SEGMENT
$unwind$?_Tidy@?$vector@V?$shared_ptr@VCanvas@@@std@@V?$allocator@V?$shared_ptr@VCanvas@@@std@@@2@@std@@AEAAXXZ DQ 03002320600020601r ; 1.96423e-77
xdata	ENDS
;	COMDAT xdata
xdata	SEGMENT
$unwind$?deallocate@?$allocator@V?$shared_ptr@VCanvas@@@std@@@std@@QEAAXQEAV?$shared_ptr@VCanvas@@@2@_K@Z DQ 00000420400010401r ; 3.58617e-310
xdata	ENDS
;	COMDAT xdata
xdata	SEGMENT
$unwind$?dtor$0@?0???$make_shared@VCanvas@@AEAVTools@@AEAY0P@$$CBDU?$vec@$01M$0A@@glm@@_K@std@@YA?AV?$shared_ptr@VCanvas@@@0@AEAVTools@@AEAY0P@$$CBD$$QEAU?$vec@$01M$0A@@glm@@$$QEA_K@Z@4HA DQ 05002320600020601r ; 2.6336e+77
xdata	ENDS
;	COMDAT xdata
xdata	SEGMENT
$ip2state$??$make_shared@VCanvas@@AEAVTools@@AEAY0P@$$CBDU?$vec@$01M$0A@@glm@@_K@std@@YA?AV?$shared_ptr@VCanvas@@@0@AEAVTools@@AEAY0P@$$CBD$$QEAU?$vec@$01M$0A@@glm@@$$QEA_K@Z DD 096004606H
	DW	03602H
	DB	00H
xdata	ENDS
;	COMDAT xdata
xdata	SEGMENT
$stateUnwindMap$??$make_shared@VCanvas@@AEAVTools@@AEAY0P@$$CBDU?$vec@$01M$0A@@glm@@_K@std@@YA?AV?$shared_ptr@VCanvas@@@0@AEAVTools@@AEAY0P@$$CBD$$QEAU?$vec@$01M$0A@@glm@@$$QEA_K@Z DW 0e02H
	DD	imagerel ?dtor$0@?0???$make_shared@VCanvas@@AEAVTools@@AEAY0P@$$CBDU?$vec@$01M$0A@@glm@@_K@std@@YA?AV?$shared_ptr@VCanvas@@@0@AEAVTools@@AEAY0P@$$CBD$$QEAU?$vec@$01M$0A@@glm@@$$QEA_K@Z@4HA
xdata	ENDS
;	COMDAT xdata
xdata	SEGMENT
$cppxdata$??$make_shared@VCanvas@@AEAVTools@@AEAY0P@$$CBDU?$vec@$01M$0A@@glm@@_K@std@@YA?AV?$shared_ptr@VCanvas@@@0@AEAVTools@@AEAY0P@$$CBD$$QEAU?$vec@$01M$0A@@glm@@$$QEA_K@Z DB 028H
	DD	imagerel $stateUnwindMap$??$make_shared@VCanvas@@AEAVTools@@AEAY0P@$$CBDU?$vec@$01M$0A@@glm@@_K@std@@YA?AV?$shared_ptr@VCanvas@@@0@AEAVTools@@AEAY0P@$$CBD$$QEAU?$vec@$01M$0A@@glm@@$$QEA_K@Z
	DD	imagerel $ip2state$??$make_shared@VCanvas@@AEAVTools@@AEAY0P@$$CBDU?$vec@$01M$0A@@glm@@_K@std@@YA?AV?$shared_ptr@VCanvas@@@0@AEAVTools@@AEAY0P@$$CBD$$QEAU?$vec@$01M$0A@@glm@@$$QEA_K@Z
xdata	ENDS
;	COMDAT xdata
xdata	SEGMENT
$unwind$??$make_shared@VCanvas@@AEAVTools@@AEAY0P@$$CBDU?$vec@$01M$0A@@glm@@_K@std@@YA?AV?$shared_ptr@VCanvas@@@0@AEAVTools@@AEAY0P@$$CBD$$QEAU?$vec@$01M$0A@@glm@@$$QEA_K@Z DQ 00013341500081511r ; 2.67057e-308
	DQ	0700de00ff011b215r		; 5.79773e+231
	DD	0500b600cH
	DD	imagerel __CxxFrameHandler4
	DD	imagerel $cppxdata$??$make_shared@VCanvas@@AEAVTools@@AEAY0P@$$CBDU?$vec@$01M$0A@@glm@@_K@std@@YA?AV?$shared_ptr@VCanvas@@@0@AEAVTools@@AEAY0P@$$CBD$$QEAU?$vec@$01M$0A@@glm@@$$QEA_K@Z
xdata	ENDS
;	COMDAT xdata
xdata	SEGMENT
$unwind$?dtor$0@?0???$make_shared@VCanvas@@AEAVTools@@V?$basic_string@DU?$char_traits@D@std@@V?$allocator@D@2@@std@@U?$vec@$01M$0A@@glm@@_K@std@@YA?AV?$shared_ptr@VCanvas@@@0@AEAVTools@@$$QEAV?$basic_string@DU?$char_traits@D@std@@V?$allocator@D@2@@0@$$QEAU?$vec@$01M$0A@@glm@@$$QEA_K@Z@4HA DQ 05002320600020601r ; 2.6336e+77
xdata	ENDS
;	COMDAT xdata
xdata	SEGMENT
$ip2state$??$make_shared@VCanvas@@AEAVTools@@V?$basic_string@DU?$char_traits@D@std@@V?$allocator@D@2@@std@@U?$vec@$01M$0A@@glm@@_K@std@@YA?AV?$shared_ptr@VCanvas@@@0@AEAVTools@@$$QEAV?$basic_string@DU?$char_traits@D@std@@V?$allocator@D@2@@0@$$QEAU?$vec@$01M$0A@@glm@@$$QEA_K@Z DD 0e4005c04H
	DB	02H
xdata	ENDS
;	COMDAT xdata
xdata	SEGMENT
$stateUnwindMap$??$make_shared@VCanvas@@AEAVTools@@V?$basic_string@DU?$char_traits@D@std@@V?$allocator@D@2@@std@@U?$vec@$01M$0A@@glm@@_K@std@@YA?AV?$shared_ptr@VCanvas@@@0@AEAVTools@@$$QEAV?$basic_string@DU?$char_traits@D@std@@V?$allocator@D@2@@0@$$QEAU?$vec@$01M$0A@@glm@@$$QEA_K@Z DW 0e02H
	DD	imagerel ?dtor$0@?0???$make_shared@VCanvas@@AEAVTools@@V?$basic_string@DU?$char_traits@D@std@@V?$allocator@D@2@@std@@U?$vec@$01M$0A@@glm@@_K@std@@YA?AV?$shared_ptr@VCanvas@@@0@AEAVTools@@$$QEAV?$basic_string@DU?$char_traits@D@std@@V?$allocator@D@2@@0@$$QEAU?$vec@$01M$0A@@glm@@$$QEA_K@Z@4HA
xdata	ENDS
;	COMDAT xdata
xdata	SEGMENT
$cppxdata$??$make_shared@VCanvas@@AEAVTools@@V?$basic_string@DU?$char_traits@D@std@@V?$allocator@D@2@@std@@U?$vec@$01M$0A@@glm@@_K@std@@YA?AV?$shared_ptr@VCanvas@@@0@AEAVTools@@$$QEAV?$basic_string@DU?$char_traits@D@std@@V?$allocator@D@2@@0@$$QEAU?$vec@$01M$0A@@glm@@$$QEA_K@Z DB 028H
	DD	imagerel $stateUnwindMap$??$make_shared@VCanvas@@AEAVTools@@V?$basic_string@DU?$char_traits@D@std@@V?$allocator@D@2@@std@@U?$vec@$01M$0A@@glm@@_K@std@@YA?AV?$shared_ptr@VCanvas@@@0@AEAVTools@@$$QEAV?$basic_string@DU?$char_traits@D@std@@V?$allocator@D@2@@0@$$QEAU?$vec@$01M$0A@@glm@@$$QEA_K@Z
	DD	imagerel $ip2state$??$make_shared@VCanvas@@AEAVTools@@V?$basic_string@DU?$char_traits@D@std@@V?$allocator@D@2@@std@@U?$vec@$01M$0A@@glm@@_K@std@@YA?AV?$shared_ptr@VCanvas@@@0@AEAVTools@@$$QEAV?$basic_string@DU?$char_traits@D@std@@V?$allocator@D@2@@0@$$QEAU?$vec@$01M$0A@@glm@@$$QEA_K@Z
xdata	ENDS
;	COMDAT xdata
xdata	SEGMENT
$unwind$??$make_shared@VCanvas@@AEAVTools@@V?$basic_string@DU?$char_traits@D@std@@V?$allocator@D@2@@std@@U?$vec@$01M$0A@@glm@@_K@std@@YA?AV?$shared_ptr@VCanvas@@@0@AEAVTools@@$$QEAV?$basic_string@DU?$char_traits@D@std@@V?$allocator@D@2@@0@$$QEAU?$vec@$01M$0A@@glm@@$$QEA_K@Z DQ 00013641d000a1d11r ; 2.69666e-308
	DQ	00011341d0012541dr		; 2.39245e-308
	DQ	07015e017f019b21dr		; 8.49048e+231
	DD	imagerel __CxxFrameHandler4
	DD	imagerel $cppxdata$??$make_shared@VCanvas@@AEAVTools@@V?$basic_string@DU?$char_traits@D@std@@V?$allocator@D@2@@std@@U?$vec@$01M$0A@@glm@@_K@std@@YA?AV?$shared_ptr@VCanvas@@@0@AEAVTools@@$$QEAV?$basic_string@DU?$char_traits@D@std@@V?$allocator@D@2@@0@$$QEAU?$vec@$01M$0A@@glm@@$$QEA_K@Z
xdata	ENDS
;	COMDAT xdata
xdata	SEGMENT
$chain$1$??$_Destroy_range@V?$allocator@V?$shared_ptr@VCanvas@@@std@@@std@@@std@@YAXPEAV?$shared_ptr@VCanvas@@@0@QEAV10@AEAV?$allocator@V?$shared_ptr@VCanvas@@@std@@@0@@Z DD 021H
	DD	imagerel $LN35@Destroy_ra
	DD	imagerel $LN35@Destroy_ra+18
	DD	imagerel $unwind$??$_Destroy_range@V?$allocator@V?$shared_ptr@VCanvas@@@std@@@std@@@std@@YAXPEAV?$shared_ptr@VCanvas@@@0@QEAV10@AEAV?$allocator@V?$shared_ptr@VCanvas@@@std@@@0@@Z
xdata	ENDS
;	COMDAT xdata
xdata	SEGMENT
$chain$0$??$_Destroy_range@V?$allocator@V?$shared_ptr@VCanvas@@@std@@@std@@@std@@YAXPEAV?$shared_ptr@VCanvas@@@0@QEAV10@AEAV?$allocator@V?$shared_ptr@VCanvas@@@std@@@0@@Z DQ 00006340500020521r ; 8.62661e-309
	DD	imagerel $LN35@Destroy_ra
	DD	imagerel $LN35@Destroy_ra+18
	DD	imagerel $unwind$??$_Destroy_range@V?$allocator@V?$shared_ptr@VCanvas@@@std@@@std@@@std@@YAXPEAV?$shared_ptr@VCanvas@@@0@QEAV10@AEAV?$allocator@V?$shared_ptr@VCanvas@@@std@@@0@@Z
xdata	ENDS
;	COMDAT xdata
xdata	SEGMENT
$unwind$??$_Destroy_range@V?$allocator@V?$shared_ptr@VCanvas@@@std@@@std@@@std@@YAXPEAV?$shared_ptr@VCanvas@@@0@QEAV10@AEAV?$allocator@V?$shared_ptr@VCanvas@@@std@@@0@@Z DQ 00007640f00040f01r ; 1.02782e-308
	DD	0700b320fH
xdata	ENDS
;	COMDAT xdata
xdata	SEGMENT
$unwind$?_Destroy@?$_Ref_count_obj2@VCanvas@@@std@@EEAAXXZ DQ 03002320600020601r ; 1.96423e-77
xdata	ENDS
;	COMDAT xdata
xdata	SEGMENT
$unwind$??_G?$_Ref_count_obj2@VCanvas@@@std@@UEAAPEAXI@Z DQ 03002320600020601r ; 1.96423e-77
xdata	ENDS
;	COMDAT xdata
xdata	SEGMENT
$unwind$??$?0AEAVTools@@AEAY0P@$$CBDU?$vec@$01M$0A@@glm@@_K@?$_Ref_count_obj2@VCanvas@@@std@@QEAA@AEAVTools@@AEAY0P@$$CBD$$QEAU?$vec@$01M$0A@@glm@@$$QEA_K@Z DQ 0000f541200081201r ; 2.13168e-308
	DQ	0e00e9212000e3412r		; -5.12356e+154
	DD	0600b700cH
xdata	ENDS
;	COMDAT xdata
xdata	SEGMENT
$unwind$??$?0AEAVTools@@V?$basic_string@DU?$char_traits@D@std@@V?$allocator@D@2@@std@@U?$vec@$01M$0A@@glm@@_K@?$_Ref_count_obj2@VCanvas@@@std@@QEAA@AEAVTools@@$$QEAV?$basic_string@DU?$char_traits@D@std@@V?$allocator@D@2@@1@$$QEAU?$vec@$01M$0A@@glm@@$$QEA_K@Z DQ 03002920600020601r ; 2.00471e-77
xdata	ENDS
;	COMDAT xdata
xdata	SEGMENT
$chain$7$??$_Emplace_reallocate@V?$shared_ptr@VCanvas@@@std@@@?$vector@V?$shared_ptr@VCanvas@@@std@@V?$allocator@V?$shared_ptr@VCanvas@@@std@@@2@@std@@AEAAPEAV?$shared_ptr@VCanvas@@@1@QEAV21@$$QEAV21@@Z DQ 00004e40000080021r ; 6.80125e-309
	DQ	0000674000005d400r		; 8.97417e-309
	DD	0f5400H
	DD	imagerel $LN224@Emplace_re
	DD	imagerel $LN224@Emplace_re+66
	DD	imagerel $unwind$??$_Emplace_reallocate@V?$shared_ptr@VCanvas@@@std@@@?$vector@V?$shared_ptr@VCanvas@@@std@@V?$allocator@V?$shared_ptr@VCanvas@@@std@@@2@@std@@AEAAPEAV?$shared_ptr@VCanvas@@@1@QEAV21@$$QEAV21@@Z
xdata	ENDS
;	COMDAT xdata
xdata	SEGMENT
$chain$6$??$_Emplace_reallocate@V?$shared_ptr@VCanvas@@@std@@@?$vector@V?$shared_ptr@VCanvas@@@std@@V?$allocator@V?$shared_ptr@VCanvas@@@std@@@2@@std@@AEAAPEAV?$shared_ptr@VCanvas@@@1@QEAV21@$$QEAV21@@Z DD 021H
	DD	imagerel $LN224@Emplace_re
	DD	imagerel $LN224@Emplace_re+66
	DD	imagerel $unwind$??$_Emplace_reallocate@V?$shared_ptr@VCanvas@@@std@@@?$vector@V?$shared_ptr@VCanvas@@@std@@V?$allocator@V?$shared_ptr@VCanvas@@@std@@@2@@std@@AEAAPEAV?$shared_ptr@VCanvas@@@1@QEAV21@$$QEAV21@@Z
xdata	ENDS
;	COMDAT xdata
xdata	SEGMENT
$chain$5$??$_Emplace_reallocate@V?$shared_ptr@VCanvas@@@std@@@?$vector@V?$shared_ptr@VCanvas@@@std@@V?$allocator@V?$shared_ptr@VCanvas@@@std@@@2@@std@@AEAAPEAV?$shared_ptr@VCanvas@@@1@QEAV21@$$QEAV21@@Z DQ 00004e40000080021r ; 6.80125e-309
	DQ	0000674000005d400r		; 8.97417e-309
	DD	0f5400H
	DD	imagerel $LN224@Emplace_re
	DD	imagerel $LN224@Emplace_re+66
	DD	imagerel $unwind$??$_Emplace_reallocate@V?$shared_ptr@VCanvas@@@std@@@?$vector@V?$shared_ptr@VCanvas@@@std@@V?$allocator@V?$shared_ptr@VCanvas@@@std@@@2@@std@@AEAAPEAV?$shared_ptr@VCanvas@@@1@QEAV21@$$QEAV21@@Z
xdata	ENDS
;	COMDAT xdata
xdata	SEGMENT
$chain$3$??$_Emplace_reallocate@V?$shared_ptr@VCanvas@@@std@@@?$vector@V?$shared_ptr@VCanvas@@@std@@V?$allocator@V?$shared_ptr@VCanvas@@@std@@@2@@std@@AEAAPEAV?$shared_ptr@VCanvas@@@1@QEAV21@$$QEAV21@@Z DQ 00004e42800082821r ; 6.8021e-309
	DQ	0000674120005d423r		; 8.97456e-309
	DD	0f5405H
	DD	imagerel $LN224@Emplace_re
	DD	imagerel $LN224@Emplace_re+66
	DD	imagerel $unwind$??$_Emplace_reallocate@V?$shared_ptr@VCanvas@@@std@@@?$vector@V?$shared_ptr@VCanvas@@@std@@V?$allocator@V?$shared_ptr@VCanvas@@@std@@@2@@std@@AEAAPEAV?$shared_ptr@VCanvas@@@1@QEAV21@$$QEAV21@@Z
xdata	ENDS
;	COMDAT xdata
xdata	SEGMENT
$unwind$??$_Emplace_reallocate@V?$shared_ptr@VCanvas@@@std@@@?$vector@V?$shared_ptr@VCanvas@@@std@@V?$allocator@V?$shared_ptr@VCanvas@@@std@@@2@@std@@AEAAPEAV?$shared_ptr@VCanvas@@@1@QEAV21@$$QEAV21@@Z DQ 0f007620b00050b01r ; -4.53781e+231
	DQ	0000030026003c005r		; 2.60801e-310
xdata	ENDS
;	COMDAT xdata
xdata	SEGMENT
$chain$1$??$destroy@V?$shared_ptr@VCanvas@@@std@@@?$_Default_allocator_traits@V?$allocator@V?$shared_ptr@VCanvas@@@std@@@std@@@std@@SAXAEAV?$allocator@V?$shared_ptr@VCanvas@@@std@@@1@QEAV?$shared_ptr@VCanvas@@@1@@Z DD 021H
	DD	imagerel $LN25@destroy
	DD	imagerel $LN25@destroy+15
	DD	imagerel $unwind$??$destroy@V?$shared_ptr@VCanvas@@@std@@@?$_Default_allocator_traits@V?$allocator@V?$shared_ptr@VCanvas@@@std@@@std@@@std@@SAXAEAV?$allocator@V?$shared_ptr@VCanvas@@@std@@@1@QEAV?$shared_ptr@VCanvas@@@1@@Z
xdata	ENDS
;	COMDAT xdata
xdata	SEGMENT
$chain$0$??$destroy@V?$shared_ptr@VCanvas@@@std@@@?$_Default_allocator_traits@V?$allocator@V?$shared_ptr@VCanvas@@@std@@@std@@@std@@SAXAEAV?$allocator@V?$shared_ptr@VCanvas@@@std@@@1@QEAV?$shared_ptr@VCanvas@@@1@@Z DQ 00006740500020521r ; 8.97428e-309
	DD	imagerel $LN25@destroy
	DD	imagerel $LN25@destroy+15
	DD	imagerel $unwind$??$destroy@V?$shared_ptr@VCanvas@@@std@@@?$_Default_allocator_traits@V?$allocator@V?$shared_ptr@VCanvas@@@std@@@std@@@std@@SAXAEAV?$allocator@V?$shared_ptr@VCanvas@@@std@@@1@QEAV?$shared_ptr@VCanvas@@@1@@Z
xdata	ENDS
;	COMDAT xdata
xdata	SEGMENT
$unwind$??$destroy@V?$shared_ptr@VCanvas@@@std@@@?$_Default_allocator_traits@V?$allocator@V?$shared_ptr@VCanvas@@@std@@@std@@@std@@SAXAEAV?$allocator@V?$shared_ptr@VCanvas@@@std@@@1@QEAV?$shared_ptr@VCanvas@@@1@@Z DQ 03002320600020601r ; 1.96423e-77
xdata	ENDS
;	COMDAT xdata
xdata	SEGMENT
$unwind$??$_Destroy_in_place@VCanvas@@@std@@YAXAEAVCanvas@@@Z DQ 03002320600020601r ; 1.96423e-77
xdata	ENDS
;	COMDAT xdata
xdata	SEGMENT
$unwind$??_GCanvas@@QEAAPEAXI@Z DQ 03002320600020601r ; 1.96423e-77
xdata	ENDS
;	COMDAT xdata
xdata	SEGMENT
$unwind$?_Xlength@?$vector@V?$shared_ptr@VCanvas@@@std@@V?$allocator@V?$shared_ptr@VCanvas@@@std@@@2@@std@@CAXXZ DQ 00000420400010401r ; 3.58617e-310
xdata	ENDS
;	COMDAT xdata
xdata	SEGMENT
$unwind$?_Change_array@?$vector@V?$shared_ptr@VCanvas@@@std@@V?$allocator@V?$shared_ptr@VCanvas@@@std@@@2@@std@@AEAAXQEAV?$shared_ptr@VCanvas@@@2@_K1@Z DQ 00009641400081401r ; 1.30597e-308
	DQ	00007341400085414r		; 1.00176e-308
	DD	070103214H
xdata	ENDS
;	COMDAT xdata
xdata	SEGMENT
$unwind$?allocate@?$allocator@V?$shared_ptr@VCanvas@@@std@@@std@@QEAAPEAV?$shared_ptr@VCanvas@@@2@_K@Z DQ 00000420400010401r ; 3.58617e-310
xdata	ENDS
;	COMDAT xdata
xdata	SEGMENT
$unwind$??$_Construct_in_place@VCanvas@@AEAVTools@@AEAY0P@$$CBDU?$vec@$01M$0A@@glm@@_K@std@@YAXAEAVCanvas@@AEAVTools@@AEAY0P@$$CBD$$QEAU?$vec@$01M$0A@@glm@@$$QEA_K@Z DQ 0000f641400081401r ; 2.14037e-308
	DQ	0000c3414000d5414r		; 1.6971e-308
	DD	070109214H
xdata	ENDS
;	COMDAT xdata
xdata	SEGMENT
$unwind$??$_Construct_in_place@VCanvas@@AEAVTools@@V?$basic_string@DU?$char_traits@D@std@@V?$allocator@D@2@@std@@U?$vec@$01M$0A@@glm@@_K@std@@YAXAEAVCanvas@@AEAVTools@@$$QEAV?$basic_string@DU?$char_traits@D@std@@V?$allocator@D@2@@0@$$QEAU?$vec@$01M$0A@@glm@@$$QEA_K@Z DQ 00000c20400010401r ; 1.05395e-309
xdata	ENDS
;	COMDAT xdata
xdata	SEGMENT
$unwind$??$_Uninitialized_move@PEAV?$shared_ptr@VCanvas@@@std@@V?$allocator@V?$shared_ptr@VCanvas@@@std@@@2@@std@@YAPEAV?$shared_ptr@VCanvas@@@0@QEAV10@0PEAV10@AEAV?$allocator@V?$shared_ptr@VCanvas@@@std@@@0@@Z DQ 03002320600020601r ; 1.96423e-77
xdata	ENDS
;	COMDAT xdata
xdata	SEGMENT
$chain$1$??$destroy_at@V?$shared_ptr@VCanvas@@@std@@@std@@YAXQEAV?$shared_ptr@VCanvas@@@0@@Z DD 021H
	DD	imagerel $LN23@destroy_at
	DD	imagerel $LN23@destroy_at+15
	DD	imagerel $unwind$??$destroy_at@V?$shared_ptr@VCanvas@@@std@@@std@@YAXQEAV?$shared_ptr@VCanvas@@@0@@Z
xdata	ENDS
;	COMDAT xdata
xdata	SEGMENT
$chain$0$??$destroy_at@V?$shared_ptr@VCanvas@@@std@@@std@@YAXQEAV?$shared_ptr@VCanvas@@@0@@Z DQ 00006740500020521r ; 8.97428e-309
	DD	imagerel $LN23@destroy_at
	DD	imagerel $LN23@destroy_at+15
	DD	imagerel $unwind$??$destroy_at@V?$shared_ptr@VCanvas@@@std@@@std@@YAXQEAV?$shared_ptr@VCanvas@@@0@@Z
xdata	ENDS
;	COMDAT xdata
xdata	SEGMENT
$unwind$??$destroy_at@V?$shared_ptr@VCanvas@@@std@@@std@@YAXQEAV?$shared_ptr@VCanvas@@@0@@Z DQ 03002320600020601r ; 1.96423e-77
xdata	ENDS
;	COMDAT xdata
xdata	SEGMENT
$chain$1$??_G?$shared_ptr@VCanvas@@@std@@QEAAPEAXI@Z DD 021H
	DD	imagerel $LN24@scalar
	DD	imagerel $LN24@scalar+22
	DD	imagerel $unwind$??_G?$shared_ptr@VCanvas@@@std@@QEAAPEAXI@Z
xdata	ENDS
;	COMDAT xdata
xdata	SEGMENT
$chain$0$??_G?$shared_ptr@VCanvas@@@std@@QEAAPEAXI@Z DQ 00006640500020521r ; 8.88736e-309
	DD	imagerel $LN24@scalar
	DD	imagerel $LN24@scalar+22
	DD	imagerel $unwind$??_G?$shared_ptr@VCanvas@@@std@@QEAAPEAXI@Z
xdata	ENDS
;	COMDAT xdata
xdata	SEGMENT
$unwind$??_G?$shared_ptr@VCanvas@@@std@@QEAAPEAXI@Z DQ 00007340a00040a01r ; 1.00174e-308
	DD	07006320aH
xdata	ENDS
;	COMDAT xdata
xdata	SEGMENT
$unwind$??$construct_at@VCanvas@@AEAVTools@@AEAY0P@$$CBDU?$vec@$01M$0A@@glm@@_K$0A@@std@@YAPEAVCanvas@@QEAV1@AEAVTools@@AEAY0P@$$CBD$$QEAU?$vec@$01M$0A@@glm@@$$QEA_K@Z DQ 0000f641400081401r ; 2.14037e-308
	DQ	0000c3414000d5414r		; 1.6971e-308
	DD	070109214H
xdata	ENDS
;	COMDAT xdata
xdata	SEGMENT
$unwind$??$construct_at@VCanvas@@AEAVTools@@V?$basic_string@DU?$char_traits@D@std@@V?$allocator@D@2@@std@@U?$vec@$01M$0A@@glm@@_K$0A@@std@@YAPEAVCanvas@@QEAV1@AEAVTools@@$$QEAV?$basic_string@DU?$char_traits@D@std@@V?$allocator@D@2@@0@$$QEAU?$vec@$01M$0A@@glm@@$$QEA_K@Z DQ 00000a20400010401r ; 8.80119e-310
; Function compile flags: /Ogtpy
; File C:\dev\Photo Studio\Photo Studio\Source\Application.cpp
; File C:\dev\Photo Studio\Photo Studio\Dependencies\imgui\imgui.cpp
; File C:\dev\Photo Studio\Photo Studio\Source\Application.cpp
; File C:\dev\Photo Studio\Photo Studio\Dependencies\imgui\imgui.h
; File C:\dev\Photo Studio\Photo Studio\Source\Application.cpp
; File C:\dev\Photo Studio\Photo Studio\Dependencies\imgui\imgui.h
; File C:\dev\Photo Studio\Photo Studio\Source\Application.cpp
; File C:\dev\Photo Studio\Photo Studio\Dependencies\imgui\imgui.h
; File C:\dev\Photo Studio\Photo Studio\Source\Application.cpp
; File C:\dev\Photo Studio\Photo Studio\Dependencies\imgui\imgui.h
; File C:\dev\Photo Studio\Photo Studio\Source\Application.cpp
; File C:\dev\Photo Studio\Photo Studio\Dependencies\imgui\imgui.h
; File C:\dev\Photo Studio\Photo Studio\Source\Application.cpp
; File C:\dev\Photo Studio\Photo Studio\Dependencies\imgui\imgui.h
; File C:\dev\Photo Studio\Photo Studio\Source\Application.cpp
; File C:\dev\Photo Studio\Photo Studio\Dependencies\imgui\imgui.h
; File C:\dev\Photo Studio\Photo Studio\Source\Application.cpp
; File C:\dev\Photo Studio\Photo Studio\Dependencies\imgui\imgui.h
; File C:\dev\Photo Studio\Photo Studio\Source\Application.cpp
; File C:\dev\Photo Studio\Photo Studio\Dependencies\imgui\imgui.h
; File C:\dev\Photo Studio\Photo Studio\Source\Application.cpp
; File C:\dev\Photo Studio\Photo Studio\Dependencies\imgui\imgui.h
; File C:\dev\Photo Studio\Photo Studio\Source\Application.cpp
; File C:\dev\Photo Studio\Photo Studio\Dependencies\imgui\backends\imgui_impl_sdl2.cpp
; File C:\dev\Photo Studio\Photo Studio\Dependencies\imgui\backends\imgui_impl_opengl2.cpp
; File C:\dev\Photo Studio\Photo Studio\Dependencies\imgui\imgui.cpp
; File C:\dev\Photo Studio\Photo Studio\Dependencies\imgui\backends\imgui_impl_opengl2.cpp
; File C:\dev\Photo Studio\Photo Studio\Source\Application.cpp
;	COMDAT ?InitImGui@Application@@AEAAXXZ
_TEXT	SEGMENT
$T3 = 96
this$ = 96
$T2 = 104
$T4 = 112
$T5 = 120
?InitImGui@Application@@AEAAXXZ PROC			; Application::InitImGui, COMDAT

; 155  : {

$LN130:
	push	rbx
	push	rbp
	push	rsi
	push	rdi
	sub	rsp, 56					; 00000038H
	mov	rsi, rcx
; File C:\dev\Photo Studio\Photo Studio\Dependencies\imgui\imgui.cpp

; 3620 :     ImGuiContext* prev_ctx = GetCurrentContext();

	mov	rdi, QWORD PTR ?GImGui@@3PEAUImGuiContext@@EA ; GImGui

; 1196 : static void*   MallocWrapper(size_t size, void* user_data)    { IM_UNUSED(user_data); return malloc(size); }

	mov	ecx, 25808				; 000064d0H
	call	QWORD PTR __imp_malloc
	mov	r9, rax

; 4294 :     if (ImGuiContext* ctx = GImGui)

	mov	r8, QWORD PTR ?GImGui@@3PEAUImGuiContext@@EA ; GImGui
	xor	ebp, ebp
	test	r8, r8
	je	SHORT $LN20@InitImGui

; 4295 :         DebugAllocHook(&ctx->DebugAllocInfo, ctx->FrameCount, ptr, size);

	mov	r10d, DWORD PTR [r8+16536]

; 4314 :     ImGuiDebugAllocEntry* entry = &info->LastEntriesBuf[info->LastEntriesIdx];

	movsx	rax, WORD PTR [r8+25400]
	lea	rdx, QWORD PTR [r8+25404]
	lea	rdx, QWORD PTR [rdx+rax*8]

; 4315 :     IM_UNUSED(ptr);
; 4316 :     if (entry->FrameCount != frame_count)

	cmp	DWORD PTR [rdx], r10d
	je	SHORT $LN18@InitImGui

; 4317 :     {
; 4318 :         info->LastEntriesIdx = (info->LastEntriesIdx + 1) % IM_ARRAYSIZE(info->LastEntriesBuf);

	lea	ecx, DWORD PTR [rax+1]
	mov	eax, 715827883				; 2aaaaaabH
	imul	ecx
	mov	eax, edx
	shr	eax, 31
	add	edx, eax
	lea	eax, DWORD PTR [rdx+rdx*2]
	add	eax, eax
	sub	ecx, eax
	mov	WORD PTR [r8+25400], cx

; 4319 :         entry = &info->LastEntriesBuf[info->LastEntriesIdx];

	movsx	rax, cx
	lea	rdx, QWORD PTR [r8+25404]
	lea	rdx, QWORD PTR [rdx+rax*8]

; 4320 :         entry->FrameCount = frame_count;

	mov	DWORD PTR [rdx], r10d

; 4321 :         entry->AllocCount = entry->FreeCount = 0;

	mov	DWORD PTR [rdx+4], ebp
$LN18@InitImGui:

; 4322 :     }
; 4323 :     if (size != (size_t)-1)
; 4324 :     {
; 4325 :         entry->AllocCount++;

	inc	WORD PTR [rdx+4]

; 4326 :         info->TotalAllocCount++;

	inc	DWORD PTR [r8+25392]
$LN20@InitImGui:

; 3621 :     ImGuiContext* ctx = IM_NEW(ImGuiContext)(shared_font_atlas);

	mov	QWORD PTR $T2[rsp], r9
	lea	rax, QWORD PTR $T3[rsp]
	mov	QWORD PTR $T4[rsp], rax
	mov	QWORD PTR $T5[rsp], r9
	test	r9, r9
	je	SHORT $LN7@InitImGui
	xor	edx, edx
	mov	rcx, r9
	call	??0ImGuiContext@@QEAA@PEAUImFontAtlas@@@Z ; ImGuiContext::ImGuiContext
	jmp	SHORT $LN8@InitImGui
$LN7@InitImGui:
	mov	rax, rbp
$LN8@InitImGui:

; 3622 :     SetCurrentContext(ctx);

	mov	QWORD PTR ?GImGui@@3PEAUImGuiContext@@EA, rax ; GImGui

; 3623 :     Initialize();

	call	?Initialize@ImGui@@YAXXZ		; ImGui::Initialize

; 3624 :     if (prev_ctx != NULL)

	mov	rbx, QWORD PTR ?GImGui@@3PEAUImGuiContext@@EA ; GImGui
	test	rdi, rdi
	cmovne	rbx, rdi
	mov	QWORD PTR ?GImGui@@3PEAUImGuiContext@@EA, rbx ; GImGui
; File C:\dev\Photo Studio\Photo Studio\Source\Application.cpp

; 163  :     io.ConfigFlags |= ImGuiConfigFlags_ViewportsEnable;       // Enable Multi-Viewport / Platform Windows

	or	DWORD PTR [rbx+8], 1091			; 00000443H

; 164  :     //io.ConfigViewportsNoAutoMerge = true;
; 165  :     //io.ConfigViewportsNoTaskBarIcon = true;
; 166  : 
; 167  :     // Setup Dear ImGui style
; 168  :     ImGui::StyleColorsDark();

	xor	ecx, ecx
	call	?StyleColorsDark@ImGui@@YAXPEAUImGuiStyle@@@Z ; ImGui::StyleColorsDark

; 169  :     //ImGui::StyleColorsLight();
; 170  : 
; 171  :     // When viewports are enabled we tweak WindowRounding/WindowBg so platform windows can look identical to regular ones.
; 172  :     ImGuiStyle& style = ImGui::GetStyle();

	mov	rax, QWORD PTR ?GImGui@@3PEAUImGuiContext@@EA ; GImGui

; 173  :     if (io.ConfigFlags & ImGuiConfigFlags_ViewportsEnable)

	test	DWORD PTR [rbx+8], 1024			; 00000400H
	je	SHORT $LN2@InitImGui

; 174  :     {
; 175  :         style.WindowRounding = 0.0f;

	mov	DWORD PTR [rax+14856], ebp
$LN2@InitImGui:

; 176  :         style.Colors[ImGuiCol_WindowBg].w = 1.0f;
; 177  :     }
; 178  : 
; 179  :     style.Colors[ImGuiCol_Tab] = { 0.1f, 0.1f, 0.1f, 1.0f };

	mov	DWORD PTR [rax+15600], 1036831949	; 3dcccccdH
	mov	DWORD PTR [rax+15604], 1036831949	; 3dcccccdH
	mov	DWORD PTR [rax+15608], 1036831949	; 3dcccccdH
	mov	DWORD PTR [rax+15612], 1065353216	; 3f800000H

; 180  :     style.Colors[ImGuiCol_TabActive] = { 0.3f, 0.3f, 0.3f, 1.0f };

	mov	DWORD PTR [rax+15632], 1050253722	; 3e99999aH
	mov	DWORD PTR [rax+15636], 1050253722	; 3e99999aH
	mov	DWORD PTR [rax+15640], 1050253722	; 3e99999aH
	mov	DWORD PTR [rax+15644], 1065353216	; 3f800000H

; 181  :     style.Colors[ImGuiCol_TabHovered] = { 0.4f, 0.4f, 0.4f, 1.0f };

	mov	DWORD PTR [rax+15616], 1053609165	; 3ecccccdH
	mov	DWORD PTR [rax+15620], 1053609165	; 3ecccccdH
	mov	DWORD PTR [rax+15624], 1053609165	; 3ecccccdH
	mov	DWORD PTR [rax+15628], 1065353216	; 3f800000H

; 182  :     style.Colors[ImGuiCol_TabUnfocused] = { 0.2f, 0.2f, 0.2f, 1.0f };

	mov	DWORD PTR [rax+15648], 1045220557	; 3e4ccccdH
	mov	DWORD PTR [rax+15652], 1045220557	; 3e4ccccdH
	mov	DWORD PTR [rax+15656], 1045220557	; 3e4ccccdH
	mov	DWORD PTR [rax+15660], 1065353216	; 3f800000H

; 183  :     style.Colors[ImGuiCol_TabUnfocusedActive] = { 0.3f, 0.3f, 0.3f, 1.0f };

	mov	DWORD PTR [rax+15664], 1050253722	; 3e99999aH
	mov	DWORD PTR [rax+15668], 1050253722	; 3e99999aH
	mov	DWORD PTR [rax+15672], 1050253722	; 3e99999aH
	mov	DWORD PTR [rax+15676], 1065353216	; 3f800000H
; File C:\dev\Photo Studio\Photo Studio\Dependencies\imgui\imgui.h

; 292  :     constexpr ImVec4(float _x, float _y, float _z, float _w)  : x(_x), y(_y), z(_z), w(_w) { }

	movaps	xmm0, XMMWORD PTR __xmm@3f8000003d8080813d8080813d808081
; File C:\dev\Photo Studio\Photo Studio\Source\Application.cpp

; 185  :     style.Colors[ImGuiCol_TitleBg] = Color32({ 16,16,16,255 });

	movups	XMMWORD PTR [rax+15232], xmm0
; File C:\dev\Photo Studio\Photo Studio\Dependencies\imgui\imgui.h

; 292  :     constexpr ImVec4(float _x, float _y, float _z, float _w)  : x(_x), y(_y), z(_z), w(_w) { }

	movaps	xmm1, xmm0
; File C:\dev\Photo Studio\Photo Studio\Source\Application.cpp

; 186  :     style.Colors[ImGuiCol_TitleBgActive] = Color32({ 16,16,16,255 });

	movups	XMMWORD PTR [rax+15248], xmm0

; 187  :     style.Colors[ImGuiCol_TitleBgCollapsed] = Color32({16,16,16,255});

	movups	XMMWORD PTR [rax+15264], xmm0
; File C:\dev\Photo Studio\Photo Studio\Dependencies\imgui\imgui.h

; 292  :     constexpr ImVec4(float _x, float _y, float _z, float _w)  : x(_x), y(_y), z(_z), w(_w) { }

	movaps	xmm1, XMMWORD PTR __xmm@3f8000003e0080813e0080813e008081
; File C:\dev\Photo Studio\Photo Studio\Source\Application.cpp

; 189  :     style.Colors[ImGuiCol_MenuBarBg] = Color32({ 32, 32, 32, 255 });

	movups	XMMWORD PTR [rax+15280], xmm1
; File C:\dev\Photo Studio\Photo Studio\Dependencies\imgui\imgui.h

; 292  :     constexpr ImVec4(float _x, float _y, float _z, float _w)  : x(_x), y(_y), z(_z), w(_w) { }

	movaps	xmm0, XMMWORD PTR __xmm@3f8000003e1090913e1090913e109091
; File C:\dev\Photo Studio\Photo Studio\Source\Application.cpp

; 190  :     style.Colors[ImGuiCol_WindowBg] = Color32({ 36, 36, 36, 255 });

	movups	XMMWORD PTR [rax+15104], xmm0
	xorps	xmm1, xmm1

; 191  :     style.Colors[ImGuiCol_Button] = Color32({ 0,0,0,0 });

	movups	XMMWORD PTR [rax+15408], xmm1
; File C:\dev\Photo Studio\Photo Studio\Dependencies\imgui\imgui.h

; 292  :     constexpr ImVec4(float _x, float _y, float _z, float _w)  : x(_x), y(_y), z(_z), w(_w) { }

	movaps	xmm0, XMMWORD PTR __xmm@3ec8c8c93ec8c8c93ec8c8c93ec8c8c9
; File C:\dev\Photo Studio\Photo Studio\Source\Application.cpp

; 192  :     style.Colors[ImGuiCol_ButtonHovered] = Color32({ 100,100,100,100 });

	movups	XMMWORD PTR [rax+15424], xmm0
; File C:\dev\Photo Studio\Photo Studio\Dependencies\imgui\imgui.h

; 292  :     constexpr ImVec4(float _x, float _y, float _z, float _w)  : x(_x), y(_y), z(_z), w(_w) { }

	movaps	xmm1, XMMWORD PTR __xmm@3ec8c8c93f1696973f1696973f169697
; File C:\dev\Photo Studio\Photo Studio\Source\Application.cpp

; 193  :     style.Colors[ImGuiCol_ButtonActive] = Color32({ 150,150,150,100 });

	movups	XMMWORD PTR [rax+15440], xmm1
; File C:\dev\Photo Studio\Photo Studio\Dependencies\imgui\imgui.h

; 292  :     constexpr ImVec4(float _x, float _y, float _z, float _w)  : x(_x), y(_y), z(_z), w(_w) { }

	movaps	xmm0, XMMWORD PTR __xmm@3f8000003ec8c8c93ec8c8c93ec8c8c9
; File C:\dev\Photo Studio\Photo Studio\Source\Application.cpp

; 195  :     style.Colors[ImGuiCol_FrameBg] = Color32({ 100,100,100,255 });

	movups	XMMWORD PTR [rax+15184], xmm0
; File C:\dev\Photo Studio\Photo Studio\Dependencies\imgui\imgui.h

; 292  :     constexpr ImVec4(float _x, float _y, float _z, float _w)  : x(_x), y(_y), z(_z), w(_w) { }

	movaps	xmm1, XMMWORD PTR __xmm@3f8000003ef0f0f13ef0f0f13ef0f0f1
; File C:\dev\Photo Studio\Photo Studio\Source\Application.cpp

; 196  :     style.Colors[ImGuiCol_FrameBgActive] = Color32({ 120,120,120,255 });

	movups	XMMWORD PTR [rax+15216], xmm1
; File C:\dev\Photo Studio\Photo Studio\Dependencies\imgui\imgui.h

; 292  :     constexpr ImVec4(float _x, float _y, float _z, float _w)  : x(_x), y(_y), z(_z), w(_w) { }

	movaps	xmm0, XMMWORD PTR __xmm@3f8000003f1696973f1696973f169697
; File C:\dev\Photo Studio\Photo Studio\Source\Application.cpp

; 197  :     style.Colors[ImGuiCol_FrameBgHovered] = Color32({ 150,150,150,255 });

	movups	XMMWORD PTR [rax+15200], xmm0
; File C:\dev\Photo Studio\Photo Studio\Dependencies\imgui\imgui.h

; 292  :     constexpr ImVec4(float _x, float _y, float _z, float _w)  : x(_x), y(_y), z(_z), w(_w) { }

	movaps	xmm1, XMMWORD PTR __xmm@3f8000003f8000003f8000003f800000
; File C:\dev\Photo Studio\Photo Studio\Source\Application.cpp

; 198  :     style.Colors[ImGuiCol_CheckMark] = Color32({255,255,255,255});

	movups	XMMWORD PTR [rax+15360], xmm1

; 199  : 
; 200  :     style.DockingSeparatorSize = 1.0f;

	mov	DWORD PTR [rax+15052], 1065353216	; 3f800000H

; 201  :     style.WindowBorderSize = 0.0f;

	mov	DWORD PTR [rax+14860], ebp
; File C:\dev\Photo Studio\Photo Studio\Dependencies\imgui\backends\imgui_impl_sdl2.cpp

; 553  :     return ImGui_ImplSDL2_Init(window, nullptr, sdl_gl_context);

	mov	r8, QWORD PTR ?m_GLContext@Application@@0PEAXEA ; Application::m_GLContext
	mov	rcx, QWORD PTR [rsi]
	call	?ImGui_ImplSDL2_Init@@YA_NPEAUSDL_Window@@PEAUSDL_Renderer@@PEAX@Z ; ImGui_ImplSDL2_Init
; File C:\dev\Photo Studio\Photo Studio\Dependencies\imgui\backends\imgui_impl_opengl2.cpp

; 91   :     ImGuiIO& io = ImGui::GetIO();

	mov	rdi, QWORD PTR ?GImGui@@3PEAUImGuiContext@@EA ; GImGui
; File C:\dev\Photo Studio\Photo Studio\Dependencies\imgui\imgui.cpp

; 1196 : static void*   MallocWrapper(size_t size, void* user_data)    { IM_UNUSED(user_data); return malloc(size); }

	mov	ecx, 4
	call	QWORD PTR __imp_malloc
	mov	r9, rax

; 4294 :     if (ImGuiContext* ctx = GImGui)

	mov	r8, QWORD PTR ?GImGui@@3PEAUImGuiContext@@EA ; GImGui
	test	r8, r8
	je	SHORT $LN122@InitImGui

; 4295 :         DebugAllocHook(&ctx->DebugAllocInfo, ctx->FrameCount, ptr, size);

	mov	r10d, DWORD PTR [r8+16536]

; 4314 :     ImGuiDebugAllocEntry* entry = &info->LastEntriesBuf[info->LastEntriesIdx];

	movsx	r11, WORD PTR [r8+25400]
	lea	rdx, QWORD PTR [r8+25404]
	lea	rdx, QWORD PTR [rdx+r11*8]

; 4315 :     IM_UNUSED(ptr);
; 4316 :     if (entry->FrameCount != frame_count)

	cmp	DWORD PTR [rdx], r10d
	je	SHORT $LN120@InitImGui

; 4317 :     {
; 4318 :         info->LastEntriesIdx = (info->LastEntriesIdx + 1) % IM_ARRAYSIZE(info->LastEntriesBuf);

	lea	ecx, DWORD PTR [r11+1]
	mov	eax, 715827883				; 2aaaaaabH
	imul	ecx
	mov	eax, edx
	shr	eax, 31
	add	edx, eax
	lea	eax, DWORD PTR [rdx+rdx*2]
	add	eax, eax
	sub	ecx, eax
	mov	WORD PTR [r8+25400], cx

; 4319 :         entry = &info->LastEntriesBuf[info->LastEntriesIdx];

	movsx	rax, cx
	lea	rdx, QWORD PTR [r8+25404]
	lea	rdx, QWORD PTR [rdx+rax*8]

; 4320 :         entry->FrameCount = frame_count;

	mov	DWORD PTR [rdx], r10d

; 4321 :         entry->AllocCount = entry->FreeCount = 0;

	mov	DWORD PTR [rdx+4], ebp
$LN120@InitImGui:

; 4322 :     }
; 4323 :     if (size != (size_t)-1)
; 4324 :     {
; 4325 :         entry->AllocCount++;

	inc	WORD PTR [rdx+4]

; 4326 :         info->TotalAllocCount++;

	inc	DWORD PTR [r8+25392]
$LN122@InitImGui:
; File C:\dev\Photo Studio\Photo Studio\Dependencies\imgui\backends\imgui_impl_opengl2.cpp

; 95   :     ImGui_ImplOpenGL2_Data* bd = IM_NEW(ImGui_ImplOpenGL2_Data)();

	test	r9, r9
	je	SHORT $LN109@InitImGui

; 74   :     ImGui_ImplOpenGL2_Data() { memset((void*)this, 0, sizeof(*this)); }

	xor	eax, eax
	mov	DWORD PTR [r9], eax

; 95   :     ImGui_ImplOpenGL2_Data* bd = IM_NEW(ImGui_ImplOpenGL2_Data)();

	jmp	SHORT $LN110@InitImGui
$LN109@InitImGui:
	mov	r9, rbp
$LN110@InitImGui:

; 96   :     io.BackendRendererUserData = (void*)bd;

	mov	QWORD PTR [rdi+160], r9

; 97   :     io.BackendRendererName = "imgui_impl_opengl2";

	lea	rax, OFFSET FLAT:??_C@_0BD@BJOEHOL@imgui_impl_opengl2@
	mov	QWORD PTR [rdi+144], rax

; 98   :     io.BackendFlags |= ImGuiBackendFlags_RendererHasViewports;    // We can create multi-viewports on the Renderer side (optional)

	or	DWORD PTR [rdi+12], 4096		; 00001000H

; 99   : 
; 100  :     if (io.ConfigFlags & ImGuiConfigFlags_ViewportsEnable)

	test	DWORD PTR [rdi+8], 1024			; 00000400H
	je	SHORT $LN107@InitImGui

; 329  :     platform_io.Renderer_RenderWindow = ImGui_ImplOpenGL2_RenderWindow;

	lea	rax, OFFSET FLAT:?ImGui_ImplOpenGL2_RenderWindow@@YAXPEAUImGuiViewport@@PEAX@Z ; ImGui_ImplOpenGL2_RenderWindow
	mov	QWORD PTR [r8+14792], rax
$LN107@InitImGui:
; File C:\dev\Photo Studio\Photo Studio\Source\Application.cpp

; 207  :     glDisable(GL_CULL_FACE);

	mov	ecx, 2884				; 00000b44H
	call	QWORD PTR glad_glDisable

; 208  : 
; 209  :     /*glBlendFunc(GL_SRC_ALPHA, GL_ONE_MINUS_SRC_ALPHA);
; 210  :     glEnable(GL_BLEND);*/
; 211  : 
; 212  :     ImFont* roboto = io.Fonts->AddFontFromFileTTF("Fonts/Roboto-Regular.ttf", 16.0f);

	mov	QWORD PTR [rsp+32], rbp
	xor	r9d, r9d
	movss	xmm2, DWORD PTR __real@41800000
	lea	rdx, OFFSET FLAT:??_C@_0BJ@HCOBDBIG@Fonts?1Roboto?9Regular?4ttf@
	mov	rcx, QWORD PTR [rbx+56]
	call	?AddFontFromFileTTF@ImFontAtlas@@QEAAPEAUImFont@@PEBDMPEBUImFontConfig@@PEBG@Z ; ImFontAtlas::AddFontFromFileTTF

; 213  :     //ImGui::PushFont(roboto);
; 214  : }

	add	rsp, 56					; 00000038H
	pop	rdi
	pop	rsi
	pop	rbp
	pop	rbx
	ret	0
?InitImGui@Application@@AEAAXXZ ENDP			; Application::InitImGui
_TEXT	ENDS
; Function compile flags: /Ogtpy
;	COMDAT text$x
text$x	SEGMENT
$T3 = 96
this$ = 96
$T2 = 104
$T4 = 112
$T5 = 120
?dtor$0@?0??InitImGui@Application@@AEAAXXZ@4HA PROC	; `Application::InitImGui'::`1'::dtor$0
	push	rbp
	sub	rsp, 32					; 00000020H
	mov	rbp, rdx
	mov	r8, QWORD PTR $T2[rbp]
	mov	rax, QWORD PTR $T4[rbp]
	movzx	edx, BYTE PTR [rax]
	mov	rcx, QWORD PTR $T5[rbp]
	call	??3@YAXPEAXUImNewWrapper@@0@Z		; operator delete
	add	rsp, 32					; 00000020H
	pop	rbp
	ret	0
?dtor$0@?0??InitImGui@Application@@AEAAXXZ@4HA ENDP	; `Application::InitImGui'::`1'::dtor$0
text$x	ENDS
END
