; Listing generated by Microsoft (R) Optimizing Compiler Version 19.32.31332.0 

include listing.inc

INCLUDELIB OLDNAMES

PUBLIC	??_C@_05PDOBBJNA@Color@				; `string'
PUBLIC	??_C@_0L@CKCKKFCJ@Brush?5tool@			; `string'
EXTRN	_Init_thread_header:PROC
EXTRN	_Init_thread_footer:PROC
EXTRN	_Init_thread_epoch:DWORD
;	COMDAT ?flags@?1??DrawPaintbrushMenu@Brush@@QEAAXXZ@4HA
_BSS	SEGMENT
?flags@?1??DrawPaintbrushMenu@Brush@@QEAAXXZ@4HA DD 01H DUP (?) ; `Brush::DrawPaintbrushMenu'::`2'::flags
_BSS	ENDS
;	COMDAT ?Pressed@?1??DrawInterpolatedPaintbrush@Brush@@QEAAXM@Z@4_NA
_DATA	SEGMENT
?Pressed@?1??DrawInterpolatedPaintbrush@Brush@@QEAAXM@Z@4_NA DB 01H ; `Brush::DrawInterpolatedPaintbrush'::`2'::Pressed
_DATA	ENDS
;	COMDAT ??_C@_0L@CKCKKFCJ@Brush?5tool@
CONST	SEGMENT
??_C@_0L@CKCKKFCJ@Brush?5tool@ DB 'Brush tool', 00H	; `string'
CONST	ENDS
;	COMDAT ??_C@_05PDOBBJNA@Color@
CONST	SEGMENT
??_C@_05PDOBBJNA@Color@ DB 'Color', 00H			; `string'
PUBLIC	??$?DM$0A@@glm@@YA?AU?$vec@$02M$0A@@0@AEBU10@0@Z ; glm::operator*<float,0>
PUBLIC	?call@?$compute_dot@U?$vec@$02M$0A@@glm@@M$0A@@detail@glm@@SAMAEBU?$vec@$02M$0A@@3@0@Z ; glm::detail::compute_dot<glm::vec<3,float,0>,float,0>::call
PUBLIC	??$dot@$02M$0A@@glm@@YAMAEBU?$vec@$02M$0A@@0@0@Z ; glm::dot<3,float,0>
PUBLIC	?call@?$compute_length@$02M$0A@$0A@@detail@glm@@SAMAEBU?$vec@$02M$0A@@3@@Z ; glm::detail::compute_length<3,float,0,0>::call
PUBLIC	??$?0MMMN@?$vec@$03M$0A@@glm@@QEAA@MMMN@Z	; glm::vec<4,float,0>::vec<4,float,0><float,float,float,double>
PUBLIC	??$length@$02M$0A@@glm@@YAMAEBU?$vec@$02M$0A@@0@@Z ; glm::length<3,float,0>
PUBLIC	??$?GM$0A@@glm@@YA?AU?$vec@$02M$0A@@0@AEBU10@0@Z ; glm::operator-<float,0>
PUBLIC	?DrawPaintbrushMenu@Brush@@QEAAXXZ		; Brush::DrawPaintbrushMenu
PUBLIC	?DrawPencil@Brush@@AEAAXU?$vec@$02M$0A@@glm@@M@Z ; Brush::DrawPencil
PUBLIC	?DrawInterpolatedPaintbrush@Brush@@QEAAXM@Z	; Brush::DrawInterpolatedPaintbrush
PUBLIC	??1Brush@@QEAA@XZ				; Brush::~Brush
PUBLIC	??0Brush@@QEAA@XZ				; Brush::Brush
PUBLIC	?sqrt@@YAMM@Z					; sqrt
;	COMDAT ?PreviousPosition@?1??DrawInterpolatedPaintbrush@Brush@@QEAAXM@Z@4U?$vec@$02M$0A@@glm@@A
_BSS	SEGMENT
?PreviousPosition@?1??DrawInterpolatedPaintbrush@Brush@@QEAAXM@Z@4U?$vec@$02M$0A@@glm@@A DB 0cH DUP (?) ; `Brush::DrawInterpolatedPaintbrush'::`2'::PreviousPosition
_BSS	ENDS
;	COMDAT ?$TSS0@?1??DrawInterpolatedPaintbrush@Brush@@QEAAXM@Z@4HA
_BSS	SEGMENT
?$TSS0@?1??DrawInterpolatedPaintbrush@Brush@@QEAAXM@Z@4HA DD 01H DUP (?) ; `Brush::DrawInterpolatedPaintbrush'::`2'::$TSS0
_BSS	ENDS
;	COMDAT ?$TSS1@?1??DrawInterpolatedPaintbrush@Brush@@QEAAXM@Z@4HA
_BSS	SEGMENT
?$TSS1@?1??DrawInterpolatedPaintbrush@Brush@@QEAAXM@Z@4HA DD 01H DUP (?) ; `Brush::DrawInterpolatedPaintbrush'::`2'::$TSS1
_BSS	ENDS
;	COMDAT ?PreviousDrawnPosition@?1??DrawInterpolatedPaintbrush@Brush@@QEAAXM@Z@4U?$vec@$02M$0A@@glm@@A
_BSS	SEGMENT
?PreviousDrawnPosition@?1??DrawInterpolatedPaintbrush@Brush@@QEAAXM@Z@4U?$vec@$02M$0A@@glm@@A DB 0cH DUP (?) ; `Brush::DrawInterpolatedPaintbrush'::`2'::PreviousDrawnPosition
_BSS	ENDS
;	COMDAT pdata
pdata	SEGMENT
$pdata$?DrawPaintbrushMenu@Brush@@QEAAXXZ DD imagerel $LN12@DrawPaintb
	DD	imagerel $LN12@DrawPaintb+232
	DD	imagerel $unwind$?DrawPaintbrushMenu@Brush@@QEAAXXZ
pdata	ENDS
;	COMDAT pdata
pdata	SEGMENT
$pdata$?DrawPencil@Brush@@AEAAXU?$vec@$02M$0A@@glm@@M@Z DD imagerel $LN170@DrawPencil
	DD	imagerel $LN170@DrawPencil+380
	DD	imagerel $unwind$?DrawPencil@Brush@@AEAAXU?$vec@$02M$0A@@glm@@M@Z
pdata	ENDS
;	COMDAT pdata
pdata	SEGMENT
$pdata$?DrawInterpolatedPaintbrush@Brush@@QEAAXM@Z DD imagerel $LN819@DrawInterp
	DD	imagerel $LN819@DrawInterp+1833
	DD	imagerel $unwind$?DrawInterpolatedPaintbrush@Brush@@QEAAXM@Z
pdata	ENDS
;	COMDAT pdata
pdata	SEGMENT
$pdata$??1Brush@@QEAA@XZ DD imagerel $LN11@Brush
	DD	imagerel $LN11@Brush+34
	DD	imagerel $unwind$??1Brush@@QEAA@XZ
pdata	ENDS
;	COMDAT pdata
pdata	SEGMENT
$pdata$??0Brush@@QEAA@XZ DD imagerel $LN6@Brush
	DD	imagerel $LN6@Brush+43
	DD	imagerel $unwind$??0Brush@@QEAA@XZ
;	COMDAT xdata
xdata	SEGMENT
$unwind$??0Brush@@QEAA@XZ DQ 03002320600020601r	; 1.96423e-77
xdata	ENDS
;	COMDAT xdata
xdata	SEGMENT
$ip2state$??1Brush@@QEAA@XZ DW 01802H
	DB	02H
xdata	ENDS
;	COMDAT xdata
xdata	SEGMENT
$stateUnwindMap$??1Brush@@QEAA@XZ DW 0e02H
	DD	imagerel __std_terminate
xdata	ENDS
;	COMDAT xdata
xdata	SEGMENT
$cppxdata$??1Brush@@QEAA@XZ DB 068H
	DD	imagerel $stateUnwindMap$??1Brush@@QEAA@XZ
	DD	imagerel $ip2state$??1Brush@@QEAA@XZ
xdata	ENDS
;	COMDAT xdata
xdata	SEGMENT
$unwind$??1Brush@@QEAA@XZ DQ 03002320600020619r	; 1.96423e-77
	DD	imagerel __CxxFrameHandler4
	DD	imagerel $cppxdata$??1Brush@@QEAA@XZ
xdata	ENDS
;	COMDAT xdata
xdata	SEGMENT
$ip2state$?DrawInterpolatedPaintbrush@Brush@@QEAAXM@Z DQ 0480403d500076516r ; 8.51343e+38
	DQ	004e0004204046100r		; 3.36265e-285
	DQ	01e004602041d007ar		; 3.53242e-164
	DW	03a06H
	DB	00H
xdata	ENDS
;	COMDAT xdata
xdata	SEGMENT
$stateUnwindMap$?DrawInterpolatedPaintbrush@Brush@@QEAAXM@Z DW 0e06H
	DD	imagerel __std_terminate
	DB	032H
	DD	imagerel ??1?$basic_string@DU?$char_traits@D@std@@V?$allocator@D@2@@std@@QEAA@XZ
	DW	06260H
	DD	imagerel ??1?$basic_string@DU?$char_traits@D@std@@V?$allocator@D@2@@std@@QEAA@XZ
	DB	0e0H
xdata	ENDS
;	COMDAT xdata
xdata	SEGMENT
$cppxdata$?DrawInterpolatedPaintbrush@Brush@@QEAAXM@Z DB 028H
	DD	imagerel $stateUnwindMap$?DrawInterpolatedPaintbrush@Brush@@QEAAXM@Z
	DD	imagerel $ip2state$?DrawInterpolatedPaintbrush@Brush@@QEAAXM@Z
xdata	ENDS
;	COMDAT xdata
xdata	SEGMENT
$unwind$?DrawInterpolatedPaintbrush@Brush@@QEAAXM@Z DQ 00010d84e001b4e11r ; 2.34258e-308
	DQ	00012b83e0011c846r		; 2.60329e-308
	DQ	0001498310013a836r		; 2.86402e-308
	DQ	0001678270015882cr		; 3.12475e-308
	DQ	00039641f00176823r		; 1.41243e-307
	DQ	00030011f0038341fr		; 8.90273e-308
	DQ	0700dc00fe011f013r		; 5.77347e+231
	DD	0500cH
	DD	imagerel __CxxFrameHandler4
	DD	imagerel $cppxdata$?DrawInterpolatedPaintbrush@Brush@@QEAAXM@Z
xdata	ENDS
;	COMDAT xdata
xdata	SEGMENT
$ip2state$?DrawPencil@Brush@@AEAAXU?$vec@$02M$0A@@glm@@M@Z DQ 00030041c0002e106r ; 8.90922e-308
xdata	ENDS
;	COMDAT xdata
xdata	SEGMENT
$stateUnwindMap$?DrawPencil@Brush@@AEAAXU?$vec@$02M$0A@@glm@@M@Z DW 0e04H
	DD	imagerel __std_terminate
	DB	032H
	DD	imagerel ??1?$basic_string@DU?$char_traits@D@std@@V?$allocator@D@2@@std@@QEAA@XZ
	DB	040H
xdata	ENDS
;	COMDAT xdata
xdata	SEGMENT
$cppxdata$?DrawPencil@Brush@@AEAAXU?$vec@$02M$0A@@glm@@M@Z DB 028H
	DD	imagerel $stateUnwindMap$?DrawPencil@Brush@@AEAAXU?$vec@$02M$0A@@glm@@M@Z
	DD	imagerel $ip2state$?DrawPencil@Brush@@AEAAXU?$vec@$02M$0A@@glm@@M@Z
xdata	ENDS
;	COMDAT xdata
xdata	SEGMENT
$unwind$?DrawPencil@Brush@@AEAAXU?$vec@$02M$0A@@glm@@M@Z DQ 00026340d00050d11r ; 6.1755e-308
	DQ	0000070060022010dr		; 6.08546e-310
	DD	imagerel __CxxFrameHandler4
	DD	imagerel $cppxdata$?DrawPencil@Brush@@AEAAXU?$vec@$02M$0A@@glm@@M@Z
xdata	ENDS
;	COMDAT xdata
xdata	SEGMENT
$unwind$?DrawPaintbrushMenu@Brush@@QEAAXXZ DQ 03002b20600021519r ; 2.01821e-77
	DD	imagerel __GSHandlerCheck
	DD	050H
END
