; Listing generated by Microsoft (R) Optimizing Compiler Version 19.36.32534.0 

include listing.inc

INCLUDELIB OLDNAMES

PUBLIC	glad_glCheckFramebufferStatus
PUBLIC	glad_glFramebufferRenderbuffer
PUBLIC	glad_glRenderbufferStorage
PUBLIC	glad_glBindFramebuffer
PUBLIC	glad_glGenRenderbuffers
PUBLIC	glad_glBindRenderbuffer
PUBLIC	glad_glGenFramebuffers
PUBLIC	glad_glFramebufferTexture2D
PUBLIC	glad_glGetProgramInfoLog
PUBLIC	glad_glCompileShader
PUBLIC	glad_glGetProgramiv
PUBLIC	glad_glShaderSource
PUBLIC	glad_glDeleteProgram
PUBLIC	glad_glUniform4f
PUBLIC	glad_glCreateShader
PUBLIC	glad_glGetShaderInfoLog
PUBLIC	glad_glGetShaderiv
PUBLIC	glad_glCreateProgram
PUBLIC	glad_glUniformMatrix4fv
PUBLIC	glad_glDeleteShader
PUBLIC	glad_glGetUniformLocation
PUBLIC	glad_glAttachShader
PUBLIC	glad_glLinkProgram
PUBLIC	glad_glVertexAttribPointer
PUBLIC	glad_glGenVertexArrays
PUBLIC	glad_glBindVertexArray
PUBLIC	glad_glEnableVertexAttribArray
PUBLIC	glad_glDrawElements
PUBLIC	glad_glBlendFunc
PUBLIC	glad_glGetString
PUBLIC	??_C@_1BK@LCODAJLO@?$AAo?$AAp?$AAe?$AAn?$AAg?$AAl?$AA3?$AA2?$AA?4?$AAd?$AAl?$AAl@ ; `string'
PUBLIC	??_C@_0BC@FFKMKEGM@wglGetProcAddress@		; `string'
PUBLIC	??_C@_0L@BAPBLHME@glCullFace@			; `string'
PUBLIC	??_C@_0M@ILBMDJDA@glFrontFace@			; `string'
PUBLIC	??_C@_06HEADGMBC@glHint@			; `string'
PUBLIC	??_C@_0M@CFLGNFPG@glLineWidth@			; `string'
PUBLIC	??_C@_0M@EEAPMMNM@glPointSize@			; `string'
PUBLIC	??_C@_0O@DKMNBFMB@glPolygonMode@		; `string'
PUBLIC	??_C@_09ECGPAEPL@glScissor@			; `string'
PUBLIC	??_C@_0BA@INKFIMGP@glTexParameterf@		; `string'
PUBLIC	??_C@_0BB@KEOFAHDF@glTexParameterfv@		; `string'
PUBLIC	??_C@_0BA@KDNJAKA@glTexParameteri@		; `string'
PUBLIC	??_C@_0BB@KPLJEAAI@glTexParameteriv@		; `string'
PUBLIC	??_C@_0N@JDMMMFHL@glTexImage1D@			; `string'
PUBLIC	??_C@_0N@JBIKHLCC@glTexImage2D@			; `string'
PUBLIC	??_C@_0N@EKCLGPL@glDrawBuffer@			; `string'
PUBLIC	??_C@_07IBAPPAHJ@glClear@			; `string'
PUBLIC	??_C@_0N@OGLMDNKC@glClearColor@			; `string'
PUBLIC	??_C@_0P@KBLPBBFP@glClearStencil@		; `string'
PUBLIC	??_C@_0N@LJIELNG@glClearDepth@			; `string'
PUBLIC	??_C@_0O@DJFHPFEP@glStencilMask@		; `string'
PUBLIC	??_C@_0M@DLGOAHPH@glColorMask@			; `string'
PUBLIC	??_C@_0M@KABMFLLN@glDepthMask@			; `string'
PUBLIC	??_C@_09MHGMIMKN@glDisable@			; `string'
PUBLIC	??_C@_08OOEHEKOP@glEnable@			; `string'
PUBLIC	??_C@_08DFCPOKBK@glFinish@			; `string'
PUBLIC	??_C@_07COFELLJA@glFlush@			; `string'
PUBLIC	??_C@_0M@PFBKOKOH@glBlendFunc@			; `string'
PUBLIC	??_C@_09GKGMNAKG@glLogicOp@			; `string'
PUBLIC	??_C@_0O@ENNLLOLN@glStencilFunc@		; `string'
PUBLIC	??_C@_0M@BILBNGF@glStencilOp@			; `string'
PUBLIC	??_C@_0M@NEJABAEP@glDepthFunc@			; `string'
PUBLIC	??_C@_0O@BFLAHHCK@glPixelStoref@		; `string'
PUBLIC	??_C@_0O@JCCIGLOF@glPixelStorei@		; `string'
PUBLIC	??_C@_0N@HFKHBECK@glReadBuffer@			; `string'
PUBLIC	??_C@_0N@CKFNNHOO@glReadPixels@			; `string'
PUBLIC	??_C@_0O@NLMELLCJ@glGetBooleanv@		; `string'
PUBLIC	??_C@_0N@OFBMMCDH@glGetDoublev@			; `string'
PUBLIC	??_C@_0L@FPKAMKHB@glGetError@			; `string'
PUBLIC	??_C@_0M@CKCOBONE@glGetFloatv@			; `string'
PUBLIC	??_C@_0O@DHHDCCLF@glGetIntegerv@		; `string'
PUBLIC	??_C@_0M@OPOBFDCB@glGetString@			; `string'
PUBLIC	??_C@_0O@DOIIJLAD@glGetTexImage@		; `string'
PUBLIC	??_C@_0BE@DNHBPKMC@glGetTexParameterfv@		; `string'
PUBLIC	??_C@_0BE@DGCNLNPP@glGetTexParameteriv@		; `string'
PUBLIC	??_C@_0BJ@GAMLGIFF@glGetTexLevelParameterfv@	; `string'
PUBLIC	??_C@_0BJ@GLJHCPGI@glGetTexLevelParameteriv@	; `string'
PUBLIC	??_C@_0M@INHMIHKC@glIsEnabled@			; `string'
PUBLIC	??_C@_0N@PEBDIKOA@glDepthRange@			; `string'
PUBLIC	??_C@_0L@KBLIPDFH@glViewport@			; `string'
PUBLIC	??_C@_0N@CMNPPOHA@glDrawArrays@			; `string'
PUBLIC	??_C@_0P@MENFIFGE@glDrawElements@		; `string'
PUBLIC	??_C@_0BA@FFBJGNC@glPolygonOffset@		; `string'
PUBLIC	??_C@_0BB@MEEDBHPL@glCopyTexImage1D@		; `string'
PUBLIC	??_C@_0BB@MGAFKJKC@glCopyTexImage2D@		; `string'
PUBLIC	??_C@_0BE@PKNCAIGI@glCopyTexSubImage1D@		; `string'
PUBLIC	??_C@_0BE@PIJELGDB@glCopyTexSubImage2D@		; `string'
PUBLIC	??_C@_0BA@NFOOCKJD@glTexSubImage1D@		; `string'
PUBLIC	??_C@_0BA@NHKIJEMK@glTexSubImage2D@		; `string'
PUBLIC	??_C@_0O@JKKCIBGC@glBindTexture@		; `string'
PUBLIC	??_C@_0BB@KMPLFJIC@glDeleteTextures@		; `string'
PUBLIC	??_C@_0O@LLMANLNK@glGenTextures@		; `string'
PUBLIC	??_C@_0M@NJHAEPDN@glIsTexture@			; `string'
PUBLIC	??_C@_0BE@IHNAGJGJ@glDrawRangeElements@		; `string'
PUBLIC	??_C@_0N@JAEIBBBF@glTexImage3D@			; `string'
PUBLIC	??_C@_0BA@NGGKPOPN@glTexSubImage3D@		; `string'
PUBLIC	??_C@_0BE@PJFGNMAG@glCopyTexSubImage3D@		; `string'
PUBLIC	??_C@_0BA@KOBBIKOF@glActiveTexture@		; `string'
PUBLIC	??_C@_0BB@BJGIPMOA@glSampleCoverage@		; `string'
PUBLIC	??_C@_0BH@GGHNMAGP@glCompressedTexImage3D@	; `string'
PUBLIC	??_C@_0BH@GHLPKKFI@glCompressedTexImage2D@	; `string'
PUBLIC	??_C@_0BH@GFPJBEAB@glCompressedTexImage1D@	; `string'
PUBLIC	??_C@_0BK@EBJMCDPA@glCompressedTexSubImage3D@	; `string'
PUBLIC	??_C@_0BK@EAFOEJMH@glCompressedTexSubImage2D@	; `string'
PUBLIC	??_C@_0BK@ECBIPHJO@glCompressedTexSubImage1D@	; `string'
PUBLIC	??_C@_0BI@MPANLPPL@glGetCompressedTexImage@	; `string'
PUBLIC	??_C@_0BE@LLLCIIOO@glBlendFuncSeparate@		; `string'
PUBLIC	??_C@_0BC@IBABPJFA@glMultiDrawArrays@		; `string'
PUBLIC	??_C@_0BE@MPDFJJLL@glMultiDrawElements@		; `string'
PUBLIC	??_C@_0BC@FGOOEDO@glPointParameterf@		; `string'
PUBLIC	??_C@_0BD@LIABKNDP@glPointParameterfv@		; `string'
PUBLIC	??_C@_0BC@ICPGPIPB@glPointParameteri@		; `string'
PUBLIC	??_C@_0BD@LDFNOKAC@glPointParameteriv@		; `string'
PUBLIC	??_C@_0N@PKBMFJDK@glBlendColor@			; `string'
PUBLIC	??_C@_0BA@PFHILPAN@glBlendEquation@		; `string'
PUBLIC	??_C@_0N@CJIGHHJ@glGenQueries@			; `string'
PUBLIC	??_C@_0BA@IOKEHMOH@glDeleteQueries@		; `string'
PUBLIC	??_C@_09CNNLCEBN@glIsQuery@			; `string'
PUBLIC	??_C@_0N@GIAGIGPA@glBeginQuery@			; `string'
PUBLIC	??_C@_0L@FLEBHIDM@glEndQuery@			; `string'
PUBLIC	??_C@_0N@BPACPFCI@glGetQueryiv@			; `string'
PUBLIC	??_C@_0BD@KMBBCJID@glGetQueryObjectiv@		; `string'
PUBLIC	??_C@_0BE@MNBBKJ@glGetQueryObjectuiv@		; `string'
PUBLIC	??_C@_0N@BONEPPLO@glBindBuffer@			; `string'
PUBLIC	??_C@_0BA@DMNLADIO@glDeleteBuffers@		; `string'
PUBLIC	??_C@_0N@LAOHBIBA@glGenBuffers@			; `string'
PUBLIC	??_C@_0L@KFPDMKNG@glIsBuffer@			; `string'
PUBLIC	??_C@_0N@JHHJMABP@glBufferData@			; `string'
PUBLIC	??_C@_0BA@GAJMDBBN@glBufferSubData@		; `string'
PUBLIC	??_C@_0BD@PNDAHMBO@glGetBufferSubData@		; `string'
PUBLIC	??_C@_0M@NNHDPACA@glMapBuffer@			; `string'
PUBLIC	??_C@_0O@OFGHBLEO@glUnmapBuffer@		; `string'
PUBLIC	??_C@_0BH@BMIEIFJP@glGetBufferParameteriv@	; `string'
PUBLIC	??_C@_0BE@KNJEIFMC@glGetBufferPointerv@		; `string'
PUBLIC	??_C@_0BI@JNHDNJAG@glBlendEquationSeparate@	; `string'
PUBLIC	??_C@_0O@COHJKDBH@glDrawBuffers@		; `string'
PUBLIC	??_C@_0BE@GAPLDNGF@glStencilOpSeparate@		; `string'
PUBLIC	??_C@_0BG@FCMNCEIA@glStencilFuncSeparate@	; `string'
PUBLIC	??_C@_0BG@MMKPIEJI@glStencilMaskSeparate@	; `string'
PUBLIC	??_C@_0P@LDMLEABL@glAttachShader@		; `string'
PUBLIC	??_C@_0BF@MHKEFIHM@glBindAttribLocation@	; `string'
PUBLIC	??_C@_0BA@DGIEGONF@glCompileShader@		; `string'
PUBLIC	??_C@_0BA@FLKLHNKP@glCreateProgram@		; `string'
PUBLIC	??_C@_0P@HGHBNC@glCreateShader@			; `string'
PUBLIC	??_C@_0BA@NKGCDOPO@glDeleteProgram@		; `string'
PUBLIC	??_C@_0P@HHCDONAG@glDeleteShader@		; `string'
PUBLIC	??_C@_0P@DJFJFCJL@glDetachShader@		; `string'
PUBLIC	??_C@_0BL@NKHLOFFF@glDisableVertexAttribArray@	; `string'
PUBLIC	??_C@_0BK@EHBAHNHE@glEnableVertexAttribArray@	; `string'
PUBLIC	??_C@_0BC@MBALAOHF@glGetActiveAttrib@		; `string'
PUBLIC	??_C@_0BD@NIMHLLKN@glGetActiveUniform@		; `string'
PUBLIC	??_C@_0BF@GHMDGFEM@glGetAttachedShaders@	; `string'
PUBLIC	??_C@_0BE@BEPGJDMM@glGetAttribLocation@		; `string'
PUBLIC	??_C@_0P@FMMDFLCO@glGetProgramiv@		; `string'
PUBLIC	??_C@_0BE@DHGHAJFL@glGetProgramInfoLog@		; `string'
PUBLIC	??_C@_0O@JBDFPDMG@glGetShaderiv@		; `string'
PUBLIC	??_C@_0BD@GIABBCMO@glGetShaderInfoLog@		; `string'
PUBLIC	??_C@_0BC@ELEIFJEL@glGetShaderSource@		; `string'
PUBLIC	??_C@_0BF@KIOPGICP@glGetUniformLocation@	; `string'
PUBLIC	??_C@_0P@DFCJIBG@glGetUniformfv@		; `string'
PUBLIC	??_C@_0P@IAONPCL@glGetUniformiv@		; `string'
PUBLIC	??_C@_0BE@HDPMJMIN@glGetVertexAttribdv@		; `string'
PUBLIC	??_C@_0BE@HAHIEIOD@glGetVertexAttribfv@		; `string'
PUBLIC	??_C@_0BE@HLCEAPNO@glGetVertexAttribiv@		; `string'
PUBLIC	??_C@_0BK@DOJMENLD@glGetVertexAttribPointerv@	; `string'
PUBLIC	??_C@_0M@INLOJDGO@glIsProgram@			; `string'
PUBLIC	??_C@_0L@MDDLFIHC@glIsShader@			; `string'
PUBLIC	??_C@_0O@PIOEEBPO@glLinkProgram@		; `string'
PUBLIC	??_C@_0P@DFHCPFMO@glShaderSource@		; `string'
PUBLIC	??_C@_0N@ICBDHBI@glUseProgram@			; `string'
PUBLIC	??_C@_0M@MLICAPOF@glUniform1f@			; `string'
PUBLIC	??_C@_0M@MJMELBLM@glUniform2f@			; `string'
PUBLIC	??_C@_0M@MIAGNLIL@glUniform3f@			; `string'
PUBLIC	??_C@_0M@MNEJMNAO@glUniform4f@			; `string'
PUBLIC	??_C@_0M@EMBKBDCK@glUniform1i@			; `string'
PUBLIC	??_C@_0M@EOFMKNHD@glUniform2i@			; `string'
PUBLIC	??_C@_0M@EPJOMHEE@glUniform3i@			; `string'
PUBLIC	??_C@_0M@EKNBNBMB@glUniform4i@			; `string'
PUBLIC	??_C@_0N@KJMOEKII@glUniform1fv@			; `string'
PUBLIC	??_C@_0N@LLHLOFGG@glUniform2fv@			; `string'
PUBLIC	??_C@_0N@DMHICAD@glUniform3fv@			; `string'
PUBLIC	??_C@_0N@JOBALKLK@glUniform4fv@			; `string'
PUBLIC	??_C@_0N@KCJCANLF@glUniform1iv@			; `string'
PUBLIC	??_C@_0N@LACHKCFL@glUniform2iv@			; `string'
PUBLIC	??_C@_0N@IJLMFDO@glUniform3iv@			; `string'
PUBLIC	??_C@_0N@JFEMPNIH@glUniform4iv@			; `string'
PUBLIC	??_C@_0BD@JIBJELHD@glUniformMatrix2fv@		; `string'
PUBLIC	??_C@_0BD@CAKFCMBG@glUniformMatrix3fv@		; `string'
PUBLIC	??_C@_0BD@LNHCBEKP@glUniformMatrix4fv@		; `string'
PUBLIC	??_C@_0BC@MAPGDLJK@glValidateProgram@		; `string'
PUBLIC	??_C@_0BB@PIOLPNPC@glVertexAttrib1d@		; `string'
PUBLIC	??_C@_0BC@CKCOKGLN@glVertexAttrib1dv@		; `string'
PUBLIC	??_C@_0BB@MKNNJPHA@glVertexAttrib1f@		; `string'
PUBLIC	??_C@_0BC@CJKKHCND@glVertexAttrib1fv@		; `string'
PUBLIC	??_C@_0BB@PNGIHJGE@glVertexAttrib1s@		; `string'
PUBLIC	??_C@_0BC@DDEHBDEI@glVertexAttrib1sv@		; `string'
PUBLIC	??_C@_0BB@PKKNEDKL@glVertexAttrib2d@		; `string'
PUBLIC	??_C@_0BC@DIJLAJFD@glVertexAttrib2dv@		; `string'
PUBLIC	??_C@_0BB@MIJLCBCJ@glVertexAttrib2f@		; `string'
PUBLIC	??_C@_0BC@DLBPNNDN@glVertexAttrib2fv@		; `string'
PUBLIC	??_C@_0BB@PPCOMHDN@glVertexAttrib2s@		; `string'
PUBLIC	??_C@_0BC@CBPCLMKG@glVertexAttrib2sv@		; `string'
PUBLIC	??_C@_0BB@PLGPCJJM@glVertexAttrib3d@		; `string'
PUBLIC	??_C@_0BC@IACHGODG@glVertexAttrib3dv@		; `string'
PUBLIC	??_C@_0BB@MJFJELBO@glVertexAttrib3f@		; `string'
PUBLIC	??_C@_0BC@IDKDLKFI@glVertexAttrib3fv@		; `string'
PUBLIC	??_C@_0BB@POOMKNAK@glVertexAttrib3s@		; `string'
PUBLIC	??_C@_0BC@JJEONLMD@glVertexAttrib3sv@		; `string'
PUBLIC	??_C@_0BD@NANPPEGB@glVertexAttrib4Nbv@		; `string'
PUBLIC	??_C@_0BD@NMIKBLIA@glVertexAttrib4Niv@		; `string'
PUBLIC	??_C@_0BD@MNDLDNCG@glVertexAttrib4Nsv@		; `string'
PUBLIC	??_C@_0BD@OHBIJGMB@glVertexAttrib4Nub@		; `string'
PUBLIC	??_C@_0BE@JFOBDEMA@glVertexAttrib4Nubv@		; `string'
PUBLIC	??_C@_0BE@JJLENLCB@glVertexAttrib4Nuiv@		; `string'
PUBLIC	??_C@_0BE@IIAFPNIH@glVertexAttrib4Nusv@		; `string'
PUBLIC	??_C@_0BC@BJHNCKDN@glVertexAttrib4bv@		; `string'
PUBLIC	??_C@_0BB@POCADPBJ@glVertexAttrib4d@		; `string'
PUBLIC	??_C@_0BC@BNPAFGIP@glVertexAttrib4dv@		; `string'
PUBLIC	??_C@_0BB@MMBGFNJL@glVertexAttrib4f@		; `string'
PUBLIC	??_C@_0BC@BOHEICOB@glVertexAttrib4fv@		; `string'
PUBLIC	??_C@_0BC@BFCIMFNM@glVertexAttrib4iv@		; `string'
PUBLIC	??_C@_0BB@PLKDLLIP@glVertexAttrib4s@		; `string'
PUBLIC	??_C@_0BC@EJJODHK@glVertexAttrib4sv@		; `string'
PUBLIC	??_C@_0BD@PHPFILMB@glVertexAttrib4ubv@		; `string'
PUBLIC	??_C@_0BD@PLKAGECA@glVertexAttrib4uiv@		; `string'
PUBLIC	??_C@_0BD@OKBBECIG@glVertexAttrib4usv@		; `string'
PUBLIC	??_C@_0BG@JPNNNPKG@glVertexAttribPointer@	; `string'
PUBLIC	??_C@_0BF@KDDJMCDK@glUniformMatrix2x3fv@	; `string'
PUBLIC	??_C@_0BF@NANJHGPK@glUniformMatrix3x2fv@	; `string'
PUBLIC	??_C@_0BF@DOOOPKID@glUniformMatrix2x4fv@	; `string'
PUBLIC	??_C@_0BF@MNNMEGEC@glUniformMatrix4x2fv@	; `string'
PUBLIC	??_C@_0BF@PFLCCJCG@glUniformMatrix3x4fv@	; `string'
PUBLIC	??_C@_0BF@HFGACBCH@glUniformMatrix4x3fv@	; `string'
PUBLIC	??_C@_0N@JHNNNJFG@glColorMaski@			; `string'
PUBLIC	??_C@_0BA@OAKNOBP@glGetBooleani_v@		; `string'
PUBLIC	??_C@_0BA@FKCNNMFO@glGetIntegeri_v@		; `string'
PUBLIC	??_C@_09IEGEGIEN@glEnablei@			; `string'
PUBLIC	??_C@_0L@BMJPGDDH@glDisablei@			; `string'
PUBLIC	??_C@_0N@IMGKGOKN@glIsEnabledi@			; `string'
PUBLIC	??_C@_0BJ@FHJKOECC@glBeginTransformFeedback@	; `string'
PUBLIC	??_C@_0BH@LCFLNNBH@glEndTransformFeedback@	; `string'
PUBLIC	??_C@_0BC@EEMMCHMB@glBindBufferRange@		; `string'
PUBLIC	??_C@_0BB@LDPKOCJI@glBindBufferBase@		; `string'
PUBLIC	??_C@_0BM@IJFAKBEF@glTransformFeedbackVaryings@	; `string'
PUBLIC	??_C@_0BO@ODFLPNG@glGetTransformFeedbackVarying@ ; `string'
PUBLIC	??_C@_0N@HLGAGIMI@glClampColor@			; `string'
PUBLIC	??_C@_0BJ@EHEPIEPF@glBeginConditionalRender@	; `string'
PUBLIC	??_C@_0BH@KCIOLNMA@glEndConditionalRender@	; `string'
PUBLIC	??_C@_0BH@NLOEHKCD@glVertexAttribIPointer@	; `string'
PUBLIC	??_C@_0BF@KPDNEONP@glGetVertexAttribIiv@	; `string'
PUBLIC	??_C@_0BG@GCBDCABB@glGetVertexAttribIuiv@	; `string'
PUBLIC	??_C@_0BC@CDIIMMAL@glVertexAttribI1i@		; `string'
PUBLIC	??_C@_0BC@CBMOHCFC@glVertexAttribI2i@		; `string'
PUBLIC	??_C@_0BC@CAAMBIGF@glVertexAttribI3i@		; `string'
PUBLIC	??_C@_0BC@CFEDAOOA@glVertexAttribI4i@		; `string'
PUBLIC	??_C@_0BD@DGPCNLLO@glVertexAttribI1ui@		; `string'
PUBLIC	??_C@_0BD@CEEHHEFA@glVertexAttribI2ui@		; `string'
PUBLIC	??_C@_0BD@JMPLBDDF@glVertexAttribI3ui@		; `string'
PUBLIC	??_C@_0BD@BCMCLIM@glVertexAttribI4ui@		; `string'
PUBLIC	??_C@_0BD@OOJEIPDE@glVertexAttribI1iv@		; `string'
PUBLIC	??_C@_0BD@PMCBCANK@glVertexAttribI2iv@		; `string'
PUBLIC	??_C@_0BD@EEJNEHLP@glVertexAttribI3iv@		; `string'
PUBLIC	??_C@_0BD@NJEKHPAG@glVertexAttribI4iv@		; `string'
PUBLIC	??_C@_0BE@FFIKLCCA@glVertexAttribI1uiv@		; `string'
PUBLIC	??_C@_0BE@BCCKMIPA@glVertexAttribI2uiv@		; `string'
PUBLIC	??_C@_0BE@CPEKOBEA@glVertexAttribI3uiv@		; `string'
PUBLIC	??_C@_0BE@JNGKDNFA@glVertexAttribI4uiv@		; `string'
PUBLIC	??_C@_0BD@NFBPJAOH@glVertexAttribI4bv@		; `string'
PUBLIC	??_C@_0BD@MIPLFJKA@glVertexAttribI4sv@		; `string'
PUBLIC	??_C@_0BE@JBDPNCLB@glVertexAttribI4ubv@		; `string'
PUBLIC	??_C@_0BE@IMNLBLPG@glVertexAttribI4usv@		; `string'
PUBLIC	??_C@_0BA@NIGECFIF@glGetUniformuiv@		; `string'
PUBLIC	??_C@_0BH@DLJLAGBA@glBindFragDataLocation@	; `string'
PUBLIC	??_C@_0BG@NDOIGAMC@glGetFragDataLocation@	; `string'
PUBLIC	??_C@_0N@HKPEFJDP@glUniform1ui@			; `string'
PUBLIC	??_C@_0N@GIEBPGNB@glUniform2ui@			; `string'
PUBLIC	??_C@_0N@NAPNJBLE@glUniform3ui@			; `string'
PUBLIC	??_C@_0N@ENCKKJAN@glUniform4ui@			; `string'
PUBLIC	??_C@_0O@MPHJAHBE@glUniform1uiv@		; `string'
PUBLIC	??_C@_0O@IINJHNME@glUniform2uiv@		; `string'
PUBLIC	??_C@_0O@LFLJFEHE@glUniform3uiv@		; `string'
PUBLIC	??_C@_0O@HJJIIGE@glUniform4uiv@			; `string'
PUBLIC	??_C@_0BC@MAFJKEHB@glTexParameterIiv@		; `string'
PUBLIC	??_C@_0BD@FDBCMKBE@glTexParameterIuiv@		; `string'
PUBLIC	??_C@_0BF@ODBJFHDD@glGetTexParameterIiv@	; `string'
PUBLIC	??_C@_0BG@MLODKKFL@glGetTexParameterIuiv@	; `string'
PUBLIC	??_C@_0BA@CGCJAEIN@glClearBufferiv@		; `string'
PUBLIC	??_C@_0BB@OHPPAEID@glClearBufferuiv@		; `string'
PUBLIC	??_C@_0BA@CNHFEDLA@glClearBufferfv@		; `string'
PUBLIC	??_C@_0BA@OACPENCO@glClearBufferfi@		; `string'
PUBLIC	??_C@_0N@PILJCBOD@glGetStringi@			; `string'
PUBLIC	??_C@_0BB@DGGHKKOH@glIsRenderbuffer@		; `string'
PUBLIC	??_C@_0BD@EPOPJGFA@glBindRenderbuffer@		; `string'
PUBLIC	??_C@_0BG@KKOKEJDE@glDeleteRenderbuffers@	; `string'
PUBLIC	??_C@_0BD@MIGEDNGJ@glGenRenderbuffers@		; `string'
PUBLIC	??_C@_0BG@EOIILGMJ@glRenderbufferStorage@	; `string'
PUBLIC	??_C@_0BN@FGKAECKO@glGetRenderbufferParameteriv@ ; `string'
PUBLIC	??_C@_0BA@FGBIJCNH@glIsFramebuffer@		; `string'
PUBLIC	??_C@_0BC@CJMIBNO@glBindFramebuffer@		; `string'
PUBLIC	??_C@_0BF@DJNJENP@glDeleteFramebuffers@		; `string'
PUBLIC	??_C@_0BC@FAPEBGID@glGenFramebuffers@		; `string'
PUBLIC	??_C@_0BJ@GIOLHEAD@glCheckFramebufferStatus@	; `string'
PUBLIC	??_C@_0BH@JAMDNNBM@glFramebufferTexture1D@	; `string'
PUBLIC	??_C@_0BH@JCIFGDEF@glFramebufferTexture2D@	; `string'
PUBLIC	??_C@_0BH@JDEHAJHC@glFramebufferTexture3D@	; `string'
PUBLIC	??_C@_0BK@OJDINAOA@glFramebufferRenderbuffer@	; `string'
PUBLIC	??_C@_0CG@KLDGJEON@glGetFramebufferAttachmentParam@ ; `string'
PUBLIC	??_C@_0BB@BHNIMGDM@glGenerateMipmap@		; `string'
PUBLIC	??_C@_0BC@OANBDDEP@glBlitFramebuffer@		; `string'
PUBLIC	??_C@_0CB@HNONLGJE@glRenderbufferStorageMultisampl@ ; `string'
PUBLIC	??_C@_0BK@NIHIDBBO@glFramebufferTextureLayer@	; `string'
PUBLIC	??_C@_0BB@EOHJGBIO@glMapBufferRange@		; `string'
PUBLIC	??_C@_0BJ@NCDMGHKF@glFlushMappedBufferRange@	; `string'
PUBLIC	??_C@_0BC@LHBAHFAN@glBindVertexArray@		; `string'
PUBLIC	??_C@_0BF@BMPCJLEF@glDeleteVertexArrays@	; `string'
PUBLIC	??_C@_0BC@EPJLBJBJ@glGenVertexArrays@		; `string'
PUBLIC	??_C@_0BA@ODJEGGAE@glIsVertexArray@		; `string'
PUBLIC	??_C@_0BG@HIOFINAN@glDrawArraysInstanced@	; `string'
PUBLIC	??_C@_0BI@CGJENFBH@glDrawElementsInstanced@	; `string'
PUBLIC	??_C@_0M@IIMBBALL@glTexBuffer@			; `string'
PUBLIC	??_C@_0BI@LJDLNGAF@glPrimitiveRestartIndex@	; `string'
PUBLIC	??_C@_0BE@EPKABDOG@glCopyBufferSubData@		; `string'
PUBLIC	??_C@_0BE@MDPMIDEE@glGetUniformIndices@		; `string'
PUBLIC	??_C@_0BG@JEHIMPCG@glGetActiveUniformsiv@	; `string'
PUBLIC	??_C@_0BH@EGGFHKJJ@glGetActiveUniformName@	; `string'
PUBLIC	??_C@_0BH@CBDIMHHE@glGetUniformBlockIndex@	; `string'
PUBLIC	??_C@_0BK@DMHOPJGL@glGetActiveUniformBlockiv@	; `string'
PUBLIC	??_C@_0BM@KEMCJPAJ@glGetActiveUniformBlockName@	; `string'
PUBLIC	??_C@_0BG@BOLEKKCP@glUniformBlockBinding@	; `string'
PUBLIC	??_C@_0BJ@LFMMIAHA@glDrawElementsBaseVertex@	; `string'
PUBLIC	??_C@_0BO@KBDDBILP@glDrawRangeElementsBaseVertex@ ; `string'
PUBLIC	??_C@_0CC@KLOIIKNA@glDrawElementsInstancedBaseVert@ ; `string'
PUBLIC	??_C@_0BO@NAPFJEEK@glMultiDrawElementsBaseVertex@ ; `string'
PUBLIC	??_C@_0BC@ECOAPEBI@glProvokingVertex@		; `string'
PUBLIC	??_C@_0M@EFGFPFLP@glFenceSync@			; `string'
PUBLIC	??_C@_08JPIIHJEO@glIsSync@			; `string'
PUBLIC	??_C@_0N@PIFDNDFG@glDeleteSync@			; `string'
PUBLIC	??_C@_0BB@KDMPGJAC@glClientWaitSync@		; `string'
PUBLIC	??_C@_0L@MHLOGHGO@glWaitSync@			; `string'
PUBLIC	??_C@_0BA@INMBOHGL@glGetInteger64v@		; `string'
PUBLIC	??_C@_0M@MPEEOPIN@glGetSynciv@			; `string'
PUBLIC	??_C@_0BC@KOJILIEC@glGetInteger64i_v@		; `string'
PUBLIC	??_C@_0BJ@KKBIDGPP@glGetBufferParameteri64v@	; `string'
PUBLIC	??_C@_0BF@ENLMLILA@glFramebufferTexture@	; `string'
PUBLIC	??_C@_0BI@FHDFLFA@glTexImage2DMultisample@	; `string'
PUBLIC	??_C@_0BI@JIHMLKCG@glTexImage3DMultisample@	; `string'
PUBLIC	??_C@_0BD@DHLIMGN@glGetMultisamplefv@		; `string'
PUBLIC	??_C@_0O@JNHBCHMB@glSampleMaski@		; `string'
PUBLIC	??_C@_0BO@POJBGCGG@glBindFragDataLocationIndexed@ ; `string'
PUBLIC	??_C@_0BD@COCJFEOH@glGetFragDataIndex@		; `string'
PUBLIC	??_C@_0O@EMMLGGLG@glGenSamplers@		; `string'
PUBLIC	??_C@_0BB@FLPAOEOO@glDeleteSamplers@		; `string'
PUBLIC	??_C@_0M@LAJKHOKJ@glIsSampler@			; `string'
PUBLIC	??_C@_0O@PDEILAPG@glBindSampler@		; `string'
PUBLIC	??_C@_0BE@KBCBMPJO@glSamplerParameteri@		; `string'
PUBLIC	??_C@_0BF@GOHDEBPM@glSamplerParameteriv@	; `string'
PUBLIC	??_C@_0BE@CGLJNDFB@glSamplerParameterf@		; `string'
PUBLIC	??_C@_0BF@GFCPAGMB@glSamplerParameterfv@	; `string'
PUBLIC	??_C@_0BG@HKEIFIHF@glSamplerParameterIiv@	; `string'
PUBLIC	??_C@_0BH@FEMFBPPB@glSamplerParameterIuiv@	; `string'
PUBLIC	??_C@_0BI@FECAOLJP@glGetSamplerParameteriv@	; `string'
PUBLIC	??_C@_0BJ@KOMJDLDN@glGetSamplerParameterIiv@	; `string'
PUBLIC	??_C@_0BI@FPHMKMKC@glGetSamplerParameterfv@	; `string'
PUBLIC	??_C@_0BK@CMBGFHDA@glGetSamplerParameterIuiv@	; `string'
PUBLIC	??_C@_0P@KALICDIM@glQueryCounter@		; `string'
PUBLIC	??_C@_0BF@JDAPDEPE@glGetQueryObjecti64v@	; `string'
PUBLIC	??_C@_0BG@NEGGOMJO@glGetQueryObjectui64v@	; `string'
PUBLIC	??_C@_0BG@NEBMAEHM@glVertexAttribDivisor@	; `string'
PUBLIC	??_C@_0BD@FLACCOEN@glVertexAttribP1ui@		; `string'
PUBLIC	??_C@_0BE@HBFDOBHD@glVertexAttribP1uiv@		; `string'
PUBLIC	??_C@_0BD@EJLHIBKD@glVertexAttribP2ui@		; `string'
PUBLIC	??_C@_0BE@DGPDJLKD@glVertexAttribP2uiv@		; `string'
PUBLIC	??_C@_0BD@PBALOGMG@glVertexAttribP3ui@		; `string'
PUBLIC	??_C@_0BE@LJDLCBD@glVertexAttribP3uiv@		; `string'
PUBLIC	??_C@_0BD@GMNMNOHP@glVertexAttribP4ui@		; `string'
PUBLIC	??_C@_0BE@LJLDGOAD@glVertexAttribP4uiv@		; `string'
PUBLIC	??_C@_0N@EFBCIBMC@glVertexP2ui@			; `string'
PUBLIC	??_C@_0O@MEKGPGN@glVertexP2uiv@			; `string'
PUBLIC	??_C@_0N@PNKOOGKH@glVertexP3ui@			; `string'
PUBLIC	??_C@_0O@DBCKEGNN@glVertexP3uiv@		; `string'
PUBLIC	??_C@_0N@GAHJNOBO@glVertexP4ui@			; `string'
PUBLIC	??_C@_0O@IDAKJKMN@glVertexP4uiv@		; `string'
PUBLIC	??_C@_0P@OLJHLLHJ@glTexCoordP1ui@		; `string'
PUBLIC	??_C@_0BA@FAFHIAFD@glTexCoordP1uiv@		; `string'
PUBLIC	??_C@_0P@PJCCBEJH@glTexCoordP2ui@		; `string'
PUBLIC	??_C@_0BA@BHPHPKID@glTexCoordP2uiv@		; `string'
PUBLIC	??_C@_0P@EBJOHDPC@glTexCoordP3ui@		; `string'
PUBLIC	??_C@_0BA@CKJHNDDD@glTexCoordP3uiv@		; `string'
PUBLIC	??_C@_0P@NMEJELEL@glTexCoordP4ui@		; `string'
PUBLIC	??_C@_0BA@JILHAPCD@glTexCoordP4uiv@		; `string'
PUBLIC	??_C@_0BE@OAHHKHKG@glMultiTexCoordP1ui@		; `string'
PUBLIC	??_C@_0BF@EGDAKPAK@glMultiTexCoordP1uiv@	; `string'
PUBLIC	??_C@_0BE@PCMCAIEI@glMultiTexCoordP2ui@		; `string'
PUBLIC	??_C@_0BF@BJANFNK@glMultiTexCoordP2uiv@		; `string'
PUBLIC	??_C@_0BE@EKHOGPCN@glMultiTexCoordP3ui@		; `string'
PUBLIC	??_C@_0BF@DMPAPMGK@glMultiTexCoordP3uiv@	; `string'
PUBLIC	??_C@_0BE@NHKJFHJE@glMultiTexCoordP4ui@		; `string'
PUBLIC	??_C@_0BF@IONACAHK@glMultiTexCoordP4uiv@	; `string'
PUBLIC	??_C@_0N@PBEFBNHO@glNormalP3ui@			; `string'
PUBLIC	??_C@_0O@MOCJMHFG@glNormalP3uiv@		; `string'
PUBLIC	??_C@_0M@PEKBINNN@glColorP3ui@			; `string'
PUBLIC	??_C@_0N@IBPDNBJE@glColorP3uiv@			; `string'
PUBLIC	??_C@_0M@GJHGLFGE@glColorP4ui@			; `string'
PUBLIC	??_C@_0N@DDNDANIE@glColorP4uiv@			; `string'
PUBLIC	??_C@_0BF@PDDGBPKP@glSecondaryColorP3ui@	; `string'
PUBLIC	??_C@_0BG@DPPPFGBG@glSecondaryColorP3uiv@	; `string'
PUBLIC	??_C@_0BD@EDGCEBP@glMinSampleShading@		; `string'
PUBLIC	??_C@_0BB@MKHLNEOM@glBlendEquationi@		; `string'
PUBLIC	??_C@_0BJ@FNMBAGAC@glBlendEquationSeparatei@	; `string'
PUBLIC	??_C@_0N@IKKELNNP@glBlendFunci@			; `string'
PUBLIC	??_C@_0BF@PDDGKNBJ@glBlendFuncSeparatei@	; `string'
PUBLIC	??_C@_0BF@BGDCPAEP@glDrawArraysIndirect@	; `string'
PUBLIC	??_C@_0BH@LJJDOEDH@glDrawElementsIndirect@	; `string'
PUBLIC	??_C@_0M@PJLEGNGH@glUniform1d@			; `string'
PUBLIC	??_C@_0M@PLPCNDDO@glUniform2d@			; `string'
PUBLIC	??_C@_0M@PKDALJAJ@glUniform3d@			; `string'
PUBLIC	??_C@_0M@PPHPKPIM@glUniform4d@			; `string'
PUBLIC	??_C@_0N@KKEKJOOG@glUniform1dv@			; `string'
PUBLIC	??_C@_0N@LIPPDBAI@glUniform2dv@			; `string'
PUBLIC	??_C@_0N@EDFGGN@glUniform3dv@			; `string'
PUBLIC	??_C@_0N@JNJEGONE@glUniform4dv@			; `string'
PUBLIC	??_C@_0BD@JLJNJPBN@glUniformMatrix2dv@		; `string'
PUBLIC	??_C@_0BD@CDCBPIHI@glUniformMatrix3dv@		; `string'
PUBLIC	??_C@_0BD@LOPGMAMB@glUniformMatrix4dv@		; `string'
PUBLIC	??_C@_0BF@KALNBGFE@glUniformMatrix2x3dv@	; `string'
PUBLIC	??_C@_0BF@DNGKCOON@glUniformMatrix2x4dv@	; `string'
PUBLIC	??_C@_0BF@NDFNKCJE@glUniformMatrix3x2dv@	; `string'
PUBLIC	??_C@_0BF@PGDGPNEI@glUniformMatrix3x4dv@	; `string'
PUBLIC	??_C@_0BF@MOFIJCCM@glUniformMatrix4x2dv@	; `string'
PUBLIC	??_C@_0BF@HGOEPFEJ@glUniformMatrix4x3dv@	; `string'
PUBLIC	??_C@_0P@NGEMHI@glGetUniformdv@			; `string'
PUBLIC	??_C@_0BP@IBIPLDOA@glGetSubroutineUniformLocation@ ; `string'
PUBLIC	??_C@_0BF@ONDIGCJG@glGetSubroutineIndex@	; `string'
PUBLIC	??_C@_0BP@FAPFAJFP@glGetActiveSubroutineUniformiv@ ; `string'
PUBLIC	??_C@_0CB@KCFFPCGJ@glGetActiveSubroutineUniformNam@ ; `string'
PUBLIC	??_C@_0BK@JPHEACLL@glGetActiveSubroutineName@	; `string'
PUBLIC	??_C@_0BI@CDPOBBHI@glUniformSubroutinesuiv@	; `string'
PUBLIC	??_C@_0BK@BLMOFAGJ@glGetUniformSubroutineuiv@	; `string'
PUBLIC	??_C@_0BE@LOKJCDFH@glGetProgramStageiv@		; `string'
PUBLIC	??_C@_0BC@PAPDGMLA@glPatchParameteri@		; `string'
PUBLIC	??_C@_0BD@LJKINJKN@glPatchParameterfv@		; `string'
PUBLIC	??_C@_0BI@BPJKLMIG@glBindTransformFeedback@	; `string'
PUBLIC	??_C@_0BL@DIGEBFBK@glDeleteTransformFeedbacks@	; `string'
PUBLIC	??_C@_0BI@KANKBGAE@glGenTransformFeedbacks@	; `string'
PUBLIC	??_C@_0BG@BGFLKHBM@glIsTransformFeedback@	; `string'
PUBLIC	??_C@_0BJ@FFNLKBCB@glPauseTransformFeedback@	; `string'
PUBLIC	??_C@_0BK@JMHONFHF@glResumeTransformFeedback@	; `string'
PUBLIC	??_C@_0BI@LEOILCPN@glDrawTransformFeedback@	; `string'
PUBLIC	??_C@_0BO@IGLFNCDG@glDrawTransformFeedbackStream@ ; `string'
PUBLIC	??_C@_0BE@BDKPJDEE@glBeginQueryIndexed@		; `string'
PUBLIC	??_C@_0BC@DPMHMNME@glEndQueryIndexed@		; `string'
PUBLIC	??_C@_0BE@CCFJPMFI@glGetQueryIndexediv@		; `string'
PUBLIC	??_C@_0BI@HGKABJPJ@glReleaseShaderCompiler@	; `string'
PUBLIC	??_C@_0P@IMINELFB@glShaderBinary@		; `string'
PUBLIC	??_C@_0BL@MLAOOHPD@glGetShaderPrecisionFormat@	; `string'
PUBLIC	??_C@_0O@JDFJDNND@glDepthRangef@		; `string'
PUBLIC	??_C@_0O@FMBMCDIL@glClearDepthf@		; `string'
PUBLIC	??_C@_0BD@JBCEHKON@glGetProgramBinary@		; `string'
PUBLIC	??_C@_0BA@MIIDHOO@glProgramBinary@		; `string'
PUBLIC	??_C@_0BE@EELDBEME@glProgramParameteri@		; `string'
PUBLIC	??_C@_0BD@CADKHDMH@glUseProgramStages@		; `string'
PUBLIC	??_C@_0BG@IAIOGMEB@glActiveShaderProgram@	; `string'
PUBLIC	??_C@_0BH@BOJGDFJN@glCreateShaderProgramv@	; `string'
PUBLIC	??_C@_0BG@GLPOKNCG@glBindProgramPipeline@	; `string'
PUBLIC	??_C@_0BJ@CHBGABHE@glDeleteProgramPipelines@	; `string'
PUBLIC	??_C@_0BG@CCBKOCA@glGenProgramPipelines@	; `string'
PUBLIC	??_C@_0BE@DLHPDHCH@glIsProgramPipeline@		; `string'
PUBLIC	??_C@_0BH@DNOPNJMO@glGetProgramPipelineiv@	; `string'
PUBLIC	??_C@_0BD@COCLMGIM@glProgramUniform1i@		; `string'
PUBLIC	??_C@_0BE@JNEFDKLN@glProgramUniform1iv@		; `string'
PUBLIC	??_C@_0BD@KJLDNKED@glProgramUniform1f@		; `string'
PUBLIC	??_C@_0BE@JGBJHNIA@glProgramUniform1fv@		; `string'
PUBLIC	??_C@_0BD@JLIFLIMB@glProgramUniform1d@		; `string'
PUBLIC	??_C@_0BE@JFJNKJOO@glProgramUniform1dv@		; `string'
PUBLIC	??_C@_0BE@EFCDGODH@glProgramUniform1ui@		; `string'
PUBLIC	??_C@_0BF@MBJNFIBB@glProgramUniform1uiv@	; `string'
PUBLIC	??_C@_0BD@CMGNHINF@glProgramUniform2i@		; `string'
PUBLIC	??_C@_0BE@IPPAJFFD@glProgramUniform2iv@		; `string'
PUBLIC	??_C@_0BD@KLPFGEBK@glProgramUniform2f@		; `string'
PUBLIC	??_C@_0BE@IEKMNCGO@glProgramUniform2fv@		; `string'
PUBLIC	??_C@_0BD@JJMDAGJI@glProgramUniform2d@		; `string'
PUBLIC	??_C@_0BE@IHCIAGAA@glProgramUniform2dv@		; `string'
PUBLIC	??_C@_0BE@FHJGMBNJ@glProgramUniform2ui@		; `string'
PUBLIC	??_C@_0BF@IGDNCCMB@glProgramUniform2uiv@	; `string'
PUBLIC	??_C@_0BD@CNKPBCOC@glProgramUniform3i@		; `string'
PUBLIC	??_C@_0BE@DHEMPCDG@glProgramUniform3iv@		; `string'
PUBLIC	??_C@_0BD@KKDHAOCN@glProgramUniform3f@		; `string'
PUBLIC	??_C@_0BE@DMBALFAL@glProgramUniform3fv@		; `string'
PUBLIC	??_C@_0BD@JIABGMKP@glProgramUniform3d@		; `string'
PUBLIC	??_C@_0BE@DPJEGBGF@glProgramUniform3dv@		; `string'
PUBLIC	??_C@_0BE@OPCKKGLM@glProgramUniform3ui@		; `string'
PUBLIC	??_C@_0BF@LLFNALHB@glProgramUniform3uiv@	; `string'
PUBLIC	??_C@_0BD@CIOAAEGH@glProgramUniform4i@		; `string'
PUBLIC	??_C@_0BE@KKJLMKIP@glProgramUniform4iv@		; `string'
PUBLIC	??_C@_0BD@KPHIBIKI@glProgramUniform4f@		; `string'
PUBLIC	??_C@_0BE@KBMHINLC@glProgramUniform4fv@		; `string'
PUBLIC	??_C@_0BD@JNEOHKCK@glProgramUniform4d@		; `string'
PUBLIC	??_C@_0BE@KCEDFJNM@glProgramUniform4dv@		; `string'
PUBLIC	??_C@_0BE@HCPNJOAF@glProgramUniform4ui@		; `string'
PUBLIC	??_C@_0BF@JHNNHGB@glProgramUniform4uiv@		; `string'
PUBLIC	??_C@_0BK@PDPPIOAF@glProgramUniformMatrix2fv@	; `string'
PUBLIC	??_C@_0BK@ELEDOJGA@glProgramUniformMatrix3fv@	; `string'
PUBLIC	??_C@_0BK@NGJENBNJ@glProgramUniformMatrix4fv@	; `string'
PUBLIC	??_C@_0BK@PAHLFKGL@glProgramUniformMatrix2dv@	; `string'
PUBLIC	??_C@_0BK@EIMHDNAO@glProgramUniformMatrix3dv@	; `string'
PUBLIC	??_C@_0BK@NFBAAFLH@glProgramUniformMatrix4dv@	; `string'
PUBLIC	??_C@_0BM@DBFCEBJD@glProgramUniformMatrix2x3fv@	; `string'
PUBLIC	??_C@_0BM@ECLCPFFD@glProgramUniformMatrix3x2fv@	; `string'
PUBLIC	??_C@_0BM@KMIFHJCK@glProgramUniformMatrix2x4fv@	; `string'
PUBLIC	??_C@_0BM@FPLHMFOL@glProgramUniformMatrix4x2fv@	; `string'
PUBLIC	??_C@_0BM@GHNJKKIP@glProgramUniformMatrix3x4fv@	; `string'
PUBLIC	??_C@_0BM@OHALKCIO@glProgramUniformMatrix4x3fv@	; `string'
PUBLIC	??_C@_0BM@DCNGJFPN@glProgramUniformMatrix2x3dv@	; `string'
PUBLIC	??_C@_0BM@EBDGCBDN@glProgramUniformMatrix3x2dv@	; `string'
PUBLIC	??_C@_0BM@KPABKNEE@glProgramUniformMatrix2x4dv@	; `string'
PUBLIC	??_C@_0BM@FMDDBBIF@glProgramUniformMatrix4x2dv@	; `string'
PUBLIC	??_C@_0BM@GEFNHOOB@glProgramUniformMatrix3x4dv@	; `string'
PUBLIC	??_C@_0BM@OEIPHGOA@glProgramUniformMatrix4x3dv@	; `string'
PUBLIC	??_C@_0BK@HHHCKEGH@glValidateProgramPipeline@	; `string'
PUBLIC	??_C@_0BM@BFFCFFFG@glGetProgramPipelineInfoLog@	; `string'
PUBLIC	??_C@_0BC@KBPIECHE@glVertexAttribL1d@		; `string'
PUBLIC	??_C@_0BC@KDLOPMCN@glVertexAttribL2d@		; `string'
PUBLIC	??_C@_0BC@KCHMJGBK@glVertexAttribL3d@		; `string'
PUBLIC	??_C@_0BC@KHDDIAJP@glVertexAttribL4d@		; `string'
PUBLIC	??_C@_0BD@COKMJDBH@glVertexAttribL1dv@		; `string'
PUBLIC	??_C@_0BD@DMBJDMPJ@glVertexAttribL2dv@		; `string'
PUBLIC	??_C@_0BD@IEKFFLJM@glVertexAttribL3dv@		; `string'
PUBLIC	??_C@_0BD@BJHCGDCF@glVertexAttribL4dv@		; `string'
PUBLIC	??_C@_0BH@JBHDDPGM@glVertexAttribLPointer@	; `string'
PUBLIC	??_C@_0BF@JADLCNLO@glGetVertexAttribLdv@	; `string'
PUBLIC	??_C@_0BB@JIDIDPIB@glViewportArrayv@		; `string'
PUBLIC	??_C@_0BD@JIBIAPIN@glViewportIndexedf@		; `string'
PUBLIC	??_C@_0BE@OKPEDJOC@glViewportIndexedfv@		; `string'
PUBLIC	??_C@_0BA@BMNFINIA@glScissorArrayv@		; `string'
PUBLIC	??_C@_0BB@BJHNCIAL@glScissorIndexed@		; `string'
PUBLIC	??_C@_0BC@OOKOHKNA@glScissorIndexedv@		; `string'
PUBLIC	??_C@_0BD@JLCIOMKN@glDepthRangeArrayv@		; `string'
PUBLIC	??_C@_0BE@FMCFIJBP@glDepthRangeIndexed@		; `string'
PUBLIC	??_C@_0O@JKEOHGC@glGetFloati_v@			; `string'
PUBLIC	??_C@_0P@PDJCBGIA@glGetDoublei_v@		; `string'
PUBLIC	??_C@_0CC@FBJBJHCN@glDrawArraysInstancedBaseInstan@ ; `string'
PUBLIC	??_C@_0CE@NGNINKJD@glDrawElementsInstancedBaseInst@ ; `string'
PUBLIC	??_C@_0CO@GCMNEAOA@glDrawElementsInstancedBaseVert@ ; `string'
PUBLIC	??_C@_0BG@BAOCDJPF@glGetInternalformativ@	; `string'
PUBLIC	??_C@_0CB@CEHFMJFN@glGetActiveAtomicCounterBufferi@ ; `string'
PUBLIC	??_C@_0BD@GAKEPNGD@glBindImageTexture@		; `string'
PUBLIC	??_C@_0BA@HIHPNLBJ@glMemoryBarrier@		; `string'
PUBLIC	??_C@_0P@LCLGPEBO@glTexStorage1D@		; `string'
PUBLIC	??_C@_0P@LAPAEKEH@glTexStorage2D@		; `string'
PUBLIC	??_C@_0P@LBDCCAHA@glTexStorage3D@		; `string'
PUBLIC	??_C@_0CB@NDMLCEF@glDrawTransformFeedbackInstance@ ; `string'
PUBLIC	??_C@_0CH@OMPFKBLK@glDrawTransformFeedbackStreamIn@ ; `string'
PUBLIC	??_C@_0BC@FCMBBKMP@glClearBufferData@		; `string'
PUBLIC	??_C@_0BF@FDHIBCMD@glClearBufferSubData@	; `string'
PUBLIC	??_C@_0BC@DKKFFIGC@glDispatchCompute@		; `string'
PUBLIC	??_C@_0BK@EJMOGMMI@glDispatchComputeIndirect@	; `string'
PUBLIC	??_C@_0BD@BNCHOBBL@glCopyImageSubData@		; `string'
PUBLIC	??_C@_0BI@MLACHGDK@glFramebufferParameteri@	; `string'
PUBLIC	??_C@_0BM@BFEEFCMK@glGetFramebufferParameteriv@	; `string'
PUBLIC	??_C@_0BI@PHNNEGBD@glGetInternalformati64v@	; `string'
PUBLIC	??_C@_0BI@FJDKFLGL@glInvalidateTexSubImage@	; `string'
PUBLIC	??_C@_0BF@KHIECPKG@glInvalidateTexImage@	; `string'
PUBLIC	??_C@_0BK@HOHOHNAC@glInvalidateBufferSubData@	; `string'
PUBLIC	??_C@_0BH@OGIFIBHA@glInvalidateBufferData@	; `string'
PUBLIC	??_C@_0BI@OAJPOHIP@glInvalidateFramebuffer@	; `string'
PUBLIC	??_C@_0BL@IHGLAPPE@glInvalidateSubFramebuffer@	; `string'
PUBLIC	??_C@_0BK@IKGAIKOP@glMultiDrawArraysIndirect@	; `string'
PUBLIC	??_C@_0BM@KHEEFMKO@glMultiDrawElementsIndirect@	; `string'
PUBLIC	??_C@_0BI@ICGPDPK@glGetProgramInterfaceiv@	; `string'
PUBLIC	??_C@_0BK@DBDCONKB@glGetProgramResourceIndex@	; `string'
PUBLIC	??_C@_0BJ@OHCPEAGJ@glGetProgramResourceName@	; `string'
PUBLIC	??_C@_0BH@LEDFEPHI@glGetProgramResourceiv@	; `string'
PUBLIC	??_C@_0BN@BIJNENLC@glGetProgramResourceLocation@ ; `string'
PUBLIC	??_C@_0CC@GHECGAIH@glGetProgramResourceLocationInd@ ; `string'
PUBLIC	??_C@_0BM@GDDCNIBO@glShaderStorageBlockBinding@	; `string'
PUBLIC	??_C@_0BB@DPMGLFNI@glTexBufferRange@		; `string'
PUBLIC	??_C@_0BK@PDJAKDKP@glTexStorage2DMultisample@	; `string'
PUBLIC	??_C@_0BK@GOJPECNJ@glTexStorage3DMultisample@	; `string'
PUBLIC	??_C@_0O@BNFDGIMP@glTextureView@		; `string'
PUBLIC	??_C@_0BD@FCGJAOHG@glBindVertexBuffer@		; `string'
PUBLIC	??_C@_0BF@JEIPPBFE@glVertexAttribFormat@	; `string'
PUBLIC	??_C@_0BG@KJAHAHDI@glVertexAttribIFormat@	; `string'
PUBLIC	??_C@_0BG@OBOHAJFM@glVertexAttribLFormat@	; `string'
PUBLIC	??_C@_0BG@MLFHCGE@glVertexAttribBinding@	; `string'
PUBLIC	??_C@_0BH@GNGCLGOI@glVertexBindingDivisor@	; `string'
PUBLIC	??_C@_0BG@MNBDCEEP@glDebugMessageControl@	; `string'
PUBLIC	??_C@_0BF@DGOJNFDO@glDebugMessageInsert@	; `string'
PUBLIC	??_C@_0BH@IGFENJCI@glDebugMessageCallback@	; `string'
PUBLIC	??_C@_0BF@FGBMJKND@glGetDebugMessageLog@	; `string'
PUBLIC	??_C@_0BB@DEFFBEGJ@glPushDebugGroup@		; `string'
PUBLIC	??_C@_0BA@PMJBDENK@glPopDebugGroup@		; `string'
PUBLIC	??_C@_0O@EFJDECDM@glObjectLabel@		; `string'
PUBLIC	??_C@_0BB@MOEDHKDB@glGetObjectLabel@		; `string'
PUBLIC	??_C@_0BB@FBABGDIL@glObjectPtrLabel@		; `string'
PUBLIC	??_C@_0BE@MIJFJOHM@glGetObjectPtrLabel@		; `string'
PUBLIC	??_C@_0O@LADEDGJO@glGetPointerv@		; `string'
PUBLIC	??_C@_0BA@COBILMHM@glBufferStorage@		; `string'
PUBLIC	??_C@_0BA@FNPOIBAF@glClearTexImage@		; `string'
PUBLIC	??_C@_0BD@CFALBON@glClearTexSubImage@		; `string'
PUBLIC	??_C@_0BC@ENBBLPHM@glBindBuffersBase@		; `string'
PUBLIC	??_C@_0BD@ODFFOKPN@glBindBuffersRange@		; `string'
PUBLIC	??_C@_0P@KHDEIIMA@glBindTextures@		; `string'
PUBLIC	??_C@_0P@FADPDFKM@glBindSamplers@		; `string'
PUBLIC	??_C@_0BE@NAMJLOCK@glBindImageTextures@		; `string'
PUBLIC	??_C@_0BE@LNCGJHDC@glBindVertexBuffers@		; `string'
PUBLIC	??_C@_0O@DMMKFMGC@glClipControl@		; `string'
PUBLIC	??_C@_0BL@HPCMJLAK@glCreateTransformFeedbacks@	; `string'
PUBLIC	??_C@_0BO@EGLKNJFA@glTransformFeedbackBufferBase@ ; `string'
PUBLIC	??_C@_0BP@NBIGCNHI@glTransformFeedbackBufferRange@ ; `string'
PUBLIC	??_C@_0BJ@OFMLPMDO@glGetTransformFeedbackiv@	; `string'
PUBLIC	??_C@_0BK@IPHNHFEI@glGetTransformFeedbacki_v@	; `string'
PUBLIC	??_C@_0BM@KDHFPNLE@glGetTransformFeedbacki64_v@	; `string'
PUBLIC	??_C@_0BA@LNBCEANP@glCreateBuffers@		; `string'
PUBLIC	??_C@_0BF@INMFIINC@glNamedBufferStorage@	; `string'
PUBLIC	??_C@_0BC@LHEABGCG@glNamedBufferData@		; `string'
PUBLIC	??_C@_0BF@MDEBAFLD@glNamedBufferSubData@	; `string'
PUBLIC	??_C@_0BJ@MJPDCHND@glCopyNamedBufferSubData@	; `string'
PUBLIC	??_C@_0BH@KJMLMCB@glClearNamedBufferData@	; `string'
PUBLIC	??_C@_0BK@BNIDNJBH@glClearNamedBufferSubData@	; `string'
PUBLIC	??_C@_0BB@JLMCGIDB@glMapNamedBuffer@		; `string'
PUBLIC	??_C@_0BG@JLCGKFD@glMapNamedBufferRange@	; `string'
PUBLIC	??_C@_0BD@LAAONAHD@glUnmapNamedBuffer@		; `string'
PUBLIC	??_C@_0BO@DBGNKBKH@glFlushMappedNamedBufferRange@ ; `string'
PUBLIC	??_C@_0BM@KFAGBFPK@glGetNamedBufferParameteriv@	; `string'
PUBLIC	??_C@_0BO@ECJNIDNL@glGetNamedBufferParameteri64v@ ; `string'
PUBLIC	??_C@_0BJ@NBEMEIKG@glGetNamedBufferPointerv@	; `string'
PUBLIC	??_C@_0BI@PJBCKPNA@glGetNamedBufferSubData@	; `string'
PUBLIC	??_C@_0BF@DDKJIBLC@glCreateFramebuffers@	; `string'
PUBLIC	??_C@_0BP@MGCPNBGC@glNamedFramebufferRenderbuffer@ ; `string'
PUBLIC	??_C@_0BN@LBMOOIHC@glNamedFramebufferParameteri@ ; `string'
PUBLIC	??_C@_0BK@PNJJLPPI@glNamedFramebufferTexture@	; `string'
PUBLIC	??_C@_0BP@PHGPDAJM@glNamedFramebufferTextureLayer@ ; `string'
PUBLIC	??_C@_0BN@MOAIHNEF@glNamedFramebufferDrawBuffer@ ; `string'
PUBLIC	??_C@_0BO@CGKJHFH@glNamedFramebufferDrawBuffers@ ; `string'
PUBLIC	??_C@_0BN@LPANNPJE@glNamedFramebufferReadBuffer@ ; `string'
PUBLIC	??_C@_0CB@OGGNKJIL@glInvalidateNamedFramebufferDat@ ; `string'
PUBLIC	??_C@_0CE@DEGDCFND@glInvalidateNamedFramebufferSub@ ; `string'
PUBLIC	??_C@_0BK@NPOLJJAK@glClearNamedFramebufferiv@	; `string'
PUBLIC	??_C@_0BL@JENKNAJN@glClearNamedFramebufferuiv@	; `string'
PUBLIC	??_C@_0BK@NELHNODH@glClearNamedFramebufferfv@	; `string'
PUBLIC	??_C@_0BK@BJONNAKJ@glClearNamedFramebufferfi@	; `string'
PUBLIC	??_C@_0BH@FNFDNHAI@glBlitNamedFramebuffer@	; `string'
PUBLIC	??_C@_0BO@LMABFPGK@glCheckNamedFramebufferStatus@ ; `string'
PUBLIC	??_C@_0CB@COGAJBEM@glGetNamedFramebufferParameteri@ ; `string'
PUBLIC	??_C@_0CL@BGDPEPCC@glGetNamedFramebufferAttachment@ ; `string'
PUBLIC	??_C@_0BG@JJNJGAME@glCreateRenderbuffers@	; `string'
PUBLIC	??_C@_0BL@DGDPFKGM@glNamedRenderbufferStorage@	; `string'
PUBLIC	??_C@_0CG@IDKJGKBA@glNamedRenderbufferStorageMulti@ ; `string'
PUBLIC	??_C@_0CC@FCEAEAHI@glGetNamedRenderbufferParameter@ ; `string'
PUBLIC	??_C@_0BB@LABGPBKD@glCreateTextures@		; `string'
PUBLIC	??_C@_0BA@BEJOBNBA@glTextureBuffer@		; `string'
PUBLIC	??_C@_0BF@HAEPGPBJ@glTextureBufferRange@	; `string'
PUBLIC	??_C@_0BD@CJOBHECL@glTextureStorage1D@		; `string'
PUBLIC	??_C@_0BD@CLKHMKHC@glTextureStorage2D@		; `string'
PUBLIC	??_C@_0BD@CKGFKAEF@glTextureStorage3D@		; `string'
PUBLIC	??_C@_0BO@CIHBMJOI@glTextureStorage2DMultisample@ ; `string'
PUBLIC	??_C@_0BO@LFHOCIJO@glTextureStorage3DMultisample@ ; `string'
PUBLIC	??_C@_0BE@IDMGLJDA@glTextureSubImage1D@		; `string'
PUBLIC	??_C@_0BE@IBIAAHGJ@glTextureSubImage2D@		; `string'
PUBLIC	??_C@_0BE@IAECGNFO@glTextureSubImage3D@		; `string'
PUBLIC	??_C@_0BO@NIHAIHFC@glCompressedTextureSubImage1D@ ; `string'
PUBLIC	??_C@_0BO@NKDGDJAL@glCompressedTextureSubImage2D@ ; `string'
PUBLIC	??_C@_0BO@NLPEFDDM@glCompressedTextureSubImage3D@ ; `string'
PUBLIC	??_C@_0BI@DBEKPOLO@glCopyTextureSubImage1D@	; `string'
PUBLIC	??_C@_0BI@DDAMEAOH@glCopyTextureSubImage2D@	; `string'
PUBLIC	??_C@_0BI@DCMOCKNA@glCopyTextureSubImage3D@	; `string'
PUBLIC	??_C@_0BE@NLINBPMM@glTextureParameterf@		; `string'
PUBLIC	??_C@_0BF@OLGMNNPE@glTextureParameterfv@	; `string'
PUBLIC	??_C@_0BE@FMBFADAD@glTextureParameteri@		; `string'
PUBLIC	??_C@_0BG@CMHFNPIN@glTextureParameterIiv@	; `string'
PUBLIC	??_C@_0BH@OHPFFIFI@glTextureParameterIuiv@	; `string'
PUBLIC	??_C@_0BF@OADAJKMJ@glTextureParameteriv@	; `string'
PUBLIC	??_C@_0BI@JJPLGFEG@glGenerateTextureMipmap@	; `string'
PUBLIC	??_C@_0BC@NKGMGGNI@glBindTextureUnit@		; `string'
PUBLIC	??_C@_0BC@PJDCJNIH@glGetTextureImage@		; `string'
PUBLIC	??_C@_0BM@JOKODHH@glGetCompressedTextureImage@	; `string'
PUBLIC	??_C@_0BN@HMEFKCC@glGetTextureLevelParameterfv@	; `string'
PUBLIC	??_C@_0BN@MJIBNBP@glGetTextureLevelParameteriv@	; `string'
PUBLIC	??_C@_0BI@NBDPHHJH@glGetTextureParameterfv@	; `string'
PUBLIC	??_C@_0BJ@PIPELMMF@glGetTextureParameterIiv@	; `string'
PUBLIC	??_C@_0BK@JPCGBAJJ@glGetTextureParameterIuiv@	; `string'
PUBLIC	??_C@_0BI@NKGDDAKK@glGetTextureParameteriv@	; `string'
PUBLIC	??_C@_0BF@CMMGIOCI@glCreateVertexArrays@	; `string'
PUBLIC	??_C@_0BL@FEKBMKFD@glDisableVertexArrayAttrib@	; `string'
PUBLIC	??_C@_0BK@MJMKFCHC@glEnableVertexArrayAttrib@	; `string'
PUBLIC	??_C@_0BL@GGCAPDMO@glVertexArrayElementBuffer@	; `string'
PUBLIC	??_C@_0BK@BIEMNHGJ@glVertexArrayVertexBuffer@	; `string'
PUBLIC	??_C@_0BL@DAGELPBO@glVertexArrayVertexBuffers@	; `string'
PUBLIC	??_C@_0BL@DJHJAEGB@glVertexArrayAttribBinding@	; `string'
PUBLIC	??_C@_0BK@ONFBAOHM@glVertexArrayAttribFormat@	; `string'
PUBLIC	??_C@_0BL@JMMLHBDN@glVertexArrayAttribIFormat@	; `string'
PUBLIC	??_C@_0BL@NECLHPFJ@glVertexArrayAttribLFormat@	; `string'
PUBLIC	??_C@_0BM@BNDNIOBB@glVertexArrayBindingDivisor@	; `string'
PUBLIC	??_C@_0BD@CPJNCJFG@glGetVertexArrayiv@		; `string'
PUBLIC	??_C@_0BK@FIIPMDBK@glGetVertexArrayIndexediv@	; `string'
PUBLIC	??_C@_0BM@HHNNHCN@glGetVertexArrayIndexed64iv@	; `string'
PUBLIC	??_C@_0BB@EHBNEMMP@glCreateSamplers@		; `string'
PUBLIC	??_C@_0BJ@GJEEIMGK@glCreateProgramPipelines@	; `string'
PUBLIC	??_C@_0BA@PGNDPLG@glCreateQueries@		; `string'
PUBLIC	??_C@_0BL@KFECDHBF@glGetQueryBufferObjecti64v@	; `string'
PUBLIC	??_C@_0BJ@OBIFNHGB@glGetQueryBufferObjectiv@	; `string'
PUBLIC	??_C@_0BM@DFNHDHD@glGetQueryBufferObjectui64v@	; `string'
PUBLIC	??_C@_0BK@EOIEAGAD@glGetQueryBufferObjectuiv@	; `string'
PUBLIC	??_C@_0BI@IDCHHHAI@glMemoryBarrierByRegion@	; `string'
PUBLIC	??_C@_0BF@JEEEKNGB@glGetTextureSubImage@	; `string'
PUBLIC	??_C@_0BP@BIDENANP@glGetCompressedTextureSubImage@ ; `string'
PUBLIC	??_C@_0BJ@ILPAOCDN@glGetGraphicsResetStatus@	; `string'
PUBLIC	??_C@_0BJ@HLNIHAOG@glGetnCompressedTexImage@	; `string'
PUBLIC	??_C@_0P@FBKOCLCM@glGetnTexImage@		; `string'
PUBLIC	??_C@_0BA@KLGIFHJB@glGetnUniformdv@		; `string'
PUBLIC	??_C@_0BA@KIOMIDPP@glGetnUniformfv@		; `string'
PUBLIC	??_C@_0BA@KDLAMEMC@glGetnUniformiv@		; `string'
PUBLIC	??_C@_0BB@BBJMBEC@glGetnUniformuiv@		; `string'
PUBLIC	??_C@_0O@NELODAJJ@glReadnPixels@		; `string'
PUBLIC	??_C@_0M@FBDPJCFH@glGetnMapdv@			; `string'
PUBLIC	??_C@_0M@FCLLEGDJ@glGetnMapfv@			; `string'
PUBLIC	??_C@_0M@FJOHABAE@glGetnMapiv@			; `string'
PUBLIC	??_C@_0BB@JKBANCED@glGetnPixelMapfv@		; `string'
PUBLIC	??_C@_0BC@MDPMMCLE@glGetnPixelMapuiv@		; `string'
PUBLIC	??_C@_0BC@NCENOEBC@glGetnPixelMapusv@		; `string'
PUBLIC	??_C@_0BF@NBHIHHJA@glGetnPolygonStipple@	; `string'
PUBLIC	??_C@_0BB@EFKGOAOL@glGetnColorTable@		; `string'
PUBLIC	??_C@_0BI@GBFNHONB@glGetnConvolutionFilter@	; `string'
PUBLIC	??_C@_0BG@LBKKJBFC@glGetnSeparableFilter@	; `string'
PUBLIC	??_C@_0BA@POEMGEO@glGetnHistogram@		; `string'
PUBLIC	??_C@_0N@EFFKFJMK@glGetnMinmax@			; `string'
PUBLIC	??_C@_0BB@MNKDFGFC@glTextureBarrier@		; `string'
PUBLIC	??_C@_0BD@LNCLLNDI@glSpecializeShader@		; `string'
PUBLIC	??_C@_0BP@GGIOCPJI@glMultiDrawArraysIndirectCount@ ; `string'
PUBLIC	??_C@_0CB@BPEMAMPH@glMultiDrawElementsIndirectCoun@ ; `string'
PUBLIC	??_C@_0BF@ECLDHBOO@glPolygonOffsetClamp@	; `string'
PUBLIC	??_C@_0O@ENGHJHNB@OpenGL?5ES?9CM?5@		; `string'
PUBLIC	??_C@_0O@EMKFPNOG@OpenGL?5ES?9CL?5@		; `string'
PUBLIC	??_C@_0L@JLFHOCGA@OpenGL?5ES?5@			; `string'
PUBLIC	??_C@_05KBEOJPB@?$CFd?4?$CFd@			; `string'
PUBLIC	glad_glGetIntegerv
PUBLIC	GLAD_GL_VERSION_4_6
PUBLIC	GLAD_GL_VERSION_1_5
PUBLIC	GLAD_GL_VERSION_4_3
PUBLIC	GLAD_GL_VERSION_3_3
PUBLIC	GLAD_GL_VERSION_1_1
PUBLIC	GLAD_GL_VERSION_3_2
PUBLIC	GLAD_GL_VERSION_4_4
PUBLIC	GLAD_GL_VERSION_2_1
PUBLIC	GLAD_GL_VERSION_4_0
PUBLIC	glad_glTexParameteri
PUBLIC	GLAD_GL_VERSION_3_1
PUBLIC	GLAD_GL_VERSION_1_4
PUBLIC	GLAD_GL_VERSION_2_0
PUBLIC	GLAD_GL_VERSION_1_0
PUBLIC	glad_glGenTextures
PUBLIC	GLAD_GL_VERSION_4_5
PUBLIC	GLAD_GL_VERSION_1_3
PUBLIC	GLAD_GL_VERSION_4_2
PUBLIC	glad_glTexImage2D
PUBLIC	GLVersion
PUBLIC	GLAD_GL_VERSION_4_1
PUBLIC	glad_glGetStringi
PUBLIC	GLAD_GL_VERSION_1_2
PUBLIC	GLAD_GL_VERSION_3_0
PUBLIC	glad_glClear
PUBLIC	glad_glClearColor
PUBLIC	glad_glViewport
PUBLIC	glad_glBufferData
PUBLIC	glad_glUnmapBuffer
PUBLIC	glad_glGenBuffers
PUBLIC	glad_glReadPixels
PUBLIC	glad_glMapBuffer
PUBLIC	glad_glBindBuffer
PUBLIC	glad_glEnable
PUBLIC	glad_glDisable
PUBLIC	glad_glUseProgram
PUBLIC	glad_glBindTexture
EXTRN	__imp_malloc:PROC
EXTRN	__imp___stdio_common_vsscanf:PROC
EXTRN	__imp_strstr:PROC
EXTRN	__imp_FreeLibrary:PROC
EXTRN	__imp_free:PROC
EXTRN	__imp_GetProcAddress:PROC
EXTRN	__imp_LoadLibraryW:PROC
EXTRN	__imp_strncmp:PROC
glad_glCheckFramebufferStatus DQ 01H DUP (?)
glad_glFramebufferRenderbuffer DQ 01H DUP (?)
glad_glRenderbufferStorage DQ 01H DUP (?)
glad_glBindFramebuffer DQ 01H DUP (?)
glad_glGenRenderbuffers DQ 01H DUP (?)
glad_glBindRenderbuffer DQ 01H DUP (?)
glad_glGenFramebuffers DQ 01H DUP (?)
glad_glFramebufferTexture2D DQ 01H DUP (?)
glad_glGetProgramInfoLog DQ 01H DUP (?)
glad_glCompileShader DQ 01H DUP (?)
glad_glGetProgramiv DQ 01H DUP (?)
glad_glShaderSource DQ 01H DUP (?)
glad_glDeleteProgram DQ 01H DUP (?)
glad_glUniform4f DQ 01H DUP (?)
glad_glCreateShader DQ 01H DUP (?)
glad_glGetShaderInfoLog DQ 01H DUP (?)
glad_glGetShaderiv DQ 01H DUP (?)
glad_glCreateProgram DQ 01H DUP (?)
glad_glUniformMatrix4fv DQ 01H DUP (?)
glad_glDeleteShader DQ 01H DUP (?)
glad_glGetUniformLocation DQ 01H DUP (?)
glad_glAttachShader DQ 01H DUP (?)
glad_glLinkProgram DQ 01H DUP (?)
glad_glVertexAttribPointer DQ 01H DUP (?)
glad_glGenVertexArrays DQ 01H DUP (?)
glad_glBindVertexArray DQ 01H DUP (?)
glad_glEnableVertexAttribArray DQ 01H DUP (?)
glad_glDrawElements DQ 01H DUP (?)
glad_glBlendFunc DQ 01H DUP (?)
glad_glGetString DQ 01H DUP (?)
glad_glGetIntegerv DQ 01H DUP (?)
GLAD_GL_VERSION_4_6 DD 01H DUP (?)
GLAD_GL_VERSION_1_5 DD 01H DUP (?)
GLAD_GL_VERSION_4_3 DD 01H DUP (?)
GLAD_GL_VERSION_3_3 DD 01H DUP (?)
GLAD_GL_VERSION_1_1 DD 01H DUP (?)
GLAD_GL_VERSION_3_2 DD 01H DUP (?)
GLAD_GL_VERSION_4_4 DD 01H DUP (?)
GLAD_GL_VERSION_2_1 DD 01H DUP (?)
GLAD_GL_VERSION_4_0 DD 01H DUP (?)
	ALIGN	8

glad_glTexParameteri DQ 01H DUP (?)
GLAD_GL_VERSION_3_1 DD 01H DUP (?)
GLAD_GL_VERSION_1_4 DD 01H DUP (?)
GLAD_GL_VERSION_2_0 DD 01H DUP (?)
GLAD_GL_VERSION_1_0 DD 01H DUP (?)
glad_glGenTextures DQ 01H DUP (?)
GLAD_GL_VERSION_4_5 DD 01H DUP (?)
GLAD_GL_VERSION_1_3 DD 01H DUP (?)
GLAD_GL_VERSION_4_2 DD 01H DUP (?)
	ALIGN	8

glad_glTexImage2D DQ 01H DUP (?)
GLVersion DQ	01H DUP (?)
GLAD_GL_VERSION_4_1 DD 01H DUP (?)
	ALIGN	8

glad_glGetStringi DQ 01H DUP (?)
GLAD_GL_VERSION_1_2 DD 01H DUP (?)
GLAD_GL_VERSION_3_0 DD 01H DUP (?)
glad_glClear DQ	01H DUP (?)
glad_glClearColor DQ 01H DUP (?)
glad_glViewport DQ 01H DUP (?)
glad_glBufferData DQ 01H DUP (?)
glad_glUnmapBuffer DQ 01H DUP (?)
glad_glGenBuffers DQ 01H DUP (?)
glad_glReadPixels DQ 01H DUP (?)
glad_glMapBuffer DQ 01H DUP (?)
glad_glBindBuffer DQ 01H DUP (?)
glad_glEnable DQ 01H DUP (?)
glad_glDisable DQ 01H DUP (?)
glad_glUseProgram DQ 01H DUP (?)
glad_glBindTexture DQ 01H DUP (?)
_BSS	ENDS
