; Listing generated by Microsoft (R) Optimizing Compiler Version 19.36.32535.0 

include listing.inc

INCLUDELIB OLDNAMES

PUBLIC	??_C@_0N@DOKAJOHF@opengl32?4dll@		; `string'
PUBLIC	??_C@_0CF@PMPPENEO@Failed?5to?5initialize?5OpenGL?5loa@ ; `string'
PUBLIC	??_C@_0BD@BIIFHGKK@imgui_impl_opengl3@		; `string'
PUBLIC	??_C@_0N@NPMABONB@?$CDversion?5130@		; `string'
PUBLIC	??_C@_0BE@NFGEKHNE@GL_ARB_clip_control@		; `string'
PUBLIC	??_C@_0FD@CCPHEBOI@ERROR?3?5ImGui_ImplOpenGL3_Create@ ; `string'
PUBLIC	??_C@_03OFAPEBGM@?$CFs?6@			; `string'
PUBLIC	??_C@_0EP@EPOJCDAM@ERROR?3?5ImGui_ImplOpenGL3_Create@ ; `string'
PUBLIC	??_C@_0M@GIPNOCDP@?$CDversion?5?$CFd@		; `string'
PUBLIC	??_C@_0PF@HLCKEEPJ@uniform?5mat4?5ProjMtx?$DL?6attribute@ ; `string'
PUBLIC	??_C@_0NI@FNJCCLKC@uniform?5mat4?5ProjMtx?$DL?6in?5vec2?5P@ ; `string'
PUBLIC	??_C@_0BDB@OGMOMKDH@precision?5highp?5float?$DL?6layout?5?$CI@ ; `string'
PUBLIC	??_C@_0BBK@IIAKMGPG@layout?5?$CIlocation?5?$DN?50?$CJ?5in?5vec2?5P@ ; `string'
PUBLIC	??_C@_0MM@DPJDGIBF@?$CDifdef?5GL_ES?6?5?5?5?5precision?5medi@ ; `string'
PUBLIC	??_C@_0KA@HKFHPDID@uniform?5sampler2D?5Texture?$DL?6in?5v@ ; `string'
PUBLIC	??_C@_0MP@NIPCIBOH@precision?5mediump?5float?$DL?6unifor@ ; `string'
PUBLIC	??_C@_0LG@KGGNFOLP@in?5vec2?5Frag_UV?$DL?6in?5vec4?5Frag_C@ ; `string'
PUBLIC	??_C@_0O@FGFIIOKE@vertex?5shader@		; `string'
PUBLIC	??_C@_0BA@MDFBHBOK@fragment?5shader@		; `string'
PUBLIC	??_C@_0P@HEBBPOKI@shader?5program@		; `string'
PUBLIC	??_C@_07GKACAEDJ@Texture@			; `string'
PUBLIC	??_C@_07EDEMHDKD@ProjMtx@			; `string'
PUBLIC	??_C@_08GCJNLIKG@Position@			; `string'
PUBLIC	??_C@_02IGCIDAGE@UV@				; `string'
PUBLIC	imgl3wProcs
PUBLIC	?_OptionsStorage@?1??__local_stdio_scanf_options@@9@4_KA ; `__local_stdio_scanf_options'::`2'::_OptionsStorage
EXTRN	__imp_LoadLibraryA:PROC
imgl3wProcs DB	01d8H DUP (?)
_BSS	ENDS
;	COMDAT ?_OptionsStorage@?1??__local_stdio_scanf_options@@9@4_KA
_BSS	SEGMENT
?_OptionsStorage@?1??__local_stdio_scanf_options@@9@4_KA DQ 01H DUP (?) ; `__local_stdio_scanf_options'::`2'::_OptionsStorage
_BSS	ENDS
CONST	ENDS
;	COMDAT ??_C@_02IGCIDAGE@UV@
CONST	SEGMENT
??_C@_02IGCIDAGE@UV@ DB 'UV', 00H			; `string'
CONST	ENDS
;	COMDAT ??_C@_08GCJNLIKG@Position@
CONST	SEGMENT
??_C@_08GCJNLIKG@Position@ DB 'Position', 00H		; `string'
CONST	ENDS
;	COMDAT ??_C@_07EDEMHDKD@ProjMtx@
CONST	SEGMENT
??_C@_07EDEMHDKD@ProjMtx@ DB 'ProjMtx', 00H		; `string'
CONST	ENDS
;	COMDAT ??_C@_07GKACAEDJ@Texture@
CONST	SEGMENT
??_C@_07GKACAEDJ@Texture@ DB 'Texture', 00H		; `string'
CONST	ENDS
;	COMDAT ??_C@_0P@HEBBPOKI@shader?5program@
CONST	SEGMENT
??_C@_0P@HEBBPOKI@shader?5program@ DB 'shader program', 00H ; `string'
CONST	ENDS
;	COMDAT ??_C@_0BA@MDFBHBOK@fragment?5shader@
CONST	SEGMENT
??_C@_0BA@MDFBHBOK@fragment?5shader@ DB 'fragment shader', 00H ; `string'
CONST	ENDS
;	COMDAT ??_C@_0O@FGFIIOKE@vertex?5shader@
CONST	SEGMENT
??_C@_0O@FGFIIOKE@vertex?5shader@ DB 'vertex shader', 00H ; `string'
CONST	ENDS
;	COMDAT ??_C@_0LG@KGGNFOLP@in?5vec2?5Frag_UV?$DL?6in?5vec4?5Frag_C@
CONST	SEGMENT
??_C@_0LG@KGGNFOLP@in?5vec2?5Frag_UV?$DL?6in?5vec4?5Frag_C@ DB 'in vec2 F'
	DB	'rag_UV;', 0aH, 'in vec4 Frag_Color;', 0aH, 'uniform sampler2D'
	DB	' Texture;', 0aH, 'layout (location = 0) out vec4 Out_Color;', 0aH
	DB	'void main()', 0aH, '{', 0aH, '    Out_Color = Frag_Color * te'
	DB	'xture(Texture, Frag_UV.st);', 0aH, '}', 0aH, 00H ; `string'
CONST	ENDS
;	COMDAT ??_C@_0MP@NIPCIBOH@precision?5mediump?5float?$DL?6unifor@
CONST	SEGMENT
??_C@_0MP@NIPCIBOH@precision?5mediump?5float?$DL?6unifor@ DB 'precision m'
	DB	'ediump float;', 0aH, 'uniform sampler2D Texture;', 0aH, 'in v'
	DB	'ec2 Frag_UV;', 0aH, 'in vec4 Frag_Color;', 0aH, 'layout (loca'
	DB	'tion = 0) out vec4 Out_Color;', 0aH, 'void main()', 0aH, '{', 0aH
	DB	'    Out_Color = Frag_Color * texture(Texture, Frag_UV.st);', 0aH
	DB	'}', 0aH, 00H				; `string'
CONST	ENDS
;	COMDAT ??_C@_0KA@HKFHPDID@uniform?5sampler2D?5Texture?$DL?6in?5v@
CONST	SEGMENT
??_C@_0KA@HKFHPDID@uniform?5sampler2D?5Texture?$DL?6in?5v@ DB 'uniform sa'
	DB	'mpler2D Texture;', 0aH, 'in vec2 Frag_UV;', 0aH, 'in vec4 Fra'
	DB	'g_Color;', 0aH, 'out vec4 Out_Color;', 0aH, 'void main()', 0aH
	DB	'{', 0aH, '    Out_Color = Frag_Color * texture(Texture, Frag_'
	DB	'UV.st);', 0aH, '}', 0aH, 00H		; `string'
CONST	ENDS
;	COMDAT ??_C@_0MM@DPJDGIBF@?$CDifdef?5GL_ES?6?5?5?5?5precision?5medi@
CONST	SEGMENT
??_C@_0MM@DPJDGIBF@?$CDifdef?5GL_ES?6?5?5?5?5precision?5medi@ DB '#ifdef '
	DB	'GL_ES', 0aH, '    precision mediump float;', 0aH, '#endif', 0aH
	DB	'uniform sampler2D Texture;', 0aH, 'varying vec2 Frag_UV;', 0aH
	DB	'varying vec4 Frag_Color;', 0aH, 'void main()', 0aH, '{', 0aH, ' '
	DB	'   gl_FragColor = Frag_Color * texture2D(Texture, Frag_UV.st)'
	DB	';', 0aH, '}', 0aH, 00H			; `string'
CONST	ENDS
;	COMDAT ??_C@_0BBK@IIAKMGPG@layout?5?$CIlocation?5?$DN?50?$CJ?5in?5vec2?5P@
CONST	SEGMENT
??_C@_0BBK@IIAKMGPG@layout?5?$CIlocation?5?$DN?50?$CJ?5in?5vec2?5P@ DB 'l'
	DB	'ayout (location = 0) in vec2 Position;', 0aH, 'layout (locati'
	DB	'on = 1) in vec2 UV;', 0aH, 'layout (location = 2) in vec4 Col'
	DB	'or;', 0aH, 'uniform mat4 ProjMtx;', 0aH, 'out vec2 Frag_UV;', 0aH
	DB	'out vec4 Frag_Color;', 0aH, 'void main()', 0aH, '{', 0aH, '  '
	DB	'  Frag_UV = UV;', 0aH, '    Frag_Color = Color;', 0aH, '    g'
	DB	'l_Position = ProjMtx * vec4(Position.xy,0,1);', 0aH, '}', 0aH
	DB	00H						; `string'
CONST	ENDS
;	COMDAT ??_C@_0BDB@OGMOMKDH@precision?5highp?5float?$DL?6layout?5?$CI@
CONST	SEGMENT
??_C@_0BDB@OGMOMKDH@precision?5highp?5float?$DL?6layout?5?$CI@ DB 'precis'
	DB	'ion highp float;', 0aH, 'layout (location = 0) in vec2 Positi'
	DB	'on;', 0aH, 'layout (location = 1) in vec2 UV;', 0aH, 'layout '
	DB	'(location = 2) in vec4 Color;', 0aH, 'uniform mat4 ProjMtx;', 0aH
	DB	'out vec2 Frag_UV;', 0aH, 'out vec4 Frag_Color;', 0aH, 'void m'
	DB	'ain()', 0aH, '{', 0aH, '    Frag_UV = UV;', 0aH, '    Frag_Co'
	DB	'lor = Color;', 0aH, '    gl_Position = ProjMtx * vec4(Positio'
	DB	'n.xy,0,1);', 0aH, '}', 0aH, 00H		; `string'
CONST	ENDS
;	COMDAT ??_C@_0NI@FNJCCLKC@uniform?5mat4?5ProjMtx?$DL?6in?5vec2?5P@
CONST	SEGMENT
??_C@_0NI@FNJCCLKC@uniform?5mat4?5ProjMtx?$DL?6in?5vec2?5P@ DB 'uniform m'
	DB	'at4 ProjMtx;', 0aH, 'in vec2 Position;', 0aH, 'in vec2 UV;', 0aH
	DB	'in vec4 Color;', 0aH, 'out vec2 Frag_UV;', 0aH, 'out vec4 Fra'
	DB	'g_Color;', 0aH, 'void main()', 0aH, '{', 0aH, '    Frag_UV = '
	DB	'UV;', 0aH, '    Frag_Color = Color;', 0aH, '    gl_Position ='
	DB	' ProjMtx * vec4(Position.xy,0,1);', 0aH, '}', 0aH, 00H ; `string'
CONST	ENDS
;	COMDAT ??_C@_0PF@HLCKEEPJ@uniform?5mat4?5ProjMtx?$DL?6attribute@
CONST	SEGMENT
??_C@_0PF@HLCKEEPJ@uniform?5mat4?5ProjMtx?$DL?6attribute@ DB 'uniform mat'
	DB	'4 ProjMtx;', 0aH, 'attribute vec2 Position;', 0aH, 'attribute'
	DB	' vec2 UV;', 0aH, 'attribute vec4 Color;', 0aH, 'varying vec2 '
	DB	'Frag_UV;', 0aH, 'varying vec4 Frag_Color;', 0aH, 'void main()'
	DB	0aH, '{', 0aH, '    Frag_UV = UV;', 0aH, '    Frag_Color = Col'
	DB	'or;', 0aH, '    gl_Position = ProjMtx * vec4(Position.xy,0,1)'
	DB	';', 0aH, '}', 0aH, 00H			; `string'
CONST	ENDS
;	COMDAT ??_C@_0M@GIPNOCDP@?$CDversion?5?$CFd@
CONST	SEGMENT
??_C@_0M@GIPNOCDP@?$CDversion?5?$CFd@ DB '#version %d', 00H ; `string'
CONST	ENDS
;	COMDAT ??_C@_0EP@EPOJCDAM@ERROR?3?5ImGui_ImplOpenGL3_Create@
CONST	SEGMENT
??_C@_0EP@EPOJCDAM@ERROR?3?5ImGui_ImplOpenGL3_Create@ DB 'ERROR: ImGui_Im'
	DB	'plOpenGL3_CreateDeviceObjects: failed to link %s! With GLSL %'
	DB	's', 0aH, 00H				; `string'
CONST	ENDS
;	COMDAT ??_C@_03OFAPEBGM@?$CFs?6@
CONST	SEGMENT
??_C@_03OFAPEBGM@?$CFs?6@ DB '%s', 0aH, 00H		; `string'
CONST	ENDS
;	COMDAT ??_C@_0FD@CCPHEBOI@ERROR?3?5ImGui_ImplOpenGL3_Create@
CONST	SEGMENT
??_C@_0FD@CCPHEBOI@ERROR?3?5ImGui_ImplOpenGL3_Create@ DB 'ERROR: ImGui_Im'
	DB	'plOpenGL3_CreateDeviceObjects: failed to compile %s! With GLS'
	DB	'L: %s', 0aH, 00H				; `string'
CONST	ENDS
;	COMDAT ??_C@_0BE@NFGEKHNE@GL_ARB_clip_control@
CONST	SEGMENT
??_C@_0BE@NFGEKHNE@GL_ARB_clip_control@ DB 'GL_ARB_clip_control', 00H ; `string'
CONST	ENDS
;	COMDAT ??_C@_0N@NPMABONB@?$CDversion?5130@
CONST	SEGMENT
??_C@_0N@NPMABONB@?$CDversion?5130@ DB '#version 130', 00H ; `string'
CONST	ENDS
;	COMDAT ??_C@_0BD@BIIFHGKK@imgui_impl_opengl3@
CONST	SEGMENT
??_C@_0BD@BIIFHGKK@imgui_impl_opengl3@ DB 'imgui_impl_opengl3', 00H ; `string'
CONST	ENDS
;	COMDAT ??_C@_0CF@PMPPENEO@Failed?5to?5initialize?5OpenGL?5loa@
CONST	SEGMENT
??_C@_0CF@PMPPENEO@Failed?5to?5initialize?5OpenGL?5loa@ DB 'Failed to ini'
	DB	'tialize OpenGL loader!', 0aH, 00H		; `string'
CONST	ENDS
;	COMDAT ??_C@_0N@DOKAJOHF@opengl32?4dll@
CONST	SEGMENT
??_C@_0N@DOKAJOHF@opengl32?4dll@ DB 'opengl32.dll', 00H	; `string'
PUBLIC	?_grow_capacity@?$ImVector@D@@QEBAHH@Z		; ImVector<char>::_grow_capacity
PUBLIC	??0?$ImVector@D@@QEAA@XZ			; ImVector<char>::ImVector<char>
PUBLIC	??1?$ImVector@D@@QEAA@XZ			; ImVector<char>::~ImVector<char>
PUBLIC	?begin@?$ImVector@D@@QEAAPEADXZ			; ImVector<char>::begin
PUBLIC	?resize@?$ImVector@D@@QEAAXH@Z			; ImVector<char>::resize
PUBLIC	?reserve@?$ImVector@D@@QEAAXH@Z			; ImVector<char>::reserve
PUBLIC	?ImGui_ImplOpenGL3_RenderDrawData@@YAXPEAUImDrawData@@@Z ; ImGui_ImplOpenGL3_RenderDrawData
PUBLIC	sscanf
PUBLIC	_vsscanf_l
libgl	DQ	01H DUP (?)
wgl_get_proc_address DQ 01H DUP (?)
_BSS	ENDS
;	COMDAT pdata
pdata	SEGMENT
$pdata$??1?$ImVector@D@@QEAA@XZ DD imagerel $LN19@ImVector
	DD	imagerel $LN19@ImVector+137
	DD	imagerel $unwind$??1?$ImVector@D@@QEAA@XZ
pdata	ENDS
;	COMDAT pdata
pdata	SEGMENT
$pdata$?resize@?$ImVector@D@@QEAAXH@Z DD imagerel $LN12@resize
	DD	imagerel $LN12@resize+70
	DD	imagerel $unwind$?resize@?$ImVector@D@@QEAAXH@Z
pdata	ENDS
;	COMDAT pdata
pdata	SEGMENT
$pdata$?reserve@?$ImVector@D@@QEAAXH@Z DD imagerel $LN24@reserve
	DD	imagerel $LN24@reserve+28
	DD	imagerel $unwind$?reserve@?$ImVector@D@@QEAAXH@Z
pdata	ENDS
;	COMDAT pdata
pdata	SEGMENT
$pdata$0$?reserve@?$ImVector@D@@QEAAXH@Z DD imagerel $LN24@reserve+28
	DD	imagerel $LN24@reserve+204
	DD	imagerel $chain$0$?reserve@?$ImVector@D@@QEAAXH@Z
pdata	ENDS
;	COMDAT pdata
pdata	SEGMENT
$pdata$1$?reserve@?$ImVector@D@@QEAAXH@Z DD imagerel $LN24@reserve+204
	DD	imagerel $LN24@reserve+215
	DD	imagerel $chain$1$?reserve@?$ImVector@D@@QEAAXH@Z
pdata	ENDS
;	COMDAT pdata
pdata	SEGMENT
$pdata$?ImGui_ImplOpenGL3_RenderWindow@@YAXPEAUImGuiViewport@@PEAX@Z DD imagerel ?ImGui_ImplOpenGL3_RenderWindow@@YAXPEAUImGuiViewport@@PEAX@Z
	DD	imagerel ?ImGui_ImplOpenGL3_RenderWindow@@YAXPEAUImGuiViewport@@PEAX@Z+66
	DD	imagerel $unwind$?ImGui_ImplOpenGL3_RenderWindow@@YAXPEAUImGuiViewport@@PEAX@Z
pdata	ENDS
;	COMDAT pdata
pdata	SEGMENT
$pdata$?ImGui_ImplOpenGL3_RenderDrawData@@YAXPEAUImDrawData@@@Z DD imagerel $LN102@ImGui_Impl
	DD	imagerel $LN102@ImGui_Impl+93
	DD	imagerel $unwind$?ImGui_ImplOpenGL3_RenderDrawData@@YAXPEAUImDrawData@@@Z
pdata	ENDS
;	COMDAT pdata
pdata	SEGMENT
$pdata$0$?ImGui_ImplOpenGL3_RenderDrawData@@YAXPEAUImDrawData@@@Z DD imagerel $LN102@ImGui_Impl+93
	DD	imagerel $LN102@ImGui_Impl+97
	DD	imagerel $chain$0$?ImGui_ImplOpenGL3_RenderDrawData@@YAXPEAUImDrawData@@@Z
pdata	ENDS
;	COMDAT pdata
pdata	SEGMENT
$pdata$3$?ImGui_ImplOpenGL3_RenderDrawData@@YAXPEAUImDrawData@@@Z DD imagerel $LN102@ImGui_Impl+97
	DD	imagerel $LN102@ImGui_Impl+109
	DD	imagerel $chain$3$?ImGui_ImplOpenGL3_RenderDrawData@@YAXPEAUImDrawData@@@Z
pdata	ENDS
;	COMDAT pdata
pdata	SEGMENT
$pdata$7$?ImGui_ImplOpenGL3_RenderDrawData@@YAXPEAUImDrawData@@@Z DD imagerel $LN102@ImGui_Impl+109
	DD	imagerel $LN102@ImGui_Impl+1203
	DD	imagerel $chain$7$?ImGui_ImplOpenGL3_RenderDrawData@@YAXPEAUImDrawData@@@Z
pdata	ENDS
;	COMDAT pdata
pdata	SEGMENT
$pdata$8$?ImGui_ImplOpenGL3_RenderDrawData@@YAXPEAUImDrawData@@@Z DD imagerel $LN102@ImGui_Impl+1203
	DD	imagerel $LN102@ImGui_Impl+1374
	DD	imagerel $chain$8$?ImGui_ImplOpenGL3_RenderDrawData@@YAXPEAUImDrawData@@@Z
pdata	ENDS
;	COMDAT pdata
pdata	SEGMENT
$pdata$9$?ImGui_ImplOpenGL3_RenderDrawData@@YAXPEAUImDrawData@@@Z DD imagerel $LN102@ImGui_Impl+1374
	DD	imagerel $LN102@ImGui_Impl+1406
	DD	imagerel $chain$9$?ImGui_ImplOpenGL3_RenderDrawData@@YAXPEAUImDrawData@@@Z
pdata	ENDS
;	COMDAT pdata
pdata	SEGMENT
$pdata$10$?ImGui_ImplOpenGL3_RenderDrawData@@YAXPEAUImDrawData@@@Z DD imagerel $LN102@ImGui_Impl+1406
	DD	imagerel $LN102@ImGui_Impl+1438
	DD	imagerel $chain$10$?ImGui_ImplOpenGL3_RenderDrawData@@YAXPEAUImDrawData@@@Z
pdata	ENDS
;	COMDAT pdata
pdata	SEGMENT
$pdata$11$?ImGui_ImplOpenGL3_RenderDrawData@@YAXPEAUImDrawData@@@Z DD imagerel $LN102@ImGui_Impl+1438
	DD	imagerel $LN102@ImGui_Impl+1615
	DD	imagerel $chain$11$?ImGui_ImplOpenGL3_RenderDrawData@@YAXPEAUImDrawData@@@Z
pdata	ENDS
;	COMDAT pdata
pdata	SEGMENT
$pdata$12$?ImGui_ImplOpenGL3_RenderDrawData@@YAXPEAUImDrawData@@@Z DD imagerel $LN102@ImGui_Impl+1615
	DD	imagerel $LN102@ImGui_Impl+1641
	DD	imagerel $chain$12$?ImGui_ImplOpenGL3_RenderDrawData@@YAXPEAUImDrawData@@@Z
pdata	ENDS
;	COMDAT pdata
pdata	SEGMENT
$pdata$?ImGui_ImplOpenGL3_SetupRenderState@@YAXPEAUImDrawData@@HHI@Z DD imagerel ?ImGui_ImplOpenGL3_SetupRenderState@@YAXPEAUImDrawData@@HHI@Z
	DD	imagerel ?ImGui_ImplOpenGL3_SetupRenderState@@YAXPEAUImDrawData@@HHI@Z+720
	DD	imagerel $unwind$?ImGui_ImplOpenGL3_SetupRenderState@@YAXPEAUImDrawData@@HHI@Z
pdata	ENDS
;	COMDAT pdata
pdata	SEGMENT
$pdata$get_proc DD imagerel get_proc
	DD	imagerel get_proc+48
	DD	imagerel $unwind$get_proc
pdata	ENDS
;	COMDAT pdata
pdata	SEGMENT
$pdata$sscanf DD imagerel $LN6@sscanf
	DD	imagerel $LN6@sscanf+82
	DD	imagerel $unwind$sscanf
pdata	ENDS
;	COMDAT pdata
pdata	SEGMENT
$pdata$_vsscanf_l DD imagerel $LN4@vsscanf_l
	DD	imagerel $LN4@vsscanf_l+81
	DD	imagerel $unwind$_vsscanf_l
;	COMDAT xdata
xdata	SEGMENT
$unwind$_vsscanf_l DQ 00009640f00060f01r	; 1.30596e-308
	DQ	0700b520f0008340fr		; 5.30195e+231
xdata	ENDS
;	COMDAT xdata
xdata	SEGMENT
$unwind$sscanf DQ 07012521600041601r		; 7.11078e+231
	DD	030106011H
xdata	ENDS
;	COMDAT xdata
xdata	SEGMENT
$unwind$get_proc DQ 03002320600020601r		; 1.96423e-77
xdata	ENDS
;	COMDAT xdata
xdata	SEGMENT
$unwind$?ImGui_ImplOpenGL3_SetupRenderState@@YAXPEAUImDrawData@@HHI@Z DQ 00009681a000b2c19r ; 1.30816e-308
	DQ	0e009f00b00140112r		; -4.34709e+154
	DQ	0500360047005c007r		; 2.80435e+77
	DD	03002H
	DD	imagerel __GSHandlerCheck
	DD	080H
xdata	ENDS
;	COMDAT xdata
xdata	SEGMENT
$chain$12$?ImGui_ImplOpenGL3_RenderDrawData@@YAXPEAUImDrawData@@@Z DD 021H
	DD	imagerel $LN102@ImGui_Impl
	DD	imagerel $LN102@ImGui_Impl+93
	DD	imagerel $unwind$?ImGui_ImplOpenGL3_RenderDrawData@@YAXPEAUImDrawData@@@Z
xdata	ENDS
;	COMDAT xdata
xdata	SEGMENT
$chain$11$?ImGui_ImplOpenGL3_RenderDrawData@@YAXPEAUImDrawData@@@Z DQ 0001ef40000020021r ; 4.30456e-308
	DD	imagerel $LN102@ImGui_Impl
	DD	imagerel $LN102@ImGui_Impl+93
	DD	imagerel $unwind$?ImGui_ImplOpenGL3_RenderDrawData@@YAXPEAUImDrawData@@@Z
xdata	ENDS
;	COMDAT xdata
xdata	SEGMENT
$chain$10$?ImGui_ImplOpenGL3_RenderDrawData@@YAXPEAUImDrawData@@@Z DQ 0001ef40000040021r ; 4.30456e-308
	DD	027e400H
	DD	imagerel $LN102@ImGui_Impl
	DD	imagerel $LN102@ImGui_Impl+93
	DD	imagerel $unwind$?ImGui_ImplOpenGL3_RenderDrawData@@YAXPEAUImDrawData@@@Z
xdata	ENDS
;	COMDAT xdata
xdata	SEGMENT
$chain$9$?ImGui_ImplOpenGL3_RenderDrawData@@YAXPEAUImDrawData@@@Z DQ 0001ef40000040021r ; 4.30456e-308
	DD	027e400H
	DD	imagerel $LN102@ImGui_Impl+93
	DD	imagerel $LN102@ImGui_Impl+97
	DD	imagerel $chain$0$?ImGui_ImplOpenGL3_RenderDrawData@@YAXPEAUImDrawData@@@Z
xdata	ENDS
;	COMDAT xdata
xdata	SEGMENT
$chain$8$?ImGui_ImplOpenGL3_RenderDrawData@@YAXPEAUImDrawData@@@Z DD 021H
	DD	imagerel $LN102@ImGui_Impl+97
	DD	imagerel $LN102@ImGui_Impl+109
	DD	imagerel $chain$3$?ImGui_ImplOpenGL3_RenderDrawData@@YAXPEAUImDrawData@@@Z
xdata	ENDS
;	COMDAT xdata
xdata	SEGMENT
$chain$7$?ImGui_ImplOpenGL3_RenderDrawData@@YAXPEAUImDrawData@@@Z DQ 0000b981400081421r ; 1.61235e-308
	DQ	0000d780a000c880fr		; 1.87308e-308
	DD	0e6805H
	DD	imagerel $LN102@ImGui_Impl+97
	DD	imagerel $LN102@ImGui_Impl+109
	DD	imagerel $chain$3$?ImGui_ImplOpenGL3_RenderDrawData@@YAXPEAUImDrawData@@@Z
xdata	ENDS
;	COMDAT xdata
xdata	SEGMENT
$chain$3$?ImGui_ImplOpenGL3_RenderDrawData@@YAXPEAUImDrawData@@@Z DQ 0001ef40c00060c21r ; 4.30459e-308
	DQ	0002674040027e408r		; 6.245e-308
	DD	imagerel $LN102@ImGui_Impl+93
	DD	imagerel $LN102@ImGui_Impl+97
	DD	imagerel $chain$0$?ImGui_ImplOpenGL3_RenderDrawData@@YAXPEAUImDrawData@@@Z
xdata	ENDS
;	COMDAT xdata
xdata	SEGMENT
$chain$0$?ImGui_ImplOpenGL3_RenderDrawData@@YAXPEAUImDrawData@@@Z DQ 00025640400020421r ; 5.94948e-308
	DD	imagerel $LN102@ImGui_Impl
	DD	imagerel $LN102@ImGui_Impl+93
	DD	imagerel $unwind$?ImGui_ImplOpenGL3_RenderDrawData@@YAXPEAUImDrawData@@@Z
xdata	ENDS
;	COMDAT xdata
xdata	SEGMENT
$unwind$?ImGui_ImplOpenGL3_RenderDrawData@@YAXPEAUImDrawData@@@Z DQ 0001f011400062219r ; 4.31167e-308
	DQ	050043005c007d009r		; 2.92195e+77
	DD	imagerel __GSHandlerCheck
	DD	0a8H
xdata	ENDS
;	COMDAT xdata
xdata	SEGMENT
$unwind$?ImGui_ImplOpenGL3_RenderWindow@@YAXPEAUImGuiViewport@@PEAX@Z DQ 03002320600020601r ; 1.96423e-77
xdata	ENDS
;	COMDAT xdata
xdata	SEGMENT
$chain$1$?reserve@?$ImVector@D@@QEAAXH@Z DD 021H
	DD	imagerel $LN24@reserve
	DD	imagerel $LN24@reserve+28
	DD	imagerel $unwind$?reserve@?$ImVector@D@@QEAAXH@Z
xdata	ENDS
;	COMDAT xdata
xdata	SEGMENT
$chain$0$?reserve@?$ImVector@D@@QEAAXH@Z DQ 00006640500020521r ; 8.88736e-309
	DD	imagerel $LN24@reserve
	DD	imagerel $LN24@reserve+28
	DD	imagerel $unwind$?reserve@?$ImVector@D@@QEAAXH@Z
xdata	ENDS
;	COMDAT xdata
xdata	SEGMENT
$unwind$?reserve@?$ImVector@D@@QEAAXH@Z DQ 00007340a00040a01r ; 1.00174e-308
	DD	07006320aH
xdata	ENDS
;	COMDAT xdata
xdata	SEGMENT
$unwind$?resize@?$ImVector@D@@QEAAXH@Z DQ 00006340a00040a01r ; 8.62672e-309
	DD	07006320aH
xdata	ENDS
;	COMDAT xdata
xdata	SEGMENT
$ip2state$??1?$ImVector@D@@QEAA@XZ DW 0fa02H
	DB	00H
xdata	ENDS
;	COMDAT xdata
xdata	SEGMENT
$cppxdata$??1?$ImVector@D@@QEAA@XZ DB 060H
	DD	imagerel $ip2state$??1?$ImVector@D@@QEAA@XZ
xdata	ENDS
;	COMDAT xdata
xdata	SEGMENT
$unwind$??1?$ImVector@D@@QEAA@XZ DQ 00000420400010419r ; 3.58617e-310
	DD	imagerel __CxxFrameHandler4
	DD	imagerel $cppxdata$??1?$ImVector@D@@QEAA@XZ
END
