; Listing generated by Microsoft (R) Optimizing Compiler Version 19.32.31332.0 

include listing.inc

INCLUDELIB OLDNAMES

PUBLIC	??_C@_04LBBEMOBJ@typ1@				; `string'
PUBLIC	??_C@_04LLEFIKCJ@OTTO@				; `string'
PUBLIC	??_C@_04LOAJBDKD@true@				; `string'
PUBLIC	??_C@_04KIOEMAHO@ttcf@				; `string'
PUBLIC	??_C@_04EICJPCEA@cmap@				; `string'
PUBLIC	??_C@_04DACNFKGE@loca@				; `string'
PUBLIC	??_C@_04NEODDMOL@head@				; `string'
PUBLIC	??_C@_04LLIHEPK@glyf@				; `string'
PUBLIC	??_C@_04FMPHLIKP@hhea@				; `string'
PUBLIC	??_C@_04ONMNCIMC@hmtx@				; `string'
PUBLIC	??_C@_04HHMMLDJI@kern@				; `string'
PUBLIC	??_C@_04PCFDEHHD@GPOS@				; `string'
PUBLIC	??_C@_04HJGCPIEK@CFF?5@				; `string'
PUBLIC	??_C@_04KODIGLGG@maxp@				; `string'
PUBLIC	??_C@_0BG@CONABPA@ProggyClean?4ttf?0?5?$CFdpx@	; `string'
PUBLIC	??_C@_0L@EPCGLJHG@?$CFs?0?5?$CF?40fpx@		; `string'
;	COMDAT ?full_ranges@?1??GetGlyphRangesChineseSimplifiedCommon@ImFontAtlas@@QEAAPEBGXZ@4PAGA
_BSS	SEGMENT
?full_ranges@?1??GetGlyphRangesChineseSimplifiedCommon@ImFontAtlas@@QEAAPEBGXZ@4PAGA DW 01395H DUP (?) ; `ImFontAtlas::GetGlyphRangesChineseSimplifiedCommon'::`2'::full_ranges
_BSS	ENDS
;	COMDAT ?full_ranges@?1??GetGlyphRangesJapanese@ImFontAtlas@@QEAAPEBGXZ@4PAGA
_BSS	SEGMENT
?full_ranges@?1??GetGlyphRangesJapanese@ImFontAtlas@@QEAAPEBGXZ@4PAGA DW 01779H DUP (?) ; `ImFontAtlas::GetGlyphRangesJapanese'::`2'::full_ranges
_BSS	ENDS
;	COMDAT ?accumulative_offsets_from_0x4E00@?1??GetGlyphRangesChineseSimplifiedCommon@ImFontAtlas@@QEAAPEBGXZ@4QBFB
CONST	SEGMENT
?accumulative_offsets_from_0x4E00@?1??GetGlyphRangesChineseSimplifiedCommon@ImFontAtlas@@QEAAPEBGXZ@4QBFB DW 00H ; `ImFontAtlas::GetGlyphRangesChineseSimplifiedCommon'::`2'::accumulative_offsets_from_0x4E00
	DW	01H
	DW	02H
	DW	04H
	DW	01H
	DW	01H
	DW	01H
	DW	01H
	DW	02H
	DW	01H
	DW	03H
	DW	02H
	DW	01H
	DW	02H
	DW	02H
	DW	01H
	DW	01H
	DW	01H
	DW	01H
	DW	01H
	DW	05H
	DW	02H
	DW	01H
	DW	02H
	DW	03H
	DW	03H
	DW	03H
	DW	02H
	DW	02H
	DW	04H
	DW	01H
	DW	01H
	DW	01H
	DW	02H
	DW	01H
	DW	05H
	DW	02H
	DW	03H
	DW	01H
	DW	02H
	DW	01H
	DW	02H
	DW	01H
	DW	01H
	DW	02H
	DW	01H
	DW	01H
	DW	02H
	DW	02H
	DW	01H
	DW	04H
	DW	01H
	DW	01H
	DW	01H
	DW	01H
	DW	05H
	DW	0aH
	DW	01H
	DW	02H
	DW	013H
	DW	02H
	DW	01H
	DW	02H
	DW	01H
	DW	02H
	DW	01H
	DW	02H
	DW	01H
	DW	02H
	DW	01H
	DW	05H
	DW	01H
	DW	06H
	DW	03H
	DW	02H
	DW	01H
	DW	02H
	DW	02H
	DW	01H
	DW	01H
	DW	01H
	DW	04H
	DW	08H
	DW	05H
	DW	01H
	DW	01H
	DW	04H
	DW	01H
	DW	01H
	DW	03H
	DW	01H
	DW	02H
	DW	01H
	DW	05H
	DW	01H
	DW	02H
	DW	01H
	DW	01H
	DW	01H
	DW	0aH
	DW	01H
	DW	01H
	DW	05H
	DW	02H
	DW	04H
	DW	06H
	DW	01H
	DW	04H
	DW	02H
	DW	02H
	DW	02H
	DW	0cH
	DW	02H
	DW	01H
	DW	01H
	DW	06H
	DW	01H
	DW	01H
	DW	01H
	DW	04H
	DW	01H
	DW	01H
	DW	04H
	DW	06H
	DW	05H
	DW	01H
	DW	04H
	DW	02H
	DW	02H
	DW	04H
	DW	0aH
	DW	07H
	DW	01H
	DW	01H
	DW	04H
	DW	02H
	DW	04H
	DW	02H
	DW	01H
	DW	04H
	DW	03H
	DW	06H
	DW	0aH
	DW	0cH
	DW	05H
	DW	07H
	DW	02H
	DW	0eH
	DW	02H
	DW	09H
	DW	01H
	DW	01H
	DW	06H
	DW	07H
	DW	0aH
	DW	04H
	DW	07H
	DW	0dH
	DW	01H
	DW	05H
	DW	04H
	DW	08H
	DW	04H
	DW	01H
	DW	01H
	DW	02H
	DW	01cH
	DW	05H
	DW	06H
	DW	01H
	DW	01H
	DW	05H
	DW	02H
	DW	05H
	DW	014H
	DW	02H
	DW	02H
	DW	09H
	DW	08H
	DW	0bH
	DW	02H
	DW	09H
	DW	011H
	DW	01H
	DW	08H
	DW	06H
	DW	08H
	DW	01bH
	DW	04H
	DW	06H
	DW	09H
	DW	014H
	DW	0bH
	DW	01bH
	DW	06H
	DW	044H
	DW	02H
	DW	02H
	DW	01H
	DW	01H
	DW	01H
	DW	02H
	DW	01H
	DW	02H
	DW	02H
	DW	07H
	DW	06H
	DW	0bH
	DW	03H
	DW	03H
	DW	01H
	DW	01H
	DW	03H
	DW	01H
	DW	02H
	DW	01H
	DW	01H
	DW	01H
	DW	01H
	DW	01H
	DW	03H
	DW	01H
	DW	01H
	DW	08H
	DW	03H
	DW	04H
	DW	01H
	DW	05H
	DW	07H
	DW	02H
	DW	01H
	DW	04H
	DW	04H
	DW	08H
	DW	04H
	DW	02H
	DW	01H
	DW	02H
	DW	01H
	DW	01H
	DW	04H
	DW	05H
	DW	06H
	DW	03H
	DW	06H
	DW	02H
	DW	0cH
	DW	03H
	DW	01H
	DW	03H
	DW	09H
	DW	02H
	DW	04H
	DW	03H
	DW	04H
	DW	01H
	DW	05H
	DW	03H
	DW	03H
	DW	01H
	DW	03H
	DW	07H
	DW	01H
	DW	05H
	DW	01H
	DW	01H
	DW	01H
	DW	01H
	DW	02H
	DW	03H
	DW	04H
	DW	05H
	DW	02H
	DW	03H
	DW	02H
	DW	06H
	DW	01H
	DW	01H
	DW	02H
	DW	01H
	DW	07H
	DW	01H
	DW	07H
	DW	03H
	DW	04H
	DW	05H
	DW	0fH
	DW	02H
	DW	02H
	DW	01H
	DW	05H
	DW	03H
	DW	016H
	DW	013H
	DW	02H
	DW	01H
	DW	01H
	DW	01H
	DW	01H
	DW	02H
	DW	05H
	DW	01H
	DW	01H
	DW	01H
	DW	06H
	DW	01H
	DW	01H
	DW	0cH
	DW	08H
	DW	02H
	DW	09H
	DW	012H
	DW	016H
	DW	04H
	DW	01H
	DW	01H
	DW	05H
	DW	01H
	DW	010H
	DW	01H
	DW	02H
	DW	07H
	DW	0aH
	DW	0fH
	DW	01H
	DW	01H
	DW	06H
	DW	02H
	DW	04H
	DW	01H
	DW	02H
	DW	04H
	DW	01H
	DW	06H
	DW	01H
	DW	01H
	DW	03H
	DW	02H
	DW	04H
	DW	01H
	DW	06H
	DW	04H
	DW	05H
	DW	01H
	DW	02H
	DW	01H
	DW	01H
	DW	02H
	DW	01H
	DW	0aH
	DW	03H
	DW	01H
	DW	03H
	DW	02H
	DW	01H
	DW	09H
	DW	03H
	DW	02H
	DW	05H
	DW	07H
	DW	02H
	DW	013H
	DW	04H
	DW	03H
	DW	06H
	DW	01H
	DW	01H
	DW	01H
	DW	01H
	DW	01H
	DW	04H
	DW	03H
	DW	02H
	DW	01H
	DW	01H
	DW	01H
	DW	02H
	DW	05H
	DW	03H
	DW	01H
	DW	01H
	DW	01H
	DW	02H
	DW	02H
	DW	01H
	DW	01H
	DW	02H
	DW	01H
	DW	01H
	DW	02H
	DW	01H
	DW	03H
	DW	01H
	DW	01H
	DW	01H
	DW	03H
	DW	07H
	DW	01H
	DW	04H
	DW	01H
	DW	01H
	DW	02H
	DW	01H
	DW	01H
	DW	02H
	DW	01H
	DW	02H
	DW	04H
	DW	04H
	DW	03H
	DW	08H
	DW	01H
	DW	01H
	DW	01H
	DW	02H
	DW	01H
	DW	03H
	DW	05H
	DW	01H
	DW	03H
	DW	01H
	DW	03H
	DW	04H
	DW	06H
	DW	02H
	DW	02H
	DW	0eH
	DW	04H
	DW	06H
	DW	06H
	DW	0bH
	DW	09H
	DW	01H
	DW	0fH
	DW	03H
	DW	01H
	DW	01cH
	DW	05H
	DW	02H
	DW	05H
	DW	05H
	DW	03H
	DW	01H
	DW	03H
	DW	04H
	DW	05H
	DW	04H
	DW	06H
	DW	0eH
	DW	03H
	DW	02H
	DW	03H
	DW	05H
	DW	015H
	DW	02H
	DW	07H
	DW	014H
	DW	0aH
	DW	01H
	DW	02H
	DW	013H
	DW	02H
	DW	04H
	DW	01cH
	DW	01cH
	DW	02H
	DW	03H
	DW	02H
	DW	01H
	DW	0eH
	DW	04H
	DW	01H
	DW	01aH
	DW	01cH
	DW	02aH
	DW	0cH
	DW	028H
	DW	03H
	DW	034H
	DW	04fH
	DW	05H
	DW	0eH
	DW	011H
	DW	03H
	DW	02H
	DW	02H
	DW	0bH
	DW	03H
	DW	04H
	DW	06H
	DW	03H
	DW	01H
	DW	08H
	DW	02H
	DW	017H
	DW	04H
	DW	05H
	DW	08H
	DW	0aH
	DW	04H
	DW	02H
	DW	07H
	DW	03H
	DW	05H
	DW	01H
	DW	01H
	DW	06H
	DW	03H
	DW	01H
	DW	02H
	DW	02H
	DW	02H
	DW	05H
	DW	01cH
	DW	01H
	DW	01H
	DW	07H
	DW	07H
	DW	014H
	DW	05H
	DW	03H
	DW	01dH
	DW	03H
	DW	011H
	DW	01aH
	DW	01H
	DW	08H
	DW	04H
	DW	01bH
	DW	03H
	DW	06H
	DW	0bH
	DW	017H
	DW	05H
	DW	03H
	DW	04H
	DW	06H
	DW	0dH
	DW	018H
	DW	010H
	DW	06H
	DW	05H
	DW	0aH
	DW	019H
	DW	023H
	DW	07H
	DW	03H
	DW	02H
	DW	03H
	DW	03H
	DW	0eH
	DW	03H
	DW	06H
	DW	02H
	DW	06H
	DW	01H
	DW	04H
	DW	02H
	DW	03H
	DW	08H
	DW	02H
	DW	01H
	DW	01H
	DW	03H
	DW	03H
	DW	03H
	DW	04H
	DW	01H
	DW	01H
	DW	0dH
	DW	02H
	DW	02H
	DW	04H
	DW	05H
	DW	02H
	DW	01H
	DW	0eH
	DW	0eH
	DW	01H
	DW	02H
	DW	02H
	DW	01H
	DW	04H
	DW	05H
	DW	02H
	DW	03H
	DW	01H
	DW	0eH
	DW	03H
	DW	0cH
	DW	03H
	DW	011H
	DW	02H
	DW	010H
	DW	05H
	DW	01H
	DW	02H
	DW	01H
	DW	08H
	DW	09H
	DW	03H
	DW	013H
	DW	04H
	DW	02H
	DW	02H
	DW	04H
	DW	011H
	DW	019H
	DW	015H
	DW	014H
	DW	01cH
	DW	04bH
	DW	01H
	DW	0aH
	DW	01dH
	DW	067H
	DW	04H
	DW	01H
	DW	02H
	DW	01H
	DW	01H
	DW	04H
	DW	02H
	DW	04H
	DW	01H
	DW	02H
	DW	03H
	DW	018H
	DW	02H
	DW	02H
	DW	02H
	DW	01H
	DW	01H
	DW	02H
	DW	01H
	DW	03H
	DW	08H
	DW	01H
	DW	01H
	DW	01H
	DW	02H
	DW	01H
	DW	01H
	DW	03H
	DW	01H
	DW	01H
	DW	01H
	DW	06H
	DW	01H
	DW	05H
	DW	03H
	DW	01H
	DW	01H
	DW	01H
	DW	03H
	DW	04H
	DW	01H
	DW	01H
	DW	05H
	DW	02H
	DW	01H
	DW	05H
	DW	06H
	DW	0dH
	DW	09H
	DW	010H
	DW	01H
	DW	01H
	DW	01H
	DW	01H
	DW	03H
	DW	02H
	DW	03H
	DW	02H
	DW	04H
	DW	05H
	DW	02H
	DW	05H
	DW	02H
	DW	02H
	DW	03H
	DW	07H
	DW	0dH
	DW	07H
	DW	02H
	DW	02H
	DW	01H
	DW	01H
	DW	01H
	DW	01H
	DW	02H
	DW	03H
	DW	03H
	DW	02H
	DW	01H
	DW	06H
	DW	04H
	DW	09H
	DW	02H
	DW	01H
	DW	0eH
	DW	02H
	DW	0eH
	DW	02H
	DW	01H
	DW	012H
	DW	03H
	DW	04H
	DW	0eH
	DW	04H
	DW	0bH
	DW	029H
	DW	0fH
	DW	017H
	DW	0fH
	DW	017H
	DW	0b0H
	DW	01H
	DW	03H
	DW	04H
	DW	01H
	DW	01H
	DW	01H
	DW	01H
	DW	05H
	DW	03H
	DW	01H
	DW	02H
	DW	03H
	DW	07H
	DW	03H
	DW	01H
	DW	01H
	DW	02H
	DW	01H
	DW	02H
	DW	04H
	DW	04H
	DW	06H
	DW	02H
	DW	04H
	DW	01H
	DW	09H
	DW	07H
	DW	01H
	DW	0aH
	DW	05H
	DW	08H
	DW	010H
	DW	01dH
	DW	01H
	DW	01H
	DW	02H
	DW	02H
	DW	03H
	DW	01H
	DW	03H
	DW	05H
	DW	02H
	DW	04H
	DW	05H
	DW	04H
	DW	01H
	DW	01H
	DW	02H
	DW	02H
	DW	03H
	DW	03H
	DW	07H
	DW	01H
	DW	06H
	DW	0aH
	DW	01H
	DW	011H
	DW	01H
	DW	02cH
	DW	04H
	DW	06H
	DW	02H
	DW	01H
	DW	01H
	DW	06H
	DW	05H
	DW	04H
	DW	02H
	DW	0aH
	DW	01H
	DW	06H
	DW	09H
	DW	02H
	DW	08H
	DW	01H
	DW	018H
	DW	01H
	DW	02H
	DW	0dH
	DW	07H
	DW	08H
	DW	08H
	DW	02H
	DW	01H
	DW	04H
	DW	01H
	DW	03H
	DW	01H
	DW	03H
	DW	03H
	DW	05H
	DW	02H
	DW	05H
	DW	0aH
	DW	09H
	DW	04H
	DW	09H
	DW	0cH
	DW	02H
	DW	01H
	DW	06H
	DW	01H
	DW	0aH
	DW	01H
	DW	01H
	DW	07H
	DW	07H
	DW	04H
	DW	0aH
	DW	08H
	DW	03H
	DW	01H
	DW	0dH
	DW	04H
	DW	03H
	DW	01H
	DW	06H
	DW	01H
	DW	03H
	DW	05H
	DW	02H
	DW	01H
	DW	02H
	DW	011H
	DW	010H
	DW	05H
	DW	02H
	DW	010H
	DW	06H
	DW	01H
	DW	04H
	DW	02H
	DW	01H
	DW	03H
	DW	03H
	DW	06H
	DW	08H
	DW	05H
	DW	0bH
	DW	0bH
	DW	01H
	DW	03H
	DW	03H
	DW	02H
	DW	04H
	DW	06H
	DW	0aH
	DW	09H
	DW	05H
	DW	07H
	DW	04H
	DW	07H
	DW	04H
	DW	07H
	DW	01H
	DW	01H
	DW	04H
	DW	02H
	DW	01H
	DW	03H
	DW	06H
	DW	08H
	DW	07H
	DW	01H
	DW	06H
	DW	0bH
	DW	05H
	DW	05H
	DW	03H
	DW	018H
	DW	09H
	DW	04H
	DW	02H
	DW	07H
	DW	0dH
	DW	05H
	DW	01H
	DW	08H
	DW	052H
	DW	010H
	DW	03dH
	DW	01H
	DW	01H
	DW	01H
	DW	04H
	DW	02H
	DW	02H
	DW	010H
	DW	0aH
	DW	03H
	DW	08H
	DW	01H
	DW	01H
	DW	06H
	DW	04H
	DW	02H
	DW	01H
	DW	03H
	DW	01H
	DW	01H
	DW	01H
	DW	04H
	DW	03H
	DW	08H
	DW	04H
	DW	02H
	DW	02H
	DW	01H
	DW	01H
	DW	01H
	DW	01H
	DW	01H
	DW	06H
	DW	03H
	DW	05H
	DW	01H
	DW	01H
	DW	04H
	DW	06H
	DW	09H
	DW	02H
	DW	01H
	DW	01H
	DW	01H
	DW	02H
	DW	01H
	DW	07H
	DW	02H
	DW	01H
	DW	06H
	DW	01H
	DW	05H
	DW	04H
	DW	04H
	DW	03H
	DW	01H
	DW	08H
	DW	01H
	DW	03H
	DW	03H
	DW	01H
	DW	03H
	DW	02H
	DW	02H
	DW	02H
	DW	02H
	DW	03H
	DW	01H
	DW	06H
	DW	01H
	DW	02H
	DW	01H
	DW	02H
	DW	01H
	DW	03H
	DW	07H
	DW	01H
	DW	08H
	DW	02H
	DW	01H
	DW	02H
	DW	01H
	DW	05H
	DW	02H
	DW	05H
	DW	03H
	DW	05H
	DW	0aH
	DW	01H
	DW	02H
	DW	01H
	DW	01H
	DW	03H
	DW	02H
	DW	05H
	DW	0bH
	DW	03H
	DW	09H
	DW	03H
	DW	05H
	DW	01H
	DW	01H
	DW	05H
	DW	09H
	DW	01H
	DW	02H
	DW	01H
	DW	05H
	DW	07H
	DW	09H
	DW	09H
	DW	08H
	DW	01H
	DW	03H
	DW	03H
	DW	03H
	DW	06H
	DW	08H
	DW	02H
	DW	03H
	DW	02H
	DW	01H
	DW	01H
	DW	020H
	DW	06H
	DW	01H
	DW	02H
	DW	0fH
	DW	09H
	DW	03H
	DW	07H
	DW	0dH
	DW	01H
	DW	03H
	DW	0aH
	DW	0dH
	DW	02H
	DW	0eH
	DW	01H
	DW	0dH
	DW	0aH
	DW	02H
	DW	01H
	DW	03H
	DW	0aH
	DW	04H
	DW	0fH
	DW	02H
	DW	0fH
	DW	0fH
	DW	0aH
	DW	01H
	DW	03H
	DW	09H
	DW	06H
	DW	09H
	DW	020H
	DW	019H
	DW	01aH
	DW	02fH
	DW	07H
	DW	03H
	DW	02H
	DW	03H
	DW	01H
	DW	06H
	DW	03H
	DW	04H
	DW	03H
	DW	02H
	DW	08H
	DW	05H
	DW	04H
	DW	01H
	DW	09H
	DW	04H
	DW	02H
	DW	02H
	DW	013H
	DW	0aH
	DW	06H
	DW	02H
	DW	03H
	DW	08H
	DW	01H
	DW	02H
	DW	02H
	DW	04H
	DW	02H
	DW	01H
	DW	09H
	DW	04H
	DW	04H
	DW	04H
	DW	06H
	DW	04H
	DW	08H
	DW	09H
	DW	02H
	DW	03H
	DW	01H
	DW	01H
	DW	01H
	DW	01H
	DW	03H
	DW	05H
	DW	05H
	DW	01H
	DW	03H
	DW	08H
	DW	04H
	DW	06H
	DW	02H
	DW	01H
	DW	04H
	DW	0cH
	DW	01H
	DW	05H
	DW	03H
	DW	07H
	DW	0dH
	DW	02H
	DW	05H
	DW	08H
	DW	01H
	DW	06H
	DW	01H
	DW	02H
	DW	05H
	DW	0eH
	DW	06H
	DW	01H
	DW	05H
	DW	02H
	DW	04H
	DW	08H
	DW	0fH
	DW	05H
	DW	01H
	DW	017H
	DW	06H
	DW	03eH
	DW	02H
	DW	0aH
	DW	01H
	DW	01H
	DW	08H
	DW	01H
	DW	02H
	DW	02H
	DW	0aH
	DW	04H
	DW	02H
	DW	02H
	DW	09H
	DW	02H
	DW	01H
	DW	01H
	DW	03H
	DW	02H
	DW	03H
	DW	01H
	DW	05H
	DW	03H
	DW	03H
	DW	02H
	DW	01H
	DW	03H
	DW	08H
	DW	01H
	DW	01H
	DW	01H
	DW	0bH
	DW	03H
	DW	01H
	DW	01H
	DW	04H
	DW	03H
	DW	07H
	DW	01H
	DW	0eH
	DW	01H
	DW	02H
	DW	03H
	DW	0cH
	DW	05H
	DW	02H
	DW	05H
	DW	01H
	DW	06H
	DW	07H
	DW	05H
	DW	07H
	DW	0eH
	DW	0bH
	DW	01H
	DW	03H
	DW	01H
	DW	08H
	DW	09H
	DW	0cH
	DW	02H
	DW	01H
	DW	0bH
	DW	08H
	DW	04H
	DW	04H
	DW	02H
	DW	06H
	DW	0aH
	DW	09H
	DW	0dH
	DW	01H
	DW	01H
	DW	03H
	DW	01H
	DW	05H
	DW	01H
	DW	03H
	DW	02H
	DW	04H
	DW	04H
	DW	01H
	DW	012H
	DW	02H
	DW	03H
	DW	0eH
	DW	0bH
	DW	04H
	DW	01dH
	DW	04H
	DW	02H
	DW	07H
	DW	01H
	DW	03H
	DW	0dH
	DW	09H
	DW	02H
	DW	02H
	DW	05H
	DW	03H
	DW	05H
	DW	014H
	DW	07H
	DW	010H
	DW	08H
	DW	05H
	DW	048H
	DW	022H
	DW	06H
	DW	04H
	DW	016H
	DW	0cH
	DW	0cH
	DW	01cH
	DW	02dH
	DW	024H
	DW	09H
	DW	07H
	DW	027H
	DW	09H
	DW	0bfH
	DW	01H
	DW	01H
	DW	01H
	DW	04H
	DW	0bH
	DW	08H
	DW	04H
	DW	09H
	DW	02H
	DW	03H
	DW	016H
	DW	01H
	DW	01H
	DW	01H
	DW	01H
	DW	04H
	DW	011H
	DW	01H
	DW	07H
	DW	07H
	DW	01H
	DW	0bH
	DW	01fH
	DW	0aH
	DW	02H
	DW	04H
	DW	08H
	DW	02H
	DW	03H
	DW	02H
	DW	01H
	DW	04H
	DW	02H
	DW	010H
	DW	04H
	DW	020H
	DW	02H
	DW	03H
	DW	013H
	DW	0dH
	DW	04H
	DW	09H
	DW	01H
	DW	05H
	DW	02H
	DW	0eH
	DW	08H
	DW	01H
	DW	01H
	DW	03H
	DW	06H
	DW	013H
	DW	06H
	DW	05H
	DW	01H
	DW	010H
	DW	06H
	DW	02H
	DW	0aH
	DW	08H
	DW	05H
	DW	01H
	DW	02H
	DW	03H
	DW	01H
	DW	05H
	DW	05H
	DW	01H
	DW	0bH
	DW	06H
	DW	06H
	DW	01H
	DW	03H
	DW	03H
	DW	02H
	DW	06H
	DW	03H
	DW	08H
	DW	01H
	DW	01H
	DW	04H
	DW	0aH
	DW	07H
	DW	05H
	DW	07H
	DW	07H
	DW	05H
	DW	08H
	DW	09H
	DW	02H
	DW	01H
	DW	03H
	DW	04H
	DW	01H
	DW	01H
	DW	03H
	DW	01H
	DW	03H
	DW	03H
	DW	02H
	DW	06H
	DW	010H
	DW	01H
	DW	04H
	DW	06H
	DW	03H
	DW	01H
	DW	0aH
	DW	06H
	DW	01H
	DW	03H
	DW	0fH
	DW	02H
	DW	09H
	DW	02H
	DW	0aH
	DW	019H
	DW	0dH
	DW	09H
	DW	010H
	DW	06H
	DW	02H
	DW	02H
	DW	0aH
	DW	0bH
	DW	04H
	DW	03H
	DW	09H
	DW	01H
	DW	02H
	DW	06H
	DW	06H
	DW	05H
	DW	04H
	DW	01eH
	DW	028H
	DW	01H
	DW	0aH
	DW	07H
	DW	0cH
	DW	0eH
	DW	021H
	DW	06H
	DW	03H
	DW	06H
	DW	07H
	DW	03H
	DW	01H
	DW	03H
	DW	01H
	DW	0bH
	DW	0eH
	DW	04H
	DW	09H
	DW	05H
	DW	0cH
	DW	0bH
	DW	031H
	DW	012H
	DW	033H
	DW	01fH
	DW	08cH
	DW	01fH
	DW	02H
	DW	02H
	DW	01H
	DW	05H
	DW	01H
	DW	08H
	DW	01H
	DW	0aH
	DW	01H
	DW	04H
	DW	04H
	DW	03H
	DW	018H
	DW	01H
	DW	0aH
	DW	01H
	DW	03H
	DW	06H
	DW	06H
	DW	010H
	DW	03H
	DW	04H
	DW	05H
	DW	02H
	DW	01H
	DW	04H
	DW	02H
	DW	039H
	DW	0aH
	DW	06H
	DW	016H
	DW	02H
	DW	016H
	DW	03H
	DW	07H
	DW	016H
	DW	06H
	DW	0aH
	DW	0bH
	DW	024H
	DW	012H
	DW	010H
	DW	021H
	DW	024H
	DW	02H
	DW	05H
	DW	05H
	DW	01H
	DW	01H
	DW	01H
	DW	04H
	DW	0aH
	DW	01H
	DW	04H
	DW	0dH
	DW	02H
	DW	07H
	DW	05H
	DW	02H
	DW	09H
	DW	03H
	DW	04H
	DW	01H
	DW	07H
	DW	02bH
	DW	03H
	DW	07H
	DW	03H
	DW	09H
	DW	0eH
	DW	07H
	DW	09H
	DW	01H
	DW	0bH
	DW	01H
	DW	01H
	DW	03H
	DW	07H
	DW	04H
	DW	012H
	DW	0dH
	DW	01H
	DW	0eH
	DW	01H
	DW	03H
	DW	06H
	DW	0aH
	DW	049H
	DW	02H
	DW	02H
	DW	01eH
	DW	06H
	DW	01H
	DW	0bH
	DW	012H
	DW	013H
	DW	0dH
	DW	016H
	DW	03H
	DW	02eH
	DW	02aH
	DW	025H
	DW	059H
	DW	07H
	DW	03H
	DW	010H
	DW	022H
	DW	02H
	DW	02H
	DW	03H
	DW	09H
	DW	01H
	DW	07H
	DW	01H
	DW	01H
	DW	01H
	DW	02H
	DW	02H
	DW	04H
	DW	0aH
	DW	07H
	DW	03H
	DW	0aH
	DW	03H
	DW	09H
	DW	05H
	DW	01cH
	DW	09H
	DW	02H
	DW	06H
	DW	0dH
	DW	07H
	DW	03H
	DW	01H
	DW	03H
	DW	0aH
	DW	02H
	DW	07H
	DW	02H
	DW	0bH
	DW	03H
	DW	06H
	DW	015H
	DW	036H
	DW	055H
	DW	02H
	DW	01H
	DW	04H
	DW	02H
	DW	02H
	DW	01H
	DW	027H
	DW	03H
	DW	015H
	DW	02H
	DW	02H
	DW	05H
	DW	01H
	DW	01H
	DW	01H
	DW	04H
	DW	01H
	DW	01H
	DW	03H
	DW	04H
	DW	0fH
	DW	01H
	DW	03H
	DW	02H
	DW	04H
	DW	04H
	DW	02H
	DW	03H
	DW	08H
	DW	02H
	DW	014H
	DW	01H
	DW	08H
	DW	07H
	DW	0dH
	DW	04H
	DW	01H
	DW	01aH
	DW	06H
	DW	02H
	DW	09H
	DW	022H
	DW	04H
	DW	015H
	DW	034H
	DW	0aH
	DW	04H
	DW	04H
	DW	01H
	DW	05H
	DW	0cH
	DW	02H
	DW	0bH
	DW	01H
	DW	07H
	DW	02H
	DW	01eH
	DW	0cH
	DW	02cH
	DW	02H
	DW	01eH
	DW	01H
	DW	01H
	DW	03H
	DW	06H
	DW	010H
	DW	09H
	DW	011H
	DW	027H
	DW	052H
	DW	02H
	DW	02H
	DW	018H
	DW	07H
	DW	01H
	DW	07H
	DW	03H
	DW	010H
	DW	09H
	DW	0eH
	DW	02cH
	DW	02H
	DW	01H
	DW	02H
	DW	01H
	DW	02H
	DW	03H
	DW	05H
	DW	02H
	DW	04H
	DW	01H
	DW	06H
	DW	07H
	DW	05H
	DW	03H
	DW	02H
	DW	06H
	DW	01H
	DW	0bH
	DW	05H
	DW	0bH
	DW	02H
	DW	01H
	DW	012H
	DW	013H
	DW	08H
	DW	01H
	DW	03H
	DW	018H
	DW	01dH
	DW	02H
	DW	01H
	DW	03H
	DW	05H
	DW	02H
	DW	02H
	DW	01H
	DW	0dH
	DW	06H
	DW	05H
	DW	01H
	DW	02eH
	DW	0bH
	DW	03H
	DW	05H
	DW	01H
	DW	01H
	DW	05H
	DW	08H
	DW	02H
	DW	0aH
	DW	06H
	DW	0cH
	DW	06H
	DW	03H
	DW	07H
	DW	0bH
	DW	02H
	DW	04H
	DW	010H
	DW	0dH
	DW	02H
	DW	05H
	DW	01H
	DW	01H
	DW	02H
	DW	02H
	DW	05H
	DW	02H
	DW	01cH
	DW	05H
	DW	02H
	DW	017H
	DW	0aH
	DW	08H
	DW	04H
	DW	04H
	DW	016H
	DW	027H
	DW	05fH
	DW	026H
	DW	08H
	DW	0eH
	DW	09H
	DW	05H
	DW	01H
	DW	0dH
	DW	05H
	DW	04H
	DW	03H
	DW	0dH
	DW	0cH
	DW	0bH
	DW	01H
	DW	09H
	DW	01H
	DW	01bH
	DW	025H
	DW	02H
	DW	05H
	DW	04H
	DW	04H
	DW	03fH
	DW	0d3H
	DW	05fH
	DW	02H
	DW	02H
	DW	02H
	DW	01H
	DW	03H
	DW	05H
	DW	02H
	DW	01H
	DW	01H
	DW	02H
	DW	02H
	DW	01H
	DW	01H
	DW	01H
	DW	03H
	DW	02H
	DW	04H
	DW	01H
	DW	02H
	DW	01H
	DW	01H
	DW	05H
	DW	02H
	DW	02H
	DW	01H
	DW	01H
	DW	02H
	DW	03H
	DW	01H
	DW	03H
	DW	01H
	DW	01H
	DW	01H
	DW	03H
	DW	01H
	DW	04H
	DW	02H
	DW	01H
	DW	03H
	DW	06H
	DW	01H
	DW	01H
	DW	03H
	DW	07H
	DW	0fH
	DW	05H
	DW	03H
	DW	02H
	DW	05H
	DW	03H
	DW	09H
	DW	0bH
	DW	04H
	DW	02H
	DW	016H
	DW	01H
	DW	06H
	DW	03H
	DW	08H
	DW	07H
	DW	01H
	DW	04H
	DW	01cH
	DW	04H
	DW	010H
	DW	03H
	DW	03H
	DW	019H
	DW	04H
	DW	04H
	DW	01bH
	DW	01bH
	DW	01H
	DW	04H
	DW	01H
	DW	02H
	DW	02H
	DW	07H
	DW	01H
	DW	03H
	DW	05H
	DW	02H
	DW	01cH
	DW	08H
	DW	02H
	DW	0eH
	DW	01H
	DW	08H
	DW	06H
	DW	010H
	DW	019H
	DW	03H
	DW	03H
	DW	03H
	DW	0eH
	DW	03H
	DW	03H
	DW	01H
	DW	01H
	DW	02H
	DW	01H
	DW	04H
	DW	06H
	DW	03H
	DW	08H
	DW	04H
	DW	01H
	DW	01H
	DW	01H
	DW	02H
	DW	03H
	DW	06H
	DW	0aH
	DW	06H
	DW	02H
	DW	03H
	DW	012H
	DW	03H
	DW	02H
	DW	05H
	DW	05H
	DW	04H
	DW	03H
	DW	01H
	DW	05H
	DW	02H
	DW	05H
	DW	04H
	DW	017H
	DW	07H
	DW	06H
	DW	0cH
	DW	06H
	DW	04H
	DW	011H
	DW	0bH
	DW	09H
	DW	05H
	DW	01H
	DW	01H
	DW	0aH
	DW	05H
	DW	0cH
	DW	01H
	DW	01H
	DW	0bH
	DW	01aH
	DW	021H
	DW	07H
	DW	03H
	DW	06H
	DW	01H
	DW	011H
	DW	07H
	DW	01H
	DW	05H
	DW	0cH
	DW	01H
	DW	0bH
	DW	02H
	DW	04H
	DW	01H
	DW	08H
	DW	0eH
	DW	011H
	DW	017H
	DW	01H
	DW	02H
	DW	01H
	DW	07H
	DW	08H
	DW	010H
	DW	0bH
	DW	09H
	DW	06H
	DW	05H
	DW	02H
	DW	06H
	DW	04H
	DW	010H
	DW	02H
	DW	08H
	DW	0eH
	DW	01H
	DW	0bH
	DW	08H
	DW	09H
	DW	01H
	DW	01H
	DW	01H
	DW	09H
	DW	019H
	DW	04H
	DW	0bH
	DW	013H
	DW	07H
	DW	02H
	DW	0fH
	DW	02H
	DW	0cH
	DW	08H
	DW	034H
	DW	07H
	DW	05H
	DW	013H
	DW	02H
	DW	010H
	DW	04H
	DW	024H
	DW	08H
	DW	01H
	DW	010H
	DW	08H
	DW	018H
	DW	01aH
	DW	04H
	DW	06H
	DW	02H
	DW	09H
	DW	05H
	DW	04H
	DW	024H
	DW	03H
	DW	01cH
	DW	0cH
	DW	019H
	DW	0fH
	DW	025H
	DW	01bH
	DW	011H
	DW	0cH
	DW	03bH
	DW	026H
	DW	05H
	DW	020H
	DW	07fH
	DW	01H
	DW	02H
	DW	09H
	DW	011H
	DW	0eH
	DW	04H
	DW	01H
	DW	02H
	DW	01H
	DW	01H
	DW	08H
	DW	0bH
	DW	032H
	DW	04H
	DW	0eH
	DW	02H
	DW	013H
	DW	010H
	DW	04H
	DW	011H
	DW	05H
	DW	04H
	DW	05H
	DW	01aH
	DW	0cH
	DW	02dH
	DW	02H
	DW	017H
	DW	02dH
	DW	068H
	DW	01eH
	DW	0cH
	DW	08H
	DW	03H
	DW	0aH
	DW	02H
	DW	02H
	DW	03H
	DW	03H
	DW	01H
	DW	04H
	DW	014H
	DW	07H
	DW	02H
	DW	09H
	DW	06H
	DW	0fH
	DW	02H
	DW	014H
	DW	01H
	DW	03H
	DW	010H
	DW	04H
	DW	0bH
	DW	0fH
	DW	06H
	DW	086H
	DW	02H
	DW	05H
	DW	03bH
	DW	01H
	DW	02H
	DW	02H
	DW	02H
	DW	01H
	DW	09H
	DW	011H
	DW	03H
	DW	01aH
	DW	089H
	DW	0aH
	DW	0d3H
	DW	03bH
	DW	01H
	DW	02H
	DW	04H
	DW	01H
	DW	04H
	DW	01H
	DW	01H
	DW	01H
	DW	02H
	DW	06H
	DW	02H
	DW	03H
	DW	01H
	DW	01H
	DW	02H
	DW	03H
	DW	02H
	DW	03H
	DW	01H
	DW	03H
	DW	04H
	DW	04H
	DW	02H
	DW	03H
	DW	03H
	DW	01H
	DW	04H
	DW	03H
	DW	01H
	DW	07H
	DW	02H
	DW	02H
	DW	03H
	DW	01H
	DW	02H
	DW	01H
	DW	03H
	DW	03H
	DW	03H
	DW	02H
	DW	02H
	DW	03H
	DW	02H
	DW	01H
	DW	03H
	DW	0eH
	DW	06H
	DW	01H
	DW	03H
	DW	02H
	DW	09H
	DW	06H
	DW	0fH
	DW	01bH
	DW	09H
	DW	022H
	DW	091H
	DW	01H
	DW	01H
	DW	02H
	DW	01H
	DW	01H
	DW	01H
	DW	01H
	DW	02H
	DW	01H
	DW	01H
	DW	01H
	DW	01H
	DW	02H
	DW	02H
	DW	02H
	DW	03H
	DW	01H
	DW	02H
	DW	01H
	DW	01H
	DW	01H
	DW	02H
	DW	03H
	DW	05H
	DW	08H
	DW	03H
	DW	05H
	DW	02H
	DW	04H
	DW	01H
	DW	03H
	DW	02H
	DW	02H
	DW	02H
	DW	0cH
	DW	04H
	DW	01H
	DW	01H
	DW	01H
	DW	0aH
	DW	04H
	DW	05H
	DW	01H
	DW	014H
	DW	04H
	DW	010H
	DW	01H
	DW	0fH
	DW	09H
	DW	05H
	DW	0cH
	DW	02H
	DW	09H
	DW	02H
	DW	05H
	DW	04H
	DW	02H
	DW	01aH
	DW	013H
	DW	07H
	DW	01H
	DW	01aH
	DW	04H
	DW	01eH
	DW	0cH
	DW	0fH
	DW	02aH
	DW	01H
	DW	06H
	DW	08H
	DW	0acH
	DW	01H
	DW	01H
	DW	04H
	DW	02H
	DW	01H
	DW	01H
	DW	0bH
	DW	02H
	DW	02H
	DW	04H
	DW	02H
	DW	01H
	DW	02H
	DW	01H
	DW	0aH
	DW	08H
	DW	01H
	DW	02H
	DW	01H
	DW	04H
	DW	05H
	DW	01H
	DW	02H
	DW	05H
	DW	01H
	DW	08H
	DW	04H
	DW	01H
	DW	03H
	DW	04H
	DW	02H
	DW	01H
	DW	06H
	DW	02H
	DW	01H
	DW	03H
	DW	04H
	DW	01H
	DW	02H
	DW	01H
	DW	01H
	DW	01H
	DW	01H
	DW	0cH
	DW	05H
	DW	07H
	DW	02H
	DW	04H
	DW	03H
	DW	01H
	DW	01H
	DW	01H
	DW	03H
	DW	03H
	DW	06H
	DW	01H
	DW	02H
	DW	02H
	DW	03H
	DW	03H
	DW	03H
	DW	02H
	DW	01H
	DW	02H
	DW	0cH
	DW	0eH
	DW	0bH
	DW	06H
	DW	06H
	DW	04H
	DW	0cH
	DW	02H
	DW	08H
	DW	01H
	DW	07H
	DW	0aH
	DW	01H
	DW	023H
	DW	07H
	DW	04H
	DW	0dH
	DW	0fH
	DW	04H
	DW	03H
	DW	017H
	DW	015H
	DW	01cH
	DW	034H
	DW	05H
	DW	01aH
	DW	05H
	DW	06H
	DW	01H
	DW	07H
	DW	0aH
	DW	02H
	DW	07H
	DW	035H
	DW	03H
	DW	02H
	DW	01H
	DW	01H
	DW	01H
	DW	02H
	DW	0a3H
	DW	0214H
	DW	01H
	DW	0aH
	DW	0bH
	DW	01H
	DW	03H
	DW	03H
	DW	04H
	DW	08H
	DW	02H
	DW	08H
	DW	06H
	DW	02H
	DW	02H
	DW	017H
	DW	016H
	DW	04H
	DW	02H
	DW	02H
	DW	04H
	DW	02H
	DW	01H
	DW	03H
	DW	01H
	DW	03H
	DW	03H
	DW	05H
	DW	09H
	DW	08H
	DW	02H
	DW	01H
	DW	02H
	DW	08H
	DW	01H
	DW	0aH
	DW	02H
	DW	0cH
	DW	015H
	DW	014H
	DW	0fH
	DW	069H
	DW	02H
	DW	03H
	DW	01H
	DW	01H
	DW	03H
	DW	02H
	DW	03H
	DW	01H
	DW	01H
	DW	02H
	DW	05H
	DW	01H
	DW	04H
	DW	0fH
	DW	0bH
	DW	013H
	DW	01H
	DW	01H
	DW	01H
	DW	01H
	DW	05H
	DW	04H
	DW	05H
	DW	01H
	DW	01H
	DW	02H
	DW	05H
	DW	03H
	DW	05H
	DW	0cH
	DW	01H
	DW	02H
	DW	05H
	DW	01H
	DW	0bH
	DW	01H
	DW	01H
	DW	0fH
	DW	09H
	DW	01H
	DW	04H
	DW	05H
	DW	03H
	DW	01aH
	DW	08H
	DW	02H
	DW	01H
	DW	03H
	DW	01H
	DW	01H
	DW	0fH
	DW	013H
	DW	02H
	DW	0cH
	DW	01H
	DW	02H
	DW	05H
	DW	02H
	DW	07H
	DW	02H
	DW	013H
	DW	02H
	DW	014H
	DW	06H
	DW	01aH
	DW	07H
	DW	05H
	DW	02H
	DW	02H
	DW	07H
	DW	022H
	DW	015H
	DW	0dH
	DW	046H
	DW	02H
	DW	080H
	DW	01H
	DW	01H
	DW	02H
	DW	01H
	DW	01H
	DW	02H
	DW	01H
	DW	01H
	DW	03H
	DW	02H
	DW	02H
	DW	02H
	DW	0fH
	DW	01H
	DW	04H
	DW	01H
	DW	03H
	DW	04H
	DW	02aH
	DW	0aH
	DW	06H
	DW	01H
	DW	031H
	DW	055H
	DW	08H
	DW	01H
	DW	02H
	DW	01H
	DW	01H
	DW	04H
	DW	04H
	DW	02H
	DW	03H
	DW	06H
	DW	01H
	DW	05H
	DW	07H
	DW	04H
	DW	03H
	DW	0d3H
	DW	04H
	DW	01H
	DW	02H
	DW	01H
	DW	02H
	DW	05H
	DW	01H
	DW	02H
	DW	04H
	DW	02H
	DW	02H
	DW	06H
	DW	05H
	DW	06H
	DW	0aH
	DW	03H
	DW	04H
	DW	030H
	DW	064H
	DW	06H
	DW	02H
	DW	010H
	DW	0128H
	DW	05H
	DW	01bH
	DW	0183H
	DW	02H
	DW	02H
	DW	03H
	DW	07H
	DW	010H
	DW	08H
	DW	05H
	DW	026H
	DW	0fH
	DW	027H
	DW	015H
	DW	09H
	DW	0aH
	DW	03H
	DW	07H
	DW	03bH
	DW	0dH
	DW	01bH
	DW	015H
	DW	02fH
	DW	05H
	DW	015H
	DW	06H
CONST	ENDS
;	COMDAT ?ranges@?1??GetGlyphRangesGreek@ImFontAtlas@@QEAAPEBGXZ@4QBGB
CONST	SEGMENT
?ranges@?1??GetGlyphRangesGreek@ImFontAtlas@@QEAAPEBGXZ@4QBGB DW 020H ; `ImFontAtlas::GetGlyphRangesGreek'::`2'::ranges
	DW	0ffH
	DW	0370H
	DW	03ffH
	DW	00H
CONST	ENDS
;	COMDAT ?base_ranges@?1??GetGlyphRangesChineseSimplifiedCommon@ImFontAtlas@@QEAAPEBGXZ@4PAGA
_DATA	SEGMENT
?base_ranges@?1??GetGlyphRangesChineseSimplifiedCommon@ImFontAtlas@@QEAAPEBGXZ@4PAGA DW 020H ; `ImFontAtlas::GetGlyphRangesChineseSimplifiedCommon'::`2'::base_ranges
	DW	0ffH
	DW	02000H
	DW	0206fH
	DW	03000H
	DW	030ffH
	DW	031f0H
	DW	031ffH
	DW	0ff00H
	DW	0ffefH
	DW	0fffdH
	DW	0fffdH
_DATA	ENDS
;	COMDAT ?ranges@?1??GetGlyphRangesKorean@ImFontAtlas@@QEAAPEBGXZ@4QBGB
CONST	SEGMENT
?ranges@?1??GetGlyphRangesKorean@ImFontAtlas@@QEAAPEBGXZ@4QBGB DW 020H ; `ImFontAtlas::GetGlyphRangesKorean'::`2'::ranges
	DW	0ffH
	DW	03131H
	DW	03163H
	DW	0ac00H
	DW	0d7a3H
	DW	0fffdH
	DW	0fffdH
	DW	00H
CONST	ENDS
;	COMDAT ?ranges@?1??GetGlyphRangesDefault@ImFontAtlas@@QEAAPEBGXZ@4QBGB
CONST	SEGMENT
?ranges@?1??GetGlyphRangesDefault@ImFontAtlas@@QEAAPEBGXZ@4QBGB DW 020H ; `ImFontAtlas::GetGlyphRangesDefault'::`2'::ranges
	DW	0ffH
	DW	00H
CONST	ENDS
;	COMDAT ?ranges@?1??GetGlyphRangesThai@ImFontAtlas@@QEAAPEBGXZ@4QBGB
CONST	SEGMENT
?ranges@?1??GetGlyphRangesThai@ImFontAtlas@@QEAAPEBGXZ@4QBGB DW 020H ; `ImFontAtlas::GetGlyphRangesThai'::`2'::ranges
	DW	0ffH
	DW	02010H
	DW	0205eH
	DW	0e00H
	DW	0e7fH
	DW	00H
CONST	ENDS
;	COMDAT ?ranges@?1??GetGlyphRangesVietnamese@ImFontAtlas@@QEAAPEBGXZ@4QBGB
CONST	SEGMENT
?ranges@?1??GetGlyphRangesVietnamese@ImFontAtlas@@QEAAPEBGXZ@4QBGB DW 020H ; `ImFontAtlas::GetGlyphRangesVietnamese'::`2'::ranges
	DW	0ffH
	DW	0102H
	DW	0103H
	DW	0110H
	DW	0111H
	DW	0128H
	DW	0129H
	DW	0168H
	DW	0169H
	DW	01a0H
	DW	01a1H
	DW	01afH
	DW	01b0H
	DW	01ea0H
	DW	01ef9H
	DW	00H
CONST	ENDS
;	COMDAT ?accumulative_offsets_from_0x4E00@?1??GetGlyphRangesJapanese@ImFontAtlas@@QEAAPEBGXZ@4QBFB
CONST	SEGMENT
?accumulative_offsets_from_0x4E00@?1??GetGlyphRangesJapanese@ImFontAtlas@@QEAAPEBGXZ@4QBFB DW 00H ; `ImFontAtlas::GetGlyphRangesJapanese'::`2'::accumulative_offsets_from_0x4E00
	DW	01H
	DW	02H
	DW	04H
	DW	01H
	DW	01H
	DW	01H
	DW	01H
	DW	02H
	DW	01H
	DW	03H
	DW	03H
	DW	02H
	DW	02H
	DW	01H
	DW	05H
	DW	03H
	DW	05H
	DW	07H
	DW	05H
	DW	06H
	DW	01H
	DW	02H
	DW	01H
	DW	07H
	DW	02H
	DW	06H
	DW	03H
	DW	01H
	DW	08H
	DW	01H
	DW	01H
	DW	04H
	DW	01H
	DW	01H
	DW	012H
	DW	02H
	DW	0bH
	DW	02H
	DW	06H
	DW	02H
	DW	01H
	DW	02H
	DW	01H
	DW	05H
	DW	01H
	DW	02H
	DW	01H
	DW	03H
	DW	01H
	DW	02H
	DW	01H
	DW	02H
	DW	03H
	DW	03H
	DW	01H
	DW	01H
	DW	02H
	DW	03H
	DW	01H
	DW	01H
	DW	01H
	DW	0cH
	DW	07H
	DW	09H
	DW	01H
	DW	04H
	DW	05H
	DW	01H
	DW	01H
	DW	02H
	DW	01H
	DW	0aH
	DW	01H
	DW	01H
	DW	09H
	DW	02H
	DW	02H
	DW	04H
	DW	05H
	DW	06H
	DW	09H
	DW	03H
	DW	01H
	DW	01H
	DW	01H
	DW	01H
	DW	09H
	DW	03H
	DW	012H
	DW	05H
	DW	02H
	DW	02H
	DW	02H
	DW	02H
	DW	01H
	DW	06H
	DW	03H
	DW	07H
	DW	01H
	DW	01H
	DW	01H
	DW	01H
	DW	02H
	DW	02H
	DW	04H
	DW	02H
	DW	01H
	DW	017H
	DW	02H
	DW	0aH
	DW	04H
	DW	03H
	DW	05H
	DW	02H
	DW	04H
	DW	0aH
	DW	02H
	DW	04H
	DW	0dH
	DW	01H
	DW	06H
	DW	01H
	DW	09H
	DW	03H
	DW	01H
	DW	01H
	DW	06H
	DW	06H
	DW	07H
	DW	06H
	DW	03H
	DW	01H
	DW	02H
	DW	0bH
	DW	03H
	DW	02H
	DW	02H
	DW	03H
	DW	02H
	DW	0fH
	DW	02H
	DW	02H
	DW	05H
	DW	04H
	DW	03H
	DW	06H
	DW	04H
	DW	01H
	DW	02H
	DW	05H
	DW	02H
	DW	0cH
	DW	010H
	DW	06H
	DW	0dH
	DW	09H
	DW	0dH
	DW	02H
	DW	01H
	DW	01H
	DW	07H
	DW	010H
	DW	04H
	DW	07H
	DW	01H
	DW	013H
	DW	01H
	DW	05H
	DW	01H
	DW	02H
	DW	02H
	DW	07H
	DW	07H
	DW	08H
	DW	02H
	DW	06H
	DW	05H
	DW	04H
	DW	09H
	DW	012H
	DW	07H
	DW	04H
	DW	05H
	DW	09H
	DW	0dH
	DW	0bH
	DW	08H
	DW	0fH
	DW	02H
	DW	01H
	DW	01H
	DW	01H
	DW	02H
	DW	01H
	DW	02H
	DW	02H
	DW	01H
	DW	02H
	DW	02H
	DW	08H
	DW	02H
	DW	09H
	DW	03H
	DW	03H
	DW	01H
	DW	01H
	DW	04H
	DW	04H
	DW	01H
	DW	01H
	DW	01H
	DW	04H
	DW	09H
	DW	01H
	DW	04H
	DW	03H
	DW	05H
	DW	05H
	DW	02H
	DW	07H
	DW	05H
	DW	03H
	DW	04H
	DW	08H
	DW	02H
	DW	01H
	DW	0dH
	DW	02H
	DW	03H
	DW	03H
	DW	01H
	DW	0eH
	DW	01H
	DW	01H
	DW	04H
	DW	05H
	DW	01H
	DW	03H
	DW	06H
	DW	01H
	DW	05H
	DW	02H
	DW	01H
	DW	01H
	DW	03H
	DW	03H
	DW	03H
	DW	03H
	DW	01H
	DW	01H
	DW	02H
	DW	07H
	DW	06H
	DW	06H
	DW	07H
	DW	01H
	DW	04H
	DW	07H
	DW	06H
	DW	01H
	DW	01H
	DW	01H
	DW	01H
	DW	01H
	DW	0cH
	DW	03H
	DW	03H
	DW	09H
	DW	05H
	DW	02H
	DW	06H
	DW	01H
	DW	05H
	DW	06H
	DW	01H
	DW	02H
	DW	03H
	DW	012H
	DW	02H
	DW	04H
	DW	0eH
	DW	04H
	DW	01H
	DW	03H
	DW	06H
	DW	01H
	DW	01H
	DW	06H
	DW	03H
	DW	05H
	DW	05H
	DW	03H
	DW	02H
	DW	02H
	DW	02H
	DW	02H
	DW	0cH
	DW	03H
	DW	01H
	DW	04H
	DW	02H
	DW	03H
	DW	02H
	DW	03H
	DW	0bH
	DW	01H
	DW	07H
	DW	04H
	DW	01H
	DW	02H
	DW	01H
	DW	03H
	DW	011H
	DW	01H
	DW	09H
	DW	01H
	DW	018H
	DW	01H
	DW	01H
	DW	04H
	DW	02H
	DW	02H
	DW	04H
	DW	01H
	DW	02H
	DW	07H
	DW	01H
	DW	01H
	DW	01H
	DW	03H
	DW	01H
	DW	02H
	DW	02H
	DW	04H
	DW	0fH
	DW	01H
	DW	01H
	DW	02H
	DW	01H
	DW	01H
	DW	02H
	DW	01H
	DW	05H
	DW	02H
	DW	05H
	DW	014H
	DW	02H
	DW	05H
	DW	09H
	DW	01H
	DW	0aH
	DW	08H
	DW	07H
	DW	06H
	DW	01H
	DW	01H
	DW	01H
	DW	01H
	DW	01H
	DW	01H
	DW	06H
	DW	02H
	DW	01H
	DW	02H
	DW	08H
	DW	01H
	DW	01H
	DW	01H
	DW	01H
	DW	05H
	DW	01H
	DW	01H
	DW	03H
	DW	01H
	DW	01H
	DW	01H
	DW	01H
	DW	03H
	DW	01H
	DW	01H
	DW	0cH
	DW	04H
	DW	01H
	DW	03H
	DW	01H
	DW	01H
	DW	01H
	DW	01H
	DW	01H
	DW	0aH
	DW	03H
	DW	01H
	DW	07H
	DW	05H
	DW	0dH
	DW	01H
	DW	02H
	DW	03H
	DW	04H
	DW	06H
	DW	01H
	DW	01H
	DW	01eH
	DW	02H
	DW	09H
	DW	09H
	DW	01H
	DW	0fH
	DW	026H
	DW	0bH
	DW	03H
	DW	01H
	DW	08H
	DW	018H
	DW	07H
	DW	01H
	DW	09H
	DW	08H
	DW	0aH
	DW	02H
	DW	01H
	DW	09H
	DW	01fH
	DW	02H
	DW	0dH
	DW	06H
	DW	02H
	DW	09H
	DW	04H
	DW	031H
	DW	05H
	DW	02H
	DW	0fH
	DW	02H
	DW	01H
	DW	0aH
	DW	02H
	DW	01H
	DW	01H
	DW	01H
	DW	02H
	DW	02H
	DW	06H
	DW	0fH
	DW	01eH
	DW	023H
	DW	03H
	DW	0eH
	DW	012H
	DW	08H
	DW	01H
	DW	010H
	DW	0aH
	DW	01cH
	DW	0cH
	DW	013H
	DW	02dH
	DW	026H
	DW	01H
	DW	03H
	DW	02H
	DW	03H
	DW	0dH
	DW	02H
	DW	01H
	DW	07H
	DW	03H
	DW	06H
	DW	05H
	DW	03H
	DW	04H
	DW	03H
	DW	01H
	DW	05H
	DW	07H
	DW	08H
	DW	01H
	DW	05H
	DW	03H
	DW	012H
	DW	05H
	DW	03H
	DW	06H
	DW	01H
	DW	015H
	DW	04H
	DW	018H
	DW	09H
	DW	018H
	DW	028H
	DW	03H
	DW	0eH
	DW	03H
	DW	015H
	DW	03H
	DW	02H
	DW	01H
	DW	02H
	DW	04H
	DW	02H
	DW	03H
	DW	01H
	DW	0fH
	DW	0fH
	DW	06H
	DW	05H
	DW	01H
	DW	01H
	DW	03H
	DW	01H
	DW	05H
	DW	06H
	DW	01H
	DW	09H
	DW	07H
	DW	03H
	DW	03H
	DW	02H
	DW	01H
	DW	04H
	DW	03H
	DW	08H
	DW	015H
	DW	05H
	DW	010H
	DW	04H
	DW	05H
	DW	02H
	DW	0aH
	DW	0bH
	DW	0bH
	DW	03H
	DW	06H
	DW	03H
	DW	02H
	DW	09H
	DW	03H
	DW	06H
	DW	0dH
	DW	01H
	DW	02H
	DW	01H
	DW	01H
	DW	01H
	DW	01H
	DW	0bH
	DW	0cH
	DW	06H
	DW	06H
	DW	01H
	DW	04H
	DW	02H
	DW	06H
	DW	05H
	DW	02H
	DW	01H
	DW	01H
	DW	03H
	DW	03H
	DW	06H
	DW	0dH
	DW	03H
	DW	01H
	DW	01H
	DW	05H
	DW	01H
	DW	02H
	DW	03H
	DW	03H
	DW	0eH
	DW	02H
	DW	01H
	DW	02H
	DW	02H
	DW	02H
	DW	05H
	DW	01H
	DW	09H
	DW	05H
	DW	01H
	DW	01H
	DW	06H
	DW	0cH
	DW	03H
	DW	0cH
	DW	03H
	DW	04H
	DW	0dH
	DW	02H
	DW	0eH
	DW	02H
	DW	08H
	DW	01H
	DW	011H
	DW	05H
	DW	01H
	DW	010H
	DW	04H
	DW	02H
	DW	02H
	DW	015H
	DW	08H
	DW	09H
	DW	06H
	DW	017H
	DW	014H
	DW	0cH
	DW	019H
	DW	013H
	DW	09H
	DW	026H
	DW	08H
	DW	03H
	DW	015H
	DW	028H
	DW	019H
	DW	021H
	DW	0dH
	DW	04H
	DW	03H
	DW	01H
	DW	04H
	DW	01H
	DW	02H
	DW	04H
	DW	01H
	DW	02H
	DW	05H
	DW	01aH
	DW	02H
	DW	01H
	DW	01H
	DW	02H
	DW	01H
	DW	03H
	DW	06H
	DW	02H
	DW	01H
	DW	01H
	DW	01H
	DW	01H
	DW	01H
	DW	01H
	DW	02H
	DW	03H
	DW	01H
	DW	01H
	DW	01H
	DW	09H
	DW	02H
	DW	03H
	DW	01H
	DW	01H
	DW	01H
	DW	03H
	DW	06H
	DW	03H
	DW	02H
	DW	01H
	DW	01H
	DW	06H
	DW	06H
	DW	01H
	DW	08H
	DW	02H
	DW	02H
	DW	02H
	DW	01H
	DW	04H
	DW	01H
	DW	02H
	DW	03H
	DW	02H
	DW	07H
	DW	03H
	DW	02H
	DW	04H
	DW	01H
	DW	02H
	DW	01H
	DW	02H
	DW	02H
	DW	01H
	DW	01H
	DW	01H
	DW	01H
	DW	01H
	DW	03H
	DW	01H
	DW	02H
	DW	05H
	DW	04H
	DW	0aH
	DW	09H
	DW	04H
	DW	09H
	DW	01H
	DW	01H
	DW	01H
	DW	01H
	DW	01H
	DW	01H
	DW	05H
	DW	03H
	DW	02H
	DW	01H
	DW	06H
	DW	04H
	DW	09H
	DW	06H
	DW	01H
	DW	0aH
	DW	02H
	DW	01fH
	DW	011H
	DW	08H
	DW	03H
	DW	07H
	DW	05H
	DW	028H
	DW	01H
	DW	07H
	DW	07H
	DW	01H
	DW	06H
	DW	05H
	DW	02H
	DW	0aH
	DW	07H
	DW	08H
	DW	04H
	DW	0fH
	DW	027H
	DW	019H
	DW	06H
	DW	01cH
	DW	02fH
	DW	012H
	DW	0aH
	DW	07H
	DW	01H
	DW	03H
	DW	01H
	DW	01H
	DW	02H
	DW	01H
	DW	01H
	DW	01H
	DW	03H
	DW	03H
	DW	03H
	DW	01H
	DW	01H
	DW	01H
	DW	03H
	DW	04H
	DW	02H
	DW	01H
	DW	04H
	DW	01H
	DW	03H
	DW	06H
	DW	0aH
	DW	07H
	DW	08H
	DW	06H
	DW	02H
	DW	02H
	DW	01H
	DW	03H
	DW	03H
	DW	02H
	DW	05H
	DW	08H
	DW	07H
	DW	09H
	DW	0cH
	DW	02H
	DW	0fH
	DW	01H
	DW	01H
	DW	04H
	DW	01H
	DW	02H
	DW	01H
	DW	01H
	DW	01H
	DW	03H
	DW	02H
	DW	01H
	DW	03H
	DW	03H
	DW	05H
	DW	06H
	DW	02H
	DW	03H
	DW	02H
	DW	0aH
	DW	01H
	DW	04H
	DW	02H
	DW	08H
	DW	01H
	DW	01H
	DW	01H
	DW	0bH
	DW	06H
	DW	01H
	DW	015H
	DW	04H
	DW	010H
	DW	03H
	DW	01H
	DW	03H
	DW	01H
	DW	04H
	DW	02H
	DW	03H
	DW	06H
	DW	05H
	DW	01H
	DW	03H
	DW	01H
	DW	01H
	DW	03H
	DW	03H
	DW	04H
	DW	06H
	DW	01H
	DW	01H
	DW	0aH
	DW	04H
	DW	02H
	DW	07H
	DW	0aH
	DW	04H
	DW	07H
	DW	04H
	DW	02H
	DW	09H
	DW	04H
	DW	03H
	DW	01H
	DW	01H
	DW	01H
	DW	04H
	DW	01H
	DW	08H
	DW	03H
	DW	04H
	DW	01H
	DW	03H
	DW	01H
	DW	06H
	DW	01H
	DW	04H
	DW	02H
	DW	01H
	DW	04H
	DW	07H
	DW	02H
	DW	01H
	DW	08H
	DW	01H
	DW	04H
	DW	05H
	DW	01H
	DW	01H
	DW	02H
	DW	02H
	DW	04H
	DW	06H
	DW	02H
	DW	07H
	DW	01H
	DW	0aH
	DW	01H
	DW	01H
	DW	03H
	DW	04H
	DW	0bH
	DW	0aH
	DW	08H
	DW	015H
	DW	04H
	DW	06H
	DW	01H
	DW	03H
	DW	05H
	DW	02H
	DW	01H
	DW	02H
	DW	01cH
	DW	05H
	DW	05H
	DW	02H
	DW	03H
	DW	0dH
	DW	01H
	DW	02H
	DW	03H
	DW	01H
	DW	04H
	DW	02H
	DW	01H
	DW	05H
	DW	014H
	DW	03H
	DW	08H
	DW	0bH
	DW	01H
	DW	03H
	DW	03H
	DW	03H
	DW	01H
	DW	08H
	DW	0aH
	DW	09H
	DW	02H
	DW	0aH
	DW	09H
	DW	02H
	DW	03H
	DW	01H
	DW	01H
	DW	02H
	DW	04H
	DW	01H
	DW	08H
	DW	03H
	DW	06H
	DW	01H
	DW	07H
	DW	08H
	DW	06H
	DW	0bH
	DW	01H
	DW	04H
	DW	01dH
	DW	08H
	DW	04H
	DW	03H
	DW	01H
	DW	02H
	DW	07H
	DW	0dH
	DW	01H
	DW	04H
	DW	01H
	DW	06H
	DW	02H
	DW	06H
	DW	0cH
	DW	0cH
	DW	02H
	DW	014H
	DW	03H
	DW	02H
	DW	03H
	DW	06H
	DW	04H
	DW	08H
	DW	09H
	DW	02H
	DW	07H
	DW	022H
	DW	05H
	DW	01H
	DW	012H
	DW	06H
	DW	01H
	DW	01H
	DW	04H
	DW	04H
	DW	05H
	DW	07H
	DW	09H
	DW	01H
	DW	02H
	DW	02H
	DW	04H
	DW	03H
	DW	04H
	DW	01H
	DW	07H
	DW	02H
	DW	02H
	DW	02H
	DW	06H
	DW	02H
	DW	03H
	DW	019H
	DW	05H
	DW	03H
	DW	06H
	DW	01H
	DW	04H
	DW	06H
	DW	07H
	DW	04H
	DW	02H
	DW	01H
	DW	04H
	DW	02H
	DW	0dH
	DW	06H
	DW	04H
	DW	04H
	DW	03H
	DW	01H
	DW	05H
	DW	03H
	DW	04H
	DW	04H
	DW	03H
	DW	02H
	DW	01H
	DW	01H
	DW	04H
	DW	01H
	DW	02H
	DW	01H
	DW	01H
	DW	03H
	DW	01H
	DW	0bH
	DW	01H
	DW	06H
	DW	03H
	DW	01H
	DW	07H
	DW	03H
	DW	06H
	DW	02H
	DW	08H
	DW	08H
	DW	06H
	DW	09H
	DW	03H
	DW	04H
	DW	0bH
	DW	03H
	DW	02H
	DW	0aH
	DW	0cH
	DW	02H
	DW	05H
	DW	0bH
	DW	01H
	DW	06H
	DW	04H
	DW	05H
	DW	03H
	DW	01H
	DW	08H
	DW	05H
	DW	04H
	DW	06H
	DW	06H
	DW	03H
	DW	05H
	DW	01H
	DW	01H
	DW	03H
	DW	02H
	DW	01H
	DW	02H
	DW	02H
	DW	06H
	DW	011H
	DW	0cH
	DW	01H
	DW	0aH
	DW	01H
	DW	06H
	DW	0cH
	DW	01H
	DW	06H
	DW	06H
	DW	013H
	DW	09H
	DW	06H
	DW	010H
	DW	01H
	DW	0dH
	DW	04H
	DW	04H
	DW	0fH
	DW	07H
	DW	011H
	DW	06H
	DW	0bH
	DW	09H
	DW	0fH
	DW	0cH
	DW	06H
	DW	07H
	DW	02H
	DW	01H
	DW	02H
	DW	02H
	DW	0fH
	DW	09H
	DW	03H
	DW	015H
	DW	04H
	DW	06H
	DW	031H
	DW	012H
	DW	07H
	DW	03H
	DW	02H
	DW	03H
	DW	01H
	DW	06H
	DW	08H
	DW	02H
	DW	02H
	DW	06H
	DW	02H
	DW	09H
	DW	01H
	DW	03H
	DW	06H
	DW	04H
	DW	04H
	DW	01H
	DW	02H
	DW	010H
	DW	02H
	DW	05H
	DW	02H
	DW	01H
	DW	06H
	DW	02H
	DW	03H
	DW	05H
	DW	03H
	DW	01H
	DW	02H
	DW	05H
	DW	01H
	DW	02H
	DW	01H
	DW	09H
	DW	03H
	DW	01H
	DW	08H
	DW	06H
	DW	04H
	DW	08H
	DW	0bH
	DW	03H
	DW	01H
	DW	01H
	DW	01H
	DW	01H
	DW	03H
	DW	01H
	DW	0dH
	DW	08H
	DW	04H
	DW	01H
	DW	03H
	DW	02H
	DW	02H
	DW	01H
	DW	04H
	DW	01H
	DW	0bH
	DW	01H
	DW	05H
	DW	02H
	DW	01H
	DW	05H
	DW	02H
	DW	05H
	DW	08H
	DW	06H
	DW	01H
	DW	01H
	DW	07H
	DW	04H
	DW	03H
	DW	08H
	DW	03H
	DW	02H
	DW	07H
	DW	02H
	DW	01H
	DW	05H
	DW	01H
	DW	05H
	DW	02H
	DW	04H
	DW	07H
	DW	06H
	DW	02H
	DW	08H
	DW	05H
	DW	01H
	DW	0bH
	DW	04H
	DW	05H
	DW	03H
	DW	06H
	DW	012H
	DW	01H
	DW	02H
	DW	0dH
	DW	03H
	DW	03H
	DW	01H
	DW	015H
	DW	01H
	DW	01H
	DW	04H
	DW	01H
	DW	04H
	DW	01H
	DW	01H
	DW	01H
	DW	08H
	DW	01H
	DW	02H
	DW	02H
	DW	07H
	DW	01H
	DW	02H
	DW	04H
	DW	02H
	DW	02H
	DW	09H
	DW	02H
	DW	01H
	DW	01H
	DW	01H
	DW	04H
	DW	03H
	DW	06H
	DW	03H
	DW	0cH
	DW	05H
	DW	01H
	DW	01H
	DW	01H
	DW	05H
	DW	06H
	DW	03H
	DW	02H
	DW	04H
	DW	08H
	DW	02H
	DW	02H
	DW	04H
	DW	02H
	DW	07H
	DW	01H
	DW	08H
	DW	09H
	DW	05H
	DW	02H
	DW	03H
	DW	02H
	DW	01H
	DW	03H
	DW	02H
	DW	0dH
	DW	07H
	DW	0eH
	DW	06H
	DW	05H
	DW	01H
	DW	01H
	DW	02H
	DW	01H
	DW	04H
	DW	02H
	DW	017H
	DW	02H
	DW	01H
	DW	01H
	DW	06H
	DW	03H
	DW	01H
	DW	04H
	DW	01H
	DW	0fH
	DW	03H
	DW	01H
	DW	07H
	DW	03H
	DW	09H
	DW	0eH
	DW	01H
	DW	03H
	DW	01H
	DW	04H
	DW	01H
	DW	01H
	DW	05H
	DW	08H
	DW	01H
	DW	03H
	DW	08H
	DW	03H
	DW	08H
	DW	0fH
	DW	0bH
	DW	04H
	DW	0eH
	DW	04H
	DW	04H
	DW	02H
	DW	05H
	DW	05H
	DW	01H
	DW	07H
	DW	01H
	DW	06H
	DW	0eH
	DW	07H
	DW	07H
	DW	08H
	DW	05H
	DW	0fH
	DW	04H
	DW	08H
	DW	06H
	DW	05H
	DW	06H
	DW	02H
	DW	01H
	DW	0dH
	DW	01H
	DW	014H
	DW	0fH
	DW	0bH
	DW	09H
	DW	02H
	DW	05H
	DW	06H
	DW	02H
	DW	0bH
	DW	02H
	DW	06H
	DW	02H
	DW	05H
	DW	01H
	DW	05H
	DW	08H
	DW	04H
	DW	0dH
	DW	013H
	DW	019H
	DW	04H
	DW	01H
	DW	01H
	DW	0bH
	DW	01H
	DW	022H
	DW	02H
	DW	05H
	DW	09H
	DW	0eH
	DW	06H
	DW	02H
	DW	02H
	DW	06H
	DW	01H
	DW	01H
	DW	0eH
	DW	01H
	DW	03H
	DW	0eH
	DW	0dH
	DW	01H
	DW	06H
	DW	0cH
	DW	015H
	DW	0eH
	DW	0eH
	DW	06H
	DW	020H
	DW	011H
	DW	08H
	DW	020H
	DW	09H
	DW	01cH
	DW	01H
	DW	02H
	DW	04H
	DW	0bH
	DW	08H
	DW	03H
	DW	01H
	DW	0eH
	DW	02H
	DW	05H
	DW	0fH
	DW	01H
	DW	01H
	DW	01H
	DW	01H
	DW	03H
	DW	06H
	DW	04H
	DW	01H
	DW	03H
	DW	04H
	DW	0bH
	DW	03H
	DW	01H
	DW	01H
	DW	0bH
	DW	01eH
	DW	01H
	DW	05H
	DW	01H
	DW	04H
	DW	01H
	DW	05H
	DW	08H
	DW	01H
	DW	01H
	DW	03H
	DW	02H
	DW	04H
	DW	03H
	DW	011H
	DW	023H
	DW	02H
	DW	06H
	DW	0cH
	DW	011H
	DW	03H
	DW	01H
	DW	06H
	DW	02H
	DW	01H
	DW	01H
	DW	0cH
	DW	02H
	DW	07H
	DW	03H
	DW	03H
	DW	02H
	DW	01H
	DW	010H
	DW	02H
	DW	08H
	DW	03H
	DW	06H
	DW	05H
	DW	04H
	DW	07H
	DW	03H
	DW	03H
	DW	08H
	DW	01H
	DW	09H
	DW	08H
	DW	05H
	DW	01H
	DW	02H
	DW	01H
	DW	03H
	DW	02H
	DW	08H
	DW	01H
	DW	02H
	DW	09H
	DW	0cH
	DW	01H
	DW	01H
	DW	02H
	DW	03H
	DW	08H
	DW	03H
	DW	018H
	DW	0cH
	DW	04H
	DW	03H
	DW	07H
	DW	05H
	DW	08H
	DW	03H
	DW	03H
	DW	03H
	DW	03H
	DW	03H
	DW	03H
	DW	01H
	DW	017H
	DW	0aH
	DW	03H
	DW	01H
	DW	02H
	DW	02H
	DW	06H
	DW	03H
	DW	01H
	DW	010H
	DW	01H
	DW	010H
	DW	016H
	DW	03H
	DW	0aH
	DW	04H
	DW	0bH
	DW	06H
	DW	09H
	DW	07H
	DW	07H
	DW	03H
	DW	06H
	DW	02H
	DW	02H
	DW	02H
	DW	04H
	DW	0aH
	DW	02H
	DW	01H
	DW	01H
	DW	02H
	DW	08H
	DW	07H
	DW	01H
	DW	06H
	DW	04H
	DW	01H
	DW	03H
	DW	03H
	DW	03H
	DW	05H
	DW	0aH
	DW	0cH
	DW	0cH
	DW	02H
	DW	03H
	DW	0cH
	DW	08H
	DW	0fH
	DW	01H
	DW	01H
	DW	010H
	DW	06H
	DW	06H
	DW	01H
	DW	05H
	DW	09H
	DW	0bH
	DW	04H
	DW	0bH
	DW	04H
	DW	02H
	DW	06H
	DW	0cH
	DW	01H
	DW	011H
	DW	05H
	DW	0dH
	DW	01H
	DW	04H
	DW	09H
	DW	05H
	DW	01H
	DW	0bH
	DW	02H
	DW	01H
	DW	08H
	DW	01H
	DW	05H
	DW	07H
	DW	01cH
	DW	08H
	DW	03H
	DW	05H
	DW	0aH
	DW	02H
	DW	011H
	DW	03H
	DW	026H
	DW	016H
	DW	01H
	DW	02H
	DW	012H
	DW	0cH
	DW	0aH
	DW	04H
	DW	026H
	DW	012H
	DW	01H
	DW	04H
	DW	02cH
	DW	013H
	DW	04H
	DW	01H
	DW	08H
	DW	04H
	DW	01H
	DW	0cH
	DW	01H
	DW	04H
	DW	01fH
	DW	0cH
	DW	01H
	DW	0eH
	DW	07H
	DW	04bH
	DW	07H
	DW	05H
	DW	0aH
	DW	06H
	DW	06H
	DW	0dH
	DW	03H
	DW	02H
	DW	0bH
	DW	0bH
	DW	03H
	DW	02H
	DW	05H
	DW	01cH
	DW	0fH
	DW	06H
	DW	012H
	DW	012H
	DW	05H
	DW	06H
	DW	04H
	DW	03H
	DW	010H
	DW	01H
	DW	07H
	DW	012H
	DW	07H
	DW	024H
	DW	03H
	DW	05H
	DW	03H
	DW	01H
	DW	07H
	DW	01H
	DW	09H
	DW	01H
	DW	0aH
	DW	07H
	DW	02H
	DW	04H
	DW	02H
	DW	06H
	DW	02H
	DW	09H
	DW	07H
	DW	04H
	DW	03H
	DW	020H
	DW	0cH
	DW	03H
	DW	07H
	DW	0aH
	DW	02H
	DW	017H
	DW	010H
	DW	03H
	DW	01H
	DW	0cH
	DW	03H
	DW	01fH
	DW	04H
	DW	0bH
	DW	01H
	DW	03H
	DW	08H
	DW	09H
	DW	05H
	DW	01H
	DW	01eH
	DW	0fH
	DW	06H
	DW	0cH
	DW	03H
	DW	02H
	DW	02H
	DW	0bH
	DW	013H
	DW	09H
	DW	0eH
	DW	02H
	DW	06H
	DW	02H
	DW	03H
	DW	013H
	DW	0dH
	DW	011H
	DW	05H
	DW	03H
	DW	03H
	DW	019H
	DW	03H
	DW	0eH
	DW	01H
	DW	01H
	DW	01H
	DW	024H
	DW	01H
	DW	03H
	DW	02H
	DW	013H
	DW	03H
	DW	0dH
	DW	024H
	DW	09H
	DW	0dH
	DW	01fH
	DW	06H
	DW	04H
	DW	010H
	DW	022H
	DW	02H
	DW	05H
	DW	04H
	DW	02H
	DW	03H
	DW	03H
	DW	05H
	DW	01H
	DW	01H
	DW	01H
	DW	04H
	DW	03H
	DW	01H
	DW	011H
	DW	03H
	DW	02H
	DW	03H
	DW	05H
	DW	03H
	DW	01H
	DW	03H
	DW	02H
	DW	03H
	DW	05H
	DW	06H
	DW	03H
	DW	0cH
	DW	0bH
	DW	01H
	DW	03H
	DW	01H
	DW	02H
	DW	01aH
	DW	07H
	DW	0cH
	DW	07H
	DW	02H
	DW	0eH
	DW	03H
	DW	03H
	DW	07H
	DW	07H
	DW	0bH
	DW	019H
	DW	019H
	DW	01cH
	DW	010H
	DW	04H
	DW	024H
	DW	01H
	DW	02H
	DW	01H
	DW	06H
	DW	02H
	DW	01H
	DW	09H
	DW	03H
	DW	01bH
	DW	011H
	DW	04H
	DW	03H
	DW	04H
	DW	0dH
	DW	04H
	DW	01H
	DW	03H
	DW	02H
	DW	02H
	DW	01H
	DW	0aH
	DW	04H
	DW	02H
	DW	04H
	DW	06H
	DW	03H
	DW	08H
	DW	02H
	DW	01H
	DW	012H
	DW	01H
	DW	01H
	DW	018H
	DW	02H
	DW	02H
	DW	04H
	DW	021H
	DW	02H
	DW	03H
	DW	03fH
	DW	07H
	DW	01H
	DW	06H
	DW	028H
	DW	07H
	DW	03H
	DW	04H
	DW	04H
	DW	02H
	DW	04H
	DW	0fH
	DW	012H
	DW	01H
	DW	010H
	DW	01H
	DW	01H
	DW	0bH
	DW	02H
	DW	029H
	DW	0eH
	DW	01H
	DW	03H
	DW	012H
	DW	0dH
	DW	03H
	DW	02H
	DW	04H
	DW	010H
	DW	02H
	DW	011H
	DW	07H
	DW	0fH
	DW	018H
	DW	07H
	DW	012H
	DW	0dH
	DW	02cH
	DW	02H
	DW	02H
	DW	03H
	DW	06H
	DW	01H
	DW	01H
	DW	07H
	DW	05H
	DW	01H
	DW	07H
	DW	01H
	DW	04H
	DW	03H
	DW	03H
	DW	05H
	DW	0aH
	DW	08H
	DW	02H
	DW	03H
	DW	01H
	DW	08H
	DW	01H
	DW	01H
	DW	01bH
	DW	04H
	DW	02H
	DW	01H
	DW	0cH
	DW	01H
	DW	02H
	DW	01H
	DW	0aH
	DW	06H
	DW	01H
	DW	06H
	DW	07H
	DW	05H
	DW	02H
	DW	03H
	DW	07H
	DW	0bH
	DW	05H
	DW	0bH
	DW	03H
	DW	06H
	DW	06H
	DW	02H
	DW	03H
	DW	0fH
	DW	04H
	DW	09H
	DW	01H
	DW	01H
	DW	02H
	DW	01H
	DW	02H
	DW	0bH
	DW	02H
	DW	08H
	DW	0cH
	DW	08H
	DW	05H
	DW	04H
	DW	02H
	DW	03H
	DW	01H
	DW	05H
	DW	02H
	DW	02H
	DW	01H
	DW	0eH
	DW	01H
	DW	0cH
	DW	0bH
	DW	04H
	DW	01H
	DW	0bH
	DW	011H
	DW	011H
	DW	04H
	DW	03H
	DW	02H
	DW	05H
	DW	05H
	DW	07H
	DW	03H
	DW	01H
	DW	05H
	DW	09H
	DW	09H
	DW	08H
	DW	02H
	DW	05H
	DW	06H
	DW	06H
	DW	0dH
	DW	0dH
	DW	02H
	DW	01H
	DW	02H
	DW	06H
	DW	01H
	DW	02H
	DW	02H
	DW	031H
	DW	04H
	DW	09H
	DW	01H
	DW	02H
	DW	0aH
	DW	010H
	DW	07H
	DW	08H
	DW	04H
	DW	03H
	DW	02H
	DW	017H
	DW	04H
	DW	03aH
	DW	03H
	DW	01dH
	DW	01H
	DW	0eH
	DW	013H
	DW	013H
	DW	0bH
	DW	0bH
	DW	02H
	DW	07H
	DW	05H
	DW	01H
	DW	03H
	DW	04H
	DW	06H
	DW	02H
	DW	012H
	DW	05H
	DW	0cH
	DW	0cH
	DW	011H
	DW	011H
	DW	03H
	DW	03H
	DW	02H
	DW	04H
	DW	01H
	DW	06H
	DW	02H
	DW	03H
	DW	04H
	DW	03H
	DW	01H
	DW	01H
	DW	01H
	DW	01H
	DW	05H
	DW	01H
	DW	01H
	DW	09H
	DW	01H
	DW	03H
	DW	01H
	DW	03H
	DW	06H
	DW	01H
	DW	08H
	DW	01H
	DW	01H
	DW	02H
	DW	06H
	DW	04H
	DW	0eH
	DW	03H
	DW	01H
	DW	04H
	DW	0bH
	DW	04H
	DW	01H
	DW	03H
	DW	020H
	DW	01H
	DW	02H
	DW	04H
	DW	0dH
	DW	04H
	DW	01H
	DW	02H
	DW	04H
	DW	02H
	DW	01H
	DW	03H
	DW	01H
	DW	0bH
	DW	01H
	DW	04H
	DW	02H
	DW	01H
	DW	04H
	DW	04H
	DW	06H
	DW	03H
	DW	05H
	DW	01H
	DW	06H
	DW	05H
	DW	07H
	DW	06H
	DW	03H
	DW	017H
	DW	03H
	DW	05H
	DW	03H
	DW	05H
	DW	03H
	DW	03H
	DW	0dH
	DW	03H
	DW	09H
	DW	0aH
	DW	01H
	DW	0cH
	DW	0aH
	DW	02H
	DW	03H
	DW	012H
	DW	0dH
	DW	07H
	DW	0a0H
	DW	034H
	DW	04H
	DW	02H
	DW	02H
	DW	03H
	DW	02H
	DW	0eH
	DW	05H
	DW	04H
	DW	0cH
	DW	04H
	DW	06H
	DW	04H
	DW	01H
	DW	014H
	DW	04H
	DW	0bH
	DW	06H
	DW	02H
	DW	0cH
	DW	01bH
	DW	01H
	DW	04H
	DW	01H
	DW	02H
	DW	02H
	DW	07H
	DW	04H
	DW	05H
	DW	02H
	DW	01cH
	DW	03H
	DW	07H
	DW	019H
	DW	08H
	DW	03H
	DW	013H
	DW	03H
	DW	06H
	DW	0aH
	DW	02H
	DW	02H
	DW	01H
	DW	0aH
	DW	02H
	DW	05H
	DW	04H
	DW	01H
	DW	03H
	DW	04H
	DW	01H
	DW	05H
	DW	03H
	DW	02H
	DW	06H
	DW	09H
	DW	03H
	DW	06H
	DW	02H
	DW	010H
	DW	03H
	DW	03H
	DW	010H
	DW	04H
	DW	05H
	DW	05H
	DW	03H
	DW	02H
	DW	01H
	DW	02H
	DW	010H
	DW	0fH
	DW	08H
	DW	02H
	DW	06H
	DW	015H
	DW	02H
	DW	04H
	DW	01H
	DW	016H
	DW	05H
	DW	08H
	DW	01H
	DW	01H
	DW	015H
	DW	0bH
	DW	02H
	DW	01H
	DW	0bH
	DW	0bH
	DW	013H
	DW	0dH
	DW	0cH
	DW	04H
	DW	02H
	DW	03H
	DW	02H
	DW	03H
	DW	06H
	DW	01H
	DW	08H
	DW	0bH
	DW	01H
	DW	04H
	DW	02H
	DW	09H
	DW	05H
	DW	02H
	DW	01H
	DW	0bH
	DW	02H
	DW	09H
	DW	01H
	DW	01H
	DW	02H
	DW	0eH
	DW	01fH
	DW	09H
	DW	03H
	DW	04H
	DW	015H
	DW	0eH
	DW	04H
	DW	08H
	DW	01H
	DW	07H
	DW	02H
	DW	02H
	DW	02H
	DW	05H
	DW	01H
	DW	04H
	DW	014H
	DW	03H
	DW	03H
	DW	04H
	DW	0aH
	DW	01H
	DW	0bH
	DW	09H
	DW	08H
	DW	02H
	DW	01H
	DW	04H
	DW	05H
	DW	0eH
	DW	0cH
	DW	0eH
	DW	02H
	DW	011H
	DW	09H
	DW	06H
	DW	01fH
	DW	04H
	DW	0eH
	DW	01H
	DW	014H
	DW	0dH
	DW	01aH
	DW	05H
	DW	02H
	DW	07H
	DW	03H
	DW	06H
	DW	0dH
	DW	02H
	DW	04H
	DW	02H
	DW	013H
	DW	06H
	DW	02H
	DW	02H
	DW	012H
	DW	09H
	DW	03H
	DW	05H
	DW	0cH
	DW	0cH
	DW	0eH
	DW	04H
	DW	06H
	DW	02H
	DW	03H
	DW	06H
	DW	09H
	DW	05H
	DW	016H
	DW	04H
	DW	05H
	DW	019H
	DW	06H
	DW	04H
	DW	08H
	DW	05H
	DW	02H
	DW	06H
	DW	01bH
	DW	02H
	DW	023H
	DW	02H
	DW	010H
	DW	03H
	DW	07H
	DW	08H
	DW	08H
	DW	06H
	DW	06H
	DW	05H
	DW	09H
	DW	011H
	DW	02H
	DW	014H
	DW	06H
	DW	013H
	DW	02H
	DW	0dH
	DW	03H
	DW	01H
	DW	01H
	DW	01H
	DW	04H
	DW	011H
	DW	0cH
	DW	02H
	DW	0eH
	DW	07H
	DW	01H
	DW	04H
	DW	012H
	DW	0cH
	DW	026H
	DW	021H
	DW	02H
	DW	0aH
	DW	01H
	DW	01H
	DW	02H
	DW	0dH
	DW	0eH
	DW	011H
	DW	0bH
	DW	032H
	DW	06H
	DW	021H
	DW	014H
	DW	01aH
	DW	04aH
	DW	010H
	DW	017H
	DW	02dH
	DW	032H
	DW	0dH
	DW	026H
	DW	021H
	DW	06H
	DW	06H
	DW	07H
	DW	04H
	DW	04H
	DW	02H
	DW	01H
	DW	03H
	DW	02H
	DW	05H
	DW	08H
	DW	07H
	DW	08H
	DW	09H
	DW	03H
	DW	0bH
	DW	015H
	DW	09H
	DW	0dH
	DW	01H
	DW	03H
	DW	0aH
	DW	06H
	DW	07H
	DW	01H
	DW	02H
	DW	02H
	DW	012H
	DW	05H
	DW	05H
	DW	01H
	DW	09H
	DW	09H
	DW	02H
	DW	044H
	DW	09H
	DW	013H
	DW	0dH
	DW	02H
	DW	05H
	DW	01H
	DW	04H
	DW	04H
	DW	07H
	DW	04H
	DW	0dH
	DW	03H
	DW	09H
	DW	0aH
	DW	015H
	DW	011H
	DW	03H
	DW	01aH
	DW	02H
	DW	01H
	DW	05H
	DW	02H
	DW	04H
	DW	05H
	DW	04H
	DW	01H
	DW	07H
	DW	04H
	DW	07H
	DW	03H
	DW	04H
	DW	02H
	DW	01H
	DW	06H
	DW	01H
	DW	01H
	DW	014H
	DW	04H
	DW	01H
	DW	09H
	DW	02H
	DW	02H
	DW	01H
	DW	03H
	DW	03H
	DW	02H
	DW	03H
	DW	02H
	DW	01H
	DW	01H
	DW	01H
	DW	014H
	DW	02H
	DW	03H
	DW	01H
	DW	06H
	DW	02H
	DW	03H
	DW	06H
	DW	02H
	DW	04H
	DW	08H
	DW	01H
	DW	03H
	DW	02H
	DW	0aH
	DW	03H
	DW	05H
	DW	03H
	DW	04H
	DW	04H
	DW	03H
	DW	04H
	DW	010H
	DW	01H
	DW	06H
	DW	01H
	DW	0aH
	DW	02H
	DW	04H
	DW	02H
	DW	01H
	DW	01H
	DW	02H
	DW	0aH
	DW	0bH
	DW	02H
	DW	02H
	DW	03H
	DW	01H
	DW	018H
	DW	01fH
	DW	04H
	DW	0aH
	DW	0aH
	DW	02H
	DW	05H
	DW	0cH
	DW	010H
	DW	0a4H
	DW	0fH
	DW	04H
	DW	010H
	DW	07H
	DW	09H
	DW	0fH
	DW	013H
	DW	011H
	DW	01H
	DW	02H
	DW	01H
	DW	01H
	DW	05H
	DW	01H
	DW	01H
	DW	01H
	DW	01H
	DW	01H
	DW	03H
	DW	01H
	DW	04H
	DW	03H
	DW	01H
	DW	03H
	DW	01H
	DW	03H
	DW	01H
	DW	02H
	DW	01H
	DW	01H
	DW	03H
	DW	03H
	DW	07H
	DW	02H
	DW	08H
	DW	01H
	DW	02H
	DW	02H
	DW	02H
	DW	01H
	DW	03H
	DW	04H
	DW	03H
	DW	07H
	DW	08H
	DW	0cH
	DW	05cH
	DW	02H
	DW	0aH
	DW	03H
	DW	01H
	DW	03H
	DW	0eH
	DW	05H
	DW	019H
	DW	010H
	DW	02aH
	DW	04H
	DW	07H
	DW	07H
	DW	04H
	DW	02H
	DW	015H
	DW	05H
	DW	01bH
	DW	01aH
	DW	01bH
	DW	015H
	DW	019H
	DW	01eH
	DW	01fH
	DW	02H
	DW	01H
	DW	05H
	DW	0dH
	DW	03H
	DW	016H
	DW	05H
	DW	06H
	DW	06H
	DW	0bH
	DW	09H
	DW	0cH
	DW	01H
	DW	05H
	DW	09H
	DW	07H
	DW	05H
	DW	05H
	DW	016H
	DW	03cH
	DW	03H
	DW	05H
	DW	0dH
	DW	01H
	DW	01H
	DW	08H
	DW	01H
	DW	01H
	DW	03H
	DW	03H
	DW	02H
	DW	01H
	DW	09H
	DW	03H
	DW	03H
	DW	012H
	DW	04H
	DW	01H
	DW	02H
	DW	03H
	DW	07H
	DW	06H
	DW	03H
	DW	01H
	DW	02H
	DW	03H
	DW	09H
	DW	01H
	DW	03H
	DW	01H
	DW	03H
	DW	02H
	DW	01H
	DW	03H
	DW	01H
	DW	01H
	DW	01H
	DW	02H
	DW	01H
	DW	0bH
	DW	03H
	DW	01H
	DW	06H
	DW	09H
	DW	01H
	DW	03H
	DW	02H
	DW	03H
	DW	01H
	DW	02H
	DW	01H
	DW	05H
	DW	01H
	DW	01H
	DW	04H
	DW	03H
	DW	04H
	DW	01H
	DW	02H
	DW	02H
	DW	04H
	DW	04H
	DW	01H
	DW	07H
	DW	02H
	DW	01H
	DW	02H
	DW	02H
	DW	03H
	DW	05H
	DW	0dH
	DW	012H
	DW	03H
	DW	04H
	DW	0eH
	DW	09H
	DW	09H
	DW	04H
	DW	010H
	DW	03H
	DW	07H
	DW	05H
	DW	08H
	DW	02H
	DW	06H
	DW	030H
	DW	01cH
	DW	03H
	DW	01H
	DW	01H
	DW	04H
	DW	02H
	DW	0eH
	DW	08H
	DW	02H
	DW	09H
	DW	02H
	DW	01H
	DW	0fH
	DW	02H
	DW	04H
	DW	03H
	DW	02H
	DW	0aH
	DW	010H
	DW	0cH
	DW	08H
	DW	07H
	DW	01H
	DW	01H
	DW	03H
	DW	01H
	DW	01H
	DW	01H
	DW	02H
	DW	07H
	DW	04H
	DW	01H
	DW	06H
	DW	04H
	DW	026H
	DW	027H
	DW	010H
	DW	017H
	DW	07H
	DW	0fH
	DW	0fH
	DW	03H
	DW	02H
	DW	0cH
	DW	07H
	DW	015H
	DW	025H
	DW	01bH
	DW	06H
	DW	05H
	DW	04H
	DW	08H
	DW	02H
	DW	0aH
	DW	08H
	DW	08H
	DW	06H
	DW	05H
	DW	01H
	DW	02H
	DW	01H
	DW	03H
	DW	018H
	DW	01H
	DW	010H
	DW	011H
	DW	09H
	DW	017H
	DW	0aH
	DW	011H
	DW	06H
	DW	01H
	DW	033H
	DW	037H
	DW	02cH
	DW	0dH
	DW	0126H
	DW	09H
	DW	03H
	DW	06H
	DW	02H
	DW	04H
	DW	02H
	DW	02H
	DW	0fH
	DW	01H
	DW	01H
	DW	01H
	DW	0dH
	DW	015H
	DW	011H
	DW	044H
	DW	0eH
	DW	08H
	DW	09H
	DW	04H
	DW	01H
	DW	04H
	DW	09H
	DW	03H
	DW	0bH
	DW	07H
	DW	01H
	DW	01H
	DW	01H
	DW	05H
	DW	06H
	DW	03H
	DW	02H
	DW	01H
	DW	01H
	DW	01H
	DW	02H
	DW	03H
	DW	08H
	DW	01H
	DW	02H
	DW	02H
	DW	04H
	DW	01H
	DW	05H
	DW	05H
	DW	02H
	DW	01H
	DW	04H
	DW	03H
	DW	07H
	DW	0dH
	DW	04H
	DW	01H
	DW	04H
	DW	01H
	DW	03H
	DW	01H
	DW	01H
	DW	01H
	DW	05H
	DW	05H
	DW	0aH
	DW	01H
	DW	06H
	DW	01H
	DW	05H
	DW	02H
	DW	01H
	DW	05H
	DW	02H
	DW	04H
	DW	01H
	DW	04H
	DW	05H
	DW	07H
	DW	03H
	DW	012H
	DW	02H
	DW	09H
	DW	0bH
	DW	020H
	DW	04H
	DW	03H
	DW	03H
	DW	02H
	DW	04H
	DW	07H
	DW	0bH
	DW	010H
	DW	09H
	DW	0bH
	DW	08H
	DW	0dH
	DW	026H
	DW	020H
	DW	08H
	DW	04H
	DW	02H
	DW	01H
	DW	01H
	DW	02H
	DW	01H
	DW	02H
	DW	04H
	DW	04H
	DW	01H
	DW	01H
	DW	01H
	DW	04H
	DW	01H
	DW	015H
	DW	03H
	DW	0bH
	DW	01H
	DW	010H
	DW	01H
	DW	01H
	DW	06H
	DW	01H
	DW	03H
	DW	02H
	DW	04H
	DW	09H
	DW	08H
	DW	039H
	DW	07H
	DW	02cH
	DW	01H
	DW	03H
	DW	03H
	DW	0dH
	DW	03H
	DW	0aH
	DW	01H
	DW	01H
	DW	07H
	DW	05H
	DW	02H
	DW	07H
	DW	015H
	DW	02fH
	DW	03fH
	DW	03H
	DW	0fH
	DW	04H
	DW	07H
	DW	01H
	DW	010H
	DW	01H
	DW	01H
	DW	02H
	DW	08H
	DW	02H
	DW	03H
	DW	02aH
	DW	0fH
	DW	04H
	DW	01H
	DW	01dH
	DW	07H
	DW	016H
	DW	0aH
	DW	03H
	DW	04eH
	DW	010H
	DW	0cH
	DW	014H
	DW	012H
	DW	04H
	DW	043H
	DW	0bH
	DW	05H
	DW	01H
	DW	03H
	DW	0fH
	DW	06H
	DW	015H
	DW	01fH
	DW	020H
	DW	01bH
	DW	012H
	DW	0dH
	DW	047H
	DW	023H
	DW	05H
	DW	08eH
	DW	04H
	DW	0aH
	DW	01H
	DW	02H
	DW	032H
	DW	013H
	DW	021H
	DW	010H
	DW	023H
	DW	025H
	DW	010H
	DW	013H
	DW	01bH
	DW	07H
	DW	01H
	DW	085H
	DW	013H
	DW	01H
	DW	04H
	DW	08H
	DW	07H
	DW	014H
	DW	01H
	DW	04H
	DW	04H
	DW	01H
	DW	0aH
	DW	03H
	DW	01H
	DW	06H
	DW	01H
	DW	02H
	DW	033H
	DW	05H
	DW	028H
	DW	0fH
	DW	018H
	DW	02bH
	DW	05990H
	DW	0bH
	DW	01H
	DW	0dH
	DW	09aH
	DW	046H
	DW	03H
	DW	01H
	DW	01H
	DW	07H
	DW	04H
	DW	0aH
	DW	01H
	DW	02H
	DW	01H
	DW	01H
	DW	02H
	DW	01H
	DW	02H
	DW	01H
	DW	02H
	DW	02H
	DW	01H
	DW	01H
	DW	02H
	DW	01H
	DW	01H
	DW	01H
	DW	01H
	DW	01H
	DW	02H
	DW	01H
	DW	01H
	DW	01H
	DW	01H
	DW	01H
	DW	01H
	DW	01H
	DW	01H
	DW	01H
	DW	01H
	DW	01H
	DW	01H
	DW	01H
	DW	02H
	DW	01H
	DW	01H
	DW	01H
	DW	03H
	DW	02H
	DW	01H
	DW	01H
	DW	01H
	DW	01H
	DW	02H
	DW	01H
	DW	01H
CONST	ENDS
;	COMDAT ?ranges@?1??GetGlyphRangesChineseFull@ImFontAtlas@@QEAAPEBGXZ@4QBGB
CONST	SEGMENT
?ranges@?1??GetGlyphRangesChineseFull@ImFontAtlas@@QEAAPEBGXZ@4QBGB DW 020H ; `ImFontAtlas::GetGlyphRangesChineseFull'::`2'::ranges
	DW	0ffH
	DW	02000H
	DW	0206fH
	DW	03000H
	DW	030ffH
	DW	031f0H
	DW	031ffH
	DW	0ff00H
	DW	0ffefH
	DW	0fffdH
	DW	0fffdH
	DW	04e00H
	DW	09fafH
	DW	00H
CONST	ENDS
;	COMDAT ?base_ranges@?1??GetGlyphRangesJapanese@ImFontAtlas@@QEAAPEBGXZ@4PAGA
_DATA	SEGMENT
?base_ranges@?1??GetGlyphRangesJapanese@ImFontAtlas@@QEAAPEBGXZ@4PAGA DW 020H ; `ImFontAtlas::GetGlyphRangesJapanese'::`2'::base_ranges
	DW	0ffH
	DW	03000H
	DW	030ffH
	DW	031f0H
	DW	031ffH
	DW	0ff00H
	DW	0ffefH
	DW	0fffdH
	DW	0fffdH
_DATA	ENDS
;	COMDAT ?ranges@?1??GetGlyphRangesCyrillic@ImFontAtlas@@QEAAPEBGXZ@4QBGB
CONST	SEGMENT
?ranges@?1??GetGlyphRangesCyrillic@ImFontAtlas@@QEAAPEBGXZ@4QBGB DW 020H ; `ImFontAtlas::GetGlyphRangesCyrillic'::`2'::ranges
	DW	0ffH
	DW	0400H
	DW	052fH
	DW	02de0H
	DW	02dffH
	DW	0a640H
	DW	0a69fH
	DW	00H
CONST	ENDS
;	COMDAT ??_C@_0L@EPCGLJHG@?$CFs?0?5?$CF?40fpx@
CONST	SEGMENT
??_C@_0L@EPCGLJHG@?$CFs?0?5?$CF?40fpx@ DB '%s, %.0fpx', 00H ; `string'
CONST	ENDS
;	COMDAT ??_C@_0BG@CONABPA@ProggyClean?4ttf?0?5?$CFdpx@
CONST	SEGMENT
??_C@_0BG@CONABPA@ProggyClean?4ttf?0?5?$CFdpx@ DB 'ProggyClean.ttf, %dpx', 00H ; `string'
CONST	ENDS
;	COMDAT ??_C@_04KODIGLGG@maxp@
CONST	SEGMENT
??_C@_04KODIGLGG@maxp@ DB 'maxp', 00H			; `string'
CONST	ENDS
;	COMDAT ??_C@_04HJGCPIEK@CFF?5@
CONST	SEGMENT
??_C@_04HJGCPIEK@CFF?5@ DB 'CFF ', 00H			; `string'
CONST	ENDS
;	COMDAT ??_C@_04PCFDEHHD@GPOS@
CONST	SEGMENT
??_C@_04PCFDEHHD@GPOS@ DB 'GPOS', 00H			; `string'
CONST	ENDS
;	COMDAT ??_C@_04HHMMLDJI@kern@
CONST	SEGMENT
??_C@_04HHMMLDJI@kern@ DB 'kern', 00H			; `string'
CONST	ENDS
;	COMDAT ??_C@_04ONMNCIMC@hmtx@
CONST	SEGMENT
??_C@_04ONMNCIMC@hmtx@ DB 'hmtx', 00H			; `string'
CONST	ENDS
;	COMDAT ??_C@_04FMPHLIKP@hhea@
CONST	SEGMENT
??_C@_04FMPHLIKP@hhea@ DB 'hhea', 00H			; `string'
CONST	ENDS
;	COMDAT ??_C@_04LLIHEPK@glyf@
CONST	SEGMENT
??_C@_04LLIHEPK@glyf@ DB 'glyf', 00H			; `string'
CONST	ENDS
;	COMDAT ??_C@_04NEODDMOL@head@
CONST	SEGMENT
??_C@_04NEODDMOL@head@ DB 'head', 00H			; `string'
CONST	ENDS
;	COMDAT ??_C@_04DACNFKGE@loca@
CONST	SEGMENT
??_C@_04DACNFKGE@loca@ DB 'loca', 00H			; `string'
CONST	ENDS
;	COMDAT ??_C@_04EICJPCEA@cmap@
CONST	SEGMENT
??_C@_04EICJPCEA@cmap@ DB 'cmap', 00H			; `string'
CONST	ENDS
;	COMDAT ??_C@_04KIOEMAHO@ttcf@
CONST	SEGMENT
??_C@_04KIOEMAHO@ttcf@ DB 'ttcf', 00H			; `string'
CONST	ENDS
;	COMDAT ??_C@_04LOAJBDKD@true@
CONST	SEGMENT
??_C@_04LOAJBDKD@true@ DB 'true', 00H			; `string'
CONST	ENDS
;	COMDAT ??_C@_04LLEFIKCJ@OTTO@
CONST	SEGMENT
??_C@_04LLEFIKCJ@OTTO@ DB 'OTTO', 00H			; `string'
CONST	ENDS
;	COMDAT ??_C@_04LBBEMOBJ@typ1@
CONST	SEGMENT
??_C@_04LBBEMOBJ@typ1@ DB 'typ1', 00H			; `string'
?proggy_clean_ttf_compressed_data_base85@@3QBDB DB '7])#######hV0qs''/###'
	DB	'[),##/l:$#Q6>##5[n42>c-TH`->>#/e>11NNV=Bv(*:.F?uu#(gRU.o0XGH`'
	DB	'$vhLG1hxt9?W`#,5LsCp#-i>.r$<$6pD>Lb'';9Crc6tgXmKVeU2cD4Eo3R/2'
	DB	'*>]b(MC;$jPfY.;h^`IWM9<Lh2TlS+f-s$o6Q<BWH`YiU.xfLq$N;$0iR/GX:'
	DB	'U(jcW2p/W*q?-qmnUCI;jHSAiFWM.R*kU@C=GH?a9wp8f$e.-4^Qg1)Q-GL(l'
	DB	'f(r/7GrRgwV%MS=C#`8ND>Qo#t''X#(v#Y9w0#1D$CIf;W''#pWUPXOuxXuU('
	DB	'H9M(1<q-UE31#^-V''8IRUo7Qf./L>=Ke$$''5F%)]0^#0X@U.a<r:QLtFsLc'
	DB	'L6##lOj)#.Y5<-R&KgLwqJfLgN&;Q?gI^#DY2uLi@^rMl9t=cWq6##weg>$FB'
	DB	'jVQTSDgEKnIS7EM9>ZY9w0#L;>>#Mx&4Mvt//L[MkA#W@lK.N''[0#7RL_&#w'
	DB	'+F%HtG9M#XL`N&.,GM4Pg;-<nLENhvx>-VsM.M0rJfLH2eTM`*oJMHRC`Nkfi'
	DB	'mM2J,W-jXS:)r0wK#@Fge$U>`w''N7G#$#fB#$E^$#:9:hk+eOe--6x)F7*E%'
	DB	'?76%^GMHePW-Z5l''&GiF#$956:rS?dA#fiK:)Yr+`&#0j@''DbG&#^$PG.Ll'
	DB	'+DNa<XCMKEV*N)LN/N*b=%Q6pia-Xg8I$<MR&,VdJe$<(7G;Ckl''&hF;;$<_'
	DB	'=X(b.RS%%)###MPBuuE1V:v&cX&#2m#(&cV]`k9OhLMbn%s$G2,B$BfD3X*sp'
	DB	'5#l,$R#]x_X1xKX%b5U*[r5iMfUo9U`N99hG)tm+/Us9pG)XPu`<0s-)WTt(g'
	DB	'CRxIg(%6sfh=ktMKn3j)<6<b5Sk_/0(^]AaN#(p/L>&VZ>1i%h1S9u5o@YaaW'
	DB	'$e+b<TWFn/Z:Oh(Cx2$lNEoN^e)#CFY@@I;BOQ*sRwZtZxRcU7uW6CXow0i(?'
	DB	'$Q[cjOd[P4d)]>ROPOpxTO7Stwi1::iB1q)C_=dV26J;2,]7op$]uQr@_V7$q'
	DB	'^%lQwtuHY]=DX,n3L#0PHDO4f9>dC@O>HBuKPpP*E,N+b3L#lpR/MrTEH.IAQ'
	DB	'k.a>D[.e;mc.x]Ip.PH^''/aqUO/$1WxLoW0[iLA<QT;5HKD+@qQ''NQ(3_PL'
	DB	'hE48R.qAPSwQ0/WK?Z,[x?-J;jQTWA0X@KJ(_Y8N-:/M74:/-ZpKrUss?d#dZ'
	DB	'q]DAbkU*JqkL+nwX@@47`5>w=4h(9.`GCRUxHPeR`5Mjol(dUWxZa(>STrPkr'
	DB	'JiWx`5U7F#.g*jrohGg`cg:lSTvEY/EV_7H4Q9[Z%cnv;JQYZ5q.l7Zeas:HO'
	DB	'IZOB?G<Nald$qs]@]L<J7bR*>gv:[7MI2k).''2($5FNP&EQ(,)U]W]+fh18.'
	DB	'vsai00);D3@4ku5P?DP8aJt+;qUM]=+b''8@;mViBKx0DE[-auGl8:PJ&Dj+M'
	DB	'6OC]O^((##]`0i)drT;-7X`=-H3[igUnPG-NZlo.#k@h#=Ork$m>a>$-?Tm$U'
	DB	'V(?#P6YY#''/###xe7q.73rI3*pP/$1>s9)W,JrM7SN]''/4C#v$U`0#V.[0>'
	DB	'xQsH$fEmPMgY2u7Kh(G%siIfLSoS+MK2eTM$=5,M8p`A.;_R%#u[K#$x4AG8.'
	DB	'kK/HSB==-''Ie/QTtG?-.*^N-4B/ZM_3YlQC7(p7q)&](`6_c)$/*JL(L-^(]'
	DB	'$wIM`dPtOdGA,U3:w2M-0<q-]L_?^)1vw''.,MRsqVr.L;aN&#/EgJ)PBc[-f'
	DB	'>+WomX2u7lqM2iEumMTcsF?-aT=Z-97UEnXglEn1K-bnEO`guFt(c%=;Am_Qs'
	DB	'@jLooI&NX;]0#j4#F14;gl8-GQpgwhrq8''=l_f-b49''UOqkLu7-##oDY2L('
	DB	'te+Mch&gLYtJ,MEtJfLh''x''M=$CS-ZZ%P]8bZ>#S?YY#%Q&q''3^Fw&?D)U'
	DB	'DNrocM3A76//oL?#h7gl85[qW/NDOk%16ij;+:1a''iNIdb-ou8.P*w,v5#EI'
	DB	'$TWS>Pot-R*H''-SEpA:g)f+O$%%`kA#G=8RMmG1&O`>to8bC]T&$,n.LoO>2'
	DB	'9sp3dt-52U%VM#q7''DHpg+#Z9%H[K<L%a2E-grWVM3@2=-k22tL]4$##6We'''
	DB	'8UJCKE[d_=%wI;''6X-GsLX4j^SgJ$##R*w,vP3wK#iiW&#*h^D&R?jp7+/u&'
	DB	'#(AP##XU8c$fSYW-J95_-Dp[g9wcO&#M-h1OcJlc-*vpw0xUX&#OQFKNX@QI'''
	DB	'IoPp7nb,QU//MQ&ZDkKP)X<WSVL(68uVl&#c''[0#(s1X&xm$Y%B7*K:eDA32'
	DB	'3j998GXbA#pwMs-jgD$9QISB-A_(aN4xoFM^@C58D0+Q+q3n0#3U1InDjF682'
	DB	'-SjMXJK)(h$hxua_K]ul92%''BOU&#BRRh-slg8KDlr:%L71Ka:.A;%YULjDP'
	DB	'mL<LYs8i#XwJOYaKPKc1h:''9Ke,g)b),78=I39B;xiY$bgGw-&.Zi9InXDuY'
	DB	'a%G*f2Bq7mn9^#p1vv%#(Wi-;/Z5ho;#2:;%d&#x9v68C5g?ntX0X)pT`;%pB'
	DB	'3q7mgGN)3%(P8nTd5L7GeA-GL@+%J3u2:(Yf>et`e;)f#Km8&+DC$I46>#Kr]'
	DB	']u-[=99tts1.qb#q72g1WJO81q+eN''03''eM>&1XxY-caEnOj%2n8)),?ILR'
	DB	'5^.Ibn<-X-Mq7[a82Lq:F&#ce+S9wsCK*x`569E8ew''He]h:sI[2LM$[guka'
	DB	'3ZRd6:t%IG:;$%YiJ:Nq=?eAw;/:nnDq0(CYcMpG)qLN4$##&J<j$UpK<Q4a1'
	DB	']MupW^-sj_$%[HK%''F####QRZJ::Y3EGl4''@%FkiAOg#p[##O`gukTfBHag'
	DB	'L<LHw%q&OV0##F=6/:chIm0@eCP8X]:kFI%hl8hgO@RcBhS-@Qb$%+m=hPDLg'
	DB	'*%K8ln(wcf3/''DW-$.lR?n[nCH-eXOONTJlh:.RYF%3''p6sq:UIMA945&^H'
	DB	'FS87@$EP2iG<-lCO$%c`uKGD3rC$x0BL8aFn--`ke%#HMP''vh1/R&O_J9''u'
	DB	'm,.<tx[@%wsJk&bUT2`0uMv7gg#qp/ij.L56''hl;.s5CUrxjOM7-##.l+Au'''
	DB	'A&O:-T72L]P`&=;ctp''XScX*rU.>-XTt,%OVU4)S1+R-#dg0/Nn?Ku1^0f$B'
	DB	'*P:Rowwm-`0PKjYDDM''3]d39VZHEl4,.j'']Pk-M.h^&:0FACm$maq-&sgw0'
	DB	't7/6(^xtk%LuH88Fj-ekm>GA#_>568x6(OFRl-IZp`&b,_P''$M<Jnq79VsJW'
	DB	'/mWS*PUiq76;]/NM_>hLbxfc$mj`,O;&%W2m`Zh:/)Uetw:aJ%]K9h:TcF]u_'
	DB	'-Sj9,VK3M.*''&0D[Ca]J9gp8,kAW]%(?A%R$f<->Zts''^kn=-^@c4%-pY6q'
	DB	'I%J%1IGxfLU9CP8cbPlXv);C=b),<2mOvP8up,UVf3839acAWAW-W?#ao/^#%'
	DB	'KYo8fRULNd2.>%m]UK:n%r$''sw]J;5pAoO_#2mO3n,''=H5(etHg*`+RLgv>'
	DB	'=4U8guD$I%D:W>-r5V*%j*W:Kvej.Lp$<M-SGZ'':+Q_k+uvOSLiEo(<aD/K<'
	DB	'CCc`''Lx>''?;++O''>()jLR-^u68PHm8ZFWe+ej8h:9r6L*0//c&iH&R8pRb'
	DB	'A#Kjm%upV1g:a_#Ur7FuA#(tRh#.Y5K+@?3<-8m0$PEn;J:rh6?I6uG<-`wMU'
	DB	'''ircp0LaE_OtlMb&1#6T.#FDKu#1Lw%u%+GM+X''e?YLfjM[VO0MbuFp7;>Q'
	DB	'&#WIo)0@F%q7c#4XAXN-U&VB<HFF*qL($/V,;(kXZejWO`<[5??ewY(*9=%wD'
	DB	'c;,u<''9t3W-(H1th3+G]ucQ]kLs7df($/*JL]@*t7Bu_G3_7mp7<iaQjO@.k'
	DB	'Lg;x3B0lqp7Hf,^Ze7-##@/c58Mo(3;knp0%)A7?-W+eI''o8)b<nKnw''Ho8'
	DB	'C=Y>pqB>0ie&jhZ[?iLR@@_AvA-iQC(=ksRZRVp7`.=+NpBC%rh&3]R:8XDmE'
	DB	'5^V8O(x<<aG/1N$#FX$0V5Y6x''aErI3I$7x%E`v<-BY,)%-?Psf*l?%C3.mM'
	DB	'(=/M0:JxG''?7WhH%o''a<-80g0NBxoO(GH<dM]n.+%q@jH?f.UsJ2Ggs&4<-'
	DB	'e47&Kl+f//9@`b+?.TeN_&B8Ss?v;^Trk;f#YvJkl&w$]>-+k?''(<S:68tq*'
	DB	'WoDfZu'';mM?8X[ma8W%*`-=;D.(nc7/;)g:T1=^J$&BRV(-lTmNB6xqB[@0*'
	DB	'o.erM*<SWF]u2=st-*(6v>^](H.aREZSi,#1:[IXaZFOm<-ui#qUq2$##Ri;u'
	DB	'75OK#(RtaW-K-F`S+cF]uN`-KMQ%rP/Xri.LRcB##=YL3BgM/3MD?@f&1''BW'
	DB	'-)Ju<L25gl8uhVm1hL$##*8###''A3/LkKW+(^rWX?5W_8g)a(m&K8P>#bmmW'
	DB	'CMkk&#TR`C,5d>g)F;t,4:@_l8G/5h4vUd%&%950:VXD''QdWoY-F$BtUwmfe'
	DB	'$YqL''8(PWX(P?^@Po3$##`MSs?DWBZ/S>+4%>fX,VWv/w''KD`LP5IbH;rTV'
	DB	'>n3cEK8U#bX]l-/V+^lj3;vlMb&[5YQ8#pekX9JP3XUC72L,,?+Ni&co7ApnO'
	DB	'*5NK,((W-i:$,kp''UDAO(G0Sq7MVjJsbIu)''Z,*[>br5fX^:FPAWr-m2KgL'
	DB	'<LUN098kTF&#lvo58=/vjDo;.;)Ka*hLR#/k=rKbxuV`>Q_nN6''8uTG&#1T5'
	DB	'g)uLv:873UpTLgH+#FgpH''_o1780Ph8KmxQJ8#H72L4@768@Tm&Qh4CB/5Ov'
	DB	'mA&,Q&QbUoi$a_%3M01H)4x7I^&KQVgtFnV+;[Pc>[m4k//,]1?#`VY[Jr*3&'
	DB	'&slRfLiVZJ:]?=K3Sw=[$=uRB?3xk48@aeg<Z''<$#4H)6,>e0jT6''N#(q%.'
	DB	'O=?2S]u*(m<-V8J''(1)G][68hW$5''q[GC&5j`TE?m''esFGNRM)j,ffZ?-q'
	DB	'x8;->g4t*:CIP/[Qap7/9''#(1sao7w-.qNUdkJ)tCF&#B^;xGvn2r9FEPFFF'
	DB	'cL@.iFNkTve$m%#QvQS8U@)2Z+3K:AKM5isZ88+dKQ)W6>J%CL<KE>`.d*(B`'
	DB	'-n8D9oK<Up]c$X$(,)M8Zt7/[rdkqTgl-0cuGMv''?>-XV1q[''-5k''cAZ69'
	DB	'e;D_?$ZPP&s^+7])$*$#@QYi9,5P&#9r+$%CE=68>K8r0=dSC%%(@p7.m7jil'
	DB	'Q02''0-VWAg<a/''''3u.=4L$Y)6k/K:_[3=&jvL<L0C/2''v:^;-DIBW,B4E'
	DB	'68:kZ;%?8(Q8BH=kO65BW?xSG&#@uU,DS*,?.+(o(#1vCS8#CHF>TlGW''b)T'
	DB	'q7VT9q^*^$$.:&N@@$&)WHtPm*5_rO0&e%K&#-30j(E4#''Zb.o/(Tpm$>K'''
	DB	'f@[PvFl,hfINTNU6u''0pao7%XUp9]5.>%h`8_=VYbxuel.NTSsJfLacFu3B'''
	DB	'lQSu/m6-Oqem8T+oE--$0a/k]uj9EwsG>%veR*hv^BFpQj:K''#SJ,sB-''#]'
	DB	'(j.Lg92rTw-*n%@/;39rrJF,l#qV%OrtBeC6/,;qB3ebNW[?,Hqj2L.1NP&Gj'
	DB	'UR=1D8QaS3Up&@*9wP?+lo7b?@%''k4`p0Z$22%K3+iCZj?XJN4Nm&+YF]u@-'
	DB	'W$U%VEQ/,,>>#)D<h#`)h0:<Q6909ua+&VU%n2:cG3FJ-%@Bj-DgLr`Hw&HAK'
	DB	'jKjseK</xKT*)B,N9X3]krc12t''pgTV(Lv-tL[xg_%=M_q7a^x?7Ubd>#%8c'
	DB	'Y#YZ?=,`Wdxu/ae&#w6)R89tI#6@s''(6Bf7a&?S=^ZI_kS&ai`&=tE72L_D,'
	DB	';^R)7[$s<Eh#c&)q.MXI%#v9ROa5FZO%sF7q7Nwb&#ptUJ:aqJe$Sl68%.D##'
	DB	'#EC><?-aF&#RNQv>o8lKN%5/$(vdfq7+ebA#u1p]ovUKW&Y%q]''>$1@-[xfn'
	DB	'$7ZTp7mM,G,Ko7a&Gu%G[RMxJs[0MM%wci.LFDK)(<c`Q8N)jEIF*+?P2a8g%'
	DB	')$q]o2aH8C&<SibC/q,(e:v;-b#6[$NtDZ84Je2KNvB#$P5?tQ3nt(0d=j.LQ'
	DB	'f./Ll33+(;q3L-w=8dX$#WF&uIJ@-bfI>%:_i2B5CsR8&9Z&#=mPEnm0f`<&c'
	DB	')QL5uJ#%u%lJj+D-r;BoF&#4DoS97h5g)E#o:&S4weDF,9^Hoe`h*L+_a*NrL'
	DB	'W-1pG_&2UdB86e%B/:=>)N4xeW.*wft-;$''58-ESqr<b?UI(_%@[P46>#U`'''
	DB	'6AQ]m&6/`Z>#S?YY#Vc;r7U2&326d=w&H####?TZ`*4?&.MK?LP8Vxg>$[QXc'
	DB	'%QJv92.(Db*B)gb*BM9dM*hJMAo*c&#b0v=Pjer]$gG&JXDf->''StvU7505l'
	DB	'9$AFvgYRI^&<^b68?j#q9QX4SM''RO#&sL1IM.rJfLUAj221]d##DW=m83u5;'
	DB	'''bYx,*Sl0hL(W;;$doB&O/TQ:(Z^xBdLjL<Lni;''''X.`$#8+1GD:k$YUWs'
	DB	'bn8ogh6rxZ2Z9]%nd+>V#*8U_72Lh+2Q8Cj0i:6hp&$C/:p(HK>T8Y[gHQ4`4'
	DB	')''$Ab(Nof%V''8hL&#<NEdtg(n''=S1A(Q1/I&4([%dM`,Iu''1:_hL>SfD0'
	DB	'7&6D<fp8dHM7/g+tlPN9J*rKaPct&?''uBCem^jn%9_K)<,C5K3s=5g&GmJb*'
	DB	'[SYq7K;TRLGCsM-$$;S%:Y@r7AK0pprpL<Lrh,q7e/%KWK:50I^+m''vi`3?%'
	DB	'Zp+<-d+$L-Sv:@.o19n$s0&39;kn;S%BSq*$3WoJSCLweV[aZ''MQIjO<7;X-'
	DB	'X;&+dMLvu#^UsGEC9WEc[X(wI7#2.(F0jV*eZf<-Qv3J-c+J5AlrB#$p(H68L'
	DB	'vEA''q3n0#m,[`*8Ft)FcYgEud]CWfm68,(aLA$@EFTgLXoBq/UPlp7:d[/;r'
	DB	'_ix=:TF`S5H-b<LI&HY(K=h#)]Lk$K14lVfm:x$H<3^Ql<M`$OhapBnkup''D'
	DB	'#L$Pb_`N*g]2e;X/Dtg,bsj&K#2[-:iYr''_wgH)NUIR8a1n#S?Yej''h8^58'
	DB	'UbZd+^FKD*T@;6A7aQC[K8d-(v6GI$x:T<&''Gp5Uf>@M.*J:;$-rv29''M]8'
	DB	'qMv-tLp,''886iaC=Hb*YJoKJ,(j%K=H`K.v9HggqBIiZu''QvBT.#=)0ukru'
	DB	'V&.)3=(^1`o*Pj4<-<aN((^7(''#Z0wK#5GX@7u][`*S^43933A4rl][`*O4C'
	DB	'gLEl]v$1Q3AeF37dbXk,.)vj#x''d`;qgbQR%FW,2(?LO=s%Sc68%NP''##Ao'
	DB	'tl8x=BE#j1UD([3$M(]UI2LX3RpKN@;/#f''f/&_mt&F)XdF<9t4)Qa.*kTLw'
	DB	'Q''(TTB9.xH''>#MJ+gLq9-##@HuZPN0]u:h7.T..G:;$/Usj(T7`Q8tT72Ln'
	DB	'Yl<-qx8;-HV7Q-&Xdx%1a,hC=0u+HlsV>nuIQL-5<N?)NBS)QN*_I,?&)2''I'
	DB	'M%L3I)X((e/dl2&8''<M:^#M*Q+[T.Xri.LYS3v%fF`68h;b-X[/En''CR.q7'
	DB	'E)p''/kle2HM,u;^%OKC-N+Ll%F9CF<Nf''^#t2L,;27W:0O@6##U6W7:$rJf'
	DB	'LWHj$#)woqBefIZ.PK<b*t7ed;p*_m;4ExK#h@&]>_>@kXQtMacfD.m-VAb8;'
	DB	'IReM3$wf0''''hra*so568''Ip&vRs849''MRYSp%:t:h5qSgwpEr$B>Q,;s('
	DB	'C#$)`svQuF$##-D,##,g68@2[T;.XSdN9Qe)rpt._K-#5wF)sP''##p#C0c%-'
	DB	'Gb%hd+<-j''Ai*x&&HMkT]C''OSl##5RG[JXaHN;d''uA#x._U;.`PU@(Z3dt'
	DB	'4r152@:v,''R.Sj''w#0<-;kPI)FfJ&#AYJ&#//)>-k=m=*XnK$>=)72L]0I%'
	DB	'>.G690a:$##<,);?;72#?x9+d;^V''9;jY@;)br#q^YQpx:X#Te$Z^''=-=bG'
	DB	'hLf:D6&bNwZ9-ZD#n^9HhLMr5G;'']d&6''wYmTFmL<LD)F^%[tC''8;+9E#C'
	DB	'$g%#5Y>q9wI>P(9mI[>kC-ekLC/R&CH+s''B;K-M6$EB%is00:+A4[7xks.Lr'
	DB	'Nk0&E)wILYF@2L''0Nb$+pv<(2.768/FrY&h$^3i&@+G%JT''<-,v`3;_)I9M'
	DB	'^AE]CN?Cl2AZg+%4iTpT3<n-&%H%b<FDj2M<hH=&Eh<2Len$b*aTX=-8QxN)k'
	DB	'11IM1c^j%9s<L<NFSo)B?+<-(GxsF,^-Eh@$4dXhN$+#rxK8''je''D7k`e;)'
	DB	'2pYwPA''_p9&@^18ml1^[@g4t*[JOa*[=Qp7(qJ_oOL^(''7fB&Hq-:sf,sNj'
	DB	'8xq^>$U4O]GKx''m9)b@p7YsvK3w^YR-CdQ*:Ir<($u&)#(&?L9Rg3H)4fiEp'
	DB	'^iI9O8KnTj,]H?D*r7''M;PwZ9K0E^k&-cpI;.p/6_vwoFMV<->#%Xi.LxVnr'
	DB	'U(4&8/P+:hLSKj$#U%]49t''I:rgMi''FL@a:0Y-uA[39'',(vbma*hU%<-SR'
	DB	'F`Tt:542R_VV$p@[p8DV[A,?1839FWdF<TddF<9Ah-6&9tWoDlh]&1SpGMq>T'
	DB	'i1O*H&#(AL8[_P%.M>v^-))qOT*F5Cq0`Ye%+$B6i:7@0IX<N+T+0MlMBPQ*V'
	DB	'j>SsD<U4JHY8kD2)2fU/M#$e.)T4,_=8hLim[&);?UkK''-x?''(:siIfL<$p'
	DB	'FM`i<?%W(mGDHM%>iWP,##P`%/L<eXi:@Z9C.7o=@(pXdAO/NLQ8lPl+HPOQa'
	DB	'8wD8=^GlPa8TKI1CjhsCTSLJM''/Wl>-S(qw%sf/@%#B6;/U7K]uZbi^Oc^2n'
	DB	'<bhPmUkMw>%t<)''mEVE''''n`WnJra$^TKvX5B>;_aSEK'',(hwa0:i4G?.B'
	DB	'ci.(X[?b*($,=-n<.Q%`(X=?+@Am*Js0&=3bh8K]mL<LoNs''6,''85`0?t/'''
	DB	'_U59@]ddF<#LdF<eWdF<OuN/45rY<-L@&#+fm>69=Lb,OcZV/);TTm8VI;?%O'
	DB	'tJ<(b4mq7M6:u?KRdF<gR@2L=FNU-<b[(9c/ML3m;Z[$oF3g)GAWqpARc=<RO'
	DB	'u7cL5l;-[A]%/+fsd;l#SafT/f*W]0=O''$(Tb<[)*@e775R-:Yob%g*>l*:x'
	DB	'P?Yb.5)%w_I?7uk5JC+FS(m#i''k.''a0i)9<7b''fs''59hq$*5Uhv##pi^8'
	DB	'+hIEBF`nvo`;''l0.^S1<-wUK2/Coh58KKhLjM=SO*rfO`+qC`W-On.=AJ56>'
	DB	'>i2@2LH6A:&5q`?9I3@@''04&p2/LVa*T-4<-i3;M9UvZd+N7>b*eIwg:CC)c'
	DB	'<>nO&#<IGe;__.thjZl<%w(Wk2xmp4Q@I#I9,DF]u7-P=.-_:YJ]aS@V?6*C('
	DB	')dOp7:WL,b&3Rg/.cmM9&r^>$(>.Z-I&J(Q0Hd5Q%7Co-b`-c<N(6r@ip+Aur'
	DB	'K<m86QIth*#v;-OBqi+L7wDE-Ir8K[''m+DDSLwK&/.?-V%U_%3:qKNu$_b*B'
	DB	'-kp7NaD''QdWQPKYq[@>P)hI;*_F]u`Rb[.j8_Q/<&>uu+VsH$sM9TA%?)(vm'
	DB	'J80),P7E>)tjD%2L=-t#fK[%`v=Q8<FfNkgg^oIbah*#8/Qt$F&:K*-(N/''+'
	DB	'1vMB,u()-a.VUU*#[e%gAAO(S>WlA2);Sa>gXm8YB`1d@K#n]76-a$U,mF<fX'
	DB	']idqd)<3,]J7JmW4`6]uks=4-72L(jEk+:bJ0M^q-8Dm_Z?0olP1C9Sa&H[d&'
	DB	'c$ooQUj]Exd*3ZM@-WGW2%s'',B-_M%>%Ul:#/''xoFM9QX-$.QN''>[%$Z$u'
	DB	'F6pA6Ki2O5:8w*vP1<-1`[G,)-m#>0`P&#eb#.3i)rtB61(o''$?X3B</R90;'
	DB	'eZ]%Ncq;-Tl]#F>2Qft^ae_5tKL9MUe9b*sLEQ95C&`=G?@Mj=wh*''3E>=-<'
	DB	')Gt*Iw)''QG:`@IwOf7&]1i''S01B+Ev/Nac#9S;=;YQpg_6U`*kVY39xK,[/'
	DB	'6Aj7:''1Bm-_1EYfa1+o&o4hp7KN_Q(OlIo@S%;jVdn0''1<Vc52=u`3^o-n1'
	DB	'''g4v58Hj&6_t7$##?M)c<$bgQ_''SY((-xkA#Y(,p''H9rIVY-b,''%bCPF7'
	DB	'.J<Up^,(dU1VY*5#WkTU>h19w,WQhLI)3S#f$2(eb,jr*b;3Vw]*7NH%$c4Vs'
	DB	',eD9>XW8?N]o+(*pgC%/72LV-u<Hp,3@e^9UB1J+ak9-TN/mhKPg+AJYd$Mlv'
	DB	'AF_jCK*.O-^(63adMT->W%iewS8W6m2rtCpo''RS1R84=@paTKt)>=%&1[)*v'
	DB	'p''u+x,VrwN;&]kuO9JDbg=pO$J*.jVe;u''m0dr9l,<*wMK*Oe=g8lV_KEBF'
	DB	'kO''oU]^=[-792#ok,)i]lR8qQ2oA8wcRCZ^7w/Njh;?.stX?Q1>S1q4Bn$)K'
	DB	'1<-rGdO''$Wr.Lc.CG)$/*JL4tNR/,SVO3,aUw''DJN:)Ss;wGn9A32ijw%FL'
	DB	'+Z0Fn.U9;reSq)bmI32U==5ALuG&#Vf1398/pVo1*c-(aY168o<`JsSbk-,1N'
	DB	';$>0:OUas(3:8Z972LSfF8eb=c-;>SPw7.6hn3m`9^Xkn(r.qS[0;T%&Qc=+S'
	DB	'TRxX''q1BNk3&*eu2;&8q$&x>Q#Q7^Tf+6<(d%ZVmj2bDi%.3L2n+4W''$PiD'
	DB	'DG)g,r%+?,$@?uou5tSe2aN_AQU*<h`e-GI7)?OK2A.d7_c)?wQ5AS@DL3r#7'
	DB	'fSkgl6-++D:''A,uq7SvlB$pcpH''q3n0#_%dY#xCpr-l<F0NR@-##FEV6NTF'
	DB	'6##$l84N1w?AO>''IAOURQ##V^Fv-XFbGM7Fl(N<3DhLGF%q.1rC$#:T__&Pi'
	DB	'68%0xi_&[qFJ(77j_&JWoF.V735&T,[R*:xFR*K5>>#`bW-?4Ne_&6Ne_&6Ne'
	DB	'_&n`kr-#GJcM6X;uM6X;uM(.a..^2TkL%oR(#;u.T%fAr%4tJ8&><1=GHZ_+m'
	DB	'9/#H1F^R#SC#*N=BA9(D?v[UiFY>>^8p,KKF.W]L29uLkLlu/+4T<XoIB&hx='
	DB	'T1PcDaB&;HH+-AFr?(m9HZV)FKS8JCw;SD=6[^/DZUL`EUDf]GGlG&>w$)F./'
	DB	'^n3+rlo+DB;5sIYGNk+i1t-69Jg--0pao7Sm#K)pdHW&;LuDNH@H>#/X-TI(;'
	DB	'P>#,Gc>#0Su>#4`1?#8lC?#<xU?#@.i?#D:%@#HF7@#LRI@#P_[@#Tkn@#Xw*'
	DB	'A#]-=A#a9OA#d<F&#*;G##.GY##2Sl##6`($#:l:$#>xL$#B.`$#F:r$#JF.%'
	DB	'#NR@%#R_R%#Vke%#Zww%#_-4&#3^Rh%Sflr-k''MS.o?.5/sWel/wpEM0%3'''
	DB	'/1)K^f1-d>G21&v(35>V`39V7A4=onx4A1OY5EI0;6Ibgr6M$HS7Q<)58C5w,'
	DB	';WoA*#[%T*#`1g*#d=#+#hI5+#lUG+#pbY+#tnl+#x$),#&1;,#*=M,#.I`,#'
	DB	'2Ur,#6b.-#;w[H#iQtA#m^0B#qjBB#uvTB##-hB#''9$C#+E6C#/QHC#3^ZC#'
	DB	'7jmC#;v)D#?,<D#C8ND#GDaD#KPsD#O]/E#g1A5#KA*1#gC17#MGd;#8(02#L'
	DB	'-d3#rWM4#Hga1#,<w0#T.j<#O#''2#CYN1#qa^:#_4m3#o@/=#eG8=#t8J5#`'
	DB	'+78#4uI-#m3B2#SB[8#Q0@8#i[*9#iOn8#1Nm;#^sN9#qh<9#:=x-#P;K2#$%'
	DB	'X9#bC+.#Rg;<#mN=.#MTF.#RZO.#2?)4#Y#(/#[)1/#b;L/#dAU/#0Sv;#lY$'
	DB	'0#n`-0#sf60#(F24#wrH0#%/e0#TmD<#%JSMFove:CTBEXI:<eh2g)B,3h2^G'
	DB	'3i;#d3jD>)4kMYD4lVu`4m`:&5niUA5@(A5BA1]PBB:xlBCC=2CDLXMCEUtiC'
	DB	'f&0g2''tN?PGT4CPGT4CPGT4CPGT4CPGT4CPGT4CPGT4CPGT4CPGT4CPGT4CP'
	DB	'GT4CPGT4CPGT4CP-qekC`.9kEg^+F$kwViFJTB&5KTB&5KTB&5KTB&5KTB&5K'
	DB	'TB&5KTB&5KTB&5KTB&5KTB&5KTB&5KTB&5KTB&5KTB&5KTB&5o,^<-28ZI''O'
	DB	'?;xpO?;xpO?;xpO?;xpO?;xpO?;xpO?;xpO?;xpO?;xpO?;xpO?;xpO?;xpO?'
	DB	';xpO?;xp;7q-#lLYI:xvD=#', 00H		; proggy_clean_ttf_compressed_data_base85
	ORG $+3
?FONT_ATLAS_DEFAULT_TEX_CURSOR_DATA@@3QAY02$$CBUImVec2@@A DD 000000000r ; 0 ; FONT_ATLAS_DEFAULT_TEX_CURSOR_DATA
	DD	040400000r			; 3
	DD	041400000r			; 12
	DD	041980000r			; 19
	DD	000000000r			; 0
	DD	000000000r			; 0
	DD	041500000r			; 13
	DD	000000000r			; 0
	DD	040e00000r			; 7
	DD	041800000r			; 16
	DD	03f800000r			; 1
	DD	041000000r			; 8
	DD	041f80000r			; 31
	DD	000000000r			; 0
	DD	041b80000r			; 23
	DD	041b80000r			; 23
	DD	041300000r			; 11
	DD	041300000r			; 11
	DD	041a80000r			; 21
	DD	000000000r			; 0
	DD	041100000r			; 9
	DD	041b80000r			; 23
	DD	040800000r			; 4
	DD	041300000r			; 11
	DD	0425c0000r			; 55
	DD	041900000r			; 18
	DD	041b80000r			; 23
	DD	041100000r			; 9
	DD	041300000r			; 11
	DD	040800000r			; 4
	DD	042920000r			; 73
	DD	000000000r			; 0
	DD	041880000r			; 17
	DD	041880000r			; 17
	DD	041000000r			; 8
	DD	041000000r			; 8
	DD	0425c0000r			; 55
	DD	000000000r			; 0
	DD	041880000r			; 17
	DD	041880000r			; 17
	DD	041000000r			; 8
	DD	041000000r			; 8
	DD	042b60000r			; 91
	DD	000000000r			; 0
	DD	041880000r			; 17
	DD	041b00000r			; 22
	DD	040a00000r			; 5
	DD	000000000r			; 0
	DD	042da0000r			; 109
	DD	000000000r			; 0
	DD	041500000r			; 13
	DD	041700000r			; 15
	DD	040c00000r			; 6
	DD	040e00000r			; 7
	ORG $+6
?FONT_ATLAS_DEFAULT_TEX_DATA_PIXELS@@3QBDB DB '..-         -XXXXXXX-    X'
	DB	'    -           X           -XXXXXXX          -          XXXX'
	DB	'XXX-     XX          - XX       XX ..-         -X.....X-   X.'
	DB	'X   -          X.X          -X.....X          -          X...'
	DB	'..X-    X..X         -X..X     X..X---         -XXX.XXX-  X..'
	DB	'.X  -         X...X         -X....X           -           X..'
	DB	'..X-    X..X         -X...X   X...XX           -  X.X  - X...'
	DB	'..X -        X.....X        -X...X            -            X.'
	DB	'..X-    X..X         - X...X X...X XX          -  X.X  -X....'
	DB	'...X-       X.......X       -X..X.X           -           X.X'
	DB	'..X-    X..X         -  X...X...X  X.X         -  X.X  -XXXX.'
	DB	'XXXX-       XXXX.XXXX       -X.X X.X          -          X.X '
	DB	'X.X-    X..XXX       -   X.....X   X..X        -  X.X  -   X.'
	DB	'X   -          X.X          -XX   X.X         -         X.X  '
	DB	' XX-    X..X..XXX    -    X...X    X...X       -  X.X  -   X.'
	DB	'X   -    XX    X.X    XX    -      X.X        -        X.X   '
	DB	'   -    X..X..X..XX  -     X.X     X....X      -  X.X  -   X.'
	DB	'X   -   X.X    X.X    X.X   -       X.X       -       X.X    '
	DB	'   -    X..X..X..X.X -    X...X    X.....X     -  X.X  -   X.'
	DB	'X   -  X..X    X.X    X..X  -        X.X      -      X.X     '
	DB	'   -XXX X..X..X..X..X-   X.....X   X......X    -  X.X  -   X.'
	DB	'X   - X...XXXXXX.XXXXXX...X -         X.X   XX-XX   X.X      '
	DB	'   -X..XX........X..X-  X...X...X  X.......X   -  X.X  -   X.'
	DB	'X   -X.....................X-          X.X X.X-X.X X.X       '
	DB	'   -X...X...........X- X...X X...X X........X  -  X.X  -   X.'
	DB	'X   - X...XXXXXX.XXXXXX...X -           X.X..X-X..X.X        '
	DB	'   - X..............X-X...X   X...XX.........X -XXX.XXX-   X.'
	DB	'X   -  X..X    X.X    X..X  -            X...X-X...X         '
	DB	'   -  X.............X-X..X     X..XX..........X-X.....X-   X.'
	DB	'X   -   X.X    X.X    X.X   -           X....X-X....X        '
	DB	'   -  X.............X- XX       XX X......XXXXX-XXXXXXX-   X.'
	DB	'X   -    XX    X.X    XX    -          X.....X-X.....X       '
	DB	'   -   X............X--------------X...X..X    ---------   X.'
	DB	'X   -          X.X          -          XXXXXXX-XXXXXXX       '
	DB	'   -   X...........X -             X..X X..X   -       -XXXX.'
	DB	'XXXX-       XXXX.XXXX       ---------------------------------'
	DB	'----    X..........X -             X.X  X..X   -       -X....'
	DB	'...X-       X.......X       -    XX           XX    -        '
	DB	'   -    X..........X -             XX    X..X  -       - X...'
	DB	'..X -        X.....X        -   X.X           X.X   -        '
	DB	'   -     X........X  -                   X..X  -       -  X..'
	DB	'.X  -         X...X         -  X..X           X..X  -        '
	DB	'   -     X........X  -                    XX   -       -   X.'
	DB	'X   -          X.X          - X...XXXXXXXXXXXXX...X -        '
	DB	'   -     XXXXXXXXXX  -             -------------       -    X'
	DB	'    -           X           -X.....................X-        '
	DB	'   -------------------                                 ------'
	DB	'----------------------------- X...XXXXXXXXXXXXX...X -        '
	DB	'                                                             '
	DB	'                            -  X..X           X..X  -        '
	DB	'                                                             '
	DB	'                            -   X.X           X.X   -        '
	DB	'                                                             '
	DB	'                            -    XX           XX    -        '
	DB	'                                   ', 00H	; FONT_ATLAS_DEFAULT_TEX_DATA_PIXELS
PUBLIC	??_GImFont@@QEAAPEAXI@Z				; ImFont::`scalar deleting destructor'
PUBLIC	??$IM_DELETE@UImFont@@@@YAXPEAUImFont@@@Z	; IM_DELETE<ImFont>
PUBLIC	?_grow_capacity@?$ImVector@UImDrawChannel@@@@QEBAHH@Z ; ImVector<ImDrawChannel>::_grow_capacity
PUBLIC	?_grow_capacity@?$ImVector@UImDrawVert@@@@QEBAHH@Z ; ImVector<ImDrawVert>::_grow_capacity
PUBLIC	?_grow_capacity@?$ImVector@UImVec4@@@@QEBAHH@Z	; ImVector<ImVec4>::_grow_capacity
PUBLIC	?reserve@?$ImVector@UImVec4@@@@QEAAXH@Z		; ImVector<ImVec4>::reserve
PUBLIC	?_grow_capacity@?$ImVector@PEAX@@QEBAHH@Z	; ImVector<void *>::_grow_capacity
PUBLIC	?reserve@?$ImVector@PEAX@@QEAAXH@Z		; ImVector<void *>::reserve
PUBLIC	?_grow_capacity@?$ImVector@UImFontAtlasCustomRect@@@@QEBAHH@Z ; ImVector<ImFontAtlasCustomRect>::_grow_capacity
PUBLIC	?reserve@?$ImVector@UImFontAtlasCustomRect@@@@QEAAXH@Z ; ImVector<ImFontAtlasCustomRect>::reserve
PUBLIC	?_grow_capacity@?$ImVector@UImFontConfig@@@@QEBAHH@Z ; ImVector<ImFontConfig>::_grow_capacity
PUBLIC	?reserve@?$ImVector@UImFontConfig@@@@QEAAXH@Z	; ImVector<ImFontConfig>::reserve
PUBLIC	?_grow_capacity@?$ImVector@UImFontGlyph@@@@QEBAHH@Z ; ImVector<ImFontGlyph>::_grow_capacity
PUBLIC	?reserve@?$ImVector@UImFontGlyph@@@@QEAAXH@Z	; ImVector<ImFontGlyph>::reserve
PUBLIC	?clear@?$ImVector@UImFontBuildSrcData@@@@QEAAXXZ ; ImVector<ImFontBuildSrcData>::clear
PUBLIC	?_grow_capacity@?$ImVector@UImFontBuildSrcData@@@@QEBAHH@Z ; ImVector<ImFontBuildSrcData>::_grow_capacity
PUBLIC	?reserve@?$ImVector@UImFontBuildSrcData@@@@QEAAXH@Z ; ImVector<ImFontBuildSrcData>::reserve
PUBLIC	?_grow_capacity@?$ImVector@UImFontBuildDstData@@@@QEBAHH@Z ; ImVector<ImFontBuildDstData>::_grow_capacity
PUBLIC	?reserve@?$ImVector@UImFontBuildDstData@@@@QEAAXH@Z ; ImVector<ImFontBuildDstData>::reserve
PUBLIC	?_grow_capacity@?$ImVector@Ustbrp_rect@@@@QEBAHH@Z ; ImVector<stbrp_rect>::_grow_capacity
PUBLIC	?reserve@?$ImVector@Ustbrp_rect@@@@QEAAXH@Z	; ImVector<stbrp_rect>::reserve
PUBLIC	?_grow_capacity@?$ImVector@Ustbtt_packedchar@@@@QEBAHH@Z ; ImVector<stbtt_packedchar>::_grow_capacity
PUBLIC	?reserve@?$ImVector@Ustbtt_packedchar@@@@QEAAXH@Z ; ImVector<stbtt_packedchar>::reserve
PUBLIC	??1ImBitVector@@QEAA@XZ				; ImBitVector::~ImBitVector
PUBLIC	??1ImFontBuildSrcData@@QEAA@XZ			; ImFontBuildSrcData::~ImFontBuildSrcData
PUBLIC	??_GImFontBuildSrcData@@QEAAPEAXI@Z		; ImFontBuildSrcData::`scalar deleting destructor'
PUBLIC	?resize@?$ImVector@G@@QEAAXHAEBG@Z		; ImVector<unsigned short>::resize
PUBLIC	?clear@?$ImVector@UImDrawCmd@@@@QEAAXXZ		; ImVector<ImDrawCmd>::clear
PUBLIC	??A?$ImVector@UImDrawCmd@@@@QEAAAEAUImDrawCmd@@H@Z ; ImVector<ImDrawCmd>::operator[]
PUBLIC	?resize@?$ImVector@UImDrawCmd@@@@QEAAXH@Z	; ImVector<ImDrawCmd>::resize
PUBLIC	?erase@?$ImVector@UImDrawCmd@@@@QEAAPEAUImDrawCmd@@PEBU2@@Z ; ImVector<ImDrawCmd>::erase
PUBLIC	??A?$ImVector@UImDrawChannel@@@@QEAAAEAUImDrawChannel@@H@Z ; ImVector<ImDrawChannel>::operator[]
PUBLIC	?resize@?$ImVector@UImDrawChannel@@@@QEAAXH@Z	; ImVector<ImDrawChannel>::resize
PUBLIC	?reserve@?$ImVector@UImDrawChannel@@@@QEAAXH@Z	; ImVector<ImDrawChannel>::reserve
PUBLIC	?clear@?$ImVector@UImDrawVert@@@@QEAAXXZ	; ImVector<ImDrawVert>::clear
PUBLIC	?resize@?$ImVector@UImDrawVert@@@@QEAAXH@Z	; ImVector<ImDrawVert>::resize
PUBLIC	?clear@?$ImVector@UImVec4@@@@QEAAXXZ		; ImVector<ImVec4>::clear
PUBLIC	?resize@?$ImVector@UImVec4@@@@QEAAXH@Z		; ImVector<ImVec4>::resize
PUBLIC	?push_back@?$ImVector@UImVec4@@@@QEAAXAEBUImVec4@@@Z ; ImVector<ImVec4>::push_back
PUBLIC	?pop_back@?$ImVector@UImVec4@@@@QEAAXXZ		; ImVector<ImVec4>::pop_back
PUBLIC	?clear@?$ImVector@PEAX@@QEAAXXZ			; ImVector<void *>::clear
PUBLIC	?resize@?$ImVector@PEAX@@QEAAXH@Z		; ImVector<void *>::resize
PUBLIC	?push_back@?$ImVector@PEAX@@QEAAXAEBQEAX@Z	; ImVector<void *>::push_back
PUBLIC	?pop_back@?$ImVector@PEAX@@QEAAXXZ		; ImVector<void *>::pop_back
PUBLIC	?reserve_discard@?$ImVector@UImVec2@@@@QEAAXH@Z	; ImVector<ImVec2>::reserve_discard
PUBLIC	?push_back@?$ImVector@PEAUImDrawList@@@@QEAAXAEBQEAUImDrawList@@@Z ; ImVector<ImDrawList *>::push_back
PUBLIC	?empty@?$ImVector@I@@QEBA_NXZ			; ImVector<unsigned int>::empty
PUBLIC	?begin@?$ImVector@I@@QEBAPEBIXZ			; ImVector<unsigned int>::begin
PUBLIC	?end@?$ImVector@I@@QEBAPEBIXZ			; ImVector<unsigned int>::end
PUBLIC	?clear_delete@?$ImVector@PEAUImFont@@@@QEAAXXZ	; ImVector<ImFont *>::clear_delete
PUBLIC	??0?$ImVector@UImFontAtlasCustomRect@@@@QEAA@XZ	; ImVector<ImFontAtlasCustomRect>::ImVector<ImFontAtlasCustomRect>
PUBLIC	??1?$ImVector@UImFontAtlasCustomRect@@@@QEAA@XZ	; ImVector<ImFontAtlasCustomRect>::~ImVector<ImFontAtlasCustomRect>
PUBLIC	?clear@?$ImVector@UImFontAtlasCustomRect@@@@QEAAXXZ ; ImVector<ImFontAtlasCustomRect>::clear
PUBLIC	??A?$ImVector@UImFontAtlasCustomRect@@@@QEAAAEAUImFontAtlasCustomRect@@H@Z ; ImVector<ImFontAtlasCustomRect>::operator[]
PUBLIC	?push_back@?$ImVector@UImFontAtlasCustomRect@@@@QEAAXAEBUImFontAtlasCustomRect@@@Z ; ImVector<ImFontAtlasCustomRect>::push_back
PUBLIC	??0?$ImVector@UImFontConfig@@@@QEAA@XZ		; ImVector<ImFontConfig>::ImVector<ImFontConfig>
PUBLIC	??1?$ImVector@UImFontConfig@@@@QEAA@XZ		; ImVector<ImFontConfig>::~ImVector<ImFontConfig>
PUBLIC	?clear@?$ImVector@UImFontConfig@@@@QEAAXXZ	; ImVector<ImFontConfig>::clear
PUBLIC	??A?$ImVector@UImFontConfig@@@@QEAAAEAUImFontConfig@@H@Z ; ImVector<ImFontConfig>::operator[]
PUBLIC	?begin@?$ImVector@UImFontConfig@@@@QEAAPEAUImFontConfig@@XZ ; ImVector<ImFontConfig>::begin
PUBLIC	?end@?$ImVector@UImFontConfig@@@@QEAAPEAUImFontConfig@@XZ ; ImVector<ImFontConfig>::end
PUBLIC	?back@?$ImVector@UImFontConfig@@@@QEAAAEAUImFontConfig@@XZ ; ImVector<ImFontConfig>::back
PUBLIC	?push_back@?$ImVector@UImFontConfig@@@@QEAAXAEBUImFontConfig@@@Z ; ImVector<ImFontConfig>::push_back
PUBLIC	?resize@?$ImVector@M@@QEAAXHAEBM@Z		; ImVector<float>::resize
PUBLIC	??0?$ImVector@UImFontGlyph@@@@QEAA@XZ		; ImVector<ImFontGlyph>::ImVector<ImFontGlyph>
PUBLIC	??1?$ImVector@UImFontGlyph@@@@QEAA@XZ		; ImVector<ImFontGlyph>::~ImVector<ImFontGlyph>
PUBLIC	?clear@?$ImVector@UImFontGlyph@@@@QEAAXXZ	; ImVector<ImFontGlyph>::clear
PUBLIC	??A?$ImVector@UImFontGlyph@@@@QEAAAEAUImFontGlyph@@H@Z ; ImVector<ImFontGlyph>::operator[]
PUBLIC	?back@?$ImVector@UImFontGlyph@@@@QEAAAEAUImFontGlyph@@XZ ; ImVector<ImFontGlyph>::back
PUBLIC	?resize@?$ImVector@UImFontGlyph@@@@QEAAXH@Z	; ImVector<ImFontGlyph>::resize
PUBLIC	??0?$ImVector@UImFontBuildSrcData@@@@QEAA@XZ	; ImVector<ImFontBuildSrcData>::ImVector<ImFontBuildSrcData>
PUBLIC	??1?$ImVector@UImFontBuildSrcData@@@@QEAA@XZ	; ImVector<ImFontBuildSrcData>::~ImVector<ImFontBuildSrcData>
PUBLIC	?clear_destruct@?$ImVector@UImFontBuildSrcData@@@@QEAAXXZ ; ImVector<ImFontBuildSrcData>::clear_destruct
PUBLIC	?size_in_bytes@?$ImVector@UImFontBuildSrcData@@@@QEBAHXZ ; ImVector<ImFontBuildSrcData>::size_in_bytes
PUBLIC	??A?$ImVector@UImFontBuildSrcData@@@@QEAAAEAUImFontBuildSrcData@@H@Z ; ImVector<ImFontBuildSrcData>::operator[]
PUBLIC	?resize@?$ImVector@UImFontBuildSrcData@@@@QEAAXH@Z ; ImVector<ImFontBuildSrcData>::resize
PUBLIC	??0?$ImVector@UImFontBuildDstData@@@@QEAA@XZ	; ImVector<ImFontBuildDstData>::ImVector<ImFontBuildDstData>
PUBLIC	??1?$ImVector@UImFontBuildDstData@@@@QEAA@XZ	; ImVector<ImFontBuildDstData>::~ImVector<ImFontBuildDstData>
PUBLIC	?clear@?$ImVector@UImFontBuildDstData@@@@QEAAXXZ ; ImVector<ImFontBuildDstData>::clear
PUBLIC	?size_in_bytes@?$ImVector@UImFontBuildDstData@@@@QEBAHXZ ; ImVector<ImFontBuildDstData>::size_in_bytes
PUBLIC	??A?$ImVector@UImFontBuildDstData@@@@QEAAAEAUImFontBuildDstData@@H@Z ; ImVector<ImFontBuildDstData>::operator[]
PUBLIC	?resize@?$ImVector@UImFontBuildDstData@@@@QEAAXH@Z ; ImVector<ImFontBuildDstData>::resize
PUBLIC	??0?$ImVector@Ustbrp_rect@@@@QEAA@XZ		; ImVector<stbrp_rect>::ImVector<stbrp_rect>
PUBLIC	??1?$ImVector@Ustbrp_rect@@@@QEAA@XZ		; ImVector<stbrp_rect>::~ImVector<stbrp_rect>
PUBLIC	?clear@?$ImVector@Ustbrp_rect@@@@QEAAXXZ	; ImVector<stbrp_rect>::clear
PUBLIC	?size_in_bytes@?$ImVector@Ustbrp_rect@@@@QEBAHXZ ; ImVector<stbrp_rect>::size_in_bytes
PUBLIC	??A?$ImVector@Ustbrp_rect@@@@QEAAAEAUstbrp_rect@@H@Z ; ImVector<stbrp_rect>::operator[]
PUBLIC	?resize@?$ImVector@Ustbrp_rect@@@@QEAAXH@Z	; ImVector<stbrp_rect>::resize
PUBLIC	??0?$ImVector@Ustbtt_packedchar@@@@QEAA@XZ	; ImVector<stbtt_packedchar>::ImVector<stbtt_packedchar>
PUBLIC	??1?$ImVector@Ustbtt_packedchar@@@@QEAA@XZ	; ImVector<stbtt_packedchar>::~ImVector<stbtt_packedchar>
PUBLIC	?size_in_bytes@?$ImVector@Ustbtt_packedchar@@@@QEBAHXZ ; ImVector<stbtt_packedchar>::size_in_bytes
PUBLIC	??A?$ImVector@Ustbtt_packedchar@@@@QEAAAEAUstbtt_packedchar@@H@Z ; ImVector<stbtt_packedchar>::operator[]
PUBLIC	?resize@?$ImVector@Ustbtt_packedchar@@@@QEAAXH@Z ; ImVector<stbtt_packedchar>::resize
PUBLIC	?RenderColorRectWithAlphaCheckerboard@ImGui@@YAXPEAUImDrawList@@UImVec2@@1IM1MH@Z ; ImGui::RenderColorRectWithAlphaCheckerboard
PUBLIC	?RenderArrowDockMenu@ImGui@@YAXPEAUImDrawList@@UImVec2@@MI@Z ; ImGui::RenderArrowDockMenu
PUBLIC	?RenderArrowPointingAt@ImGui@@YAXPEAUImDrawList@@UImVec2@@1HI@Z ; ImGui::RenderArrowPointingAt
PUBLIC	?RenderCheckMark@ImGui@@YAXPEAUImDrawList@@UImVec2@@IM@Z ; ImGui::RenderCheckMark
PUBLIC	?RenderArrow@ImGui@@YAXPEAUImDrawList@@UImVec2@@IHM@Z ; ImGui::RenderArrow
PUBLIC	?RenderText@ImFont@@QEBAXPEAUImDrawList@@MAEBUImVec2@@IAEBUImVec4@@PEBD3M_N@Z ; ImFont::RenderText
PUBLIC	?CalcWordWrapPositionA@ImFont@@QEBAPEBDMPEBD0M@Z ; ImFont::CalcWordWrapPositionA
PUBLIC	?FindGlyph@ImFont@@QEBAPEBUImFontGlyph@@G@Z	; ImFont::FindGlyph
PUBLIC	?AddGlyph@ImFont@@QEAAXPEBUImFontConfig@@GMMMMMMMMM@Z ; ImFont::AddGlyph
PUBLIC	?GrowIndex@ImFont@@QEAAXH@Z			; ImFont::GrowIndex
PUBLIC	?SetGlyphVisible@ImFont@@QEAAXG_N@Z		; ImFont::SetGlyphVisible
PUBLIC	?BuildLookupTable@ImFont@@QEAAXXZ		; ImFont::BuildLookupTable
PUBLIC	?ClearOutputData@ImFont@@QEAAXXZ		; ImFont::ClearOutputData
PUBLIC	?GetGlyphRangesDefault@ImFontAtlas@@QEAAPEBGXZ	; ImFontAtlas::GetGlyphRangesDefault
PUBLIC	?ImFontAtlasBuildFinish@@YAXPEAUImFontAtlas@@@Z	; ImFontAtlasBuildFinish
PUBLIC	?ImFontAtlasBuildInit@@YAXPEAUImFontAtlas@@@Z	; ImFontAtlasBuildInit
PUBLIC	?ImFontAtlasBuildRender32bppRectFromString@@YAXPEAUImFontAtlas@@HHHHPEBDDI@Z ; ImFontAtlasBuildRender32bppRectFromString
PUBLIC	?ImFontAtlasBuildRender8bppRectFromString@@YAXPEAUImFontAtlas@@HHHHPEBDDE@Z ; ImFontAtlasBuildRender8bppRectFromString
PUBLIC	?ImFontAtlasBuildPackCustomRects@@YAXPEAUImFontAtlas@@PEAX@Z ; ImFontAtlasBuildPackCustomRects
PUBLIC	?ImFontAtlasBuildSetupFont@@YAXPEAUImFontAtlas@@PEAUImFont@@PEAUImFontConfig@@MM@Z ; ImFontAtlasBuildSetupFont
PUBLIC	?ImFontAtlasUpdateConfigDataPointers@@YAXPEAUImFontAtlas@@@Z ; ImFontAtlasUpdateConfigDataPointers
PUBLIC	?ImFontAtlasGetBuilderForStbTruetype@@YAPEBUImFontBuilderIO@@XZ ; ImFontAtlasGetBuilderForStbTruetype
PUBLIC	?ImFontAtlasBuildMultiplyRectAlpha8@@YAXQEBEPEAEHHHHH@Z ; ImFontAtlasBuildMultiplyRectAlpha8
PUBLIC	?ImFontAtlasBuildMultiplyCalcLookupTable@@YAXQEAEM@Z ; ImFontAtlasBuildMultiplyCalcLookupTable
PUBLIC	?Build@ImFontAtlas@@QEAA_NXZ			; ImFontAtlas::Build
PUBLIC	?CalcCustomRectUV@ImFontAtlas@@QEBAXPEBUImFontAtlasCustomRect@@PEAUImVec2@@1@Z ; ImFontAtlas::CalcCustomRectUV
PUBLIC	?AddCustomRectRegular@ImFontAtlas@@QEAAHHH@Z	; ImFontAtlas::AddCustomRectRegular
PUBLIC	?AddFontFromMemoryCompressedBase85TTF@ImFontAtlas@@QEAAPEAUImFont@@PEBDMPEBUImFontConfig@@PEBG@Z ; ImFontAtlas::AddFontFromMemoryCompressedBase85TTF
PUBLIC	?AddFontFromMemoryCompressedTTF@ImFontAtlas@@QEAAPEAUImFont@@PEBXHMPEBUImFontConfig@@PEBG@Z ; ImFontAtlas::AddFontFromMemoryCompressedTTF
PUBLIC	?AddFontFromMemoryTTF@ImFontAtlas@@QEAAPEAUImFont@@PEAXHMPEBUImFontConfig@@PEBG@Z ; ImFontAtlas::AddFontFromMemoryTTF
PUBLIC	?AddFontDefault@ImFontAtlas@@QEAAPEAUImFont@@PEBUImFontConfig@@@Z ; ImFontAtlas::AddFontDefault
PUBLIC	?AddFont@ImFontAtlas@@QEAAPEAUImFont@@PEBUImFontConfig@@@Z ; ImFontAtlas::AddFont
PUBLIC	?GetTexDataAsAlpha8@ImFontAtlas@@QEAAXPEAPEAEPEAH11@Z ; ImFontAtlas::GetTexDataAsAlpha8
PUBLIC	?Clear@ImFontAtlas@@QEAAXXZ			; ImFontAtlas::Clear
PUBLIC	?ClearFonts@ImFontAtlas@@QEAAXXZ		; ImFontAtlas::ClearFonts
PUBLIC	?ClearTexData@ImFontAtlas@@QEAAXXZ		; ImFontAtlas::ClearTexData
PUBLIC	?ClearInputData@ImFontAtlas@@QEAAXXZ		; ImFontAtlas::ClearInputData
PUBLIC	?ShadeVertsLinearColorGradientKeepAlpha@ImGui@@YAXPEAUImDrawList@@HHUImVec2@@1II@Z ; ImGui::ShadeVertsLinearColorGradientKeepAlpha
PUBLIC	??0ImDrawChannel@@QEAA@XZ			; ImDrawChannel::ImDrawChannel
PUBLIC	?PathRect@ImDrawList@@QEAAXAEBUImVec2@@0MH@Z	; ImDrawList::PathRect
PUBLIC	?_PathArcToN@ImDrawList@@QEAAXAEBUImVec2@@MMMH@Z ; ImDrawList::_PathArcToN
PUBLIC	?_PathArcToFastEx@ImDrawList@@QEAAXAEBUImVec2@@MHHH@Z ; ImDrawList::_PathArcToFastEx
PUBLIC	?PrimRectUV@ImDrawList@@QEAAXAEBUImVec2@@000I@Z	; ImDrawList::PrimRectUV
PUBLIC	?PrimRect@ImDrawList@@QEAAXAEBUImVec2@@0I@Z	; ImDrawList::PrimRect
PUBLIC	?PrimReserve@ImDrawList@@QEAAXHH@Z		; ImDrawList::PrimReserve
PUBLIC	?_OnChangedVtxOffset@ImDrawList@@QEAAXXZ	; ImDrawList::_OnChangedVtxOffset
PUBLIC	?_OnChangedTextureID@ImDrawList@@QEAAXXZ	; ImDrawList::_OnChangedTextureID
PUBLIC	?_OnChangedClipRect@ImDrawList@@QEAAXXZ		; ImDrawList::_OnChangedClipRect
PUBLIC	?SetBit@ImBitVector@@QEAAXH@Z			; ImBitVector::SetBit
PUBLIC	?TestBit@ImBitVector@@QEBA_NH@Z			; ImBitVector::TestBit
PUBLIC	?Clear@ImBitVector@@QEAAXXZ			; ImBitVector::Clear
PUBLIC	?Create@ImBitVector@@QEAAXH@Z			; ImBitVector::Create
PUBLIC	?GetCustomRectByIndex@ImFontAtlas@@QEAAPEAUImFontAtlasCustomRect@@H@Z ; ImFontAtlas::GetCustomRectByIndex
PUBLIC	??0ImFontAtlasCustomRect@@QEAA@XZ		; ImFontAtlasCustomRect::ImFontAtlasCustomRect
PUBLIC	?PrimWriteIdx@ImDrawList@@QEAAXG@Z		; ImDrawList::PrimWriteIdx
PUBLIC	?PrimWriteVtx@ImDrawList@@QEAAXAEBUImVec2@@0I@Z	; ImDrawList::PrimWriteVtx
PUBLIC	?Clear@ImDrawListSplitter@@QEAAXXZ		; ImDrawListSplitter::Clear
PUBLIC	??0ImDrawCmd@@QEAA@XZ				; ImDrawCmd::ImDrawCmd
PUBLIC	?_CalcCircleAutoSegmentCount@ImDrawList@@QEBAHM@Z ; ImDrawList::_CalcCircleAutoSegmentCount
PUBLIC	?AddCircleFilled@ImDrawList@@QEAAXAEBUImVec2@@MIH@Z ; ImDrawList::AddCircleFilled
PUBLIC	?AddCircle@ImDrawList@@QEAAXAEBUImVec2@@MIHM@Z	; ImDrawList::AddCircle
PUBLIC	?AddTriangle@ImDrawList@@QEAAXAEBUImVec2@@00IM@Z ; ImDrawList::AddTriangle
PUBLIC	?AddRectFilledMultiColor@ImDrawList@@QEAAXAEBUImVec2@@0IIII@Z ; ImDrawList::AddRectFilledMultiColor
PUBLIC	?RenderChar@ImFont@@QEBAXPEAUImDrawList@@MAEBUImVec2@@IG@Z ; ImFont::RenderChar
PUBLIC	?CalcTextSizeA@ImFont@@QEBA?AUImVec2@@MMMPEBD0PEAPEBD@Z ; ImFont::CalcTextSizeA
PUBLIC	?FindGlyphNoFallback@ImFont@@QEBAPEBUImFontGlyph@@G@Z ; ImFont::FindGlyphNoFallback
PUBLIC	??1ImFont@@QEAA@XZ				; ImFont::~ImFont
PUBLIC	??0ImFont@@QEAA@XZ				; ImFont::ImFont
PUBLIC	?SetCurrentChannel@ImDrawListSplitter@@QEAAXPEAUImDrawList@@H@Z ; ImDrawListSplitter::SetCurrentChannel
PUBLIC	?Merge@ImDrawListSplitter@@QEAAXPEAUImDrawList@@@Z ; ImDrawListSplitter::Merge
PUBLIC	?Split@ImDrawListSplitter@@QEAAXPEAUImDrawList@@H@Z ; ImDrawListSplitter::Split
PUBLIC	?ClearFreeMemory@ImDrawListSplitter@@QEAAXXZ	; ImDrawListSplitter::ClearFreeMemory
PUBLIC	?_PopUnusedDrawCmd@ImDrawList@@QEAAXXZ		; ImDrawList::_PopUnusedDrawCmd
PUBLIC	?_ClearFreeMemory@ImDrawList@@QEAAXXZ		; ImDrawList::_ClearFreeMemory
PUBLIC	?_ResetForNewFrame@ImDrawList@@QEAAXXZ		; ImDrawList::_ResetForNewFrame
PUBLIC	?AddDrawCmd@ImDrawList@@QEAAXXZ			; ImDrawList::AddDrawCmd
PUBLIC	?PathArcToFast@ImDrawList@@QEAAXAEBUImVec2@@MHH@Z ; ImDrawList::PathArcToFast
PUBLIC	?PathArcTo@ImDrawList@@QEAAXAEBUImVec2@@MMMH@Z	; ImDrawList::PathArcTo
PUBLIC	?AddConvexPolyFilled@ImDrawList@@QEAAXPEBUImVec2@@HI@Z ; ImDrawList::AddConvexPolyFilled
PUBLIC	?AddPolyline@ImDrawList@@QEAAXPEBUImVec2@@HIHM@Z ; ImDrawList::AddPolyline
PUBLIC	?AddText@ImDrawList@@QEAAXPEBUImFont@@MAEBUImVec2@@IPEBD2MPEBUImVec4@@@Z ; ImDrawList::AddText
PUBLIC	?AddTriangleFilled@ImDrawList@@QEAAXAEBUImVec2@@00I@Z ; ImDrawList::AddTriangleFilled
PUBLIC	?AddRect@ImDrawList@@QEAAXAEBUImVec2@@0IMHM@Z	; ImDrawList::AddRect
PUBLIC	?PopTextureID@ImDrawList@@QEAAXXZ		; ImDrawList::PopTextureID
PUBLIC	?PushTextureID@ImDrawList@@QEAAXPEAX@Z		; ImDrawList::PushTextureID
PUBLIC	?PopClipRect@ImDrawList@@QEAAXXZ		; ImDrawList::PopClipRect
PUBLIC	?PushClipRectFullScreen@ImDrawList@@QEAAXXZ	; ImDrawList::PushClipRectFullScreen
PUBLIC	?PushClipRect@ImDrawList@@QEAAXAEBUImVec2@@0_N@Z ; ImDrawList::PushClipRect
PUBLIC	?SetCircleTessellationMaxError@ImDrawListSharedData@@QEAAXM@Z ; ImDrawListSharedData::SetCircleTessellationMaxError
PUBLIC	??0ImDrawListSharedData@@QEAA@XZ		; ImDrawListSharedData::ImDrawListSharedData
PUBLIC	?GetMouseCursorTexData@ImFontAtlas@@QEAA_NHPEAUImVec2@@0QEAU2@1@Z ; ImFontAtlas::GetMouseCursorTexData
PUBLIC	??1ImFontAtlas@@QEAA@XZ				; ImFontAtlas::~ImFontAtlas
PUBLIC	??0ImFontAtlas@@QEAA@XZ				; ImFontAtlas::ImFontAtlas
PUBLIC	?Clear@ImDrawData@@QEAAXXZ			; ImDrawData::Clear
PUBLIC	?CalcRoundingFlagsForRectInRect@ImGui@@YAHAEBUImRect@@0M@Z ; ImGui::CalcRoundingFlagsForRectInRect
PUBLIC	?RenderRectFilledWithHole@ImGui@@YAXPEAUImDrawList@@AEBUImRect@@1IM@Z ; ImGui::RenderRectFilledWithHole
PUBLIC	?AddDrawListToDrawDataEx@ImGui@@YAXPEAUImDrawData@@PEAU?$ImVector@PEAUImDrawList@@@@PEAUImDrawList@@@Z ; ImGui::AddDrawListToDrawDataEx
PUBLIC	?RenderBullet@ImGui@@YAXPEAUImDrawList@@UImVec2@@I@Z ; ImGui::RenderBullet
PUBLIC	?GetTexDataAsRGBA32@ImFontAtlas@@QEAAXPEAPEAEPEAH11@Z ; ImFontAtlas::GetTexDataAsRGBA32
PUBLIC	?StyleColorsDark@ImGui@@YAXPEAUImGuiStyle@@@Z	; ImGui::StyleColorsDark
PUBLIC	??0ImFontConfig@@QEAA@XZ			; ImFontConfig::ImFontConfig
PUBLIC	?AddFontFromFileTTF@ImFontAtlas@@QEAAPEAUImFont@@PEBDMPEBUImFontConfig@@PEBG@Z ; ImFontAtlas::AddFontFromFileTTF
PUBLIC	?AddImage@ImDrawList@@QEAAXPEAXAEBUImVec2@@111I@Z ; ImDrawList::AddImage
PUBLIC	?AddRectFilled@ImDrawList@@QEAAXAEBUImVec2@@0IMH@Z ; ImDrawList::AddRectFilled
PUBLIC	?AddLine@ImDrawList@@QEAAXAEBUImVec2@@0IM@Z	; ImDrawList::AddLine
?stb__barrier_in_b@@3PEBEEB DQ 01H DUP (?)		; stb__barrier_in_b
_BSS	ENDS
;	COMDAT ?io@?1??ImFontAtlasGetBuilderForStbTruetype@@YAPEBUImFontBuilderIO@@XZ@4U2@A
_BSS	SEGMENT
?io@?1??ImFontAtlasGetBuilderForStbTruetype@@YAPEBUImFontBuilderIO@@XZ@4U2@A DQ 01H DUP (?) ; `ImFontAtlasGetBuilderForStbTruetype'::`2'::io
?stb__barrier_out_e@@3PEAEEA DQ 01H DUP (?)		; stb__barrier_out_e
?stb__barrier_out_b@@3PEAEEA DQ 01H DUP (?)		; stb__barrier_out_b
?stb__dout@@3PEAEEA DQ 01H DUP (?)			; stb__dout
_BSS	ENDS
;	COMDAT pdata
pdata	SEGMENT
$pdata$??_GImFont@@QEAAPEAXI@Z DD imagerel $LN6@scalar
	DD	imagerel $LN6@scalar+23
	DD	imagerel $unwind$??_GImFont@@QEAAPEAXI@Z
pdata	ENDS
;	COMDAT pdata
pdata	SEGMENT
$pdata$??$IM_DELETE@UImFont@@@@YAXPEAUImFont@@@Z DD imagerel $LN23@IM_DELETE
	DD	imagerel $LN23@IM_DELETE+146
	DD	imagerel $unwind$??$IM_DELETE@UImFont@@@@YAXPEAUImFont@@@Z
pdata	ENDS
;	COMDAT pdata
pdata	SEGMENT
$pdata$?reserve@?$ImVector@UImVec4@@@@QEAAXH@Z DD imagerel $LN19@reserve
	DD	imagerel $LN19@reserve+28
	DD	imagerel $unwind$?reserve@?$ImVector@UImVec4@@@@QEAAXH@Z
pdata	ENDS
;	COMDAT pdata
pdata	SEGMENT
$pdata$0$?reserve@?$ImVector@UImVec4@@@@QEAAXH@Z DD imagerel $LN19@reserve+28
	DD	imagerel $LN19@reserve+212
	DD	imagerel $chain$0$?reserve@?$ImVector@UImVec4@@@@QEAAXH@Z
pdata	ENDS
;	COMDAT pdata
pdata	SEGMENT
$pdata$1$?reserve@?$ImVector@UImVec4@@@@QEAAXH@Z DD imagerel $LN19@reserve+212
	DD	imagerel $LN19@reserve+223
	DD	imagerel $chain$1$?reserve@?$ImVector@UImVec4@@@@QEAAXH@Z
pdata	ENDS
;	COMDAT pdata
pdata	SEGMENT
$pdata$?reserve@?$ImVector@PEAX@@QEAAXH@Z DD imagerel $LN19@reserve
	DD	imagerel $LN19@reserve+28
	DD	imagerel $unwind$?reserve@?$ImVector@PEAX@@QEAAXH@Z
pdata	ENDS
;	COMDAT pdata
pdata	SEGMENT
$pdata$0$?reserve@?$ImVector@PEAX@@QEAAXH@Z DD imagerel $LN19@reserve+28
	DD	imagerel $LN19@reserve+212
	DD	imagerel $chain$0$?reserve@?$ImVector@PEAX@@QEAAXH@Z
pdata	ENDS
;	COMDAT pdata
pdata	SEGMENT
$pdata$1$?reserve@?$ImVector@PEAX@@QEAAXH@Z DD imagerel $LN19@reserve+212
	DD	imagerel $LN19@reserve+223
	DD	imagerel $chain$1$?reserve@?$ImVector@PEAX@@QEAAXH@Z
pdata	ENDS
;	COMDAT pdata
pdata	SEGMENT
$pdata$?reserve@?$ImVector@UImFontAtlasCustomRect@@@@QEAAXH@Z DD imagerel $LN19@reserve
	DD	imagerel $LN19@reserve+28
	DD	imagerel $unwind$?reserve@?$ImVector@UImFontAtlasCustomRect@@@@QEAAXH@Z
pdata	ENDS
;	COMDAT pdata
pdata	SEGMENT
$pdata$0$?reserve@?$ImVector@UImFontAtlasCustomRect@@@@QEAAXH@Z DD imagerel $LN19@reserve+28
	DD	imagerel $LN19@reserve+212
	DD	imagerel $chain$0$?reserve@?$ImVector@UImFontAtlasCustomRect@@@@QEAAXH@Z
pdata	ENDS
;	COMDAT pdata
pdata	SEGMENT
$pdata$1$?reserve@?$ImVector@UImFontAtlasCustomRect@@@@QEAAXH@Z DD imagerel $LN19@reserve+212
	DD	imagerel $LN19@reserve+223
	DD	imagerel $chain$1$?reserve@?$ImVector@UImFontAtlasCustomRect@@@@QEAAXH@Z
pdata	ENDS
;	COMDAT pdata
pdata	SEGMENT
$pdata$?reserve@?$ImVector@UImFontConfig@@@@QEAAXH@Z DD imagerel $LN19@reserve
	DD	imagerel $LN19@reserve+29
	DD	imagerel $unwind$?reserve@?$ImVector@UImFontConfig@@@@QEAAXH@Z
pdata	ENDS
;	COMDAT pdata
pdata	SEGMENT
$pdata$0$?reserve@?$ImVector@UImFontConfig@@@@QEAAXH@Z DD imagerel $LN19@reserve+29
	DD	imagerel $LN19@reserve+217
	DD	imagerel $chain$0$?reserve@?$ImVector@UImFontConfig@@@@QEAAXH@Z
pdata	ENDS
;	COMDAT pdata
pdata	SEGMENT
$pdata$1$?reserve@?$ImVector@UImFontConfig@@@@QEAAXH@Z DD imagerel $LN19@reserve+217
	DD	imagerel $LN19@reserve+228
	DD	imagerel $chain$1$?reserve@?$ImVector@UImFontConfig@@@@QEAAXH@Z
pdata	ENDS
;	COMDAT pdata
pdata	SEGMENT
$pdata$?reserve@?$ImVector@UImFontGlyph@@@@QEAAXH@Z DD imagerel $LN19@reserve
	DD	imagerel $LN19@reserve+29
	DD	imagerel $unwind$?reserve@?$ImVector@UImFontGlyph@@@@QEAAXH@Z
pdata	ENDS
;	COMDAT pdata
pdata	SEGMENT
$pdata$0$?reserve@?$ImVector@UImFontGlyph@@@@QEAAXH@Z DD imagerel $LN19@reserve+29
	DD	imagerel $LN19@reserve+217
	DD	imagerel $chain$0$?reserve@?$ImVector@UImFontGlyph@@@@QEAAXH@Z
pdata	ENDS
;	COMDAT pdata
pdata	SEGMENT
$pdata$1$?reserve@?$ImVector@UImFontGlyph@@@@QEAAXH@Z DD imagerel $LN19@reserve+217
	DD	imagerel $LN19@reserve+228
	DD	imagerel $chain$1$?reserve@?$ImVector@UImFontGlyph@@@@QEAAXH@Z
pdata	ENDS
;	COMDAT pdata
pdata	SEGMENT
$pdata$?clear@?$ImVector@UImFontBuildSrcData@@@@QEAAXXZ DD imagerel $LN18@clear
	DD	imagerel $LN18@clear+29
	DD	imagerel $unwind$?clear@?$ImVector@UImFontBuildSrcData@@@@QEAAXXZ
pdata	ENDS
;	COMDAT pdata
pdata	SEGMENT
$pdata$0$?clear@?$ImVector@UImFontBuildSrcData@@@@QEAAXXZ DD imagerel $LN18@clear+29
	DD	imagerel $LN18@clear+157
	DD	imagerel $chain$0$?clear@?$ImVector@UImFontBuildSrcData@@@@QEAAXXZ
pdata	ENDS
;	COMDAT pdata
pdata	SEGMENT
$pdata$1$?clear@?$ImVector@UImFontBuildSrcData@@@@QEAAXXZ DD imagerel $LN18@clear+157
	DD	imagerel $LN18@clear+163
	DD	imagerel $chain$1$?clear@?$ImVector@UImFontBuildSrcData@@@@QEAAXXZ
pdata	ENDS
;	COMDAT pdata
pdata	SEGMENT
$pdata$?reserve@?$ImVector@UImFontBuildSrcData@@@@QEAAXH@Z DD imagerel $LN19@reserve
	DD	imagerel $LN19@reserve+32
	DD	imagerel $unwind$?reserve@?$ImVector@UImFontBuildSrcData@@@@QEAAXH@Z
pdata	ENDS
;	COMDAT pdata
pdata	SEGMENT
$pdata$0$?reserve@?$ImVector@UImFontBuildSrcData@@@@QEAAXH@Z DD imagerel $LN19@reserve+32
	DD	imagerel $LN19@reserve+215
	DD	imagerel $chain$0$?reserve@?$ImVector@UImFontBuildSrcData@@@@QEAAXH@Z
pdata	ENDS
;	COMDAT pdata
pdata	SEGMENT
$pdata$1$?reserve@?$ImVector@UImFontBuildSrcData@@@@QEAAXH@Z DD imagerel $LN19@reserve+215
	DD	imagerel $LN19@reserve+226
	DD	imagerel $chain$1$?reserve@?$ImVector@UImFontBuildSrcData@@@@QEAAXH@Z
pdata	ENDS
;	COMDAT pdata
pdata	SEGMENT
$pdata$?reserve@?$ImVector@UImFontBuildDstData@@@@QEAAXH@Z DD imagerel $LN19@reserve
	DD	imagerel $LN19@reserve+28
	DD	imagerel $unwind$?reserve@?$ImVector@UImFontBuildDstData@@@@QEAAXH@Z
pdata	ENDS
;	COMDAT pdata
pdata	SEGMENT
$pdata$0$?reserve@?$ImVector@UImFontBuildDstData@@@@QEAAXH@Z DD imagerel $LN19@reserve+28
	DD	imagerel $LN19@reserve+212
	DD	imagerel $chain$0$?reserve@?$ImVector@UImFontBuildDstData@@@@QEAAXH@Z
pdata	ENDS
;	COMDAT pdata
pdata	SEGMENT
$pdata$1$?reserve@?$ImVector@UImFontBuildDstData@@@@QEAAXH@Z DD imagerel $LN19@reserve+212
	DD	imagerel $LN19@reserve+223
	DD	imagerel $chain$1$?reserve@?$ImVector@UImFontBuildDstData@@@@QEAAXH@Z
pdata	ENDS
;	COMDAT pdata
pdata	SEGMENT
$pdata$?reserve@?$ImVector@Ustbrp_rect@@@@QEAAXH@Z DD imagerel $LN19@reserve
	DD	imagerel $LN19@reserve+29
	DD	imagerel $unwind$?reserve@?$ImVector@Ustbrp_rect@@@@QEAAXH@Z
pdata	ENDS
;	COMDAT pdata
pdata	SEGMENT
$pdata$0$?reserve@?$ImVector@Ustbrp_rect@@@@QEAAXH@Z DD imagerel $LN19@reserve+29
	DD	imagerel $LN19@reserve+217
	DD	imagerel $chain$0$?reserve@?$ImVector@Ustbrp_rect@@@@QEAAXH@Z
pdata	ENDS
;	COMDAT pdata
pdata	SEGMENT
$pdata$1$?reserve@?$ImVector@Ustbrp_rect@@@@QEAAXH@Z DD imagerel $LN19@reserve+217
	DD	imagerel $LN19@reserve+228
	DD	imagerel $chain$1$?reserve@?$ImVector@Ustbrp_rect@@@@QEAAXH@Z
pdata	ENDS
;	COMDAT pdata
pdata	SEGMENT
$pdata$?reserve@?$ImVector@Ustbtt_packedchar@@@@QEAAXH@Z DD imagerel $LN19@reserve
	DD	imagerel $LN19@reserve+29
	DD	imagerel $unwind$?reserve@?$ImVector@Ustbtt_packedchar@@@@QEAAXH@Z
pdata	ENDS
;	COMDAT pdata
pdata	SEGMENT
$pdata$0$?reserve@?$ImVector@Ustbtt_packedchar@@@@QEAAXH@Z DD imagerel $LN19@reserve+29
	DD	imagerel $LN19@reserve+209
	DD	imagerel $chain$0$?reserve@?$ImVector@Ustbtt_packedchar@@@@QEAAXH@Z
pdata	ENDS
;	COMDAT pdata
pdata	SEGMENT
$pdata$1$?reserve@?$ImVector@Ustbtt_packedchar@@@@QEAAXH@Z DD imagerel $LN19@reserve+209
	DD	imagerel $LN19@reserve+220
	DD	imagerel $chain$1$?reserve@?$ImVector@Ustbtt_packedchar@@@@QEAAXH@Z
pdata	ENDS
;	COMDAT pdata
pdata	SEGMENT
$pdata$??1ImBitVector@@QEAA@XZ DD imagerel $LN23@ImBitVecto
	DD	imagerel $LN23@ImBitVecto+137
	DD	imagerel $unwind$??1ImBitVector@@QEAA@XZ
pdata	ENDS
;	COMDAT pdata
pdata	SEGMENT
$pdata$??1ImFontBuildSrcData@@QEAA@XZ DD imagerel $LN25@ImFontBuil
	DD	imagerel $LN25@ImFontBuil+157
	DD	imagerel $unwind$??1ImFontBuildSrcData@@QEAA@XZ
pdata	ENDS
;	COMDAT pdata
pdata	SEGMENT
$pdata$??_GImFontBuildSrcData@@QEAAPEAXI@Z DD imagerel $LN12@scalar
	DD	imagerel $LN12@scalar+42
	DD	imagerel $unwind$??_GImFontBuildSrcData@@QEAAPEAXI@Z
pdata	ENDS
;	COMDAT pdata
pdata	SEGMENT
$pdata$?resize@?$ImVector@G@@QEAAXHAEBG@Z DD imagerel $LN19@resize
	DD	imagerel $LN19@resize+118
	DD	imagerel $unwind$?resize@?$ImVector@G@@QEAAXHAEBG@Z
pdata	ENDS
;	COMDAT pdata
pdata	SEGMENT
$pdata$?clear@?$ImVector@UImDrawCmd@@@@QEAAXXZ DD imagerel $LN18@clear
	DD	imagerel $LN18@clear+29
	DD	imagerel $unwind$?clear@?$ImVector@UImDrawCmd@@@@QEAAXXZ
pdata	ENDS
;	COMDAT pdata
pdata	SEGMENT
$pdata$0$?clear@?$ImVector@UImDrawCmd@@@@QEAAXXZ DD imagerel $LN18@clear+29
	DD	imagerel $LN18@clear+157
	DD	imagerel $chain$0$?clear@?$ImVector@UImDrawCmd@@@@QEAAXXZ
pdata	ENDS
;	COMDAT pdata
pdata	SEGMENT
$pdata$1$?clear@?$ImVector@UImDrawCmd@@@@QEAAXXZ DD imagerel $LN18@clear+157
	DD	imagerel $LN18@clear+163
	DD	imagerel $chain$1$?clear@?$ImVector@UImDrawCmd@@@@QEAAXXZ
pdata	ENDS
;	COMDAT pdata
pdata	SEGMENT
$pdata$?resize@?$ImVector@UImDrawCmd@@@@QEAAXH@Z DD imagerel $LN10@resize
	DD	imagerel $LN10@resize+70
	DD	imagerel $unwind$?resize@?$ImVector@UImDrawCmd@@@@QEAAXH@Z
pdata	ENDS
;	COMDAT pdata
pdata	SEGMENT
$pdata$?erase@?$ImVector@UImDrawCmd@@@@QEAAPEAUImDrawCmd@@PEBU2@@Z DD imagerel $LN4@erase
	DD	imagerel $LN4@erase+98
	DD	imagerel $unwind$?erase@?$ImVector@UImDrawCmd@@@@QEAAPEAUImDrawCmd@@PEBU2@@Z
pdata	ENDS
;	COMDAT pdata
pdata	SEGMENT
$pdata$?resize@?$ImVector@UImDrawChannel@@@@QEAAXH@Z DD imagerel $LN10@resize
	DD	imagerel $LN10@resize+81
	DD	imagerel $unwind$?resize@?$ImVector@UImDrawChannel@@@@QEAAXH@Z
pdata	ENDS
;	COMDAT pdata
pdata	SEGMENT
$pdata$?reserve@?$ImVector@UImDrawChannel@@@@QEAAXH@Z DD imagerel $LN19@reserve
	DD	imagerel $LN19@reserve+28
	DD	imagerel $unwind$?reserve@?$ImVector@UImDrawChannel@@@@QEAAXH@Z
pdata	ENDS
;	COMDAT pdata
pdata	SEGMENT
$pdata$0$?reserve@?$ImVector@UImDrawChannel@@@@QEAAXH@Z DD imagerel $LN19@reserve+28
	DD	imagerel $LN19@reserve+212
	DD	imagerel $chain$0$?reserve@?$ImVector@UImDrawChannel@@@@QEAAXH@Z
pdata	ENDS
;	COMDAT pdata
pdata	SEGMENT
$pdata$1$?reserve@?$ImVector@UImDrawChannel@@@@QEAAXH@Z DD imagerel $LN19@reserve+212
	DD	imagerel $LN19@reserve+223
	DD	imagerel $chain$1$?reserve@?$ImVector@UImDrawChannel@@@@QEAAXH@Z
pdata	ENDS
;	COMDAT pdata
pdata	SEGMENT
$pdata$?clear@?$ImVector@UImDrawVert@@@@QEAAXXZ DD imagerel $LN18@clear
	DD	imagerel $LN18@clear+29
	DD	imagerel $unwind$?clear@?$ImVector@UImDrawVert@@@@QEAAXXZ
pdata	ENDS
;	COMDAT pdata
pdata	SEGMENT
$pdata$0$?clear@?$ImVector@UImDrawVert@@@@QEAAXXZ DD imagerel $LN18@clear+29
	DD	imagerel $LN18@clear+157
	DD	imagerel $chain$0$?clear@?$ImVector@UImDrawVert@@@@QEAAXXZ
pdata	ENDS
;	COMDAT pdata
pdata	SEGMENT
$pdata$1$?clear@?$ImVector@UImDrawVert@@@@QEAAXXZ DD imagerel $LN18@clear+157
	DD	imagerel $LN18@clear+163
	DD	imagerel $chain$1$?clear@?$ImVector@UImDrawVert@@@@QEAAXXZ
pdata	ENDS
;	COMDAT pdata
pdata	SEGMENT
$pdata$?resize@?$ImVector@UImDrawVert@@@@QEAAXH@Z DD imagerel $LN10@resize
	DD	imagerel $LN10@resize+70
	DD	imagerel $unwind$?resize@?$ImVector@UImDrawVert@@@@QEAAXH@Z
pdata	ENDS
;	COMDAT pdata
pdata	SEGMENT
$pdata$?clear@?$ImVector@UImVec4@@@@QEAAXXZ DD imagerel $LN18@clear
	DD	imagerel $LN18@clear+29
	DD	imagerel $unwind$?clear@?$ImVector@UImVec4@@@@QEAAXXZ
pdata	ENDS
;	COMDAT pdata
pdata	SEGMENT
$pdata$0$?clear@?$ImVector@UImVec4@@@@QEAAXXZ DD imagerel $LN18@clear+29
	DD	imagerel $LN18@clear+157
	DD	imagerel $chain$0$?clear@?$ImVector@UImVec4@@@@QEAAXXZ
pdata	ENDS
;	COMDAT pdata
pdata	SEGMENT
$pdata$1$?clear@?$ImVector@UImVec4@@@@QEAAXXZ DD imagerel $LN18@clear+157
	DD	imagerel $LN18@clear+163
	DD	imagerel $chain$1$?clear@?$ImVector@UImVec4@@@@QEAAXXZ
pdata	ENDS
;	COMDAT pdata
pdata	SEGMENT
$pdata$?resize@?$ImVector@UImVec4@@@@QEAAXH@Z DD imagerel $LN10@resize
	DD	imagerel $LN10@resize+52
	DD	imagerel $unwind$?resize@?$ImVector@UImVec4@@@@QEAAXH@Z
pdata	ENDS
;	COMDAT pdata
pdata	SEGMENT
$pdata$?push_back@?$ImVector@UImVec4@@@@QEAAXAEBUImVec4@@@Z DD imagerel $LN9@push_back
	DD	imagerel $LN9@push_back+98
	DD	imagerel $unwind$?push_back@?$ImVector@UImVec4@@@@QEAAXAEBUImVec4@@@Z
pdata	ENDS
;	COMDAT pdata
pdata	SEGMENT
$pdata$?clear@?$ImVector@PEAX@@QEAAXXZ DD imagerel $LN18@clear
	DD	imagerel $LN18@clear+29
	DD	imagerel $unwind$?clear@?$ImVector@PEAX@@QEAAXXZ
pdata	ENDS
;	COMDAT pdata
pdata	SEGMENT
$pdata$0$?clear@?$ImVector@PEAX@@QEAAXXZ DD imagerel $LN18@clear+29
	DD	imagerel $LN18@clear+157
	DD	imagerel $chain$0$?clear@?$ImVector@PEAX@@QEAAXXZ
pdata	ENDS
;	COMDAT pdata
pdata	SEGMENT
$pdata$1$?clear@?$ImVector@PEAX@@QEAAXXZ DD imagerel $LN18@clear+157
	DD	imagerel $LN18@clear+163
	DD	imagerel $chain$1$?clear@?$ImVector@PEAX@@QEAAXXZ
pdata	ENDS
;	COMDAT pdata
pdata	SEGMENT
$pdata$?resize@?$ImVector@PEAX@@QEAAXH@Z DD imagerel $LN10@resize
	DD	imagerel $LN10@resize+52
	DD	imagerel $unwind$?resize@?$ImVector@PEAX@@QEAAXH@Z
pdata	ENDS
;	COMDAT pdata
pdata	SEGMENT
$pdata$?push_back@?$ImVector@PEAX@@QEAAXAEBQEAX@Z DD imagerel $LN9@push_back
	DD	imagerel $LN9@push_back+95
	DD	imagerel $unwind$?push_back@?$ImVector@PEAX@@QEAAXAEBQEAX@Z
pdata	ENDS
;	COMDAT pdata
pdata	SEGMENT
$pdata$?reserve_discard@?$ImVector@UImVec2@@@@QEAAXH@Z DD imagerel $LN19@reserve_di
	DD	imagerel $LN19@reserve_di+182
	DD	imagerel $unwind$?reserve_discard@?$ImVector@UImVec2@@@@QEAAXH@Z
pdata	ENDS
;	COMDAT pdata
pdata	SEGMENT
$pdata$?push_back@?$ImVector@PEAUImDrawList@@@@QEAAXAEBQEAUImDrawList@@@Z DD imagerel $LN9@push_back
	DD	imagerel $LN9@push_back+95
	DD	imagerel $unwind$?push_back@?$ImVector@PEAUImDrawList@@@@QEAAXAEBQEAUImDrawList@@@Z
pdata	ENDS
;	COMDAT pdata
pdata	SEGMENT
$pdata$?clear_delete@?$ImVector@PEAUImFont@@@@QEAAXXZ DD imagerel $LN31@clear_dele
	DD	imagerel $LN31@clear_dele+34
	DD	imagerel $unwind$?clear_delete@?$ImVector@PEAUImFont@@@@QEAAXXZ
pdata	ENDS
;	COMDAT pdata
pdata	SEGMENT
$pdata$1$?clear_delete@?$ImVector@PEAUImFont@@@@QEAAXXZ DD imagerel $LN31@clear_dele+34
	DD	imagerel $LN31@clear_dele+211
	DD	imagerel $chain$1$?clear_delete@?$ImVector@PEAUImFont@@@@QEAAXXZ
pdata	ENDS
;	COMDAT pdata
pdata	SEGMENT
$pdata$2$?clear_delete@?$ImVector@PEAUImFont@@@@QEAAXXZ DD imagerel $LN31@clear_dele+211
	DD	imagerel $LN31@clear_dele+235
	DD	imagerel $chain$2$?clear_delete@?$ImVector@PEAUImFont@@@@QEAAXXZ
pdata	ENDS
;	COMDAT pdata
pdata	SEGMENT
$pdata$??1?$ImVector@UImFontAtlasCustomRect@@@@QEAA@XZ DD imagerel $LN19@ImVector
	DD	imagerel $LN19@ImVector+137
	DD	imagerel $unwind$??1?$ImVector@UImFontAtlasCustomRect@@@@QEAA@XZ
pdata	ENDS
;	COMDAT pdata
pdata	SEGMENT
$pdata$?clear@?$ImVector@UImFontAtlasCustomRect@@@@QEAAXXZ DD imagerel $LN18@clear
	DD	imagerel $LN18@clear+29
	DD	imagerel $unwind$?clear@?$ImVector@UImFontAtlasCustomRect@@@@QEAAXXZ
pdata	ENDS
;	COMDAT pdata
pdata	SEGMENT
$pdata$0$?clear@?$ImVector@UImFontAtlasCustomRect@@@@QEAAXXZ DD imagerel $LN18@clear+29
	DD	imagerel $LN18@clear+157
	DD	imagerel $chain$0$?clear@?$ImVector@UImFontAtlasCustomRect@@@@QEAAXXZ
pdata	ENDS
;	COMDAT pdata
pdata	SEGMENT
$pdata$1$?clear@?$ImVector@UImFontAtlasCustomRect@@@@QEAAXXZ DD imagerel $LN18@clear+157
	DD	imagerel $LN18@clear+163
	DD	imagerel $chain$1$?clear@?$ImVector@UImFontAtlasCustomRect@@@@QEAAXXZ
pdata	ENDS
;	COMDAT pdata
pdata	SEGMENT
$pdata$?push_back@?$ImVector@UImFontAtlasCustomRect@@@@QEAAXAEBUImFontAtlasCustomRect@@@Z DD imagerel $LN26@push_back
	DD	imagerel $LN26@push_back+76
	DD	imagerel $unwind$?push_back@?$ImVector@UImFontAtlasCustomRect@@@@QEAAXAEBUImFontAtlasCustomRect@@@Z
pdata	ENDS
;	COMDAT pdata
pdata	SEGMENT
$pdata$0$?push_back@?$ImVector@UImFontAtlasCustomRect@@@@QEAAXAEBUImFontAtlasCustomRect@@@Z DD imagerel $LN26@push_back+76
	DD	imagerel $LN26@push_back+256
	DD	imagerel $chain$0$?push_back@?$ImVector@UImFontAtlasCustomRect@@@@QEAAXAEBUImFontAtlasCustomRect@@@Z
pdata	ENDS
;	COMDAT pdata
pdata	SEGMENT
$pdata$1$?push_back@?$ImVector@UImFontAtlasCustomRect@@@@QEAAXAEBUImFontAtlasCustomRect@@@Z DD imagerel $LN26@push_back+256
	DD	imagerel $LN26@push_back+302
	DD	imagerel $chain$1$?push_back@?$ImVector@UImFontAtlasCustomRect@@@@QEAAXAEBUImFontAtlasCustomRect@@@Z
pdata	ENDS
;	COMDAT pdata
pdata	SEGMENT
$pdata$??1?$ImVector@UImFontConfig@@@@QEAA@XZ DD imagerel $LN19@ImVector
	DD	imagerel $LN19@ImVector+137
	DD	imagerel $unwind$??1?$ImVector@UImFontConfig@@@@QEAA@XZ
pdata	ENDS
;	COMDAT pdata
pdata	SEGMENT
$pdata$?clear@?$ImVector@UImFontConfig@@@@QEAAXXZ DD imagerel $LN18@clear
	DD	imagerel $LN18@clear+29
	DD	imagerel $unwind$?clear@?$ImVector@UImFontConfig@@@@QEAAXXZ
pdata	ENDS
;	COMDAT pdata
pdata	SEGMENT
$pdata$0$?clear@?$ImVector@UImFontConfig@@@@QEAAXXZ DD imagerel $LN18@clear+29
	DD	imagerel $LN18@clear+157
	DD	imagerel $chain$0$?clear@?$ImVector@UImFontConfig@@@@QEAAXXZ
pdata	ENDS
;	COMDAT pdata
pdata	SEGMENT
$pdata$1$?clear@?$ImVector@UImFontConfig@@@@QEAAXXZ DD imagerel $LN18@clear+157
	DD	imagerel $LN18@clear+163
	DD	imagerel $chain$1$?clear@?$ImVector@UImFontConfig@@@@QEAAXXZ
pdata	ENDS
;	COMDAT pdata
pdata	SEGMENT
$pdata$?push_back@?$ImVector@UImFontConfig@@@@QEAAXAEBUImFontConfig@@@Z DD imagerel $LN26@push_back
	DD	imagerel $LN26@push_back+72
	DD	imagerel $unwind$?push_back@?$ImVector@UImFontConfig@@@@QEAAXAEBUImFontConfig@@@Z
pdata	ENDS
;	COMDAT pdata
pdata	SEGMENT
$pdata$0$?push_back@?$ImVector@UImFontConfig@@@@QEAAXAEBUImFontConfig@@@Z DD imagerel $LN26@push_back+72
	DD	imagerel $LN26@push_back+264
	DD	imagerel $chain$0$?push_back@?$ImVector@UImFontConfig@@@@QEAAXAEBUImFontConfig@@@Z
pdata	ENDS
;	COMDAT pdata
pdata	SEGMENT
$pdata$1$?push_back@?$ImVector@UImFontConfig@@@@QEAAXAEBUImFontConfig@@@Z DD imagerel $LN26@push_back+264
	DD	imagerel $LN26@push_back+381
	DD	imagerel $chain$1$?push_back@?$ImVector@UImFontConfig@@@@QEAAXAEBUImFontConfig@@@Z
pdata	ENDS
;	COMDAT pdata
pdata	SEGMENT
$pdata$?resize@?$ImVector@M@@QEAAXHAEBM@Z DD imagerel $LN19@resize
	DD	imagerel $LN19@resize+116
	DD	imagerel $unwind$?resize@?$ImVector@M@@QEAAXHAEBM@Z
pdata	ENDS
;	COMDAT pdata
pdata	SEGMENT
$pdata$??1?$ImVector@UImFontGlyph@@@@QEAA@XZ DD imagerel $LN19@ImVector
	DD	imagerel $LN19@ImVector+137
	DD	imagerel $unwind$??1?$ImVector@UImFontGlyph@@@@QEAA@XZ
pdata	ENDS
;	COMDAT pdata
pdata	SEGMENT
$pdata$?clear@?$ImVector@UImFontGlyph@@@@QEAAXXZ DD imagerel $LN18@clear
	DD	imagerel $LN18@clear+29
	DD	imagerel $unwind$?clear@?$ImVector@UImFontGlyph@@@@QEAAXXZ
pdata	ENDS
;	COMDAT pdata
pdata	SEGMENT
$pdata$0$?clear@?$ImVector@UImFontGlyph@@@@QEAAXXZ DD imagerel $LN18@clear+29
	DD	imagerel $LN18@clear+157
	DD	imagerel $chain$0$?clear@?$ImVector@UImFontGlyph@@@@QEAAXXZ
pdata	ENDS
;	COMDAT pdata
pdata	SEGMENT
$pdata$1$?clear@?$ImVector@UImFontGlyph@@@@QEAAXXZ DD imagerel $LN18@clear+157
	DD	imagerel $LN18@clear+163
	DD	imagerel $chain$1$?clear@?$ImVector@UImFontGlyph@@@@QEAAXXZ
pdata	ENDS
;	COMDAT pdata
pdata	SEGMENT
$pdata$?resize@?$ImVector@UImFontGlyph@@@@QEAAXH@Z DD imagerel $LN29@resize
	DD	imagerel $LN29@resize+26
	DD	imagerel $unwind$?resize@?$ImVector@UImFontGlyph@@@@QEAAXH@Z
pdata	ENDS
;	COMDAT pdata
pdata	SEGMENT
$pdata$1$?resize@?$ImVector@UImFontGlyph@@@@QEAAXH@Z DD imagerel $LN29@resize+26
	DD	imagerel $LN29@resize+279
	DD	imagerel $chain$1$?resize@?$ImVector@UImFontGlyph@@@@QEAAXH@Z
pdata	ENDS
;	COMDAT pdata
pdata	SEGMENT
$pdata$3$?resize@?$ImVector@UImFontGlyph@@@@QEAAXH@Z DD imagerel $LN29@resize+279
	DD	imagerel $LN29@resize+297
	DD	imagerel $chain$3$?resize@?$ImVector@UImFontGlyph@@@@QEAAXH@Z
pdata	ENDS
;	COMDAT pdata
pdata	SEGMENT
$pdata$4$?resize@?$ImVector@UImFontGlyph@@@@QEAAXH@Z DD imagerel $LN29@resize+297
	DD	imagerel $LN29@resize+310
	DD	imagerel $chain$4$?resize@?$ImVector@UImFontGlyph@@@@QEAAXH@Z
pdata	ENDS
;	COMDAT pdata
pdata	SEGMENT
$pdata$??1?$ImVector@UImFontBuildSrcData@@@@QEAA@XZ DD imagerel $LN19@ImVector
	DD	imagerel $LN19@ImVector+137
	DD	imagerel $unwind$??1?$ImVector@UImFontBuildSrcData@@@@QEAA@XZ
pdata	ENDS
;	COMDAT pdata
pdata	SEGMENT
$pdata$?clear_destruct@?$ImVector@UImFontBuildSrcData@@@@QEAAXXZ DD imagerel $LN38@clear_dest
	DD	imagerel $LN38@clear_dest+12
	DD	imagerel $unwind$?clear_destruct@?$ImVector@UImFontBuildSrcData@@@@QEAAXXZ
pdata	ENDS
;	COMDAT pdata
pdata	SEGMENT
$pdata$0$?clear_destruct@?$ImVector@UImFontBuildSrcData@@@@QEAAXXZ DD imagerel $LN38@clear_dest+12
	DD	imagerel $LN38@clear_dest+26
	DD	imagerel $chain$0$?clear_destruct@?$ImVector@UImFontBuildSrcData@@@@QEAAXXZ
pdata	ENDS
;	COMDAT pdata
pdata	SEGMENT
$pdata$1$?clear_destruct@?$ImVector@UImFontBuildSrcData@@@@QEAAXXZ DD imagerel $LN38@clear_dest+26
	DD	imagerel $LN38@clear_dest+81
	DD	imagerel $chain$1$?clear_destruct@?$ImVector@UImFontBuildSrcData@@@@QEAAXXZ
pdata	ENDS
;	COMDAT pdata
pdata	SEGMENT
$pdata$2$?clear_destruct@?$ImVector@UImFontBuildSrcData@@@@QEAAXXZ DD imagerel $LN38@clear_dest+81
	DD	imagerel $LN38@clear_dest+95
	DD	imagerel $chain$2$?clear_destruct@?$ImVector@UImFontBuildSrcData@@@@QEAAXXZ
pdata	ENDS
;	COMDAT pdata
pdata	SEGMENT
$pdata$3$?clear_destruct@?$ImVector@UImFontBuildSrcData@@@@QEAAXXZ DD imagerel $LN38@clear_dest+95
	DD	imagerel $LN38@clear_dest+229
	DD	imagerel $chain$3$?clear_destruct@?$ImVector@UImFontBuildSrcData@@@@QEAAXXZ
pdata	ENDS
;	COMDAT pdata
pdata	SEGMENT
$pdata$?resize@?$ImVector@UImFontBuildSrcData@@@@QEAAXH@Z DD imagerel $LN29@resize
	DD	imagerel $LN29@resize+26
	DD	imagerel $unwind$?resize@?$ImVector@UImFontBuildSrcData@@@@QEAAXH@Z
pdata	ENDS
;	COMDAT pdata
pdata	SEGMENT
$pdata$1$?resize@?$ImVector@UImFontBuildSrcData@@@@QEAAXH@Z DD imagerel $LN29@resize+26
	DD	imagerel $LN29@resize+277
	DD	imagerel $chain$1$?resize@?$ImVector@UImFontBuildSrcData@@@@QEAAXH@Z
pdata	ENDS
;	COMDAT pdata
pdata	SEGMENT
$pdata$3$?resize@?$ImVector@UImFontBuildSrcData@@@@QEAAXH@Z DD imagerel $LN29@resize+277
	DD	imagerel $LN29@resize+295
	DD	imagerel $chain$3$?resize@?$ImVector@UImFontBuildSrcData@@@@QEAAXH@Z
pdata	ENDS
;	COMDAT pdata
pdata	SEGMENT
$pdata$4$?resize@?$ImVector@UImFontBuildSrcData@@@@QEAAXH@Z DD imagerel $LN29@resize+295
	DD	imagerel $LN29@resize+308
	DD	imagerel $chain$4$?resize@?$ImVector@UImFontBuildSrcData@@@@QEAAXH@Z
pdata	ENDS
;	COMDAT pdata
pdata	SEGMENT
$pdata$??1?$ImVector@UImFontBuildDstData@@@@QEAA@XZ DD imagerel $LN19@ImVector
	DD	imagerel $LN19@ImVector+137
	DD	imagerel $unwind$??1?$ImVector@UImFontBuildDstData@@@@QEAA@XZ
pdata	ENDS
;	COMDAT pdata
pdata	SEGMENT
$pdata$?clear@?$ImVector@UImFontBuildDstData@@@@QEAAXXZ DD imagerel $LN18@clear
	DD	imagerel $LN18@clear+29
	DD	imagerel $unwind$?clear@?$ImVector@UImFontBuildDstData@@@@QEAAXXZ
pdata	ENDS
;	COMDAT pdata
pdata	SEGMENT
$pdata$0$?clear@?$ImVector@UImFontBuildDstData@@@@QEAAXXZ DD imagerel $LN18@clear+29
	DD	imagerel $LN18@clear+157
	DD	imagerel $chain$0$?clear@?$ImVector@UImFontBuildDstData@@@@QEAAXXZ
pdata	ENDS
;	COMDAT pdata
pdata	SEGMENT
$pdata$1$?clear@?$ImVector@UImFontBuildDstData@@@@QEAAXXZ DD imagerel $LN18@clear+157
	DD	imagerel $LN18@clear+163
	DD	imagerel $chain$1$?clear@?$ImVector@UImFontBuildDstData@@@@QEAAXXZ
pdata	ENDS
;	COMDAT pdata
pdata	SEGMENT
$pdata$?resize@?$ImVector@UImFontBuildDstData@@@@QEAAXH@Z DD imagerel $LN29@resize
	DD	imagerel $LN29@resize+26
	DD	imagerel $unwind$?resize@?$ImVector@UImFontBuildDstData@@@@QEAAXH@Z
pdata	ENDS
;	COMDAT pdata
pdata	SEGMENT
$pdata$1$?resize@?$ImVector@UImFontBuildDstData@@@@QEAAXH@Z DD imagerel $LN29@resize+26
	DD	imagerel $LN29@resize+271
	DD	imagerel $chain$1$?resize@?$ImVector@UImFontBuildDstData@@@@QEAAXH@Z
pdata	ENDS
;	COMDAT pdata
pdata	SEGMENT
$pdata$3$?resize@?$ImVector@UImFontBuildDstData@@@@QEAAXH@Z DD imagerel $LN29@resize+271
	DD	imagerel $LN29@resize+289
	DD	imagerel $chain$3$?resize@?$ImVector@UImFontBuildDstData@@@@QEAAXH@Z
pdata	ENDS
;	COMDAT pdata
pdata	SEGMENT
$pdata$4$?resize@?$ImVector@UImFontBuildDstData@@@@QEAAXH@Z DD imagerel $LN29@resize+289
	DD	imagerel $LN29@resize+302
	DD	imagerel $chain$4$?resize@?$ImVector@UImFontBuildDstData@@@@QEAAXH@Z
pdata	ENDS
;	COMDAT pdata
pdata	SEGMENT
$pdata$??1?$ImVector@Ustbrp_rect@@@@QEAA@XZ DD imagerel $LN19@ImVector
	DD	imagerel $LN19@ImVector+137
	DD	imagerel $unwind$??1?$ImVector@Ustbrp_rect@@@@QEAA@XZ
pdata	ENDS
;	COMDAT pdata
pdata	SEGMENT
$pdata$?clear@?$ImVector@Ustbrp_rect@@@@QEAAXXZ DD imagerel $LN18@clear
	DD	imagerel $LN18@clear+29
	DD	imagerel $unwind$?clear@?$ImVector@Ustbrp_rect@@@@QEAAXXZ
pdata	ENDS
;	COMDAT pdata
pdata	SEGMENT
$pdata$0$?clear@?$ImVector@Ustbrp_rect@@@@QEAAXXZ DD imagerel $LN18@clear+29
	DD	imagerel $LN18@clear+157
	DD	imagerel $chain$0$?clear@?$ImVector@Ustbrp_rect@@@@QEAAXXZ
pdata	ENDS
;	COMDAT pdata
pdata	SEGMENT
$pdata$1$?clear@?$ImVector@Ustbrp_rect@@@@QEAAXXZ DD imagerel $LN18@clear+157
	DD	imagerel $LN18@clear+163
	DD	imagerel $chain$1$?clear@?$ImVector@Ustbrp_rect@@@@QEAAXXZ
pdata	ENDS
;	COMDAT pdata
pdata	SEGMENT
$pdata$?resize@?$ImVector@Ustbrp_rect@@@@QEAAXH@Z DD imagerel $LN29@resize
	DD	imagerel $LN29@resize+26
	DD	imagerel $unwind$?resize@?$ImVector@Ustbrp_rect@@@@QEAAXH@Z
pdata	ENDS
;	COMDAT pdata
pdata	SEGMENT
$pdata$1$?resize@?$ImVector@Ustbrp_rect@@@@QEAAXH@Z DD imagerel $LN29@resize+26
	DD	imagerel $LN29@resize+279
	DD	imagerel $chain$1$?resize@?$ImVector@Ustbrp_rect@@@@QEAAXH@Z
pdata	ENDS
;	COMDAT pdata
pdata	SEGMENT
$pdata$3$?resize@?$ImVector@Ustbrp_rect@@@@QEAAXH@Z DD imagerel $LN29@resize+279
	DD	imagerel $LN29@resize+297
	DD	imagerel $chain$3$?resize@?$ImVector@Ustbrp_rect@@@@QEAAXH@Z
pdata	ENDS
;	COMDAT pdata
pdata	SEGMENT
$pdata$4$?resize@?$ImVector@Ustbrp_rect@@@@QEAAXH@Z DD imagerel $LN29@resize+297
	DD	imagerel $LN29@resize+310
	DD	imagerel $chain$4$?resize@?$ImVector@Ustbrp_rect@@@@QEAAXH@Z
pdata	ENDS
;	COMDAT pdata
pdata	SEGMENT
$pdata$??1?$ImVector@Ustbtt_packedchar@@@@QEAA@XZ DD imagerel $LN19@ImVector
	DD	imagerel $LN19@ImVector+137
	DD	imagerel $unwind$??1?$ImVector@Ustbtt_packedchar@@@@QEAA@XZ
pdata	ENDS
;	COMDAT pdata
pdata	SEGMENT
$pdata$?resize@?$ImVector@Ustbtt_packedchar@@@@QEAAXH@Z DD imagerel $LN29@resize
	DD	imagerel $LN29@resize+26
	DD	imagerel $unwind$?resize@?$ImVector@Ustbtt_packedchar@@@@QEAAXH@Z
pdata	ENDS
;	COMDAT pdata
pdata	SEGMENT
$pdata$1$?resize@?$ImVector@Ustbtt_packedchar@@@@QEAAXH@Z DD imagerel $LN29@resize+26
	DD	imagerel $LN29@resize+271
	DD	imagerel $chain$1$?resize@?$ImVector@Ustbtt_packedchar@@@@QEAAXH@Z
pdata	ENDS
;	COMDAT pdata
pdata	SEGMENT
$pdata$3$?resize@?$ImVector@Ustbtt_packedchar@@@@QEAAXH@Z DD imagerel $LN29@resize+271
	DD	imagerel $LN29@resize+289
	DD	imagerel $chain$3$?resize@?$ImVector@Ustbtt_packedchar@@@@QEAAXH@Z
pdata	ENDS
;	COMDAT pdata
pdata	SEGMENT
$pdata$4$?resize@?$ImVector@Ustbtt_packedchar@@@@QEAAXH@Z DD imagerel $LN29@resize+289
	DD	imagerel $LN29@resize+302
	DD	imagerel $chain$4$?resize@?$ImVector@Ustbtt_packedchar@@@@QEAAXH@Z
pdata	ENDS
;	COMDAT pdata
pdata	SEGMENT
$pdata$?stb_decompress@@YAIPEAEPEBEI@Z DD imagerel ?stb_decompress@@YAIPEAEPEBEI@Z
	DD	imagerel ?stb_decompress@@YAIPEAEPEBEI@Z+335
	DD	imagerel $unwind$?stb_decompress@@YAIPEAEPEBEI@Z
pdata	ENDS
;	COMDAT pdata
pdata	SEGMENT
$pdata$?stb_adler32@@YAIIPEAEI@Z DD imagerel ?stb_adler32@@YAIIPEAEI@Z
	DD	imagerel ?stb_adler32@@YAIIPEAEI@Z+51
	DD	imagerel $unwind$?stb_adler32@@YAIIPEAEI@Z
pdata	ENDS
;	COMDAT pdata
pdata	SEGMENT
$pdata$0$?stb_adler32@@YAIIPEAEI@Z DD imagerel ?stb_adler32@@YAIIPEAEI@Z+51
	DD	imagerel ?stb_adler32@@YAIIPEAEI@Z+316
	DD	imagerel $chain$0$?stb_adler32@@YAIIPEAEI@Z
pdata	ENDS
;	COMDAT pdata
pdata	SEGMENT
$pdata$1$?stb_adler32@@YAIIPEAEI@Z DD imagerel ?stb_adler32@@YAIIPEAEI@Z+316
	DD	imagerel ?stb_adler32@@YAIIPEAEI@Z+331
	DD	imagerel $chain$1$?stb_adler32@@YAIIPEAEI@Z
pdata	ENDS
;	COMDAT pdata
pdata	SEGMENT
$pdata$?stb_decompress_token@@YAPEBEPEBE@Z DD imagerel ?stb_decompress_token@@YAPEBEPEBE@Z
	DD	imagerel ?stb_decompress_token@@YAPEBEPEBE@Z+1468
	DD	imagerel $unwind$?stb_decompress_token@@YAPEBEPEBE@Z
pdata	ENDS
;	COMDAT pdata
pdata	SEGMENT
$pdata$?stb__lit@@YAXPEBEI@Z DD imagerel ?stb__lit@@YAXPEBEI@Z
	DD	imagerel ?stb__lit@@YAXPEBEI@Z+81
	DD	imagerel $unwind$?stb__lit@@YAXPEBEI@Z
pdata	ENDS
;	COMDAT pdata
pdata	SEGMENT
$pdata$?RenderColorRectWithAlphaCheckerboard@ImGui@@YAXPEAUImDrawList@@UImVec2@@1IM1MH@Z DD imagerel $LN82@RenderColo
	DD	imagerel $LN82@RenderColo+113
	DD	imagerel $unwind$?RenderColorRectWithAlphaCheckerboard@ImGui@@YAXPEAUImDrawList@@UImVec2@@1IM1MH@Z
pdata	ENDS
;	COMDAT pdata
pdata	SEGMENT
$pdata$4$?RenderColorRectWithAlphaCheckerboard@ImGui@@YAXPEAUImDrawList@@UImVec2@@1IM1MH@Z DD imagerel $LN82@RenderColo+113
	DD	imagerel $LN82@RenderColo+519
	DD	imagerel $chain$4$?RenderColorRectWithAlphaCheckerboard@ImGui@@YAXPEAUImDrawList@@UImVec2@@1IM1MH@Z
pdata	ENDS
;	COMDAT pdata
pdata	SEGMENT
$pdata$12$?RenderColorRectWithAlphaCheckerboard@ImGui@@YAXPEAUImDrawList@@UImVec2@@1IM1MH@Z DD imagerel $LN82@RenderColo+519
	DD	imagerel $LN82@RenderColo+1014
	DD	imagerel $chain$12$?RenderColorRectWithAlphaCheckerboard@ImGui@@YAXPEAUImDrawList@@UImVec2@@1IM1MH@Z
pdata	ENDS
;	COMDAT pdata
pdata	SEGMENT
$pdata$13$?RenderColorRectWithAlphaCheckerboard@ImGui@@YAXPEAUImDrawList@@UImVec2@@1IM1MH@Z DD imagerel $LN82@RenderColo+1014
	DD	imagerel $LN82@RenderColo+1061
	DD	imagerel $chain$13$?RenderColorRectWithAlphaCheckerboard@ImGui@@YAXPEAUImDrawList@@UImVec2@@1IM1MH@Z
pdata	ENDS
;	COMDAT pdata
pdata	SEGMENT
$pdata$14$?RenderColorRectWithAlphaCheckerboard@ImGui@@YAXPEAUImDrawList@@UImVec2@@1IM1MH@Z DD imagerel $LN82@RenderColo+1061
	DD	imagerel $LN82@RenderColo+1105
	DD	imagerel $chain$14$?RenderColorRectWithAlphaCheckerboard@ImGui@@YAXPEAUImDrawList@@UImVec2@@1IM1MH@Z
pdata	ENDS
;	COMDAT pdata
pdata	SEGMENT
$pdata$?RenderArrowDockMenu@ImGui@@YAXPEAUImDrawList@@UImVec2@@MI@Z DD imagerel $LN50@RenderArro
	DD	imagerel $LN50@RenderArro+347
	DD	imagerel $unwind$?RenderArrowDockMenu@ImGui@@YAXPEAUImDrawList@@UImVec2@@MI@Z
pdata	ENDS
;	COMDAT pdata
pdata	SEGMENT
$pdata$?RenderArrowPointingAt@ImGui@@YAXPEAUImDrawList@@UImVec2@@1HI@Z DD imagerel $LN31@RenderArro
	DD	imagerel $LN31@RenderArro+269
	DD	imagerel $unwind$?RenderArrowPointingAt@ImGui@@YAXPEAUImDrawList@@UImVec2@@1HI@Z
pdata	ENDS
;	COMDAT pdata
pdata	SEGMENT
$pdata$?RenderCheckMark@ImGui@@YAXPEAUImDrawList@@UImVec2@@IM@Z DD imagerel $LN47@RenderChec
	DD	imagerel $LN47@RenderChec+512
	DD	imagerel $unwind$?RenderCheckMark@ImGui@@YAXPEAUImDrawList@@UImVec2@@IM@Z
pdata	ENDS
;	COMDAT pdata
pdata	SEGMENT
$pdata$?RenderArrow@ImGui@@YAXPEAUImDrawList@@UImVec2@@IHM@Z DD imagerel $LN76@RenderArro
	DD	imagerel $LN76@RenderArro+424
	DD	imagerel $unwind$?RenderArrow@ImGui@@YAXPEAUImDrawList@@UImVec2@@IHM@Z
pdata	ENDS
;	COMDAT pdata
pdata	SEGMENT
$pdata$?RenderText@ImFont@@QEBAXPEAUImDrawList@@MAEBUImVec2@@IAEBUImVec4@@PEBD3M_N@Z DD imagerel $LN109@RenderText
	DD	imagerel $LN109@RenderText+140
	DD	imagerel $unwind$?RenderText@ImFont@@QEBAXPEAUImDrawList@@MAEBUImVec2@@IAEBUImVec4@@PEBD3M_N@Z
pdata	ENDS
;	COMDAT pdata
pdata	SEGMENT
$pdata$3$?RenderText@ImFont@@QEBAXPEAUImDrawList@@MAEBUImVec2@@IAEBUImVec4@@PEBD3M_N@Z DD imagerel $LN109@RenderText+140
	DD	imagerel $LN109@RenderText+535
	DD	imagerel $chain$3$?RenderText@ImFont@@QEBAXPEAUImDrawList@@MAEBUImVec2@@IAEBUImVec4@@PEBD3M_N@Z
pdata	ENDS
;	COMDAT pdata
pdata	SEGMENT
$pdata$5$?RenderText@ImFont@@QEBAXPEAUImDrawList@@MAEBUImVec2@@IAEBUImVec4@@PEBD3M_N@Z DD imagerel $LN109@RenderText+535
	DD	imagerel $LN109@RenderText+627
	DD	imagerel $chain$5$?RenderText@ImFont@@QEBAXPEAUImDrawList@@MAEBUImVec2@@IAEBUImVec4@@PEBD3M_N@Z
pdata	ENDS
;	COMDAT pdata
pdata	SEGMENT
$pdata$9$?RenderText@ImFont@@QEBAXPEAUImDrawList@@MAEBUImVec2@@IAEBUImVec4@@PEBD3M_N@Z DD imagerel $LN109@RenderText+627
	DD	imagerel $LN109@RenderText+1567
	DD	imagerel $chain$9$?RenderText@ImFont@@QEBAXPEAUImDrawList@@MAEBUImVec2@@IAEBUImVec4@@PEBD3M_N@Z
pdata	ENDS
;	COMDAT pdata
pdata	SEGMENT
$pdata$10$?RenderText@ImFont@@QEBAXPEAUImDrawList@@MAEBUImVec2@@IAEBUImVec4@@PEBD3M_N@Z DD imagerel $LN109@RenderText+1567
	DD	imagerel $LN109@RenderText+1666
	DD	imagerel $chain$10$?RenderText@ImFont@@QEBAXPEAUImDrawList@@MAEBUImVec2@@IAEBUImVec4@@PEBD3M_N@Z
pdata	ENDS
;	COMDAT pdata
pdata	SEGMENT
$pdata$11$?RenderText@ImFont@@QEBAXPEAUImDrawList@@MAEBUImVec2@@IAEBUImVec4@@PEBD3M_N@Z DD imagerel $LN109@RenderText+1666
	DD	imagerel $LN109@RenderText+1699
	DD	imagerel $chain$11$?RenderText@ImFont@@QEBAXPEAUImDrawList@@MAEBUImVec2@@IAEBUImVec4@@PEBD3M_N@Z
pdata	ENDS
;	COMDAT pdata
pdata	SEGMENT
$pdata$12$?RenderText@ImFont@@QEBAXPEAUImDrawList@@MAEBUImVec2@@IAEBUImVec4@@PEBD3M_N@Z DD imagerel $LN109@RenderText+1699
	DD	imagerel $LN109@RenderText+1734
	DD	imagerel $chain$12$?RenderText@ImFont@@QEBAXPEAUImDrawList@@MAEBUImVec2@@IAEBUImVec4@@PEBD3M_N@Z
pdata	ENDS
;	COMDAT pdata
pdata	SEGMENT
$pdata$?CalcWordWrapPositionA@ImFont@@QEBAPEBDMPEBD0M@Z DD imagerel $LN40@CalcWordWr
	DD	imagerel $LN40@CalcWordWr+70
	DD	imagerel $unwind$?CalcWordWrapPositionA@ImFont@@QEBAPEBDMPEBD0M@Z
pdata	ENDS
;	COMDAT pdata
pdata	SEGMENT
$pdata$0$?CalcWordWrapPositionA@ImFont@@QEBAPEBDMPEBD0M@Z DD imagerel $LN40@CalcWordWr+70
	DD	imagerel $LN40@CalcWordWr+365
	DD	imagerel $chain$0$?CalcWordWrapPositionA@ImFont@@QEBAPEBDMPEBD0M@Z
pdata	ENDS
;	COMDAT pdata
pdata	SEGMENT
$pdata$1$?CalcWordWrapPositionA@ImFont@@QEBAPEBDMPEBD0M@Z DD imagerel $LN40@CalcWordWr+365
	DD	imagerel $LN40@CalcWordWr+391
	DD	imagerel $chain$1$?CalcWordWrapPositionA@ImFont@@QEBAPEBDMPEBD0M@Z
pdata	ENDS
;	COMDAT pdata
pdata	SEGMENT
$pdata$?AddGlyph@ImFont@@QEAAXPEBUImFontConfig@@GMMMMMMMMM@Z DD imagerel $LN27@AddGlyph
	DD	imagerel $LN27@AddGlyph+522
	DD	imagerel $unwind$?AddGlyph@ImFont@@QEAAXPEBUImFontConfig@@GMMMMMMMMM@Z
pdata	ENDS
;	COMDAT pdata
pdata	SEGMENT
$pdata$?GrowIndex@ImFont@@QEAAXH@Z DD imagerel $LN35@GrowIndex
	DD	imagerel $LN35@GrowIndex+35
	DD	imagerel $unwind$?GrowIndex@ImFont@@QEAAXH@Z
pdata	ENDS
;	COMDAT pdata
pdata	SEGMENT
$pdata$1$?GrowIndex@ImFont@@QEAAXH@Z DD imagerel $LN35@GrowIndex+35
	DD	imagerel $LN35@GrowIndex+179
	DD	imagerel $chain$1$?GrowIndex@ImFont@@QEAAXH@Z
pdata	ENDS
;	COMDAT pdata
pdata	SEGMENT
$pdata$2$?GrowIndex@ImFont@@QEAAXH@Z DD imagerel $LN35@GrowIndex+179
	DD	imagerel $LN35@GrowIndex+216
	DD	imagerel $chain$2$?GrowIndex@ImFont@@QEAAXH@Z
pdata	ENDS
;	COMDAT pdata
pdata	SEGMENT
$pdata$3$?GrowIndex@ImFont@@QEAAXH@Z DD imagerel $LN35@GrowIndex+216
	DD	imagerel $LN35@GrowIndex+225
	DD	imagerel $chain$3$?GrowIndex@ImFont@@QEAAXH@Z
pdata	ENDS
;	COMDAT pdata
pdata	SEGMENT
$pdata$?BuildLookupTable@ImFont@@QEAAXXZ DD imagerel $LN198@BuildLooku
	DD	imagerel $LN198@BuildLooku+1348
	DD	imagerel $unwind$?BuildLookupTable@ImFont@@QEAAXXZ
pdata	ENDS
;	COMDAT pdata
pdata	SEGMENT
$pdata$?FindFirstExistingGlyph@@YAGPEAUImFont@@PEBGH@Z DD imagerel ?FindFirstExistingGlyph@@YAGPEAUImFont@@PEBGH@Z
	DD	imagerel ?FindFirstExistingGlyph@@YAGPEAUImFont@@PEBGH@Z+113
	DD	imagerel $unwind$?FindFirstExistingGlyph@@YAGPEAUImFont@@PEBGH@Z
pdata	ENDS
;	COMDAT pdata
pdata	SEGMENT
$pdata$?ClearOutputData@ImFont@@QEAAXXZ DD imagerel $LN20@ClearOutpu
	DD	imagerel $LN20@ClearOutpu+199
	DD	imagerel $unwind$?ClearOutputData@ImFont@@QEAAXXZ
pdata	ENDS
;	COMDAT pdata
pdata	SEGMENT
$pdata$?ImFontAtlasBuildFinish@@YAXPEAUImFontAtlas@@@Z DD imagerel $LN36@ImFontAtla
	DD	imagerel $LN36@ImFontAtla+45
	DD	imagerel $unwind$?ImFontAtlasBuildFinish@@YAXPEAUImFontAtlas@@@Z
pdata	ENDS
;	COMDAT pdata
pdata	SEGMENT
$pdata$3$?ImFontAtlasBuildFinish@@YAXPEAUImFontAtlas@@@Z DD imagerel $LN36@ImFontAtla+45
	DD	imagerel $LN36@ImFontAtla+341
	DD	imagerel $chain$3$?ImFontAtlasBuildFinish@@YAXPEAUImFontAtlas@@@Z
pdata	ENDS
;	COMDAT pdata
pdata	SEGMENT
$pdata$4$?ImFontAtlasBuildFinish@@YAXPEAUImFontAtlas@@@Z DD imagerel $LN36@ImFontAtla+341
	DD	imagerel $LN36@ImFontAtla+406
	DD	imagerel $chain$4$?ImFontAtlasBuildFinish@@YAXPEAUImFontAtlas@@@Z
pdata	ENDS
;	COMDAT pdata
pdata	SEGMENT
$pdata$?ImFontAtlasBuildInit@@YAXPEAUImFontAtlas@@@Z DD imagerel $LN45@ImFontAtla
	DD	imagerel $LN45@ImFontAtla+259
	DD	imagerel $unwind$?ImFontAtlasBuildInit@@YAXPEAUImFontAtlas@@@Z
pdata	ENDS
;	COMDAT pdata
pdata	SEGMENT
$pdata$?ImFontAtlasBuildRenderLinesTexData@@YAXPEAUImFontAtlas@@@Z DD imagerel ?ImFontAtlasBuildRenderLinesTexData@@YAXPEAUImFontAtlas@@@Z
	DD	imagerel ?ImFontAtlasBuildRenderLinesTexData@@YAXPEAUImFontAtlas@@@Z+21
	DD	imagerel $unwind$?ImFontAtlasBuildRenderLinesTexData@@YAXPEAUImFontAtlas@@@Z
pdata	ENDS
;	COMDAT pdata
pdata	SEGMENT
$pdata$7$?ImFontAtlasBuildRenderLinesTexData@@YAXPEAUImFontAtlas@@@Z DD imagerel ?ImFontAtlasBuildRenderLinesTexData@@YAXPEAUImFontAtlas@@@Z+21
	DD	imagerel ?ImFontAtlasBuildRenderLinesTexData@@YAXPEAUImFontAtlas@@@Z+429
	DD	imagerel $chain$7$?ImFontAtlasBuildRenderLinesTexData@@YAXPEAUImFontAtlas@@@Z
pdata	ENDS
;	COMDAT pdata
pdata	SEGMENT
$pdata$8$?ImFontAtlasBuildRenderLinesTexData@@YAXPEAUImFontAtlas@@@Z DD imagerel ?ImFontAtlasBuildRenderLinesTexData@@YAXPEAUImFontAtlas@@@Z+429
	DD	imagerel ?ImFontAtlasBuildRenderLinesTexData@@YAXPEAUImFontAtlas@@@Z+436
	DD	imagerel $chain$8$?ImFontAtlasBuildRenderLinesTexData@@YAXPEAUImFontAtlas@@@Z
pdata	ENDS
;	COMDAT pdata
pdata	SEGMENT
$pdata$9$?ImFontAtlasBuildRenderLinesTexData@@YAXPEAUImFontAtlas@@@Z DD imagerel ?ImFontAtlasBuildRenderLinesTexData@@YAXPEAUImFontAtlas@@@Z+436
	DD	imagerel ?ImFontAtlasBuildRenderLinesTexData@@YAXPEAUImFontAtlas@@@Z+536
	DD	imagerel $chain$9$?ImFontAtlasBuildRenderLinesTexData@@YAXPEAUImFontAtlas@@@Z
pdata	ENDS
;	COMDAT pdata
pdata	SEGMENT
$pdata$?ImFontAtlasBuildRenderDefaultTexData@@YAXPEAUImFontAtlas@@@Z DD imagerel ?ImFontAtlasBuildRenderDefaultTexData@@YAXPEAUImFontAtlas@@@Z
	DD	imagerel ?ImFontAtlasBuildRenderDefaultTexData@@YAXPEAUImFontAtlas@@@Z+313
	DD	imagerel $unwind$?ImFontAtlasBuildRenderDefaultTexData@@YAXPEAUImFontAtlas@@@Z
pdata	ENDS
;	COMDAT pdata
pdata	SEGMENT
$pdata$?ImFontAtlasBuildRender32bppRectFromString@@YAXPEAUImFontAtlas@@HHHHPEBDDI@Z DD imagerel $LN82@ImFontAtla
	DD	imagerel $LN82@ImFontAtla+950
	DD	imagerel $unwind$?ImFontAtlasBuildRender32bppRectFromString@@YAXPEAUImFontAtlas@@HHHHPEBDDI@Z
pdata	ENDS
;	COMDAT pdata
pdata	SEGMENT
$pdata$?ImFontAtlasBuildRender8bppRectFromString@@YAXPEAUImFontAtlas@@HHHHPEBDDE@Z DD imagerel $LN27@ImFontAtla
	DD	imagerel $LN27@ImFontAtla+155
	DD	imagerel $unwind$?ImFontAtlasBuildRender8bppRectFromString@@YAXPEAUImFontAtlas@@HHHHPEBDDE@Z
pdata	ENDS
;	COMDAT pdata
pdata	SEGMENT
$pdata$?ImFontAtlasBuildPackCustomRects@@YAXPEAUImFontAtlas@@PEAX@Z DD imagerel $LN94@ImFontAtla
	DD	imagerel $LN94@ImFontAtla+409
	DD	imagerel $unwind$?ImFontAtlasBuildPackCustomRects@@YAXPEAUImFontAtlas@@PEAX@Z
pdata	ENDS
;	COMDAT pdata
pdata	SEGMENT
$pdata$?ImFontAtlasBuildSetupFont@@YAXPEAUImFontAtlas@@PEAUImFont@@PEAUImFontConfig@@MM@Z DD imagerel $LN5@ImFontAtla
	DD	imagerel $LN5@ImFontAtla+94
	DD	imagerel $unwind$?ImFontAtlasBuildSetupFont@@YAXPEAUImFontAtlas@@PEAUImFont@@PEAUImFontConfig@@MM@Z
pdata	ENDS
;	COMDAT pdata
pdata	SEGMENT
$pdata$?ImFontAtlasBuildWithStbTruetype@@YA_NPEAUImFontAtlas@@@Z DD imagerel ?ImFontAtlasBuildWithStbTruetype@@YA_NPEAUImFontAtlas@@@Z
	DD	imagerel ?ImFontAtlasBuildWithStbTruetype@@YA_NPEAUImFontAtlas@@@Z+5697
	DD	imagerel $unwind$?ImFontAtlasBuildWithStbTruetype@@YA_NPEAUImFontAtlas@@@Z
pdata	ENDS
;	COMDAT pdata
pdata	SEGMENT
$pdata$?UnpackBitVectorToFlatIndexList@@YAXPEBUImBitVector@@PEAU?$ImVector@H@@@Z DD imagerel ?UnpackBitVectorToFlatIndexList@@YAXPEBUImBitVector@@PEAU?$ImVector@H@@@Z
	DD	imagerel ?UnpackBitVectorToFlatIndexList@@YAXPEBUImBitVector@@PEAU?$ImVector@H@@@Z+38
	DD	imagerel $unwind$?UnpackBitVectorToFlatIndexList@@YAXPEBUImBitVector@@PEAU?$ImVector@H@@@Z
pdata	ENDS
;	COMDAT pdata
pdata	SEGMENT
$pdata$3$?UnpackBitVectorToFlatIndexList@@YAXPEBUImBitVector@@PEAU?$ImVector@H@@@Z DD imagerel ?UnpackBitVectorToFlatIndexList@@YAXPEBUImBitVector@@PEAU?$ImVector@H@@@Z+38
	DD	imagerel ?UnpackBitVectorToFlatIndexList@@YAXPEBUImBitVector@@PEAU?$ImVector@H@@@Z+210
	DD	imagerel $chain$3$?UnpackBitVectorToFlatIndexList@@YAXPEBUImBitVector@@PEAU?$ImVector@H@@@Z
pdata	ENDS
;	COMDAT pdata
pdata	SEGMENT
$pdata$4$?UnpackBitVectorToFlatIndexList@@YAXPEBUImBitVector@@PEAU?$ImVector@H@@@Z DD imagerel ?UnpackBitVectorToFlatIndexList@@YAXPEBUImBitVector@@PEAU?$ImVector@H@@@Z+210
	DD	imagerel ?UnpackBitVectorToFlatIndexList@@YAXPEBUImBitVector@@PEAU?$ImVector@H@@@Z+222
	DD	imagerel $chain$4$?UnpackBitVectorToFlatIndexList@@YAXPEBUImBitVector@@PEAU?$ImVector@H@@@Z
pdata	ENDS
;	COMDAT pdata
pdata	SEGMENT
$pdata$?ImFontAtlasBuildMultiplyRectAlpha8@@YAXQEBEPEAEHHHHH@Z DD imagerel $LN18@ImFontAtla
	DD	imagerel $LN18@ImFontAtla+45
	DD	imagerel $unwind$?ImFontAtlasBuildMultiplyRectAlpha8@@YAXQEBEPEAEHHHHH@Z
pdata	ENDS
;	COMDAT pdata
pdata	SEGMENT
$pdata$0$?ImFontAtlasBuildMultiplyRectAlpha8@@YAXQEBEPEAEHHHHH@Z DD imagerel $LN18@ImFontAtla+45
	DD	imagerel $LN18@ImFontAtla+100
	DD	imagerel $chain$0$?ImFontAtlasBuildMultiplyRectAlpha8@@YAXQEBEPEAEHHHHH@Z
pdata	ENDS
;	COMDAT pdata
pdata	SEGMENT
$pdata$1$?ImFontAtlasBuildMultiplyRectAlpha8@@YAXQEBEPEAEHHHHH@Z DD imagerel $LN18@ImFontAtla+100
	DD	imagerel $LN18@ImFontAtla+105
	DD	imagerel $chain$1$?ImFontAtlasBuildMultiplyRectAlpha8@@YAXQEBEPEAEHHHHH@Z
pdata	ENDS
;	COMDAT pdata
pdata	SEGMENT
$pdata$?Build@ImFontAtlas@@QEAA_NXZ DD imagerel $LN23@Build
	DD	imagerel $LN23@Build+408
	DD	imagerel $unwind$?Build@ImFontAtlas@@QEAA_NXZ
pdata	ENDS
;	COMDAT pdata
pdata	SEGMENT
$pdata$?AddCustomRectRegular@ImFontAtlas@@QEAAHHH@Z DD imagerel $LN10@AddCustomR
	DD	imagerel $LN10@AddCustomR+69
	DD	imagerel $unwind$?AddCustomRectRegular@ImFontAtlas@@QEAAHHH@Z
pdata	ENDS
;	COMDAT pdata
pdata	SEGMENT
$pdata$?AddFontFromMemoryCompressedBase85TTF@ImFontAtlas@@QEAAPEAUImFont@@PEBDMPEBUImFontConfig@@PEBG@Z DD imagerel $LN46@AddFontFro
	DD	imagerel $LN46@AddFontFro+484
	DD	imagerel $unwind$?AddFontFromMemoryCompressedBase85TTF@ImFontAtlas@@QEAAPEAUImFont@@PEBDMPEBUImFontConfig@@PEBG@Z
pdata	ENDS
;	COMDAT pdata
pdata	SEGMENT
$pdata$?AddFontFromMemoryCompressedTTF@ImFontAtlas@@QEAAPEAUImFont@@PEBXHMPEBUImFontConfig@@PEBG@Z DD imagerel $LN51@AddFontFro
	DD	imagerel $LN51@AddFontFro+28
	DD	imagerel $unwind$?AddFontFromMemoryCompressedTTF@ImFontAtlas@@QEAAPEAUImFont@@PEBXHMPEBUImFontConfig@@PEBG@Z
pdata	ENDS
;	COMDAT pdata
pdata	SEGMENT
$pdata$5$?AddFontFromMemoryCompressedTTF@ImFontAtlas@@QEAAPEAUImFont@@PEBXHMPEBUImFontConfig@@PEBG@Z DD imagerel $LN51@AddFontFro+28
	DD	imagerel $LN51@AddFontFro+197
	DD	imagerel $chain$5$?AddFontFromMemoryCompressedTTF@ImFontAtlas@@QEAAPEAUImFont@@PEBXHMPEBUImFontConfig@@PEBG@Z
pdata	ENDS
;	COMDAT pdata
pdata	SEGMENT
$pdata$6$?AddFontFromMemoryCompressedTTF@ImFontAtlas@@QEAAPEAUImFont@@PEBXHMPEBUImFontConfig@@PEBG@Z DD imagerel $LN51@AddFontFro+197
	DD	imagerel $LN51@AddFontFro+308
	DD	imagerel $chain$6$?AddFontFromMemoryCompressedTTF@ImFontAtlas@@QEAAPEAUImFont@@PEBXHMPEBUImFontConfig@@PEBG@Z
pdata	ENDS
;	COMDAT pdata
pdata	SEGMENT
$pdata$7$?AddFontFromMemoryCompressedTTF@ImFontAtlas@@QEAAPEAUImFont@@PEBXHMPEBUImFontConfig@@PEBG@Z DD imagerel $LN51@AddFontFro+308
	DD	imagerel $LN51@AddFontFro+328
	DD	imagerel $chain$7$?AddFontFromMemoryCompressedTTF@ImFontAtlas@@QEAAPEAUImFont@@PEBXHMPEBUImFontConfig@@PEBG@Z
pdata	ENDS
;	COMDAT pdata
pdata	SEGMENT
$pdata$8$?AddFontFromMemoryCompressedTTF@ImFontAtlas@@QEAAPEAUImFont@@PEBXHMPEBUImFontConfig@@PEBG@Z DD imagerel $LN51@AddFontFro+328
	DD	imagerel $LN51@AddFontFro+675
	DD	imagerel $chain$8$?AddFontFromMemoryCompressedTTF@ImFontAtlas@@QEAAPEAUImFont@@PEBXHMPEBUImFontConfig@@PEBG@Z
pdata	ENDS
;	COMDAT pdata
pdata	SEGMENT
$pdata$9$?AddFontFromMemoryCompressedTTF@ImFontAtlas@@QEAAPEAUImFont@@PEBXHMPEBUImFontConfig@@PEBG@Z DD imagerel $LN51@AddFontFro+675
	DD	imagerel $LN51@AddFontFro+739
	DD	imagerel $chain$9$?AddFontFromMemoryCompressedTTF@ImFontAtlas@@QEAAPEAUImFont@@PEBXHMPEBUImFontConfig@@PEBG@Z
pdata	ENDS
;	COMDAT pdata
pdata	SEGMENT
$pdata$?AddFontFromMemoryTTF@ImFontAtlas@@QEAAPEAUImFont@@PEAXHMPEBUImFontConfig@@PEBG@Z DD imagerel $LN16@AddFontFro
	DD	imagerel $LN16@AddFontFro+354
	DD	imagerel $unwind$?AddFontFromMemoryTTF@ImFontAtlas@@QEAAPEAUImFont@@PEAXHMPEBUImFontConfig@@PEBG@Z
pdata	ENDS
;	COMDAT pdata
pdata	SEGMENT
$pdata$?AddFontDefault@ImFontAtlas@@QEAAPEAUImFont@@PEBUImFontConfig@@@Z DD imagerel $LN17@AddFontDef
	DD	imagerel $LN17@AddFontDef+357
	DD	imagerel $unwind$?AddFontDefault@ImFontAtlas@@QEAAPEAUImFont@@PEBUImFontConfig@@@Z
pdata	ENDS
;	COMDAT pdata
pdata	SEGMENT
$pdata$?Decode85@@YAXPEBEPEAE@Z DD imagerel ?Decode85@@YAXPEBEPEAE@Z
	DD	imagerel ?Decode85@@YAXPEBEPEAE@Z+198
	DD	imagerel $unwind$?Decode85@@YAXPEBEPEAE@Z
pdata	ENDS
;	COMDAT pdata
pdata	SEGMENT
$pdata$?AddFont@ImFontAtlas@@QEAAPEAUImFont@@PEBUImFontConfig@@@Z DD imagerel $LN52@AddFont
	DD	imagerel $LN52@AddFont+533
	DD	imagerel $unwind$?AddFont@ImFontAtlas@@QEAAPEAUImFont@@PEBUImFontConfig@@@Z
pdata	ENDS
;	COMDAT pdata
pdata	SEGMENT
$pdata$?GetTexDataAsAlpha8@ImFontAtlas@@QEAAXPEAPEAEPEAH11@Z DD imagerel $LN30@GetTexData
	DD	imagerel $LN30@GetTexData+444
	DD	imagerel $unwind$?GetTexDataAsAlpha8@ImFontAtlas@@QEAAXPEAPEAEPEAH11@Z
pdata	ENDS
;	COMDAT pdata
pdata	SEGMENT
$pdata$?Clear@ImFontAtlas@@QEAAXXZ DD imagerel $LN35@Clear
	DD	imagerel $LN35@Clear+46
	DD	imagerel $unwind$?Clear@ImFontAtlas@@QEAAXXZ
pdata	ENDS
;	COMDAT pdata
pdata	SEGMENT
$pdata$1$?Clear@ImFontAtlas@@QEAAXXZ DD imagerel $LN35@Clear+46
	DD	imagerel $LN35@Clear+228
	DD	imagerel $chain$1$?Clear@ImFontAtlas@@QEAAXXZ
pdata	ENDS
;	COMDAT pdata
pdata	SEGMENT
$pdata$2$?Clear@ImFontAtlas@@QEAAXXZ DD imagerel $LN35@Clear+228
	DD	imagerel $LN35@Clear+256
	DD	imagerel $chain$2$?Clear@ImFontAtlas@@QEAAXXZ
pdata	ENDS
;	COMDAT pdata
pdata	SEGMENT
$pdata$?ClearFonts@ImFontAtlas@@QEAAXXZ DD imagerel $LN33@ClearFonts
	DD	imagerel $LN33@ClearFonts+33
	DD	imagerel $unwind$?ClearFonts@ImFontAtlas@@QEAAXXZ
pdata	ENDS
;	COMDAT pdata
pdata	SEGMENT
$pdata$1$?ClearFonts@ImFontAtlas@@QEAAXXZ DD imagerel $LN33@ClearFonts+33
	DD	imagerel $LN33@ClearFonts+212
	DD	imagerel $chain$1$?ClearFonts@ImFontAtlas@@QEAAXXZ
pdata	ENDS
;	COMDAT pdata
pdata	SEGMENT
$pdata$2$?ClearFonts@ImFontAtlas@@QEAAXXZ DD imagerel $LN33@ClearFonts+212
	DD	imagerel $LN33@ClearFonts+240
	DD	imagerel $chain$2$?ClearFonts@ImFontAtlas@@QEAAXXZ
pdata	ENDS
;	COMDAT pdata
pdata	SEGMENT
$pdata$?ClearTexData@ImFontAtlas@@QEAAXXZ DD imagerel $LN32@ClearTexDa
	DD	imagerel $LN32@ClearTexDa+289
	DD	imagerel $unwind$?ClearTexData@ImFontAtlas@@QEAAXXZ
pdata	ENDS
;	COMDAT pdata
pdata	SEGMENT
$pdata$?ClearInputData@ImFontAtlas@@QEAAXXZ DD imagerel $LN70@ClearInput
	DD	imagerel $LN70@ClearInput+586
	DD	imagerel $unwind$?ClearInputData@ImFontAtlas@@QEAAXXZ
pdata	ENDS
;	COMDAT pdata
pdata	SEGMENT
$pdata$?ShadeVertsLinearColorGradientKeepAlpha@ImGui@@YAXPEAUImDrawList@@HHUImVec2@@1II@Z DD imagerel $LN48@ShadeVerts
	DD	imagerel $LN48@ShadeVerts+223
	DD	imagerel $unwind$?ShadeVertsLinearColorGradientKeepAlpha@ImGui@@YAXPEAUImDrawList@@HHUImVec2@@1II@Z
pdata	ENDS
;	COMDAT pdata
pdata	SEGMENT
$pdata$4$?ShadeVertsLinearColorGradientKeepAlpha@ImGui@@YAXPEAUImDrawList@@HHUImVec2@@1II@Z DD imagerel $LN48@ShadeVerts+223
	DD	imagerel $LN48@ShadeVerts+1065
	DD	imagerel $chain$4$?ShadeVertsLinearColorGradientKeepAlpha@ImGui@@YAXPEAUImDrawList@@HHUImVec2@@1II@Z
pdata	ENDS
;	COMDAT pdata
pdata	SEGMENT
$pdata$5$?ShadeVertsLinearColorGradientKeepAlpha@ImGui@@YAXPEAUImDrawList@@HHUImVec2@@1II@Z DD imagerel $LN48@ShadeVerts+1065
	DD	imagerel $LN48@ShadeVerts+1109
	DD	imagerel $chain$5$?ShadeVertsLinearColorGradientKeepAlpha@ImGui@@YAXPEAUImDrawList@@HHUImVec2@@1II@Z
pdata	ENDS
;	COMDAT pdata
pdata	SEGMENT
$pdata$?PathRect@ImDrawList@@QEAAXAEBUImVec2@@0MH@Z DD imagerel $LN124@PathRect
	DD	imagerel $LN124@PathRect+251
	DD	imagerel $unwind$?PathRect@ImDrawList@@QEAAXAEBUImVec2@@0MH@Z
pdata	ENDS
;	COMDAT pdata
pdata	SEGMENT
$pdata$1$?PathRect@ImDrawList@@QEAAXAEBUImVec2@@0MH@Z DD imagerel $LN124@PathRect+251
	DD	imagerel $LN124@PathRect+284
	DD	imagerel $chain$1$?PathRect@ImDrawList@@QEAAXAEBUImVec2@@0MH@Z
pdata	ENDS
;	COMDAT pdata
pdata	SEGMENT
$pdata$3$?PathRect@ImDrawList@@QEAAXAEBUImVec2@@0MH@Z DD imagerel $LN124@PathRect+284
	DD	imagerel $LN124@PathRect+668
	DD	imagerel $chain$3$?PathRect@ImDrawList@@QEAAXAEBUImVec2@@0MH@Z
pdata	ENDS
;	COMDAT pdata
pdata	SEGMENT
$pdata$4$?PathRect@ImDrawList@@QEAAXAEBUImVec2@@0MH@Z DD imagerel $LN124@PathRect+668
	DD	imagerel $LN124@PathRect+807
	DD	imagerel $chain$4$?PathRect@ImDrawList@@QEAAXAEBUImVec2@@0MH@Z
pdata	ENDS
;	COMDAT pdata
pdata	SEGMENT
$pdata$5$?PathRect@ImDrawList@@QEAAXAEBUImVec2@@0MH@Z DD imagerel $LN124@PathRect+807
	DD	imagerel $LN124@PathRect+1302
	DD	imagerel $chain$5$?PathRect@ImDrawList@@QEAAXAEBUImVec2@@0MH@Z
pdata	ENDS
;	COMDAT pdata
pdata	SEGMENT
$pdata$?_PathArcToN@ImDrawList@@QEAAXAEBUImVec2@@MMMH@Z DD imagerel $LN30@PathArcToN
	DD	imagerel $LN30@PathArcToN+133
	DD	imagerel $unwind$?_PathArcToN@ImDrawList@@QEAAXAEBUImVec2@@MMMH@Z
pdata	ENDS
;	COMDAT pdata
pdata	SEGMENT
$pdata$1$?_PathArcToN@ImDrawList@@QEAAXAEBUImVec2@@MMMH@Z DD imagerel $LN30@PathArcToN+133
	DD	imagerel $LN30@PathArcToN+179
	DD	imagerel $chain$1$?_PathArcToN@ImDrawList@@QEAAXAEBUImVec2@@MMMH@Z
pdata	ENDS
;	COMDAT pdata
pdata	SEGMENT
$pdata$4$?_PathArcToN@ImDrawList@@QEAAXAEBUImVec2@@MMMH@Z DD imagerel $LN30@PathArcToN+179
	DD	imagerel $LN30@PathArcToN+386
	DD	imagerel $chain$4$?_PathArcToN@ImDrawList@@QEAAXAEBUImVec2@@MMMH@Z
pdata	ENDS
;	COMDAT pdata
pdata	SEGMENT
$pdata$5$?_PathArcToN@ImDrawList@@QEAAXAEBUImVec2@@MMMH@Z DD imagerel $LN30@PathArcToN+386
	DD	imagerel $LN30@PathArcToN+402
	DD	imagerel $chain$5$?_PathArcToN@ImDrawList@@QEAAXAEBUImVec2@@MMMH@Z
pdata	ENDS
;	COMDAT pdata
pdata	SEGMENT
$pdata$6$?_PathArcToN@ImDrawList@@QEAAXAEBUImVec2@@MMMH@Z DD imagerel $LN30@PathArcToN+402
	DD	imagerel $LN30@PathArcToN+434
	DD	imagerel $chain$6$?_PathArcToN@ImDrawList@@QEAAXAEBUImVec2@@MMMH@Z
pdata	ENDS
;	COMDAT pdata
pdata	SEGMENT
$pdata$?_PathArcToFastEx@ImDrawList@@QEAAXAEBUImVec2@@MHHH@Z DD imagerel $LN55@PathArcToF
	DD	imagerel $LN55@PathArcToF+142
	DD	imagerel $unwind$?_PathArcToFastEx@ImDrawList@@QEAAXAEBUImVec2@@MHHH@Z
pdata	ENDS
;	COMDAT pdata
pdata	SEGMENT
$pdata$0$?_PathArcToFastEx@ImDrawList@@QEAAXAEBUImVec2@@MHHH@Z DD imagerel $LN55@PathArcToF+142
	DD	imagerel $LN55@PathArcToF+150
	DD	imagerel $chain$0$?_PathArcToFastEx@ImDrawList@@QEAAXAEBUImVec2@@MHHH@Z
pdata	ENDS
;	COMDAT pdata
pdata	SEGMENT
$pdata$2$?_PathArcToFastEx@ImDrawList@@QEAAXAEBUImVec2@@MHHH@Z DD imagerel $LN55@PathArcToF+150
	DD	imagerel $LN55@PathArcToF+390
	DD	imagerel $chain$2$?_PathArcToFastEx@ImDrawList@@QEAAXAEBUImVec2@@MHHH@Z
pdata	ENDS
;	COMDAT pdata
pdata	SEGMENT
$pdata$3$?_PathArcToFastEx@ImDrawList@@QEAAXAEBUImVec2@@MHHH@Z DD imagerel $LN55@PathArcToF+390
	DD	imagerel $LN55@PathArcToF+619
	DD	imagerel $chain$3$?_PathArcToFastEx@ImDrawList@@QEAAXAEBUImVec2@@MHHH@Z
pdata	ENDS
;	COMDAT pdata
pdata	SEGMENT
$pdata$4$?_PathArcToFastEx@ImDrawList@@QEAAXAEBUImVec2@@MHHH@Z DD imagerel $LN55@PathArcToF+619
	DD	imagerel $LN55@PathArcToF+720
	DD	imagerel $chain$4$?_PathArcToFastEx@ImDrawList@@QEAAXAEBUImVec2@@MHHH@Z
pdata	ENDS
;	COMDAT pdata
pdata	SEGMENT
$pdata$?PrimRectUV@ImDrawList@@QEAAXAEBUImVec2@@000I@Z DD imagerel $LN12@PrimRectUV
	DD	imagerel $LN12@PrimRectUV+334
	DD	imagerel $unwind$?PrimRectUV@ImDrawList@@QEAAXAEBUImVec2@@000I@Z
pdata	ENDS
;	COMDAT pdata
pdata	SEGMENT
$pdata$?PrimRect@ImDrawList@@QEAAXAEBUImVec2@@0I@Z DD imagerel $LN8@PrimRect
	DD	imagerel $LN8@PrimRect+278
	DD	imagerel $unwind$?PrimRect@ImDrawList@@QEAAXAEBUImVec2@@0I@Z
pdata	ENDS
;	COMDAT pdata
pdata	SEGMENT
$pdata$?PrimReserve@ImDrawList@@QEAAXHH@Z DD imagerel $LN22@PrimReserv
	DD	imagerel $LN22@PrimReserv+273
	DD	imagerel $unwind$?PrimReserve@ImDrawList@@QEAAXHH@Z
pdata	ENDS
;	COMDAT pdata
pdata	SEGMENT
$pdata$?_OnChangedTextureID@ImDrawList@@QEAAXXZ DD imagerel $LN11@OnChangedT
	DD	imagerel $LN11@OnChangedT+169
	DD	imagerel $unwind$?_OnChangedTextureID@ImDrawList@@QEAAXXZ
pdata	ENDS
;	COMDAT pdata
pdata	SEGMENT
$pdata$?_OnChangedClipRect@ImDrawList@@QEAAXXZ DD imagerel $LN11@OnChangedC
	DD	imagerel $LN11@OnChangedC+175
	DD	imagerel $unwind$?_OnChangedClipRect@ImDrawList@@QEAAXXZ
pdata	ENDS
;	COMDAT pdata
pdata	SEGMENT
$pdata$stbtt_PackFontRangesRenderIntoRects DD imagerel stbtt_PackFontRangesRenderIntoRects
	DD	imagerel stbtt_PackFontRangesRenderIntoRects+258
	DD	imagerel $unwind$stbtt_PackFontRangesRenderIntoRects
pdata	ENDS
;	COMDAT pdata
pdata	SEGMENT
$pdata$1$stbtt_PackFontRangesRenderIntoRects DD imagerel stbtt_PackFontRangesRenderIntoRects+258
	DD	imagerel stbtt_PackFontRangesRenderIntoRects+403
	DD	imagerel $chain$1$stbtt_PackFontRangesRenderIntoRects
pdata	ENDS
;	COMDAT pdata
pdata	SEGMENT
$pdata$4$stbtt_PackFontRangesRenderIntoRects DD imagerel stbtt_PackFontRangesRenderIntoRects+403
	DD	imagerel stbtt_PackFontRangesRenderIntoRects+1323
	DD	imagerel $chain$4$stbtt_PackFontRangesRenderIntoRects
pdata	ENDS
;	COMDAT pdata
pdata	SEGMENT
$pdata$5$stbtt_PackFontRangesRenderIntoRects DD imagerel stbtt_PackFontRangesRenderIntoRects+1323
	DD	imagerel stbtt_PackFontRangesRenderIntoRects+1397
	DD	imagerel $chain$5$stbtt_PackFontRangesRenderIntoRects
pdata	ENDS
;	COMDAT pdata
pdata	SEGMENT
$pdata$?stbtt__v_prefilter@@YAXPEAEHHHI@Z DD imagerel ?stbtt__v_prefilter@@YAXPEAEHHHI@Z
	DD	imagerel ?stbtt__v_prefilter@@YAXPEAEHHHI@Z+45
	DD	imagerel $unwind$?stbtt__v_prefilter@@YAXPEAEHHHI@Z
pdata	ENDS
;	COMDAT pdata
pdata	SEGMENT
$pdata$1$?stbtt__v_prefilter@@YAXPEAEHHHI@Z DD imagerel ?stbtt__v_prefilter@@YAXPEAEHHHI@Z+45
	DD	imagerel ?stbtt__v_prefilter@@YAXPEAEHHHI@Z+660
	DD	imagerel $chain$1$?stbtt__v_prefilter@@YAXPEAEHHHI@Z
pdata	ENDS
;	COMDAT pdata
pdata	SEGMENT
$pdata$2$?stbtt__v_prefilter@@YAXPEAEHHHI@Z DD imagerel ?stbtt__v_prefilter@@YAXPEAEHHHI@Z+660
	DD	imagerel ?stbtt__v_prefilter@@YAXPEAEHHHI@Z+661
	DD	imagerel $chain$2$?stbtt__v_prefilter@@YAXPEAEHHHI@Z
pdata	ENDS
;	COMDAT pdata
pdata	SEGMENT
$pdata$?stbtt__h_prefilter@@YAXPEAEHHHI@Z DD imagerel ?stbtt__h_prefilter@@YAXPEAEHHHI@Z
	DD	imagerel ?stbtt__h_prefilter@@YAXPEAEHHHI@Z+42
	DD	imagerel $unwind$?stbtt__h_prefilter@@YAXPEAEHHHI@Z
pdata	ENDS
;	COMDAT pdata
pdata	SEGMENT
$pdata$2$?stbtt__h_prefilter@@YAXPEAEHHHI@Z DD imagerel ?stbtt__h_prefilter@@YAXPEAEHHHI@Z+42
	DD	imagerel ?stbtt__h_prefilter@@YAXPEAEHHHI@Z+680
	DD	imagerel $chain$2$?stbtt__h_prefilter@@YAXPEAEHHHI@Z
pdata	ENDS
;	COMDAT pdata
pdata	SEGMENT
$pdata$3$?stbtt__h_prefilter@@YAXPEAEHHHI@Z DD imagerel ?stbtt__h_prefilter@@YAXPEAEHHHI@Z+680
	DD	imagerel ?stbtt__h_prefilter@@YAXPEAEHHHI@Z+681
	DD	imagerel $chain$3$?stbtt__h_prefilter@@YAXPEAEHHHI@Z
pdata	ENDS
;	COMDAT pdata
pdata	SEGMENT
$pdata$stbtt_PackEnd DD imagerel stbtt_PackEnd
	DD	imagerel stbtt_PackEnd+277
	DD	imagerel $unwind$stbtt_PackEnd
pdata	ENDS
;	COMDAT pdata
pdata	SEGMENT
$pdata$stbtt_PackBegin DD imagerel stbtt_PackBegin
	DD	imagerel stbtt_PackBegin+537
	DD	imagerel $unwind$stbtt_PackBegin
pdata	ENDS
;	COMDAT pdata
pdata	SEGMENT
$pdata$stbtt_MakeGlyphBitmapSubpixel DD imagerel stbtt_MakeGlyphBitmapSubpixel
	DD	imagerel stbtt_MakeGlyphBitmapSubpixel+34
	DD	imagerel $unwind$stbtt_MakeGlyphBitmapSubpixel
pdata	ENDS
;	COMDAT pdata
pdata	SEGMENT
$pdata$9$stbtt_MakeGlyphBitmapSubpixel DD imagerel stbtt_MakeGlyphBitmapSubpixel+34
	DD	imagerel stbtt_MakeGlyphBitmapSubpixel+285
	DD	imagerel $chain$9$stbtt_MakeGlyphBitmapSubpixel
pdata	ENDS
;	COMDAT pdata
pdata	SEGMENT
$pdata$10$stbtt_MakeGlyphBitmapSubpixel DD imagerel stbtt_MakeGlyphBitmapSubpixel+285
	DD	imagerel stbtt_MakeGlyphBitmapSubpixel+423
	DD	imagerel $chain$10$stbtt_MakeGlyphBitmapSubpixel
pdata	ENDS
;	COMDAT pdata
pdata	SEGMENT
$pdata$11$stbtt_MakeGlyphBitmapSubpixel DD imagerel stbtt_MakeGlyphBitmapSubpixel+423
	DD	imagerel stbtt_MakeGlyphBitmapSubpixel+566
	DD	imagerel $chain$11$stbtt_MakeGlyphBitmapSubpixel
pdata	ENDS
;	COMDAT pdata
pdata	SEGMENT
$pdata$stbtt_Rasterize DD imagerel stbtt_Rasterize
	DD	imagerel stbtt_Rasterize+479
	DD	imagerel $unwind$stbtt_Rasterize
pdata	ENDS
;	COMDAT pdata
pdata	SEGMENT
$pdata$?stbtt_FlattenCurves@@YAPEAUstbtt__point@@PEAUstbtt_vertex@@HMPEAPEAHPEAHPEAX@Z DD imagerel ?stbtt_FlattenCurves@@YAPEAUstbtt__point@@PEAUstbtt_vertex@@HMPEAPEAHPEAHPEAX@Z
	DD	imagerel ?stbtt_FlattenCurves@@YAPEAUstbtt__point@@PEAUstbtt_vertex@@HMPEAPEAHPEAHPEAX@Z+176
	DD	imagerel $unwind$?stbtt_FlattenCurves@@YAPEAUstbtt__point@@PEAUstbtt_vertex@@HMPEAPEAHPEAHPEAX@Z
pdata	ENDS
;	COMDAT pdata
pdata	SEGMENT
$pdata$4$?stbtt_FlattenCurves@@YAPEAUstbtt__point@@PEAUstbtt_vertex@@HMPEAPEAHPEAHPEAX@Z DD imagerel ?stbtt_FlattenCurves@@YAPEAUstbtt__point@@PEAUstbtt_vertex@@HMPEAPEAHPEAHPEAX@Z+176
	DD	imagerel ?stbtt_FlattenCurves@@YAPEAUstbtt__point@@PEAUstbtt_vertex@@HMPEAPEAHPEAHPEAX@Z+1078
	DD	imagerel $chain$4$?stbtt_FlattenCurves@@YAPEAUstbtt__point@@PEAUstbtt_vertex@@HMPEAPEAHPEAHPEAX@Z
pdata	ENDS
;	COMDAT pdata
pdata	SEGMENT
$pdata$5$?stbtt_FlattenCurves@@YAPEAUstbtt__point@@PEAUstbtt_vertex@@HMPEAPEAHPEAHPEAX@Z DD imagerel ?stbtt_FlattenCurves@@YAPEAUstbtt__point@@PEAUstbtt_vertex@@HMPEAPEAHPEAHPEAX@Z+1078
	DD	imagerel ?stbtt_FlattenCurves@@YAPEAUstbtt__point@@PEAUstbtt_vertex@@HMPEAPEAHPEAHPEAX@Z+1121
	DD	imagerel $chain$5$?stbtt_FlattenCurves@@YAPEAUstbtt__point@@PEAUstbtt_vertex@@HMPEAPEAHPEAHPEAX@Z
pdata	ENDS
;	COMDAT pdata
pdata	SEGMENT
$pdata$?stbtt__tesselate_cubic@@YAXPEAUstbtt__point@@PEAHMMMMMMMMMH@Z DD imagerel ?stbtt__tesselate_cubic@@YAXPEAUstbtt__point@@PEAHMMMMMMMMMH@Z
	DD	imagerel ?stbtt__tesselate_cubic@@YAXPEAUstbtt__point@@PEAHMMMMMMMMMH@Z+421
	DD	imagerel $unwind$?stbtt__tesselate_cubic@@YAXPEAUstbtt__point@@PEAHMMMMMMMMMH@Z
pdata	ENDS
;	COMDAT pdata
pdata	SEGMENT
$pdata$0$?stbtt__tesselate_cubic@@YAXPEAUstbtt__point@@PEAHMMMMMMMMMH@Z DD imagerel ?stbtt__tesselate_cubic@@YAXPEAUstbtt__point@@PEAHMMMMMMMMMH@Z+421
	DD	imagerel ?stbtt__tesselate_cubic@@YAXPEAUstbtt__point@@PEAHMMMMMMMMMH@Z+1112
	DD	imagerel $chain$0$?stbtt__tesselate_cubic@@YAXPEAUstbtt__point@@PEAHMMMMMMMMMH@Z
pdata	ENDS
;	COMDAT pdata
pdata	SEGMENT
$pdata$1$?stbtt__tesselate_cubic@@YAXPEAUstbtt__point@@PEAHMMMMMMMMMH@Z DD imagerel ?stbtt__tesselate_cubic@@YAXPEAUstbtt__point@@PEAHMMMMMMMMMH@Z+1112
	DD	imagerel ?stbtt__tesselate_cubic@@YAXPEAUstbtt__point@@PEAHMMMMMMMMMH@Z+1180
	DD	imagerel $chain$1$?stbtt__tesselate_cubic@@YAXPEAUstbtt__point@@PEAHMMMMMMMMMH@Z
pdata	ENDS
;	COMDAT pdata
pdata	SEGMENT
$pdata$?stbtt__tesselate_curve@@YAHPEAUstbtt__point@@PEAHMMMMMMMH@Z DD imagerel ?stbtt__tesselate_curve@@YAHPEAUstbtt__point@@PEAHMMMMMMMH@Z
	DD	imagerel ?stbtt__tesselate_curve@@YAHPEAUstbtt__point@@PEAHMMMMMMMH@Z+220
	DD	imagerel $unwind$?stbtt__tesselate_curve@@YAHPEAUstbtt__point@@PEAHMMMMMMMH@Z
pdata	ENDS
;	COMDAT pdata
pdata	SEGMENT
$pdata$0$?stbtt__tesselate_curve@@YAHPEAUstbtt__point@@PEAHMMMMMMMH@Z DD imagerel ?stbtt__tesselate_curve@@YAHPEAUstbtt__point@@PEAHMMMMMMMH@Z+220
	DD	imagerel ?stbtt__tesselate_curve@@YAHPEAUstbtt__point@@PEAHMMMMMMMH@Z+430
	DD	imagerel $chain$0$?stbtt__tesselate_curve@@YAHPEAUstbtt__point@@PEAHMMMMMMMH@Z
pdata	ENDS
;	COMDAT pdata
pdata	SEGMENT
$pdata$1$?stbtt__tesselate_curve@@YAHPEAUstbtt__point@@PEAHMMMMMMMH@Z DD imagerel ?stbtt__tesselate_curve@@YAHPEAUstbtt__point@@PEAHMMMMMMMH@Z+430
	DD	imagerel ?stbtt__tesselate_curve@@YAHPEAUstbtt__point@@PEAHMMMMMMMH@Z+491
	DD	imagerel $chain$1$?stbtt__tesselate_curve@@YAHPEAUstbtt__point@@PEAHMMMMMMMH@Z
pdata	ENDS
;	COMDAT pdata
pdata	SEGMENT
$pdata$?stbtt__rasterize@@YAXPEAUstbtt__bitmap@@PEAUstbtt__point@@PEAHHMMMMHHHPEAX@Z DD imagerel ?stbtt__rasterize@@YAXPEAUstbtt__bitmap@@PEAUstbtt__point@@PEAHHMMMMHHHPEAX@Z
	DD	imagerel ?stbtt__rasterize@@YAXPEAUstbtt__bitmap@@PEAUstbtt__point@@PEAHHMMMMHHHPEAX@Z+288
	DD	imagerel $unwind$?stbtt__rasterize@@YAXPEAUstbtt__bitmap@@PEAUstbtt__point@@PEAHHMMMMHHHPEAX@Z
pdata	ENDS
;	COMDAT pdata
pdata	SEGMENT
$pdata$1$?stbtt__rasterize@@YAXPEAUstbtt__bitmap@@PEAUstbtt__point@@PEAHHMMMMHHHPEAX@Z DD imagerel ?stbtt__rasterize@@YAXPEAUstbtt__bitmap@@PEAUstbtt__point@@PEAHHMMMMHHHPEAX@Z+288
	DD	imagerel ?stbtt__rasterize@@YAXPEAUstbtt__bitmap@@PEAUstbtt__point@@PEAHHMMMMHHHPEAX@Z+312
	DD	imagerel $chain$1$?stbtt__rasterize@@YAXPEAUstbtt__bitmap@@PEAUstbtt__point@@PEAHHMMMMHHHPEAX@Z
pdata	ENDS
;	COMDAT pdata
pdata	SEGMENT
$pdata$2$?stbtt__rasterize@@YAXPEAUstbtt__bitmap@@PEAUstbtt__point@@PEAHHMMMMHHHPEAX@Z DD imagerel ?stbtt__rasterize@@YAXPEAUstbtt__bitmap@@PEAUstbtt__point@@PEAHHMMMMHHHPEAX@Z+312
	DD	imagerel ?stbtt__rasterize@@YAXPEAUstbtt__bitmap@@PEAUstbtt__point@@PEAHHMMMMHHHPEAX@Z+646
	DD	imagerel $chain$2$?stbtt__rasterize@@YAXPEAUstbtt__bitmap@@PEAUstbtt__point@@PEAHHMMMMHHHPEAX@Z
pdata	ENDS
;	COMDAT pdata
pdata	SEGMENT
$pdata$3$?stbtt__rasterize@@YAXPEAUstbtt__bitmap@@PEAUstbtt__point@@PEAHHMMMMHHHPEAX@Z DD imagerel ?stbtt__rasterize@@YAXPEAUstbtt__bitmap@@PEAUstbtt__point@@PEAHHMMMMHHHPEAX@Z+646
	DD	imagerel ?stbtt__rasterize@@YAXPEAUstbtt__bitmap@@PEAUstbtt__point@@PEAHHMMMMHHHPEAX@Z+826
	DD	imagerel $chain$3$?stbtt__rasterize@@YAXPEAUstbtt__bitmap@@PEAUstbtt__point@@PEAHHMMMMHHHPEAX@Z
pdata	ENDS
;	COMDAT pdata
pdata	SEGMENT
$pdata$4$?stbtt__rasterize@@YAXPEAUstbtt__bitmap@@PEAUstbtt__point@@PEAHHMMMMHHHPEAX@Z DD imagerel ?stbtt__rasterize@@YAXPEAUstbtt__bitmap@@PEAUstbtt__point@@PEAHHMMMMHHHPEAX@Z+826
	DD	imagerel ?stbtt__rasterize@@YAXPEAUstbtt__bitmap@@PEAUstbtt__point@@PEAHHMMMMHHHPEAX@Z+970
	DD	imagerel $chain$4$?stbtt__rasterize@@YAXPEAUstbtt__bitmap@@PEAUstbtt__point@@PEAHHMMMMHHHPEAX@Z
pdata	ENDS
;	COMDAT pdata
pdata	SEGMENT
$pdata$?stbtt__sort_edges@@YAXPEAUstbtt__edge@@H@Z DD imagerel ?stbtt__sort_edges@@YAXPEAUstbtt__edge@@H@Z
	DD	imagerel ?stbtt__sort_edges@@YAXPEAUstbtt__edge@@H@Z+192
	DD	imagerel $unwind$?stbtt__sort_edges@@YAXPEAUstbtt__edge@@H@Z
pdata	ENDS
;	COMDAT pdata
pdata	SEGMENT
$pdata$?stbtt__sort_edges_quicksort@@YAXPEAUstbtt__edge@@H@Z DD imagerel ?stbtt__sort_edges_quicksort@@YAXPEAUstbtt__edge@@H@Z
	DD	imagerel ?stbtt__sort_edges_quicksort@@YAXPEAUstbtt__edge@@H@Z+15
	DD	imagerel $unwind$?stbtt__sort_edges_quicksort@@YAXPEAUstbtt__edge@@H@Z
pdata	ENDS
;	COMDAT pdata
pdata	SEGMENT
$pdata$3$?stbtt__sort_edges_quicksort@@YAXPEAUstbtt__edge@@H@Z DD imagerel ?stbtt__sort_edges_quicksort@@YAXPEAUstbtt__edge@@H@Z+15
	DD	imagerel ?stbtt__sort_edges_quicksort@@YAXPEAUstbtt__edge@@H@Z+465
	DD	imagerel $chain$3$?stbtt__sort_edges_quicksort@@YAXPEAUstbtt__edge@@H@Z
pdata	ENDS
;	COMDAT pdata
pdata	SEGMENT
$pdata$4$?stbtt__sort_edges_quicksort@@YAXPEAUstbtt__edge@@H@Z DD imagerel ?stbtt__sort_edges_quicksort@@YAXPEAUstbtt__edge@@H@Z+465
	DD	imagerel ?stbtt__sort_edges_quicksort@@YAXPEAUstbtt__edge@@H@Z+466
	DD	imagerel $chain$4$?stbtt__sort_edges_quicksort@@YAXPEAUstbtt__edge@@H@Z
pdata	ENDS
;	COMDAT pdata
pdata	SEGMENT
$pdata$?stbtt__sort_edges_ins_sort@@YAXPEAUstbtt__edge@@H@Z DD imagerel ?stbtt__sort_edges_ins_sort@@YAXPEAUstbtt__edge@@H@Z
	DD	imagerel ?stbtt__sort_edges_ins_sort@@YAXPEAUstbtt__edge@@H@Z+31
	DD	imagerel $unwind$?stbtt__sort_edges_ins_sort@@YAXPEAUstbtt__edge@@H@Z
pdata	ENDS
;	COMDAT pdata
pdata	SEGMENT
$pdata$0$?stbtt__sort_edges_ins_sort@@YAXPEAUstbtt__edge@@H@Z DD imagerel ?stbtt__sort_edges_ins_sort@@YAXPEAUstbtt__edge@@H@Z+31
	DD	imagerel ?stbtt__sort_edges_ins_sort@@YAXPEAUstbtt__edge@@H@Z+192
	DD	imagerel $chain$0$?stbtt__sort_edges_ins_sort@@YAXPEAUstbtt__edge@@H@Z
pdata	ENDS
;	COMDAT pdata
pdata	SEGMENT
$pdata$1$?stbtt__sort_edges_ins_sort@@YAXPEAUstbtt__edge@@H@Z DD imagerel ?stbtt__sort_edges_ins_sort@@YAXPEAUstbtt__edge@@H@Z+192
	DD	imagerel ?stbtt__sort_edges_ins_sort@@YAXPEAUstbtt__edge@@H@Z+193
	DD	imagerel $chain$1$?stbtt__sort_edges_ins_sort@@YAXPEAUstbtt__edge@@H@Z
pdata	ENDS
;	COMDAT pdata
pdata	SEGMENT
$pdata$?stbtt__rasterize_sorted_edges@@YAXPEAUstbtt__bitmap@@PEAUstbtt__edge@@HHHHPEAX@Z DD imagerel ?stbtt__rasterize_sorted_edges@@YAXPEAUstbtt__bitmap@@PEAUstbtt__edge@@HHHHPEAX@Z
	DD	imagerel ?stbtt__rasterize_sorted_edges@@YAXPEAUstbtt__bitmap@@PEAUstbtt__edge@@HHHHPEAX@Z+31
	DD	imagerel $unwind$?stbtt__rasterize_sorted_edges@@YAXPEAUstbtt__bitmap@@PEAUstbtt__edge@@HHHHPEAX@Z
pdata	ENDS
;	COMDAT pdata
pdata	SEGMENT
$pdata$0$?stbtt__rasterize_sorted_edges@@YAXPEAUstbtt__bitmap@@PEAUstbtt__edge@@HHHHPEAX@Z DD imagerel ?stbtt__rasterize_sorted_edges@@YAXPEAUstbtt__bitmap@@PEAUstbtt__edge@@HHHHPEAX@Z+31
	DD	imagerel ?stbtt__rasterize_sorted_edges@@YAXPEAUstbtt__bitmap@@PEAUstbtt__edge@@HHHHPEAX@Z+35
	DD	imagerel $chain$0$?stbtt__rasterize_sorted_edges@@YAXPEAUstbtt__bitmap@@PEAUstbtt__edge@@HHHHPEAX@Z
pdata	ENDS
;	COMDAT pdata
pdata	SEGMENT
$pdata$7$?stbtt__rasterize_sorted_edges@@YAXPEAUstbtt__bitmap@@PEAUstbtt__edge@@HHHHPEAX@Z DD imagerel ?stbtt__rasterize_sorted_edges@@YAXPEAUstbtt__bitmap@@PEAUstbtt__edge@@HHHHPEAX@Z+35
	DD	imagerel ?stbtt__rasterize_sorted_edges@@YAXPEAUstbtt__bitmap@@PEAUstbtt__edge@@HHHHPEAX@Z+220
	DD	imagerel $chain$7$?stbtt__rasterize_sorted_edges@@YAXPEAUstbtt__bitmap@@PEAUstbtt__edge@@HHHHPEAX@Z
pdata	ENDS
;	COMDAT pdata
pdata	SEGMENT
$pdata$14$?stbtt__rasterize_sorted_edges@@YAXPEAUstbtt__bitmap@@PEAUstbtt__edge@@HHHHPEAX@Z DD imagerel ?stbtt__rasterize_sorted_edges@@YAXPEAUstbtt__bitmap@@PEAUstbtt__edge@@HHHHPEAX@Z+220
	DD	imagerel ?stbtt__rasterize_sorted_edges@@YAXPEAUstbtt__bitmap@@PEAUstbtt__edge@@HHHHPEAX@Z+1041
	DD	imagerel $chain$14$?stbtt__rasterize_sorted_edges@@YAXPEAUstbtt__bitmap@@PEAUstbtt__edge@@HHHHPEAX@Z
pdata	ENDS
;	COMDAT pdata
pdata	SEGMENT
$pdata$15$?stbtt__rasterize_sorted_edges@@YAXPEAUstbtt__bitmap@@PEAUstbtt__edge@@HHHHPEAX@Z DD imagerel ?stbtt__rasterize_sorted_edges@@YAXPEAUstbtt__bitmap@@PEAUstbtt__edge@@HHHHPEAX@Z+1041
	DD	imagerel ?stbtt__rasterize_sorted_edges@@YAXPEAUstbtt__bitmap@@PEAUstbtt__edge@@HHHHPEAX@Z+1104
	DD	imagerel $chain$15$?stbtt__rasterize_sorted_edges@@YAXPEAUstbtt__bitmap@@PEAUstbtt__edge@@HHHHPEAX@Z
pdata	ENDS
;	COMDAT pdata
pdata	SEGMENT
$pdata$16$?stbtt__rasterize_sorted_edges@@YAXPEAUstbtt__bitmap@@PEAUstbtt__edge@@HHHHPEAX@Z DD imagerel ?stbtt__rasterize_sorted_edges@@YAXPEAUstbtt__bitmap@@PEAUstbtt__edge@@HHHHPEAX@Z+1104
	DD	imagerel ?stbtt__rasterize_sorted_edges@@YAXPEAUstbtt__bitmap@@PEAUstbtt__edge@@HHHHPEAX@Z+1269
	DD	imagerel $chain$16$?stbtt__rasterize_sorted_edges@@YAXPEAUstbtt__bitmap@@PEAUstbtt__edge@@HHHHPEAX@Z
pdata	ENDS
;	COMDAT pdata
pdata	SEGMENT
$pdata$17$?stbtt__rasterize_sorted_edges@@YAXPEAUstbtt__bitmap@@PEAUstbtt__edge@@HHHHPEAX@Z DD imagerel ?stbtt__rasterize_sorted_edges@@YAXPEAUstbtt__bitmap@@PEAUstbtt__edge@@HHHHPEAX@Z+1269
	DD	imagerel ?stbtt__rasterize_sorted_edges@@YAXPEAUstbtt__bitmap@@PEAUstbtt__edge@@HHHHPEAX@Z+1420
	DD	imagerel $chain$17$?stbtt__rasterize_sorted_edges@@YAXPEAUstbtt__bitmap@@PEAUstbtt__edge@@HHHHPEAX@Z
pdata	ENDS
;	COMDAT pdata
pdata	SEGMENT
$pdata$?stbtt__fill_active_edges_new@@YAXPEAM0HPEAUstbtt__active_edge@@M@Z DD imagerel ?stbtt__fill_active_edges_new@@YAXPEAM0HPEAUstbtt__active_edge@@M@Z
	DD	imagerel ?stbtt__fill_active_edges_new@@YAXPEAM0HPEAUstbtt__active_edge@@M@Z+105
	DD	imagerel $unwind$?stbtt__fill_active_edges_new@@YAXPEAM0HPEAUstbtt__active_edge@@M@Z
pdata	ENDS
;	COMDAT pdata
pdata	SEGMENT
$pdata$7$?stbtt__fill_active_edges_new@@YAXPEAM0HPEAUstbtt__active_edge@@M@Z DD imagerel ?stbtt__fill_active_edges_new@@YAXPEAM0HPEAUstbtt__active_edge@@M@Z+105
	DD	imagerel ?stbtt__fill_active_edges_new@@YAXPEAM0HPEAUstbtt__active_edge@@M@Z+1592
	DD	imagerel $chain$7$?stbtt__fill_active_edges_new@@YAXPEAM0HPEAUstbtt__active_edge@@M@Z
pdata	ENDS
;	COMDAT pdata
pdata	SEGMENT
$pdata$8$?stbtt__fill_active_edges_new@@YAXPEAM0HPEAUstbtt__active_edge@@M@Z DD imagerel ?stbtt__fill_active_edges_new@@YAXPEAM0HPEAUstbtt__active_edge@@M@Z+1592
	DD	imagerel ?stbtt__fill_active_edges_new@@YAXPEAM0HPEAUstbtt__active_edge@@M@Z+1593
	DD	imagerel $chain$8$?stbtt__fill_active_edges_new@@YAXPEAM0HPEAUstbtt__active_edge@@M@Z
pdata	ENDS
;	COMDAT pdata
pdata	SEGMENT
$pdata$?stbtt__handle_clipped_edge@@YAXPEAMHPEAUstbtt__active_edge@@MMMM@Z DD imagerel ?stbtt__handle_clipped_edge@@YAXPEAMHPEAUstbtt__active_edge@@MMMM@Z
	DD	imagerel ?stbtt__handle_clipped_edge@@YAXPEAMHPEAUstbtt__active_edge@@MMMM@Z+27
	DD	imagerel $unwind$?stbtt__handle_clipped_edge@@YAXPEAMHPEAUstbtt__active_edge@@MMMM@Z
pdata	ENDS
;	COMDAT pdata
pdata	SEGMENT
$pdata$2$?stbtt__handle_clipped_edge@@YAXPEAMHPEAUstbtt__active_edge@@MMMM@Z DD imagerel ?stbtt__handle_clipped_edge@@YAXPEAMHPEAUstbtt__active_edge@@MMMM@Z+27
	DD	imagerel ?stbtt__handle_clipped_edge@@YAXPEAMHPEAUstbtt__active_edge@@MMMM@Z+221
	DD	imagerel $chain$2$?stbtt__handle_clipped_edge@@YAXPEAMHPEAUstbtt__active_edge@@MMMM@Z
pdata	ENDS
;	COMDAT pdata
pdata	SEGMENT
$pdata$4$?stbtt__handle_clipped_edge@@YAXPEAMHPEAUstbtt__active_edge@@MMMM@Z DD imagerel ?stbtt__handle_clipped_edge@@YAXPEAMHPEAUstbtt__active_edge@@MMMM@Z+221
	DD	imagerel ?stbtt__handle_clipped_edge@@YAXPEAMHPEAUstbtt__active_edge@@MMMM@Z+305
	DD	imagerel $chain$4$?stbtt__handle_clipped_edge@@YAXPEAMHPEAUstbtt__active_edge@@MMMM@Z
pdata	ENDS
;	COMDAT pdata
pdata	SEGMENT
$pdata$5$?stbtt__handle_clipped_edge@@YAXPEAMHPEAUstbtt__active_edge@@MMMM@Z DD imagerel ?stbtt__handle_clipped_edge@@YAXPEAMHPEAUstbtt__active_edge@@MMMM@Z+305
	DD	imagerel ?stbtt__handle_clipped_edge@@YAXPEAMHPEAUstbtt__active_edge@@MMMM@Z+310
	DD	imagerel $chain$5$?stbtt__handle_clipped_edge@@YAXPEAMHPEAUstbtt__active_edge@@MMMM@Z
pdata	ENDS
;	COMDAT pdata
pdata	SEGMENT
$pdata$6$?stbtt__handle_clipped_edge@@YAXPEAMHPEAUstbtt__active_edge@@MMMM@Z DD imagerel ?stbtt__handle_clipped_edge@@YAXPEAMHPEAUstbtt__active_edge@@MMMM@Z+310
	DD	imagerel ?stbtt__handle_clipped_edge@@YAXPEAMHPEAUstbtt__active_edge@@MMMM@Z+315
	DD	imagerel $chain$6$?stbtt__handle_clipped_edge@@YAXPEAMHPEAUstbtt__active_edge@@MMMM@Z
pdata	ENDS
;	COMDAT pdata
pdata	SEGMENT
$pdata$7$?stbtt__handle_clipped_edge@@YAXPEAMHPEAUstbtt__active_edge@@MMMM@Z DD imagerel ?stbtt__handle_clipped_edge@@YAXPEAMHPEAUstbtt__active_edge@@MMMM@Z+315
	DD	imagerel ?stbtt__handle_clipped_edge@@YAXPEAMHPEAUstbtt__active_edge@@MMMM@Z+320
	DD	imagerel $chain$7$?stbtt__handle_clipped_edge@@YAXPEAMHPEAUstbtt__active_edge@@MMMM@Z
pdata	ENDS
;	COMDAT pdata
pdata	SEGMENT
$pdata$?stbtt__new_active@@YAPEAUstbtt__active_edge@@PEAUstbtt__hheap@@PEAUstbtt__edge@@HMPEAX@Z DD imagerel ?stbtt__new_active@@YAPEAUstbtt__active_edge@@PEAUstbtt__hheap@@PEAUstbtt__edge@@HMPEAX@Z
	DD	imagerel ?stbtt__new_active@@YAPEAUstbtt__active_edge@@PEAUstbtt__hheap@@PEAUstbtt__edge@@HMPEAX@Z+280
	DD	imagerel $unwind$?stbtt__new_active@@YAPEAUstbtt__active_edge@@PEAUstbtt__hheap@@PEAUstbtt__edge@@HMPEAX@Z
pdata	ENDS
;	COMDAT pdata
pdata	SEGMENT
$pdata$?stbtt__hheap_cleanup@@YAXPEAUstbtt__hheap@@PEAX@Z DD imagerel ?stbtt__hheap_cleanup@@YAXPEAUstbtt__hheap@@PEAX@Z
	DD	imagerel ?stbtt__hheap_cleanup@@YAXPEAUstbtt__hheap@@PEAX@Z+16
	DD	imagerel $unwind$?stbtt__hheap_cleanup@@YAXPEAUstbtt__hheap@@PEAX@Z
pdata	ENDS
;	COMDAT pdata
pdata	SEGMENT
$pdata$1$?stbtt__hheap_cleanup@@YAXPEAUstbtt__hheap@@PEAX@Z DD imagerel ?stbtt__hheap_cleanup@@YAXPEAUstbtt__hheap@@PEAX@Z+16
	DD	imagerel ?stbtt__hheap_cleanup@@YAXPEAUstbtt__hheap@@PEAX@Z+169
	DD	imagerel $chain$1$?stbtt__hheap_cleanup@@YAXPEAUstbtt__hheap@@PEAX@Z
pdata	ENDS
;	COMDAT pdata
pdata	SEGMENT
$pdata$2$?stbtt__hheap_cleanup@@YAXPEAUstbtt__hheap@@PEAX@Z DD imagerel ?stbtt__hheap_cleanup@@YAXPEAUstbtt__hheap@@PEAX@Z+169
	DD	imagerel ?stbtt__hheap_cleanup@@YAXPEAUstbtt__hheap@@PEAX@Z+174
	DD	imagerel $chain$2$?stbtt__hheap_cleanup@@YAXPEAUstbtt__hheap@@PEAX@Z
pdata	ENDS
;	COMDAT pdata
pdata	SEGMENT
$pdata$?stbtt__hheap_alloc@@YAPEAXPEAUstbtt__hheap@@_KPEAX@Z DD imagerel ?stbtt__hheap_alloc@@YAPEAXPEAUstbtt__hheap@@_KPEAX@Z
	DD	imagerel ?stbtt__hheap_alloc@@YAPEAXPEAUstbtt__hheap@@_KPEAX@Z+104
	DD	imagerel $unwind$?stbtt__hheap_alloc@@YAPEAXPEAUstbtt__hheap@@_KPEAX@Z
pdata	ENDS
;	COMDAT pdata
pdata	SEGMENT
$pdata$stbtt_GetGlyphBitmapBox DD imagerel stbtt_GetGlyphBitmapBox
	DD	imagerel stbtt_GetGlyphBitmapBox+81
	DD	imagerel $unwind$stbtt_GetGlyphBitmapBox
pdata	ENDS
;	COMDAT pdata
pdata	SEGMENT
$pdata$stbtt_GetGlyphBitmapBoxSubpixel DD imagerel stbtt_GetGlyphBitmapBoxSubpixel
	DD	imagerel stbtt_GetGlyphBitmapBoxSubpixel+311
	DD	imagerel $unwind$stbtt_GetGlyphBitmapBoxSubpixel
pdata	ENDS
;	COMDAT pdata
pdata	SEGMENT
$pdata$0$stbtt_GetGlyphBitmapBoxSubpixel DD imagerel stbtt_GetGlyphBitmapBoxSubpixel+311
	DD	imagerel stbtt_GetGlyphBitmapBoxSubpixel+526
	DD	imagerel $chain$0$stbtt_GetGlyphBitmapBoxSubpixel
pdata	ENDS
;	COMDAT pdata
pdata	SEGMENT
$pdata$1$stbtt_GetGlyphBitmapBoxSubpixel DD imagerel stbtt_GetGlyphBitmapBoxSubpixel+526
	DD	imagerel stbtt_GetGlyphBitmapBoxSubpixel+607
	DD	imagerel $chain$1$stbtt_GetGlyphBitmapBoxSubpixel
pdata	ENDS
;	COMDAT pdata
pdata	SEGMENT
$pdata$stbtt_GetFontVMetrics DD imagerel stbtt_GetFontVMetrics
	DD	imagerel stbtt_GetFontVMetrics+157
	DD	imagerel $unwind$stbtt_GetFontVMetrics
pdata	ENDS
;	COMDAT pdata
pdata	SEGMENT
$pdata$stbtt_GetGlyphHMetrics DD imagerel stbtt_GetGlyphHMetrics
	DD	imagerel stbtt_GetGlyphHMetrics+261
	DD	imagerel $unwind$stbtt_GetGlyphHMetrics
pdata	ENDS
;	COMDAT pdata
pdata	SEGMENT
$pdata$?stbtt__GetGlyphInfoT2@@YAHPEBUstbtt_fontinfo@@HPEAH111@Z DD imagerel ?stbtt__GetGlyphInfoT2@@YAHPEBUstbtt_fontinfo@@HPEAH111@Z
	DD	imagerel ?stbtt__GetGlyphInfoT2@@YAHPEBUstbtt_fontinfo@@HPEAH111@Z+198
	DD	imagerel $unwind$?stbtt__GetGlyphInfoT2@@YAHPEBUstbtt_fontinfo@@HPEAH111@Z
pdata	ENDS
;	COMDAT pdata
pdata	SEGMENT
$pdata$?stbtt__GetGlyphShapeT2@@YAHPEBUstbtt_fontinfo@@HPEAPEAUstbtt_vertex@@@Z DD imagerel ?stbtt__GetGlyphShapeT2@@YAHPEBUstbtt_fontinfo@@HPEAPEAUstbtt_vertex@@@Z
	DD	imagerel ?stbtt__GetGlyphShapeT2@@YAHPEBUstbtt_fontinfo@@HPEAPEAUstbtt_vertex@@@Z+323
	DD	imagerel $unwind$?stbtt__GetGlyphShapeT2@@YAHPEBUstbtt_fontinfo@@HPEAPEAUstbtt_vertex@@@Z
pdata	ENDS
;	COMDAT pdata
pdata	SEGMENT
$pdata$?stbtt__run_charstring@@YAHPEBUstbtt_fontinfo@@HPEAUstbtt__csctx@@@Z DD imagerel ?stbtt__run_charstring@@YAHPEBUstbtt_fontinfo@@HPEAUstbtt__csctx@@@Z
	DD	imagerel ?stbtt__run_charstring@@YAHPEBUstbtt_fontinfo@@HPEAUstbtt__csctx@@@Z+4704
	DD	imagerel $unwind$?stbtt__run_charstring@@YAHPEBUstbtt_fontinfo@@HPEAUstbtt__csctx@@@Z
pdata	ENDS
;	COMDAT pdata
pdata	SEGMENT
$pdata$?stbtt__cid_get_glyph_subrs@@YA?AUstbtt__buf@@PEBUstbtt_fontinfo@@H@Z DD imagerel ?stbtt__cid_get_glyph_subrs@@YA?AUstbtt__buf@@PEBUstbtt_fontinfo@@H@Z
	DD	imagerel ?stbtt__cid_get_glyph_subrs@@YA?AUstbtt__buf@@PEBUstbtt_fontinfo@@H@Z+453
	DD	imagerel $unwind$?stbtt__cid_get_glyph_subrs@@YA?AUstbtt__buf@@PEBUstbtt_fontinfo@@H@Z
pdata	ENDS
;	COMDAT pdata
pdata	SEGMENT
$pdata$?stbtt__get_subr@@YA?AUstbtt__buf@@U1@H@Z DD imagerel ?stbtt__get_subr@@YA?AUstbtt__buf@@U1@H@Z
	DD	imagerel ?stbtt__get_subr@@YA?AUstbtt__buf@@U1@H@Z+189
	DD	imagerel $unwind$?stbtt__get_subr@@YA?AUstbtt__buf@@U1@H@Z
pdata	ENDS
;	COMDAT pdata
pdata	SEGMENT
$pdata$?stbtt__csctx_rccurve_to@@YAXPEAUstbtt__csctx@@MMMMMM@Z DD imagerel ?stbtt__csctx_rccurve_to@@YAXPEAUstbtt__csctx@@MMMMMM@Z
	DD	imagerel ?stbtt__csctx_rccurve_to@@YAXPEAUstbtt__csctx@@MMMMMM@Z+145
	DD	imagerel $unwind$?stbtt__csctx_rccurve_to@@YAXPEAUstbtt__csctx@@MMMMMM@Z
pdata	ENDS
;	COMDAT pdata
pdata	SEGMENT
$pdata$?stbtt__csctx_rmove_to@@YAXPEAUstbtt__csctx@@MM@Z DD imagerel ?stbtt__csctx_rmove_to@@YAXPEAUstbtt__csctx@@MM@Z
	DD	imagerel ?stbtt__csctx_rmove_to@@YAXPEAUstbtt__csctx@@MM@Z+188
	DD	imagerel $unwind$?stbtt__csctx_rmove_to@@YAXPEAUstbtt__csctx@@MM@Z
pdata	ENDS
;	COMDAT pdata
pdata	SEGMENT
$pdata$?stbtt__csctx_v@@YAXPEAUstbtt__csctx@@EHHHHHH@Z DD imagerel ?stbtt__csctx_v@@YAXPEAUstbtt__csctx@@EHHHHHH@Z
	DD	imagerel ?stbtt__csctx_v@@YAXPEAUstbtt__csctx@@EHHHHHH@Z+25
	DD	imagerel $unwind$?stbtt__csctx_v@@YAXPEAUstbtt__csctx@@EHHHHHH@Z
pdata	ENDS
;	COMDAT pdata
pdata	SEGMENT
$pdata$1$?stbtt__csctx_v@@YAXPEAUstbtt__csctx@@EHHHHHH@Z DD imagerel ?stbtt__csctx_v@@YAXPEAUstbtt__csctx@@EHHHHHH@Z+25
	DD	imagerel ?stbtt__csctx_v@@YAXPEAUstbtt__csctx@@EHHHHHH@Z+230
	DD	imagerel $chain$1$?stbtt__csctx_v@@YAXPEAUstbtt__csctx@@EHHHHHH@Z
pdata	ENDS
;	COMDAT pdata
pdata	SEGMENT
$pdata$2$?stbtt__csctx_v@@YAXPEAUstbtt__csctx@@EHHHHHH@Z DD imagerel ?stbtt__csctx_v@@YAXPEAUstbtt__csctx@@EHHHHHH@Z+230
	DD	imagerel ?stbtt__csctx_v@@YAXPEAUstbtt__csctx@@EHHHHHH@Z+296
	DD	imagerel $chain$2$?stbtt__csctx_v@@YAXPEAUstbtt__csctx@@EHHHHHH@Z
pdata	ENDS
;	COMDAT pdata
pdata	SEGMENT
$pdata$?stbtt__GetGlyphShapeTT@@YAHPEBUstbtt_fontinfo@@HPEAPEAUstbtt_vertex@@@Z DD imagerel ?stbtt__GetGlyphShapeTT@@YAHPEBUstbtt_fontinfo@@HPEAPEAUstbtt_vertex@@@Z
	DD	imagerel ?stbtt__GetGlyphShapeTT@@YAHPEBUstbtt_fontinfo@@HPEAPEAUstbtt_vertex@@@Z+3635
	DD	imagerel $unwind$?stbtt__GetGlyphShapeTT@@YAHPEBUstbtt_fontinfo@@HPEAPEAUstbtt_vertex@@@Z
pdata	ENDS
;	COMDAT pdata
pdata	SEGMENT
$pdata$?stbtt__close_shape@@YAHPEAUstbtt_vertex@@HHHHHHHHH@Z DD imagerel ?stbtt__close_shape@@YAHPEAUstbtt_vertex@@HHHHHHHHH@Z
	DD	imagerel ?stbtt__close_shape@@YAHPEAUstbtt_vertex@@HHHHHHHHH@Z+24
	DD	imagerel $unwind$?stbtt__close_shape@@YAHPEAUstbtt_vertex@@HHHHHHHHH@Z
pdata	ENDS
;	COMDAT pdata
pdata	SEGMENT
$pdata$0$?stbtt__close_shape@@YAHPEAUstbtt_vertex@@HHHHHHHHH@Z DD imagerel ?stbtt__close_shape@@YAHPEAUstbtt_vertex@@HHHHHHHHH@Z+24
	DD	imagerel ?stbtt__close_shape@@YAHPEAUstbtt_vertex@@HHHHHHHHH@Z+151
	DD	imagerel $chain$0$?stbtt__close_shape@@YAHPEAUstbtt_vertex@@HHHHHHHHH@Z
pdata	ENDS
;	COMDAT pdata
pdata	SEGMENT
$pdata$1$?stbtt__close_shape@@YAHPEAUstbtt_vertex@@HHHHHHHHH@Z DD imagerel ?stbtt__close_shape@@YAHPEAUstbtt_vertex@@HHHHHHHHH@Z+151
	DD	imagerel ?stbtt__close_shape@@YAHPEAUstbtt_vertex@@HHHHHHHHH@Z+229
	DD	imagerel $chain$1$?stbtt__close_shape@@YAHPEAUstbtt_vertex@@HHHHHHHHH@Z
pdata	ENDS
;	COMDAT pdata
pdata	SEGMENT
$pdata$stbtt_GetGlyphBox DD imagerel stbtt_GetGlyphBox
	DD	imagerel stbtt_GetGlyphBox+373
	DD	imagerel $unwind$stbtt_GetGlyphBox
pdata	ENDS
;	COMDAT pdata
pdata	SEGMENT
$pdata$stbtt_FindGlyphIndex DD imagerel stbtt_FindGlyphIndex
	DD	imagerel stbtt_FindGlyphIndex+301
	DD	imagerel $unwind$stbtt_FindGlyphIndex
pdata	ENDS
;	COMDAT pdata
pdata	SEGMENT
$pdata$0$stbtt_FindGlyphIndex DD imagerel stbtt_FindGlyphIndex+301
	DD	imagerel stbtt_FindGlyphIndex+472
	DD	imagerel $chain$0$stbtt_FindGlyphIndex
pdata	ENDS
;	COMDAT pdata
pdata	SEGMENT
$pdata$1$stbtt_FindGlyphIndex DD imagerel stbtt_FindGlyphIndex+472
	DD	imagerel stbtt_FindGlyphIndex+888
	DD	imagerel $chain$1$stbtt_FindGlyphIndex
pdata	ENDS
;	COMDAT pdata
pdata	SEGMENT
$pdata$?stbtt_InitFont_internal@@YAHPEAUstbtt_fontinfo@@PEAEH@Z DD imagerel ?stbtt_InitFont_internal@@YAHPEAUstbtt_fontinfo@@PEAEH@Z
	DD	imagerel ?stbtt_InitFont_internal@@YAHPEAUstbtt_fontinfo@@PEAEH@Z+2308
	DD	imagerel $unwind$?stbtt_InitFont_internal@@YAHPEAUstbtt_fontinfo@@PEAEH@Z
pdata	ENDS
;	COMDAT pdata
pdata	SEGMENT
$pdata$?stbtt__get_subrs@@YA?AUstbtt__buf@@U1@0@Z DD imagerel ?stbtt__get_subrs@@YA?AUstbtt__buf@@U1@0@Z
	DD	imagerel ?stbtt__get_subrs@@YA?AUstbtt__buf@@U1@0@Z+356
	DD	imagerel $unwind$?stbtt__get_subrs@@YA?AUstbtt__buf@@U1@0@Z
pdata	ENDS
;	COMDAT pdata
pdata	SEGMENT
$pdata$?stbtt__find_table@@YAIPEAEIPEBD@Z DD imagerel ?stbtt__find_table@@YAIPEAEIPEBD@Z
	DD	imagerel ?stbtt__find_table@@YAIPEAEIPEBD@Z+169
	DD	imagerel $unwind$?stbtt__find_table@@YAIPEAEIPEBD@Z
pdata	ENDS
;	COMDAT pdata
pdata	SEGMENT
$pdata$?stbtt__cff_index_get@@YA?AUstbtt__buf@@U1@H@Z DD imagerel ?stbtt__cff_index_get@@YA?AUstbtt__buf@@U1@H@Z
	DD	imagerel ?stbtt__cff_index_get@@YA?AUstbtt__buf@@U1@H@Z+350
	DD	imagerel $unwind$?stbtt__cff_index_get@@YA?AUstbtt__buf@@U1@H@Z
pdata	ENDS
;	COMDAT pdata
pdata	SEGMENT
$pdata$?stbtt__dict_get_ints@@YAXPEAUstbtt__buf@@HHPEAI@Z DD imagerel ?stbtt__dict_get_ints@@YAXPEAUstbtt__buf@@HHPEAI@Z
	DD	imagerel ?stbtt__dict_get_ints@@YAXPEAUstbtt__buf@@HHPEAI@Z+101
	DD	imagerel $unwind$?stbtt__dict_get_ints@@YAXPEAUstbtt__buf@@HHPEAI@Z
pdata	ENDS
;	COMDAT pdata
pdata	SEGMENT
$pdata$?stbtt__dict_get@@YA?AUstbtt__buf@@PEAU1@H@Z DD imagerel ?stbtt__dict_get@@YA?AUstbtt__buf@@PEAU1@H@Z
	DD	imagerel ?stbtt__dict_get@@YA?AUstbtt__buf@@PEAU1@H@Z+472
	DD	imagerel $unwind$?stbtt__dict_get@@YA?AUstbtt__buf@@PEAU1@H@Z
pdata	ENDS
;	COMDAT pdata
pdata	SEGMENT
$pdata$?stbtt__cff_int@@YAIPEAUstbtt__buf@@@Z DD imagerel ?stbtt__cff_int@@YAIPEAUstbtt__buf@@@Z
	DD	imagerel ?stbtt__cff_int@@YAIPEAUstbtt__buf@@@Z+323
	DD	imagerel $unwind$?stbtt__cff_int@@YAIPEAUstbtt__buf@@@Z
pdata	ENDS
;	COMDAT pdata
pdata	SEGMENT
$pdata$0$?stbtt__cff_int@@YAIPEAUstbtt__buf@@@Z DD imagerel ?stbtt__cff_int@@YAIPEAUstbtt__buf@@@Z+323
	DD	imagerel ?stbtt__cff_int@@YAIPEAUstbtt__buf@@@Z+364
	DD	imagerel $chain$0$?stbtt__cff_int@@YAIPEAUstbtt__buf@@@Z
pdata	ENDS
;	COMDAT pdata
pdata	SEGMENT
$pdata$2$?stbtt__cff_int@@YAIPEAUstbtt__buf@@@Z DD imagerel ?stbtt__cff_int@@YAIPEAUstbtt__buf@@@Z+364
	DD	imagerel ?stbtt__cff_int@@YAIPEAUstbtt__buf@@@Z+422
	DD	imagerel $chain$2$?stbtt__cff_int@@YAIPEAUstbtt__buf@@@Z
pdata	ENDS
;	COMDAT pdata
pdata	SEGMENT
$pdata$4$?stbtt__cff_int@@YAIPEAUstbtt__buf@@@Z DD imagerel ?stbtt__cff_int@@YAIPEAUstbtt__buf@@@Z+422
	DD	imagerel ?stbtt__cff_int@@YAIPEAUstbtt__buf@@@Z+475
	DD	imagerel $chain$4$?stbtt__cff_int@@YAIPEAUstbtt__buf@@@Z
pdata	ENDS
;	COMDAT pdata
pdata	SEGMENT
$pdata$6$?stbtt__cff_int@@YAIPEAUstbtt__buf@@@Z DD imagerel ?stbtt__cff_int@@YAIPEAUstbtt__buf@@@Z+475
	DD	imagerel ?stbtt__cff_int@@YAIPEAUstbtt__buf@@@Z+521
	DD	imagerel $chain$6$?stbtt__cff_int@@YAIPEAUstbtt__buf@@@Z
pdata	ENDS
;	COMDAT pdata
pdata	SEGMENT
$pdata$8$?stbtt__cff_int@@YAIPEAUstbtt__buf@@@Z DD imagerel ?stbtt__cff_int@@YAIPEAUstbtt__buf@@@Z+521
	DD	imagerel ?stbtt__cff_int@@YAIPEAUstbtt__buf@@@Z+554
	DD	imagerel $chain$8$?stbtt__cff_int@@YAIPEAUstbtt__buf@@@Z
pdata	ENDS
;	COMDAT pdata
pdata	SEGMENT
$pdata$9$?stbtt__cff_int@@YAIPEAUstbtt__buf@@@Z DD imagerel ?stbtt__cff_int@@YAIPEAUstbtt__buf@@@Z+554
	DD	imagerel ?stbtt__cff_int@@YAIPEAUstbtt__buf@@@Z+561
	DD	imagerel $chain$9$?stbtt__cff_int@@YAIPEAUstbtt__buf@@@Z
pdata	ENDS
;	COMDAT pdata
pdata	SEGMENT
$pdata$?stbtt__cff_get_index@@YA?AUstbtt__buf@@PEAU1@@Z DD imagerel ?stbtt__cff_get_index@@YA?AUstbtt__buf@@PEAU1@@Z
	DD	imagerel ?stbtt__cff_get_index@@YA?AUstbtt__buf@@PEAU1@@Z+140
	DD	imagerel $unwind$?stbtt__cff_get_index@@YA?AUstbtt__buf@@PEAU1@@Z
pdata	ENDS
;	COMDAT pdata
pdata	SEGMENT
$pdata$0$?stbtt__cff_get_index@@YA?AUstbtt__buf@@PEAU1@@Z DD imagerel ?stbtt__cff_get_index@@YA?AUstbtt__buf@@PEAU1@@Z+140
	DD	imagerel ?stbtt__cff_get_index@@YA?AUstbtt__buf@@PEAU1@@Z+194
	DD	imagerel $chain$0$?stbtt__cff_get_index@@YA?AUstbtt__buf@@PEAU1@@Z
pdata	ENDS
;	COMDAT pdata
pdata	SEGMENT
$pdata$1$?stbtt__cff_get_index@@YA?AUstbtt__buf@@PEAU1@@Z DD imagerel ?stbtt__cff_get_index@@YA?AUstbtt__buf@@PEAU1@@Z+194
	DD	imagerel ?stbtt__cff_get_index@@YA?AUstbtt__buf@@PEAU1@@Z+291
	DD	imagerel $chain$1$?stbtt__cff_get_index@@YA?AUstbtt__buf@@PEAU1@@Z
pdata	ENDS
;	COMDAT pdata
pdata	SEGMENT
$pdata$?stbtt__buf_range@@YA?AUstbtt__buf@@PEBU1@HH@Z DD imagerel ?stbtt__buf_range@@YA?AUstbtt__buf@@PEBU1@HH@Z
	DD	imagerel ?stbtt__buf_range@@YA?AUstbtt__buf@@PEBU1@HH@Z+69
	DD	imagerel $unwind$?stbtt__buf_range@@YA?AUstbtt__buf@@PEBU1@HH@Z
pdata	ENDS
;	COMDAT pdata
pdata	SEGMENT
$pdata$stbrp_pack_rects DD imagerel stbrp_pack_rects
	DD	imagerel stbrp_pack_rects+12
	DD	imagerel $unwind$stbrp_pack_rects
pdata	ENDS
;	COMDAT pdata
pdata	SEGMENT
$pdata$0$stbrp_pack_rects DD imagerel stbrp_pack_rects+12
	DD	imagerel stbrp_pack_rects+104
	DD	imagerel $chain$0$stbrp_pack_rects
pdata	ENDS
;	COMDAT pdata
pdata	SEGMENT
$pdata$4$stbrp_pack_rects DD imagerel stbrp_pack_rects+104
	DD	imagerel stbrp_pack_rects+393
	DD	imagerel $chain$4$stbrp_pack_rects
pdata	ENDS
;	COMDAT pdata
pdata	SEGMENT
$pdata$5$stbrp_pack_rects DD imagerel stbrp_pack_rects+393
	DD	imagerel stbrp_pack_rects+406
	DD	imagerel $chain$5$stbrp_pack_rects
pdata	ENDS
;	COMDAT pdata
pdata	SEGMENT
$pdata$6$stbrp_pack_rects DD imagerel stbrp_pack_rects+406
	DD	imagerel stbrp_pack_rects+512
	DD	imagerel $chain$6$stbrp_pack_rects
pdata	ENDS
;	COMDAT pdata
pdata	SEGMENT
$pdata$?stbrp__skyline_pack_rectangle@@YA?AUstbrp__findresult@@PEAUstbrp_context@@HH@Z DD imagerel ?stbrp__skyline_pack_rectangle@@YA?AUstbrp__findresult@@PEAUstbrp_context@@HH@Z
	DD	imagerel ?stbrp__skyline_pack_rectangle@@YA?AUstbrp__findresult@@PEAUstbrp_context@@HH@Z+208
	DD	imagerel $unwind$?stbrp__skyline_pack_rectangle@@YA?AUstbrp__findresult@@PEAUstbrp_context@@HH@Z
pdata	ENDS
;	COMDAT pdata
pdata	SEGMENT
$pdata$?stbrp__skyline_find_best_pos@@YA?AUstbrp__findresult@@PEAUstbrp_context@@HH@Z DD imagerel ?stbrp__skyline_find_best_pos@@YA?AUstbrp__findresult@@PEAUstbrp_context@@HH@Z
	DD	imagerel ?stbrp__skyline_find_best_pos@@YA?AUstbrp__findresult@@PEAUstbrp_context@@HH@Z+112
	DD	imagerel $unwind$?stbrp__skyline_find_best_pos@@YA?AUstbrp__findresult@@PEAUstbrp_context@@HH@Z
pdata	ENDS
;	COMDAT pdata
pdata	SEGMENT
$pdata$3$?stbrp__skyline_find_best_pos@@YA?AUstbrp__findresult@@PEAUstbrp_context@@HH@Z DD imagerel ?stbrp__skyline_find_best_pos@@YA?AUstbrp__findresult@@PEAUstbrp_context@@HH@Z+112
	DD	imagerel ?stbrp__skyline_find_best_pos@@YA?AUstbrp__findresult@@PEAUstbrp_context@@HH@Z+914
	DD	imagerel $chain$3$?stbrp__skyline_find_best_pos@@YA?AUstbrp__findresult@@PEAUstbrp_context@@HH@Z
pdata	ENDS
;	COMDAT pdata
pdata	SEGMENT
$pdata$4$?stbrp__skyline_find_best_pos@@YA?AUstbrp__findresult@@PEAUstbrp_context@@HH@Z DD imagerel ?stbrp__skyline_find_best_pos@@YA?AUstbrp__findresult@@PEAUstbrp_context@@HH@Z+914
	DD	imagerel ?stbrp__skyline_find_best_pos@@YA?AUstbrp__findresult@@PEAUstbrp_context@@HH@Z+934
	DD	imagerel $chain$4$?stbrp__skyline_find_best_pos@@YA?AUstbrp__findresult@@PEAUstbrp_context@@HH@Z
pdata	ENDS
;	COMDAT pdata
pdata	SEGMENT
$pdata$?stbrp__skyline_find_min_y@@YAHPEAUstbrp_context@@PEAUstbrp_node@@HHPEAH@Z DD imagerel ?stbrp__skyline_find_min_y@@YAHPEAUstbrp_context@@PEAUstbrp_node@@HHPEAH@Z
	DD	imagerel ?stbrp__skyline_find_min_y@@YAHPEAUstbrp_context@@PEAUstbrp_node@@HHPEAH@Z+40
	DD	imagerel $unwind$?stbrp__skyline_find_min_y@@YAHPEAUstbrp_context@@PEAUstbrp_node@@HHPEAH@Z
pdata	ENDS
;	COMDAT pdata
pdata	SEGMENT
$pdata$0$?stbrp__skyline_find_min_y@@YAHPEAUstbrp_context@@PEAUstbrp_node@@HHPEAH@Z DD imagerel ?stbrp__skyline_find_min_y@@YAHPEAUstbrp_context@@PEAUstbrp_node@@HHPEAH@Z+40
	DD	imagerel ?stbrp__skyline_find_min_y@@YAHPEAUstbrp_context@@PEAUstbrp_node@@HHPEAH@Z+163
	DD	imagerel $chain$0$?stbrp__skyline_find_min_y@@YAHPEAUstbrp_context@@PEAUstbrp_node@@HHPEAH@Z
pdata	ENDS
;	COMDAT pdata
pdata	SEGMENT
$pdata$1$?stbrp__skyline_find_min_y@@YAHPEAUstbrp_context@@PEAUstbrp_node@@HHPEAH@Z DD imagerel ?stbrp__skyline_find_min_y@@YAHPEAUstbrp_context@@PEAUstbrp_node@@HHPEAH@Z+163
	DD	imagerel ?stbrp__skyline_find_min_y@@YAHPEAUstbrp_context@@PEAUstbrp_node@@HHPEAH@Z+192
	DD	imagerel $chain$1$?stbrp__skyline_find_min_y@@YAHPEAUstbrp_context@@PEAUstbrp_node@@HHPEAH@Z
pdata	ENDS
;	COMDAT pdata
pdata	SEGMENT
$pdata$stbrp_init_target DD imagerel stbrp_init_target
	DD	imagerel stbrp_init_target+88
	DD	imagerel $unwind$stbrp_init_target
pdata	ENDS
;	COMDAT pdata
pdata	SEGMENT
$pdata$1$stbrp_init_target DD imagerel stbrp_init_target+88
	DD	imagerel stbrp_init_target+271
	DD	imagerel $chain$1$stbrp_init_target
pdata	ENDS
;	COMDAT pdata
pdata	SEGMENT
$pdata$2$stbrp_init_target DD imagerel stbrp_init_target+271
	DD	imagerel stbrp_init_target+456
	DD	imagerel $chain$2$stbrp_init_target
pdata	ENDS
;	COMDAT pdata
pdata	SEGMENT
$pdata$?Create@ImBitVector@@QEAAXH@Z DD imagerel $LN11@Create
	DD	imagerel $LN11@Create+93
	DD	imagerel $unwind$?Create@ImBitVector@@QEAAXH@Z
pdata	ENDS
;	COMDAT pdata
pdata	SEGMENT
$pdata$?_CalcCircleAutoSegmentCount@ImDrawList@@QEBAHM@Z DD imagerel $LN14@CalcCircle
	DD	imagerel $LN14@CalcCircle+144
	DD	imagerel $unwind$?_CalcCircleAutoSegmentCount@ImDrawList@@QEBAHM@Z
pdata	ENDS
;	COMDAT pdata
pdata	SEGMENT
$pdata$?AddCircleFilled@ImDrawList@@QEAAXAEBUImVec2@@MIH@Z DD imagerel $LN15@AddCircleF
	DD	imagerel $LN15@AddCircleF+190
	DD	imagerel $unwind$?AddCircleFilled@ImDrawList@@QEAAXAEBUImVec2@@MIH@Z
pdata	ENDS
;	COMDAT pdata
pdata	SEGMENT
$pdata$?AddCircle@ImDrawList@@QEAAXAEBUImVec2@@MIHM@Z DD imagerel $LN15@AddCircle
	DD	imagerel $LN15@AddCircle+218
	DD	imagerel $unwind$?AddCircle@ImDrawList@@QEAAXAEBUImVec2@@MIHM@Z
pdata	ENDS
;	COMDAT pdata
pdata	SEGMENT
$pdata$?AddTriangle@ImDrawList@@QEAAXAEBUImVec2@@00IM@Z DD imagerel $LN34@AddTriangl
	DD	imagerel $LN34@AddTriangl+48
	DD	imagerel $unwind$?AddTriangle@ImDrawList@@QEAAXAEBUImVec2@@00IM@Z
pdata	ENDS
;	COMDAT pdata
pdata	SEGMENT
$pdata$1$?AddTriangle@ImDrawList@@QEAAXAEBUImVec2@@00IM@Z DD imagerel $LN34@AddTriangl+48
	DD	imagerel $LN34@AddTriangl+332
	DD	imagerel $chain$1$?AddTriangle@ImDrawList@@QEAAXAEBUImVec2@@00IM@Z
pdata	ENDS
;	COMDAT pdata
pdata	SEGMENT
$pdata$2$?AddTriangle@ImDrawList@@QEAAXAEBUImVec2@@00IM@Z DD imagerel $LN34@AddTriangl+332
	DD	imagerel $LN34@AddTriangl+348
	DD	imagerel $chain$2$?AddTriangle@ImDrawList@@QEAAXAEBUImVec2@@00IM@Z
pdata	ENDS
;	COMDAT pdata
pdata	SEGMENT
$pdata$?AddRectFilledMultiColor@ImDrawList@@QEAAXAEBUImVec2@@0IIII@Z DD imagerel $LN29@AddRectFil
	DD	imagerel $LN29@AddRectFil+94
	DD	imagerel $unwind$?AddRectFilledMultiColor@ImDrawList@@QEAAXAEBUImVec2@@0IIII@Z
pdata	ENDS
;	COMDAT pdata
pdata	SEGMENT
$pdata$1$?AddRectFilledMultiColor@ImDrawList@@QEAAXAEBUImVec2@@0IIII@Z DD imagerel $LN29@AddRectFil+94
	DD	imagerel $LN29@AddRectFil+443
	DD	imagerel $chain$1$?AddRectFilledMultiColor@ImDrawList@@QEAAXAEBUImVec2@@0IIII@Z
pdata	ENDS
;	COMDAT pdata
pdata	SEGMENT
$pdata$2$?AddRectFilledMultiColor@ImDrawList@@QEAAXAEBUImVec2@@0IIII@Z DD imagerel $LN29@AddRectFil+443
	DD	imagerel $LN29@AddRectFil+474
	DD	imagerel $chain$2$?AddRectFilledMultiColor@ImDrawList@@QEAAXAEBUImVec2@@0IIII@Z
pdata	ENDS
;	COMDAT pdata
pdata	SEGMENT
$pdata$?RenderChar@ImFont@@QEBAXPEAUImDrawList@@MAEBUImVec2@@IG@Z DD imagerel $LN21@RenderChar
	DD	imagerel $LN21@RenderChar+115
	DD	imagerel $unwind$?RenderChar@ImFont@@QEBAXPEAUImDrawList@@MAEBUImVec2@@IG@Z
pdata	ENDS
;	COMDAT pdata
pdata	SEGMENT
$pdata$2$?RenderChar@ImFont@@QEBAXPEAUImDrawList@@MAEBUImVec2@@IG@Z DD imagerel $LN21@RenderChar+115
	DD	imagerel $LN21@RenderChar+399
	DD	imagerel $chain$2$?RenderChar@ImFont@@QEBAXPEAUImDrawList@@MAEBUImVec2@@IG@Z
pdata	ENDS
;	COMDAT pdata
pdata	SEGMENT
$pdata$3$?RenderChar@ImFont@@QEBAXPEAUImDrawList@@MAEBUImVec2@@IG@Z DD imagerel $LN21@RenderChar+399
	DD	imagerel $LN21@RenderChar+422
	DD	imagerel $chain$3$?RenderChar@ImFont@@QEBAXPEAUImDrawList@@MAEBUImVec2@@IG@Z
pdata	ENDS
;	COMDAT pdata
pdata	SEGMENT
$pdata$?CalcTextSizeA@ImFont@@QEBA?AUImVec2@@MMMPEBD0PEAPEBD@Z DD imagerel $LN58@CalcTextSi
	DD	imagerel $LN58@CalcTextSi+23
	DD	imagerel $unwind$?CalcTextSizeA@ImFont@@QEBA?AUImVec2@@MMMPEBD0PEAPEBD@Z
pdata	ENDS
;	COMDAT pdata
pdata	SEGMENT
$pdata$9$?CalcTextSizeA@ImFont@@QEBA?AUImVec2@@MMMPEBD0PEAPEBD@Z DD imagerel $LN58@CalcTextSi+23
	DD	imagerel $LN58@CalcTextSi+163
	DD	imagerel $chain$9$?CalcTextSizeA@ImFont@@QEBA?AUImVec2@@MMMPEBD0PEAPEBD@Z
pdata	ENDS
;	COMDAT pdata
pdata	SEGMENT
$pdata$10$?CalcTextSizeA@ImFont@@QEBA?AUImVec2@@MMMPEBD0PEAPEBD@Z DD imagerel $LN58@CalcTextSi+163
	DD	imagerel $LN58@CalcTextSi+465
	DD	imagerel $chain$10$?CalcTextSizeA@ImFont@@QEBA?AUImVec2@@MMMPEBD0PEAPEBD@Z
pdata	ENDS
;	COMDAT pdata
pdata	SEGMENT
$pdata$11$?CalcTextSizeA@ImFont@@QEBA?AUImVec2@@MMMPEBD0PEAPEBD@Z DD imagerel $LN58@CalcTextSi+465
	DD	imagerel $LN58@CalcTextSi+520
	DD	imagerel $chain$11$?CalcTextSizeA@ImFont@@QEBA?AUImVec2@@MMMPEBD0PEAPEBD@Z
pdata	ENDS
;	COMDAT pdata
pdata	SEGMENT
$pdata$12$?CalcTextSizeA@ImFont@@QEBA?AUImVec2@@MMMPEBD0PEAPEBD@Z DD imagerel $LN58@CalcTextSi+520
	DD	imagerel $LN58@CalcTextSi+538
	DD	imagerel $chain$12$?CalcTextSizeA@ImFont@@QEBA?AUImVec2@@MMMPEBD0PEAPEBD@Z
pdata	ENDS
;	COMDAT pdata
pdata	SEGMENT
$pdata$13$?CalcTextSizeA@ImFont@@QEBA?AUImVec2@@MMMPEBD0PEAPEBD@Z DD imagerel $LN58@CalcTextSi+538
	DD	imagerel $LN58@CalcTextSi+585
	DD	imagerel $chain$13$?CalcTextSizeA@ImFont@@QEBA?AUImVec2@@MMMPEBD0PEAPEBD@Z
pdata	ENDS
;	COMDAT pdata
pdata	SEGMENT
$pdata$14$?CalcTextSizeA@ImFont@@QEBA?AUImVec2@@MMMPEBD0PEAPEBD@Z DD imagerel $LN58@CalcTextSi+585
	DD	imagerel $LN58@CalcTextSi+601
	DD	imagerel $chain$14$?CalcTextSizeA@ImFont@@QEBA?AUImVec2@@MMMPEBD0PEAPEBD@Z
pdata	ENDS
;	COMDAT pdata
pdata	SEGMENT
$pdata$??1ImFont@@QEAA@XZ DD imagerel $LN40@ImFont
	DD	imagerel $LN40@ImFont+295
	DD	imagerel $unwind$??1ImFont@@QEAA@XZ
pdata	ENDS
;	COMDAT pdata
pdata	SEGMENT
$pdata$?SetCurrentChannel@ImDrawListSplitter@@QEAAXPEAUImDrawList@@H@Z DD imagerel $LN14@SetCurrent
	DD	imagerel $LN14@SetCurrent+212
	DD	imagerel $unwind$?SetCurrentChannel@ImDrawListSplitter@@QEAAXPEAUImDrawList@@H@Z
pdata	ENDS
;	COMDAT pdata
pdata	SEGMENT
$pdata$?Merge@ImDrawListSplitter@@QEAAXPEAUImDrawList@@@Z DD imagerel $LN97@Merge
	DD	imagerel $LN97@Merge+31
	DD	imagerel $unwind$?Merge@ImDrawListSplitter@@QEAAXPEAUImDrawList@@@Z
pdata	ENDS
;	COMDAT pdata
pdata	SEGMENT
$pdata$0$?Merge@ImDrawListSplitter@@QEAAXPEAUImDrawList@@@Z DD imagerel $LN97@Merge+31
	DD	imagerel $LN97@Merge+38
	DD	imagerel $chain$0$?Merge@ImDrawListSplitter@@QEAAXPEAUImDrawList@@@Z
pdata	ENDS
;	COMDAT pdata
pdata	SEGMENT
$pdata$5$?Merge@ImDrawListSplitter@@QEAAXPEAUImDrawList@@@Z DD imagerel $LN97@Merge+38
	DD	imagerel $LN97@Merge+844
	DD	imagerel $chain$5$?Merge@ImDrawListSplitter@@QEAAXPEAUImDrawList@@@Z
pdata	ENDS
;	COMDAT pdata
pdata	SEGMENT
$pdata$6$?Merge@ImDrawListSplitter@@QEAAXPEAUImDrawList@@@Z DD imagerel $LN97@Merge+844
	DD	imagerel $LN97@Merge+896
	DD	imagerel $chain$6$?Merge@ImDrawListSplitter@@QEAAXPEAUImDrawList@@@Z
pdata	ENDS
;	COMDAT pdata
pdata	SEGMENT
$pdata$7$?Merge@ImDrawListSplitter@@QEAAXPEAUImDrawList@@@Z DD imagerel $LN97@Merge+896
	DD	imagerel $LN97@Merge+975
	DD	imagerel $chain$7$?Merge@ImDrawListSplitter@@QEAAXPEAUImDrawList@@@Z
pdata	ENDS
;	COMDAT pdata
pdata	SEGMENT
$pdata$?Split@ImDrawListSplitter@@QEAAXPEAUImDrawList@@H@Z DD imagerel $LN53@Split
	DD	imagerel $LN53@Split+273
	DD	imagerel $unwind$?Split@ImDrawListSplitter@@QEAAXPEAUImDrawList@@H@Z
pdata	ENDS
;	COMDAT pdata
pdata	SEGMENT
$pdata$?ClearFreeMemory@ImDrawListSplitter@@QEAAXXZ DD imagerel $LN19@ClearFreeM
	DD	imagerel $LN19@ClearFreeM+25
	DD	imagerel $unwind$?ClearFreeMemory@ImDrawListSplitter@@QEAAXXZ
pdata	ENDS
;	COMDAT pdata
pdata	SEGMENT
$pdata$0$?ClearFreeMemory@ImDrawListSplitter@@QEAAXXZ DD imagerel $LN19@ClearFreeM+25
	DD	imagerel $LN19@ClearFreeM+99
	DD	imagerel $chain$0$?ClearFreeMemory@ImDrawListSplitter@@QEAAXXZ
pdata	ENDS
;	COMDAT pdata
pdata	SEGMENT
$pdata$1$?ClearFreeMemory@ImDrawListSplitter@@QEAAXXZ DD imagerel $LN19@ClearFreeM+99
	DD	imagerel $LN19@ClearFreeM+136
	DD	imagerel $chain$1$?ClearFreeMemory@ImDrawListSplitter@@QEAAXXZ
pdata	ENDS
;	COMDAT pdata
pdata	SEGMENT
$pdata$?_ClearFreeMemory@ImDrawList@@QEAAXXZ DD imagerel $LN36@ClearFreeM
	DD	imagerel $LN36@ClearFreeM+348
	DD	imagerel $unwind$?_ClearFreeMemory@ImDrawList@@QEAAXXZ
pdata	ENDS
;	COMDAT pdata
pdata	SEGMENT
$pdata$?_ResetForNewFrame@ImDrawList@@QEAAXXZ DD imagerel $LN155@ResetForNe
	DD	imagerel $LN155@ResetForNe+12
	DD	imagerel $unwind$?_ResetForNewFrame@ImDrawList@@QEAAXXZ
pdata	ENDS
;	COMDAT pdata
pdata	SEGMENT
$pdata$1$?_ResetForNewFrame@ImDrawList@@QEAAXXZ DD imagerel $LN155@ResetForNe+12
	DD	imagerel $LN155@ResetForNe+41
	DD	imagerel $chain$1$?_ResetForNewFrame@ImDrawList@@QEAAXXZ
pdata	ENDS
;	COMDAT pdata
pdata	SEGMENT
$pdata$5$?_ResetForNewFrame@ImDrawList@@QEAAXXZ DD imagerel $LN155@ResetForNe+41
	DD	imagerel $LN155@ResetForNe+855
	DD	imagerel $chain$5$?_ResetForNewFrame@ImDrawList@@QEAAXXZ
pdata	ENDS
;	COMDAT pdata
pdata	SEGMENT
$pdata$6$?_ResetForNewFrame@ImDrawList@@QEAAXXZ DD imagerel $LN155@ResetForNe+855
	DD	imagerel $LN155@ResetForNe+911
	DD	imagerel $chain$6$?_ResetForNewFrame@ImDrawList@@QEAAXXZ
pdata	ENDS
;	COMDAT pdata
pdata	SEGMENT
$pdata$7$?_ResetForNewFrame@ImDrawList@@QEAAXXZ DD imagerel $LN155@ResetForNe+911
	DD	imagerel $LN155@ResetForNe+1274
	DD	imagerel $chain$7$?_ResetForNewFrame@ImDrawList@@QEAAXXZ
pdata	ENDS
;	COMDAT pdata
pdata	SEGMENT
$pdata$8$?_ResetForNewFrame@ImDrawList@@QEAAXXZ DD imagerel $LN155@ResetForNe+1274
	DD	imagerel $LN155@ResetForNe+1370
	DD	imagerel $chain$8$?_ResetForNewFrame@ImDrawList@@QEAAXXZ
pdata	ENDS
;	COMDAT pdata
pdata	SEGMENT
$pdata$?AddDrawCmd@ImDrawList@@QEAAXXZ DD imagerel $LN15@AddDrawCmd
	DD	imagerel $LN15@AddDrawCmd+182
	DD	imagerel $unwind$?AddDrawCmd@ImDrawList@@QEAAXXZ
pdata	ENDS
;	COMDAT pdata
pdata	SEGMENT
$pdata$?PathArcToFast@ImDrawList@@QEAAXAEBUImVec2@@MHH@Z DD imagerel $LN12@PathArcToF
	DD	imagerel $LN12@PathArcToF+26
	DD	imagerel $unwind$?PathArcToFast@ImDrawList@@QEAAXAEBUImVec2@@MHH@Z
pdata	ENDS
;	COMDAT pdata
pdata	SEGMENT
$pdata$0$?PathArcToFast@ImDrawList@@QEAAXAEBUImVec2@@MHH@Z DD imagerel $LN12@PathArcToF+26
	DD	imagerel $LN12@PathArcToF+111
	DD	imagerel $chain$0$?PathArcToFast@ImDrawList@@QEAAXAEBUImVec2@@MHH@Z
pdata	ENDS
;	COMDAT pdata
pdata	SEGMENT
$pdata$1$?PathArcToFast@ImDrawList@@QEAAXAEBUImVec2@@MHH@Z DD imagerel $LN12@PathArcToF+111
	DD	imagerel $LN12@PathArcToF+145
	DD	imagerel $chain$1$?PathArcToFast@ImDrawList@@QEAAXAEBUImVec2@@MHH@Z
pdata	ENDS
;	COMDAT pdata
pdata	SEGMENT
$pdata$?PathArcTo@ImDrawList@@QEAAXAEBUImVec2@@MMMH@Z DD imagerel $LN81@PathArcTo
	DD	imagerel $LN81@PathArcTo+178
	DD	imagerel $unwind$?PathArcTo@ImDrawList@@QEAAXAEBUImVec2@@MMMH@Z
pdata	ENDS
;	COMDAT pdata
pdata	SEGMENT
$pdata$2$?PathArcTo@ImDrawList@@QEAAXAEBUImVec2@@MMMH@Z DD imagerel $LN81@PathArcTo+178
	DD	imagerel $LN81@PathArcTo+240
	DD	imagerel $chain$2$?PathArcTo@ImDrawList@@QEAAXAEBUImVec2@@MMMH@Z
pdata	ENDS
;	COMDAT pdata
pdata	SEGMENT
$pdata$3$?PathArcTo@ImDrawList@@QEAAXAEBUImVec2@@MMMH@Z DD imagerel $LN81@PathArcTo+240
	DD	imagerel $LN81@PathArcTo+252
	DD	imagerel $chain$3$?PathArcTo@ImDrawList@@QEAAXAEBUImVec2@@MMMH@Z
pdata	ENDS
;	COMDAT pdata
pdata	SEGMENT
$pdata$5$?PathArcTo@ImDrawList@@QEAAXAEBUImVec2@@MMMH@Z DD imagerel $LN81@PathArcTo+252
	DD	imagerel $LN81@PathArcTo+268
	DD	imagerel $chain$5$?PathArcTo@ImDrawList@@QEAAXAEBUImVec2@@MMMH@Z
pdata	ENDS
;	COMDAT pdata
pdata	SEGMENT
$pdata$6$?PathArcTo@ImDrawList@@QEAAXAEBUImVec2@@MMMH@Z DD imagerel $LN81@PathArcTo+268
	DD	imagerel $LN81@PathArcTo+731
	DD	imagerel $chain$6$?PathArcTo@ImDrawList@@QEAAXAEBUImVec2@@MMMH@Z
pdata	ENDS
;	COMDAT pdata
pdata	SEGMENT
$pdata$7$?PathArcTo@ImDrawList@@QEAAXAEBUImVec2@@MMMH@Z DD imagerel $LN81@PathArcTo+731
	DD	imagerel $LN81@PathArcTo+780
	DD	imagerel $chain$7$?PathArcTo@ImDrawList@@QEAAXAEBUImVec2@@MMMH@Z
pdata	ENDS
;	COMDAT pdata
pdata	SEGMENT
$pdata$8$?PathArcTo@ImDrawList@@QEAAXAEBUImVec2@@MMMH@Z DD imagerel $LN81@PathArcTo+780
	DD	imagerel $LN81@PathArcTo+906
	DD	imagerel $chain$8$?PathArcTo@ImDrawList@@QEAAXAEBUImVec2@@MMMH@Z
pdata	ENDS
;	COMDAT pdata
pdata	SEGMENT
$pdata$9$?PathArcTo@ImDrawList@@QEAAXAEBUImVec2@@MMMH@Z DD imagerel $LN81@PathArcTo+906
	DD	imagerel $LN81@PathArcTo+925
	DD	imagerel $chain$9$?PathArcTo@ImDrawList@@QEAAXAEBUImVec2@@MMMH@Z
pdata	ENDS
;	COMDAT pdata
pdata	SEGMENT
$pdata$10$?PathArcTo@ImDrawList@@QEAAXAEBUImVec2@@MMMH@Z DD imagerel $LN81@PathArcTo+925
	DD	imagerel $LN81@PathArcTo+950
	DD	imagerel $chain$10$?PathArcTo@ImDrawList@@QEAAXAEBUImVec2@@MMMH@Z
pdata	ENDS
;	COMDAT pdata
pdata	SEGMENT
$pdata$11$?PathArcTo@ImDrawList@@QEAAXAEBUImVec2@@MMMH@Z DD imagerel $LN81@PathArcTo+950
	DD	imagerel $LN81@PathArcTo+1068
	DD	imagerel $chain$11$?PathArcTo@ImDrawList@@QEAAXAEBUImVec2@@MMMH@Z
pdata	ENDS
;	COMDAT pdata
pdata	SEGMENT
$pdata$?AddConvexPolyFilled@ImDrawList@@QEAAXPEBUImVec2@@HI@Z DD imagerel $LN71@AddConvexP
	DD	imagerel $LN71@AddConvexP+59
	DD	imagerel $unwind$?AddConvexPolyFilled@ImDrawList@@QEAAXPEBUImVec2@@HI@Z
pdata	ENDS
;	COMDAT pdata
pdata	SEGMENT
$pdata$1$?AddConvexPolyFilled@ImDrawList@@QEAAXPEBUImVec2@@HI@Z DD imagerel $LN71@AddConvexP+59
	DD	imagerel $LN71@AddConvexP+86
	DD	imagerel $chain$1$?AddConvexPolyFilled@ImDrawList@@QEAAXPEBUImVec2@@HI@Z
pdata	ENDS
;	COMDAT pdata
pdata	SEGMENT
$pdata$8$?AddConvexPolyFilled@ImDrawList@@QEAAXPEBUImVec2@@HI@Z DD imagerel $LN71@AddConvexP+86
	DD	imagerel $LN71@AddConvexP+1192
	DD	imagerel $chain$8$?AddConvexPolyFilled@ImDrawList@@QEAAXPEBUImVec2@@HI@Z
pdata	ENDS
;	COMDAT pdata
pdata	SEGMENT
$pdata$9$?AddConvexPolyFilled@ImDrawList@@QEAAXPEBUImVec2@@HI@Z DD imagerel $LN71@AddConvexP+1192
	DD	imagerel $LN71@AddConvexP+1355
	DD	imagerel $chain$9$?AddConvexPolyFilled@ImDrawList@@QEAAXPEBUImVec2@@HI@Z
pdata	ENDS
;	COMDAT pdata
pdata	SEGMENT
$pdata$10$?AddConvexPolyFilled@ImDrawList@@QEAAXPEBUImVec2@@HI@Z DD imagerel $LN71@AddConvexP+1355
	DD	imagerel $LN71@AddConvexP+1369
	DD	imagerel $chain$10$?AddConvexPolyFilled@ImDrawList@@QEAAXPEBUImVec2@@HI@Z
pdata	ENDS
;	COMDAT pdata
pdata	SEGMENT
$pdata$?AddPolyline@ImDrawList@@QEAAXPEBUImVec2@@HIHM@Z DD imagerel $LN262@AddPolylin
	DD	imagerel $LN262@AddPolylin+78
	DD	imagerel $unwind$?AddPolyline@ImDrawList@@QEAAXPEBUImVec2@@HIHM@Z
pdata	ENDS
;	COMDAT pdata
pdata	SEGMENT
$pdata$5$?AddPolyline@ImDrawList@@QEAAXPEBUImVec2@@HIHM@Z DD imagerel $LN262@AddPolylin+78
	DD	imagerel $LN262@AddPolylin+170
	DD	imagerel $chain$5$?AddPolyline@ImDrawList@@QEAAXPEBUImVec2@@HIHM@Z
pdata	ENDS
;	COMDAT pdata
pdata	SEGMENT
$pdata$8$?AddPolyline@ImDrawList@@QEAAXPEBUImVec2@@HIHM@Z DD imagerel $LN262@AddPolylin+170
	DD	imagerel $LN262@AddPolylin+1062
	DD	imagerel $chain$8$?AddPolyline@ImDrawList@@QEAAXPEBUImVec2@@HIHM@Z
pdata	ENDS
;	COMDAT pdata
pdata	SEGMENT
$pdata$10$?AddPolyline@ImDrawList@@QEAAXPEBUImVec2@@HIHM@Z DD imagerel $LN262@AddPolylin+1062
	DD	imagerel $LN262@AddPolylin+1540
	DD	imagerel $chain$10$?AddPolyline@ImDrawList@@QEAAXPEBUImVec2@@HIHM@Z
pdata	ENDS
;	COMDAT pdata
pdata	SEGMENT
$pdata$11$?AddPolyline@ImDrawList@@QEAAXPEBUImVec2@@HIHM@Z DD imagerel $LN262@AddPolylin+1540
	DD	imagerel $LN262@AddPolylin+2083
	DD	imagerel $chain$11$?AddPolyline@ImDrawList@@QEAAXPEBUImVec2@@HIHM@Z
pdata	ENDS
;	COMDAT pdata
pdata	SEGMENT
$pdata$12$?AddPolyline@ImDrawList@@QEAAXPEBUImVec2@@HIHM@Z DD imagerel $LN262@AddPolylin+2083
	DD	imagerel $LN262@AddPolylin+2110
	DD	imagerel $chain$12$?AddPolyline@ImDrawList@@QEAAXPEBUImVec2@@HIHM@Z
pdata	ENDS
;	COMDAT pdata
pdata	SEGMENT
$pdata$13$?AddPolyline@ImDrawList@@QEAAXPEBUImVec2@@HIHM@Z DD imagerel $LN262@AddPolylin+2110
	DD	imagerel $LN262@AddPolylin+3329
	DD	imagerel $chain$13$?AddPolyline@ImDrawList@@QEAAXPEBUImVec2@@HIHM@Z
pdata	ENDS
;	COMDAT pdata
pdata	SEGMENT
$pdata$14$?AddPolyline@ImDrawList@@QEAAXPEBUImVec2@@HIHM@Z DD imagerel $LN262@AddPolylin+3329
	DD	imagerel $LN262@AddPolylin+3869
	DD	imagerel $chain$14$?AddPolyline@ImDrawList@@QEAAXPEBUImVec2@@HIHM@Z
pdata	ENDS
;	COMDAT pdata
pdata	SEGMENT
$pdata$15$?AddPolyline@ImDrawList@@QEAAXPEBUImVec2@@HIHM@Z DD imagerel $LN262@AddPolylin+3869
	DD	imagerel $LN262@AddPolylin+3883
	DD	imagerel $chain$15$?AddPolyline@ImDrawList@@QEAAXPEBUImVec2@@HIHM@Z
pdata	ENDS
;	COMDAT pdata
pdata	SEGMENT
$pdata$?AddText@ImDrawList@@QEAAXPEBUImFont@@MAEBUImVec2@@IPEBD2MPEBUImVec4@@@Z DD imagerel $LN31@AddText
	DD	imagerel $LN31@AddText+294
	DD	imagerel $unwind$?AddText@ImDrawList@@QEAAXPEBUImFont@@MAEBUImVec2@@IPEBD2MPEBUImVec4@@@Z
pdata	ENDS
;	COMDAT pdata
pdata	SEGMENT
$pdata$?AddTriangleFilled@ImDrawList@@QEAAXAEBUImVec2@@00I@Z DD imagerel $LN34@AddTriangl
	DD	imagerel $LN34@AddTriangl+48
	DD	imagerel $unwind$?AddTriangleFilled@ImDrawList@@QEAAXAEBUImVec2@@00I@Z
pdata	ENDS
;	COMDAT pdata
pdata	SEGMENT
$pdata$1$?AddTriangleFilled@ImDrawList@@QEAAXAEBUImVec2@@00I@Z DD imagerel $LN34@AddTriangl+48
	DD	imagerel $LN34@AddTriangl+312
	DD	imagerel $chain$1$?AddTriangleFilled@ImDrawList@@QEAAXAEBUImVec2@@00I@Z
pdata	ENDS
;	COMDAT pdata
pdata	SEGMENT
$pdata$2$?AddTriangleFilled@ImDrawList@@QEAAXAEBUImVec2@@00I@Z DD imagerel $LN34@AddTriangl+312
	DD	imagerel $LN34@AddTriangl+328
	DD	imagerel $chain$2$?AddTriangleFilled@ImDrawList@@QEAAXAEBUImVec2@@00I@Z
pdata	ENDS
;	COMDAT pdata
pdata	SEGMENT
$pdata$?AddRect@ImDrawList@@QEAAXAEBUImVec2@@0IMHM@Z DD imagerel $LN35@AddRect
	DD	imagerel $LN35@AddRect+258
	DD	imagerel $unwind$?AddRect@ImDrawList@@QEAAXAEBUImVec2@@0IMHM@Z
pdata	ENDS
;	COMDAT pdata
pdata	SEGMENT
$pdata$?PushTextureID@ImDrawList@@QEAAXPEAX@Z DD imagerel $LN11@PushTextur
	DD	imagerel $LN11@PushTextur+120
	DD	imagerel $unwind$?PushTextureID@ImDrawList@@QEAAXPEAX@Z
pdata	ENDS
;	COMDAT pdata
pdata	SEGMENT
$pdata$?PushClipRectFullScreen@ImDrawList@@QEAAXXZ DD imagerel $LN8@PushClipRe
	DD	imagerel $LN8@PushClipRe+75
	DD	imagerel $unwind$?PushClipRectFullScreen@ImDrawList@@QEAAXXZ
pdata	ENDS
;	COMDAT pdata
pdata	SEGMENT
$pdata$?PushClipRect@ImDrawList@@QEAAXAEBUImVec2@@0_N@Z DD imagerel $LN26@PushClipRe
	DD	imagerel $LN26@PushClipRe+268
	DD	imagerel $unwind$?PushClipRect@ImDrawList@@QEAAXAEBUImVec2@@0_N@Z
pdata	ENDS
;	COMDAT pdata
pdata	SEGMENT
$pdata$?SetCircleTessellationMaxError@ImDrawListSharedData@@QEAAXM@Z DD imagerel $LN27@SetCircleT
	DD	imagerel $LN27@SetCircleT+25
	DD	imagerel $unwind$?SetCircleTessellationMaxError@ImDrawListSharedData@@QEAAXM@Z
pdata	ENDS
;	COMDAT pdata
pdata	SEGMENT
$pdata$4$?SetCircleTessellationMaxError@ImDrawListSharedData@@QEAAXM@Z DD imagerel $LN27@SetCircleT+25
	DD	imagerel $LN27@SetCircleT+244
	DD	imagerel $chain$4$?SetCircleTessellationMaxError@ImDrawListSharedData@@QEAAXM@Z
pdata	ENDS
;	COMDAT pdata
pdata	SEGMENT
$pdata$5$?SetCircleTessellationMaxError@ImDrawListSharedData@@QEAAXM@Z DD imagerel $LN27@SetCircleT+244
	DD	imagerel $LN27@SetCircleT+250
	DD	imagerel $chain$5$?SetCircleTessellationMaxError@ImDrawListSharedData@@QEAAXM@Z
pdata	ENDS
;	COMDAT pdata
pdata	SEGMENT
$pdata$??0ImDrawListSharedData@@QEAA@XZ DD imagerel $LN39@ImDrawList
	DD	imagerel $LN39@ImDrawList+274
	DD	imagerel $unwind$??0ImDrawListSharedData@@QEAA@XZ
pdata	ENDS
;	COMDAT pdata
pdata	SEGMENT
$pdata$??1ImFontAtlas@@QEAA@XZ DD imagerel $LN37@ImFontAtla
	DD	imagerel $LN37@ImFontAtla+282
	DD	imagerel $unwind$??1ImFontAtlas@@QEAA@XZ
pdata	ENDS
;	COMDAT pdata
pdata	SEGMENT
$pdata$??0ImFontAtlas@@QEAA@XZ DD imagerel $LN32@ImFontAtla
	DD	imagerel $LN32@ImFontAtla+124
	DD	imagerel $unwind$??0ImFontAtlas@@QEAA@XZ
pdata	ENDS
;	COMDAT pdata
pdata	SEGMENT
$pdata$?Clear@ImDrawData@@QEAAXXZ DD imagerel $LN13@Clear
	DD	imagerel $LN13@Clear+97
	DD	imagerel $unwind$?Clear@ImDrawData@@QEAAXXZ
pdata	ENDS
;	COMDAT pdata
pdata	SEGMENT
$pdata$?RenderRectFilledWithHole@ImGui@@YAXPEAUImDrawList@@AEBUImRect@@1IM@Z DD imagerel $LN46@RenderRect
	DD	imagerel $LN46@RenderRect+945
	DD	imagerel $unwind$?RenderRectFilledWithHole@ImGui@@YAXPEAUImDrawList@@AEBUImRect@@1IM@Z
pdata	ENDS
;	COMDAT pdata
pdata	SEGMENT
$pdata$?AddDrawListToDrawDataEx@ImGui@@YAXPEAUImDrawData@@PEAU?$ImVector@PEAUImDrawList@@@@PEAUImDrawList@@@Z DD imagerel $LN19@AddDrawLis
	DD	imagerel $LN19@AddDrawLis+149
	DD	imagerel $unwind$?AddDrawListToDrawDataEx@ImGui@@YAXPEAUImDrawData@@PEAU?$ImVector@PEAUImDrawList@@@@PEAUImDrawList@@@Z
pdata	ENDS
;	COMDAT pdata
pdata	SEGMENT
$pdata$?RenderBullet@ImGui@@YAXPEAUImDrawList@@UImVec2@@I@Z DD imagerel $LN17@RenderBull
	DD	imagerel $LN17@RenderBull+135
	DD	imagerel $unwind$?RenderBullet@ImGui@@YAXPEAUImDrawList@@UImVec2@@I@Z
pdata	ENDS
;	COMDAT pdata
pdata	SEGMENT
$pdata$?GetTexDataAsRGBA32@ImFontAtlas@@QEAAXPEAPEAEPEAH11@Z DD imagerel $LN44@GetTexData
	DD	imagerel $LN44@GetTexData+40
	DD	imagerel $unwind$?GetTexDataAsRGBA32@ImFontAtlas@@QEAAXPEAPEAEPEAH11@Z
pdata	ENDS
;	COMDAT pdata
pdata	SEGMENT
$pdata$0$?GetTexDataAsRGBA32@ImFontAtlas@@QEAAXPEAPEAEPEAH11@Z DD imagerel $LN44@GetTexData+40
	DD	imagerel $LN44@GetTexData+47
	DD	imagerel $chain$0$?GetTexDataAsRGBA32@ImFontAtlas@@QEAAXPEAPEAEPEAH11@Z
pdata	ENDS
;	COMDAT pdata
pdata	SEGMENT
$pdata$1$?GetTexDataAsRGBA32@ImFontAtlas@@QEAAXPEAPEAEPEAH11@Z DD imagerel $LN44@GetTexData+47
	DD	imagerel $LN44@GetTexData+68
	DD	imagerel $chain$1$?GetTexDataAsRGBA32@ImFontAtlas@@QEAAXPEAPEAEPEAH11@Z
pdata	ENDS
;	COMDAT pdata
pdata	SEGMENT
$pdata$2$?GetTexDataAsRGBA32@ImFontAtlas@@QEAAXPEAPEAEPEAH11@Z DD imagerel $LN44@GetTexData+68
	DD	imagerel $LN44@GetTexData+501
	DD	imagerel $chain$2$?GetTexDataAsRGBA32@ImFontAtlas@@QEAAXPEAPEAEPEAH11@Z
pdata	ENDS
;	COMDAT pdata
pdata	SEGMENT
$pdata$3$?GetTexDataAsRGBA32@ImFontAtlas@@QEAAXPEAPEAEPEAH11@Z DD imagerel $LN44@GetTexData+501
	DD	imagerel $LN44@GetTexData+521
	DD	imagerel $chain$3$?GetTexDataAsRGBA32@ImFontAtlas@@QEAAXPEAPEAEPEAH11@Z
pdata	ENDS
;	COMDAT pdata
pdata	SEGMENT
$pdata$4$?GetTexDataAsRGBA32@ImFontAtlas@@QEAAXPEAPEAEPEAH11@Z DD imagerel $LN44@GetTexData+521
	DD	imagerel $LN44@GetTexData+540
	DD	imagerel $chain$4$?GetTexDataAsRGBA32@ImFontAtlas@@QEAAXPEAPEAEPEAH11@Z
pdata	ENDS
;	COMDAT pdata
pdata	SEGMENT
$pdata$5$?GetTexDataAsRGBA32@ImFontAtlas@@QEAAXPEAPEAEPEAH11@Z DD imagerel $LN44@GetTexData+540
	DD	imagerel $LN44@GetTexData+568
	DD	imagerel $chain$5$?GetTexDataAsRGBA32@ImFontAtlas@@QEAAXPEAPEAEPEAH11@Z
pdata	ENDS
;	COMDAT pdata
pdata	SEGMENT
$pdata$?StyleColorsDark@ImGui@@YAXPEAUImGuiStyle@@@Z DD imagerel $LN124@StyleColor
	DD	imagerel $LN124@StyleColor+1400
	DD	imagerel $unwind$?StyleColorsDark@ImGui@@YAXPEAUImGuiStyle@@@Z
pdata	ENDS
;	COMDAT pdata
pdata	SEGMENT
$pdata$?AddFontFromFileTTF@ImFontAtlas@@QEAAPEAUImFont@@PEBDMPEBUImFontConfig@@PEBG@Z DD imagerel $LN37@AddFontFro
	DD	imagerel $LN37@AddFontFro+99
	DD	imagerel $unwind$?AddFontFromFileTTF@ImFontAtlas@@QEAAPEAUImFont@@PEBDMPEBUImFontConfig@@PEBG@Z
pdata	ENDS
;	COMDAT pdata
pdata	SEGMENT
$pdata$3$?AddFontFromFileTTF@ImFontAtlas@@QEAAPEAUImFont@@PEBDMPEBUImFontConfig@@PEBG@Z DD imagerel $LN37@AddFontFro+99
	DD	imagerel $LN37@AddFontFro+649
	DD	imagerel $chain$3$?AddFontFromFileTTF@ImFontAtlas@@QEAAPEAUImFont@@PEBDMPEBUImFontConfig@@PEBG@Z
pdata	ENDS
;	COMDAT pdata
pdata	SEGMENT
$pdata$4$?AddFontFromFileTTF@ImFontAtlas@@QEAAPEAUImFont@@PEBDMPEBUImFontConfig@@PEBG@Z DD imagerel $LN37@AddFontFro+649
	DD	imagerel $LN37@AddFontFro+721
	DD	imagerel $chain$4$?AddFontFromFileTTF@ImFontAtlas@@QEAAPEAUImFont@@PEBDMPEBUImFontConfig@@PEBG@Z
pdata	ENDS
;	COMDAT pdata
pdata	SEGMENT
$pdata$?AddImage@ImDrawList@@QEAAXPEAXAEBUImVec2@@111I@Z DD imagerel $LN13@AddImage
	DD	imagerel $LN13@AddImage+46
	DD	imagerel $unwind$?AddImage@ImDrawList@@QEAAXPEAXAEBUImVec2@@111I@Z
pdata	ENDS
;	COMDAT pdata
pdata	SEGMENT
$pdata$0$?AddImage@ImDrawList@@QEAAXPEAXAEBUImVec2@@111I@Z DD imagerel $LN13@AddImage+46
	DD	imagerel $LN13@AddImage+128
	DD	imagerel $chain$0$?AddImage@ImDrawList@@QEAAXPEAXAEBUImVec2@@111I@Z
pdata	ENDS
;	COMDAT pdata
pdata	SEGMENT
$pdata$1$?AddImage@ImDrawList@@QEAAXPEAXAEBUImVec2@@111I@Z DD imagerel $LN13@AddImage+128
	DD	imagerel $LN13@AddImage+190
	DD	imagerel $chain$1$?AddImage@ImDrawList@@QEAAXPEAXAEBUImVec2@@111I@Z
pdata	ENDS
;	COMDAT pdata
pdata	SEGMENT
$pdata$?AddRectFilled@ImDrawList@@QEAAXAEBUImVec2@@0IMH@Z DD imagerel $LN17@AddRectFil
	DD	imagerel $LN17@AddRectFil+133
	DD	imagerel $unwind$?AddRectFilled@ImDrawList@@QEAAXAEBUImVec2@@0IMH@Z
pdata	ENDS
;	COMDAT pdata
pdata	SEGMENT
$pdata$0$?AddRectFilled@ImDrawList@@QEAAXAEBUImVec2@@0IMH@Z DD imagerel $LN17@AddRectFil+133
	DD	imagerel $LN17@AddRectFil+400
	DD	imagerel $chain$0$?AddRectFilled@ImDrawList@@QEAAXAEBUImVec2@@0IMH@Z
pdata	ENDS
;	COMDAT pdata
pdata	SEGMENT
$pdata$1$?AddRectFilled@ImDrawList@@QEAAXAEBUImVec2@@0IMH@Z DD imagerel $LN17@AddRectFil+400
	DD	imagerel $LN17@AddRectFil+421
	DD	imagerel $chain$1$?AddRectFilled@ImDrawList@@QEAAXAEBUImVec2@@0IMH@Z
pdata	ENDS
;	COMDAT pdata
pdata	SEGMENT
$pdata$?AddLine@ImDrawList@@QEAAXAEBUImVec2@@0IM@Z DD imagerel $LN38@AddLine
	DD	imagerel $LN38@AddLine+49
	DD	imagerel $unwind$?AddLine@ImDrawList@@QEAAXAEBUImVec2@@0IM@Z
pdata	ENDS
;	COMDAT pdata
pdata	SEGMENT
$pdata$1$?AddLine@ImDrawList@@QEAAXAEBUImVec2@@0IM@Z DD imagerel $LN38@AddLine+49
	DD	imagerel $LN38@AddLine+64
	DD	imagerel $chain$1$?AddLine@ImDrawList@@QEAAXAEBUImVec2@@0IM@Z
pdata	ENDS
;	COMDAT pdata
pdata	SEGMENT
$pdata$2$?AddLine@ImDrawList@@QEAAXAEBUImVec2@@0IM@Z DD imagerel $LN38@AddLine+64
	DD	imagerel $LN38@AddLine+219
	DD	imagerel $chain$2$?AddLine@ImDrawList@@QEAAXAEBUImVec2@@0IM@Z
pdata	ENDS
;	COMDAT pdata
pdata	SEGMENT
$pdata$3$?AddLine@ImDrawList@@QEAAXAEBUImVec2@@0IM@Z DD imagerel $LN38@AddLine+219
	DD	imagerel $LN38@AddLine+349
	DD	imagerel $chain$3$?AddLine@ImDrawList@@QEAAXAEBUImVec2@@0IM@Z
pdata	ENDS
;	COMDAT pdata
pdata	SEGMENT
$pdata$4$?AddLine@ImDrawList@@QEAAXAEBUImVec2@@0IM@Z DD imagerel $LN38@AddLine+349
	DD	imagerel $LN38@AddLine+350
	DD	imagerel $chain$4$?AddLine@ImDrawList@@QEAAXAEBUImVec2@@0IM@Z
;	COMDAT xdata
xdata	SEGMENT
$chain$4$?AddLine@ImDrawList@@QEAAXAEBUImVec2@@0IM@Z DQ 0000d740000020021r ; 1.87089e-308
	DD	imagerel $LN38@AddLine
	DD	imagerel $LN38@AddLine+49
	DD	imagerel $unwind$?AddLine@ImDrawList@@QEAAXAEBUImVec2@@0IM@Z
xdata	ENDS
;	COMDAT xdata
xdata	SEGMENT
$chain$3$?AddLine@ImDrawList@@QEAAXAEBUImVec2@@0IM@Z DD 021H
	DD	imagerel $LN38@AddLine+49
	DD	imagerel $LN38@AddLine+64
	DD	imagerel $chain$1$?AddLine@ImDrawList@@QEAAXAEBUImVec2@@0IM@Z
xdata	ENDS
;	COMDAT xdata
xdata	SEGMENT
$chain$2$?AddLine@ImDrawList@@QEAAXAEBUImVec2@@0IM@Z DQ 00004680500020521r ; 6.12775e-309
	DD	imagerel $LN38@AddLine+49
	DD	imagerel $LN38@AddLine+64
	DD	imagerel $chain$1$?AddLine@ImDrawList@@QEAAXAEBUImVec2@@0IM@Z
xdata	ENDS
;	COMDAT xdata
xdata	SEGMENT
$chain$1$?AddLine@ImDrawList@@QEAAXAEBUImVec2@@0IM@Z DQ 0000d740a00040a21r ; 1.87091e-308
	DD	0c3405H
	DD	imagerel $LN38@AddLine
	DD	imagerel $LN38@AddLine+49
	DD	imagerel $unwind$?AddLine@ImDrawList@@QEAAXAEBUImVec2@@0IM@Z
xdata	ENDS
;	COMDAT xdata
xdata	SEGMENT
$unwind$?AddLine@ImDrawList@@QEAAXAEBUImVec2@@0IM@Z DQ 0000f641d00061d01r ; 2.14039e-308
	DQ	0e019921d000e541dr		; -8.57119e+154
xdata	ENDS
;	COMDAT xdata
xdata	SEGMENT
$chain$1$?AddRectFilled@ImDrawList@@QEAAXAEBUImVec2@@0IMH@Z DD 021H
	DD	imagerel $LN17@AddRectFil
	DD	imagerel $LN17@AddRectFil+133
	DD	imagerel $unwind$?AddRectFilled@ImDrawList@@QEAAXAEBUImVec2@@0IMH@Z
xdata	ENDS
;	COMDAT xdata
xdata	SEGMENT
$chain$0$?AddRectFilled@ImDrawList@@QEAAXAEBUImVec2@@0IMH@Z DQ 00003680500020521r ; 4.73708e-309
	DD	imagerel $LN17@AddRectFil
	DD	imagerel $LN17@AddRectFil+133
	DD	imagerel $unwind$?AddRectFilled@ImDrawList@@QEAAXAEBUImVec2@@0IMH@Z
xdata	ENDS
;	COMDAT xdata
xdata	SEGMENT
$unwind$?AddRectFilled@ImDrawList@@QEAAXAEBUImVec2@@0IMH@Z DQ 0000c642100082101r ; 1.7232e-308
	DQ	0000a3421000b5421r		; 1.41899e-308
	DD	0701d7221H
xdata	ENDS
;	COMDAT xdata
xdata	SEGMENT
$chain$1$?AddImage@ImDrawList@@QEAAXPEAXAEBUImVec2@@111I@Z DD 021H
	DD	imagerel $LN13@AddImage
	DD	imagerel $LN13@AddImage+46
	DD	imagerel $unwind$?AddImage@ImDrawList@@QEAAXPEAXAEBUImVec2@@111I@Z
xdata	ENDS
;	COMDAT xdata
xdata	SEGMENT
$chain$0$?AddImage@ImDrawList@@QEAAXPEAXAEBUImVec2@@111I@Z DQ 0000a640500020521r ; 1.445e-308
	DD	imagerel $LN13@AddImage
	DD	imagerel $LN13@AddImage+46
	DD	imagerel $unwind$?AddImage@ImDrawList@@QEAAXPEAXAEBUImVec2@@111I@Z
xdata	ENDS
;	COMDAT xdata
xdata	SEGMENT
$unwind$?AddImage@ImDrawList@@QEAAXPEAXAEBUImVec2@@111I@Z DQ 0000c541300081301r ; 1.71448e-308
	DQ	0f00f5213000b3413r		; -6.07823e+231
	DD	0700be00dH
xdata	ENDS
;	COMDAT xdata
xdata	SEGMENT
$chain$4$?AddFontFromFileTTF@ImFontAtlas@@QEAAPEAUImFont@@PEBDMPEBUImFontConfig@@PEBG@Z DD 021H
	DD	imagerel $LN37@AddFontFro
	DD	imagerel $LN37@AddFontFro+99
	DD	imagerel $unwind$?AddFontFromFileTTF@ImFontAtlas@@QEAAPEAUImFont@@PEBDMPEBUImFontConfig@@PEBG@Z
xdata	ENDS
;	COMDAT xdata
xdata	SEGMENT
$chain$3$?AddFontFromFileTTF@ImFontAtlas@@QEAAPEAUImFont@@PEBDMPEBUImFontConfig@@PEBG@Z DQ 00017a82300082321r ; 3.28988e-308
	DQ	0001988110018981ar		; 3.55059e-308
	DD	01a7808H
	DD	imagerel $LN37@AddFontFro
	DD	imagerel $LN37@AddFontFro+99
	DD	imagerel $unwind$?AddFontFromFileTTF@ImFontAtlas@@QEAAPEAUImFont@@PEBDMPEBUImFontConfig@@PEBG@Z
xdata	ENDS
;	COMDAT xdata
xdata	SEGMENT
$unwind$?AddFontFromFileTTF@ImFontAtlas@@QEAAPEAUImFont@@PEBDMPEBUImFontConfig@@PEBG@Z DQ 0001b6820000a2e19r ; 3.81138e-308
	DQ	0e007f00900390118r		; -4.01189e+154
	DQ	05002300360047005r		; 2.63247e+77
	DD	imagerel __GSHandlerCheck
	DD	0160H
xdata	ENDS
;	COMDAT xdata
xdata	SEGMENT
$unwind$?StyleColorsDark@ImGui@@YAXPEAUImGuiStyle@@@Z DQ 00001981a00091a01r ; 2.21693e-309
	DQ	00003780e00028814r		; 4.82419e-309
	DQ	00000a20400046809r		; 8.80119e-310
xdata	ENDS
;	COMDAT xdata
xdata	SEGMENT
$chain$5$?GetTexDataAsRGBA32@ImFontAtlas@@QEAAXPEAPEAEPEAH11@Z DD 021H
	DD	imagerel $LN44@GetTexData
	DD	imagerel $LN44@GetTexData+40
	DD	imagerel $unwind$?GetTexDataAsRGBA32@ImFontAtlas@@QEAAXPEAPEAEPEAH11@Z
xdata	ENDS
;	COMDAT xdata
xdata	SEGMENT
$chain$4$?GetTexDataAsRGBA32@ImFontAtlas@@QEAAXPEAPEAEPEAH11@Z DD 021H
	DD	imagerel $LN44@GetTexData+40
	DD	imagerel $LN44@GetTexData+47
	DD	imagerel $chain$0$?GetTexDataAsRGBA32@ImFontAtlas@@QEAAXPEAPEAEPEAH11@Z
xdata	ENDS
;	COMDAT xdata
xdata	SEGMENT
$chain$3$?GetTexDataAsRGBA32@ImFontAtlas@@QEAAXPEAPEAEPEAH11@Z DD 021H
	DD	imagerel $LN44@GetTexData+47
	DD	imagerel $LN44@GetTexData+68
	DD	imagerel $chain$1$?GetTexDataAsRGBA32@ImFontAtlas@@QEAAXPEAPEAEPEAH11@Z
xdata	ENDS
;	COMDAT xdata
xdata	SEGMENT
$chain$2$?GetTexDataAsRGBA32@ImFontAtlas@@QEAAXPEAPEAEPEAH11@Z DQ 0002f740400020421r ; 8.74821e-308
	DD	imagerel $LN44@GetTexData+47
	DD	imagerel $LN44@GetTexData+68
	DD	imagerel $chain$1$?GetTexDataAsRGBA32@ImFontAtlas@@QEAAXPEAPEAEPEAH11@Z
xdata	ENDS
;	COMDAT xdata
xdata	SEGMENT
$chain$1$?GetTexDataAsRGBA32@ImFontAtlas@@QEAAXPEAPEAEPEAH11@Z DQ 0002df40400020421r ; 8.33101e-308
	DD	imagerel $LN44@GetTexData+40
	DD	imagerel $LN44@GetTexData+47
	DD	imagerel $chain$0$?GetTexDataAsRGBA32@ImFontAtlas@@QEAAXPEAPEAEPEAH11@Z
xdata	ENDS
;	COMDAT xdata
xdata	SEGMENT
$chain$0$?GetTexDataAsRGBA32@ImFontAtlas@@QEAAXPEAPEAEPEAH11@Z DQ 0002ee40400020421r ; 8.59176e-308
	DD	imagerel $LN44@GetTexData
	DD	imagerel $LN44@GetTexData+40
	DD	imagerel $unwind$?GetTexDataAsRGBA32@ImFontAtlas@@QEAAXPEAPEAEPEAH11@Z
xdata	ENDS
;	COMDAT xdata
xdata	SEGMENT
$unwind$?GetTexDataAsRGBA32@ImFontAtlas@@QEAAXPEAPEAEPEAH11@Z DQ 00030011200052019r ; 8.90262e-308
	DQ	00000500430056006r		; 4.34674e-310
	DD	imagerel __GSHandlerCheck
	DD	0150H
xdata	ENDS
;	COMDAT xdata
xdata	SEGMENT
$unwind$?RenderBullet@ImGui@@YAXPEAUImDrawList@@UImVec2@@I@Z DQ 0000c341300041301r ; 1.69709e-308
	DD	0700f7213H
xdata	ENDS
;	COMDAT xdata
xdata	SEGMENT
$unwind$?AddDrawListToDrawDataEx@ImGui@@YAXPEAUImDrawData@@PEAU?$ImVector@PEAUImDrawList@@@@PEAUImDrawList@@@Z DQ 00009640f00060f01r ; 1.30596e-308
	DQ	0700b320f0008340fr		; 5.2777e+231
xdata	ENDS
;	COMDAT xdata
xdata	SEGMENT
$unwind$?RenderRectFilledWithHole@ImGui@@YAXPEAUImDrawList@@AEBUImRect@@1IM@Z DQ 00005a86800156801r ; 7.86819e-309
	DQ	0000788520006985dr		; 1.04752e-308
	DQ	00009683b00087847r		; 1.30823e-308
	DQ	00014011d001c341dr		; 2.78195e-308
	DQ	0c00cd00ee010f012r		; -3.60159
	DQ	0000050086009700ar		; 4.34762e-310
xdata	ENDS
;	COMDAT xdata
xdata	SEGMENT
$unwind$?Clear@ImDrawData@@QEAAXXZ DQ 00007640f00060f01r ; 1.02782e-308
	DQ	0700b320f0006340fr		; 5.2777e+231
xdata	ENDS
;	COMDAT xdata
xdata	SEGMENT
$ip2state$??0ImFontAtlas@@QEAA@XZ DB 00H
xdata	ENDS
;	COMDAT xdata
xdata	SEGMENT
$stateUnwindMap$??0ImFontAtlas@@QEAA@XZ DW 0e06H
	DD	imagerel ?dtor$0@?0???0ImFontAtlas@@QEAA@XZ@4HA
	DB	02eH
	DD	imagerel ?dtor$1@?0???0ImFontAtlas@@QEAA@XZ@4HA
	DB	02eH
	DD	imagerel ?dtor$2@?0???0ImFontAtlas@@QEAA@XZ@4HA
xdata	ENDS
;	COMDAT xdata
xdata	SEGMENT
$cppxdata$??0ImFontAtlas@@QEAA@XZ DB 028H
	DD	imagerel $stateUnwindMap$??0ImFontAtlas@@QEAA@XZ
	DD	imagerel $ip2state$??0ImFontAtlas@@QEAA@XZ
xdata	ENDS
;	COMDAT xdata
xdata	SEGMENT
$unwind$??0ImFontAtlas@@QEAA@XZ DQ 03002320600020611r ; 1.96423e-77
	DD	imagerel __CxxFrameHandler4
	DD	imagerel $cppxdata$??0ImFontAtlas@@QEAA@XZ
xdata	ENDS
;	COMDAT xdata
xdata	SEGMENT
$ip2state$??1ImFontAtlas@@QEAA@XZ DW 03602H
	DB	00H
xdata	ENDS
;	COMDAT xdata
xdata	SEGMENT
$cppxdata$??1ImFontAtlas@@QEAA@XZ DB 060H
	DD	imagerel $ip2state$??1ImFontAtlas@@QEAA@XZ
xdata	ENDS
;	COMDAT xdata
xdata	SEGMENT
$unwind$??1ImFontAtlas@@QEAA@XZ DQ 0000a6418000a1819r ; 1.44505e-308
	DQ	00008341800095418r		; 1.14084e-308
	DQ	07010e012f0143218r		; 6.5498e+231
	DD	imagerel __CxxFrameHandler4
	DD	imagerel $cppxdata$??1ImFontAtlas@@QEAA@XZ
xdata	ENDS
;	COMDAT xdata
xdata	SEGMENT
$ip2state$??0ImDrawListSharedData@@QEAA@XZ DB 00H
xdata	ENDS
;	COMDAT xdata
xdata	SEGMENT
$stateUnwindMap$??0ImDrawListSharedData@@QEAA@XZ DW 0e02H
	DD	imagerel ?dtor$0@?0???0ImDrawListSharedData@@QEAA@XZ@4HA
xdata	ENDS
;	COMDAT xdata
xdata	SEGMENT
$cppxdata$??0ImDrawListSharedData@@QEAA@XZ DB 028H
	DD	imagerel $stateUnwindMap$??0ImDrawListSharedData@@QEAA@XZ
	DD	imagerel $ip2state$??0ImDrawListSharedData@@QEAA@XZ
xdata	ENDS
;	COMDAT xdata
xdata	SEGMENT
$unwind$??0ImDrawListSharedData@@QEAA@XZ DQ 000029825000e2511r ; 3.60784e-309
	DQ	0000478190003881fr		; 6.21509e-309
	DQ	00010640f00056814r		; 2.27943e-308
	DQ	0700bb20f000f340fr		; 5.37473e+231
	DD	imagerel __CxxFrameHandler4
	DD	imagerel $cppxdata$??0ImDrawListSharedData@@QEAA@XZ
xdata	ENDS
;	COMDAT xdata
xdata	SEGMENT
$chain$5$?SetCircleTessellationMaxError@ImDrawListSharedData@@QEAAXM@Z DD 021H
	DD	imagerel $LN27@SetCircleT
	DD	imagerel $LN27@SetCircleT+25
	DD	imagerel $unwind$?SetCircleTessellationMaxError@ImDrawListSharedData@@QEAAXM@Z
xdata	ENDS
;	COMDAT xdata
xdata	SEGMENT
$chain$4$?SetCircleTessellationMaxError@ImDrawListSharedData@@QEAAXM@Z DQ 00002782f000a2f21r ; 3.43422e-309
	DQ	0000c741600036822r		; 1.73187e-308
	DQ	0000a3405000b540cr		; 1.41893e-308
	DD	imagerel $LN27@SetCircleT
	DD	imagerel $LN27@SetCircleT+25
	DD	imagerel $unwind$?SetCircleTessellationMaxError@ImDrawListSharedData@@QEAAXM@Z
xdata	ENDS
;	COMDAT xdata
xdata	SEGMENT
$unwind$?SetCircleTessellationMaxError@ImDrawListSharedData@@QEAAXM@Z DQ 06002720600020601r ; 3.09141e+154
xdata	ENDS
;	COMDAT xdata
xdata	SEGMENT
$unwind$?PushClipRect@ImDrawList@@QEAAXAEBUImVec2@@0_N@Z DQ 0000a340c00040c01r ; 1.41894e-308
	DD	07008720cH
xdata	ENDS
;	COMDAT xdata
xdata	SEGMENT
$unwind$?PushClipRectFullScreen@ImDrawList@@QEAAXXZ DQ 00000420400010401r ; 3.58617e-310
xdata	ENDS
;	COMDAT xdata
xdata	SEGMENT
$unwind$?PushTextureID@ImDrawList@@QEAAXPEAX@Z DQ 00008640f00060f01r ; 1.16689e-308
	DQ	0700b320f0007340fr		; 5.2777e+231
xdata	ENDS
;	COMDAT xdata
xdata	SEGMENT
$unwind$?AddRect@ImDrawList@@QEAAXAEBUImVec2@@0IMHM@Z DQ 0000a341900041901r ; 1.41897e-308
	DD	060157219H
xdata	ENDS
;	COMDAT xdata
xdata	SEGMENT
$chain$2$?AddTriangleFilled@ImDrawList@@QEAAXAEBUImVec2@@00I@Z DD 021H
	DD	imagerel $LN34@AddTriangl
	DD	imagerel $LN34@AddTriangl+48
	DD	imagerel $unwind$?AddTriangleFilled@ImDrawList@@QEAAXAEBUImVec2@@00I@Z
xdata	ENDS
;	COMDAT xdata
xdata	SEGMENT
$chain$1$?AddTriangleFilled@ImDrawList@@QEAAXAEBUImVec2@@00I@Z DQ 00009740a00040a21r ; 1.31464e-308
	DD	083405H
	DD	imagerel $LN34@AddTriangl
	DD	imagerel $LN34@AddTriangl+48
	DD	imagerel $unwind$?AddTriangleFilled@ImDrawList@@QEAAXAEBUImVec2@@00I@Z
xdata	ENDS
;	COMDAT xdata
xdata	SEGMENT
$unwind$?AddTriangleFilled@ImDrawList@@QEAAXAEBUImVec2@@00I@Z DQ 0000a640f00060f01r ; 1.44503e-308
	DQ	0c007e009f00b320fr		; -2.98439
xdata	ENDS
;	COMDAT xdata
xdata	SEGMENT
$unwind$?AddText@ImDrawList@@QEAAXPEBUImFont@@MAEBUImVec2@@IPEBD2MPEBUImVec4@@@Z DQ 00000c20400010401r ; 1.05395e-309
xdata	ENDS
;	COMDAT xdata
xdata	SEGMENT
$chain$15$?AddPolyline@ImDrawList@@QEAAXPEBUImVec2@@HIHM@Z DD 021H
	DD	imagerel $LN262@AddPolylin
	DD	imagerel $LN262@AddPolylin+78
	DD	imagerel $unwind$?AddPolyline@ImDrawList@@QEAAXPEBUImVec2@@HIHM@Z
xdata	ENDS
;	COMDAT xdata
xdata	SEGMENT
$chain$14$?AddPolyline@ImDrawList@@QEAAXPEBUImVec2@@HIHM@Z DD 021H
	DD	imagerel $LN262@AddPolylin+78
	DD	imagerel $LN262@AddPolylin+170
	DD	imagerel $chain$5$?AddPolyline@ImDrawList@@QEAAXPEBUImVec2@@HIHM@Z
xdata	ENDS
;	COMDAT xdata
xdata	SEGMENT
$chain$13$?AddPolyline@ImDrawList@@QEAAXPEBUImVec2@@HIHM@Z DD 021H
	DD	imagerel $LN262@AddPolylin+170
	DD	imagerel $LN262@AddPolylin+1062
	DD	imagerel $chain$8$?AddPolyline@ImDrawList@@QEAAXPEBUImVec2@@HIHM@Z
xdata	ENDS
;	COMDAT xdata
xdata	SEGMENT
$chain$12$?AddPolyline@ImDrawList@@QEAAXPEBUImVec2@@HIHM@Z DD 021H
	DD	imagerel $LN262@AddPolylin+1062
	DD	imagerel $LN262@AddPolylin+1540
	DD	imagerel $chain$10$?AddPolyline@ImDrawList@@QEAAXPEBUImVec2@@HIHM@Z
xdata	ENDS
;	COMDAT xdata
xdata	SEGMENT
$chain$11$?AddPolyline@ImDrawList@@QEAAXPEBUImVec2@@HIHM@Z DQ 00006d80600020621r ; 9.51753e-309
	DD	imagerel $LN262@AddPolylin+1062
	DD	imagerel $LN262@AddPolylin+1540
	DD	imagerel $chain$10$?AddPolyline@ImDrawList@@QEAAXPEBUImVec2@@HIHM@Z
xdata	ENDS
;	COMDAT xdata
xdata	SEGMENT
$chain$10$?AddPolyline@ImDrawList@@QEAAXPEBUImVec2@@HIHM@Z DQ 00008b81700041721r ; 1.21254e-308
	DD	09a809H
	DD	imagerel $LN262@AddPolylin+170
	DD	imagerel $LN262@AddPolylin+1062
	DD	imagerel $chain$8$?AddPolyline@ImDrawList@@QEAAXPEBUImVec2@@HIHM@Z
xdata	ENDS
;	COMDAT xdata
xdata	SEGMENT
$chain$8$?AddPolyline@ImDrawList@@QEAAXPEBUImVec2@@HIHM@Z DQ 00007c81700061721r ; 1.08216e-308
	DQ	0001e6404001cd411r		; 4.22635e-308
	DD	imagerel $LN262@AddPolylin+78
	DD	imagerel $LN262@AddPolylin+170
	DD	imagerel $chain$5$?AddPolyline@ImDrawList@@QEAAXPEBUImVec2@@HIHM@Z
xdata	ENDS
;	COMDAT xdata
xdata	SEGMENT
$chain$5$?AddPolyline@ImDrawList@@QEAAXPEBUImVec2@@HIHM@Z DQ 0000a9835000c3521r ; 1.47335e-308
	DQ	0000c7816000b8826r		; 1.73404e-308
	DQ	0001dc408000d680dr		; 4.13944e-308
	DD	0255404H
	DD	imagerel $LN262@AddPolylin
	DD	imagerel $LN262@AddPolylin+78
	DD	imagerel $unwind$?AddPolyline@ImDrawList@@QEAAXPEBUImVec2@@HIHM@Z
xdata	ENDS
;	COMDAT xdata
xdata	SEGMENT
$unwind$?AddPolyline@ImDrawList@@QEAAXPEBUImVec2@@HIHM@Z DQ 0001f011800061801r ; 4.31167e-308
	DQ	0300c700de00ff011r		; 3.06991e-77
xdata	ENDS
;	COMDAT xdata
xdata	SEGMENT
$chain$10$?AddConvexPolyFilled@ImDrawList@@QEAAXPEBUImVec2@@HI@Z DD 021H
	DD	imagerel $LN71@AddConvexP
	DD	imagerel $LN71@AddConvexP+59
	DD	imagerel $unwind$?AddConvexPolyFilled@ImDrawList@@QEAAXPEBUImVec2@@HI@Z
xdata	ENDS
;	COMDAT xdata
xdata	SEGMENT
$chain$9$?AddConvexPolyFilled@ImDrawList@@QEAAXPEBUImVec2@@HI@Z DD 021H
	DD	imagerel $LN71@AddConvexP+59
	DD	imagerel $LN71@AddConvexP+86
	DD	imagerel $chain$1$?AddConvexPolyFilled@ImDrawList@@QEAAXPEBUImVec2@@HI@Z
xdata	ENDS
;	COMDAT xdata
xdata	SEGMENT
$chain$8$?AddConvexPolyFilled@ImDrawList@@QEAAXPEBUImVec2@@HI@Z DQ 00003a83d000e3d21r ; 5.08594e-309
	DQ	00007682800067835r		; 1.03005e-308
	DQ	00019c4170010d420r		; 3.5832e-308
	DQ	00016540400176410r		; 3.10512e-308
	DD	imagerel $LN71@AddConvexP+59
	DD	imagerel $LN71@AddConvexP+86
	DD	imagerel $chain$1$?AddConvexPolyFilled@ImDrawList@@QEAAXPEBUImVec2@@HI@Z
xdata	ENDS
;	COMDAT xdata
xdata	SEGMENT
$chain$1$?AddConvexPolyFilled@ImDrawList@@QEAAXPEBUImVec2@@HI@Z DQ 00004980a00040a21r ; 6.38861e-309
	DD	058805H
	DD	imagerel $LN71@AddConvexP
	DD	imagerel $LN71@AddConvexP+59
	DD	imagerel $unwind$?AddConvexPolyFilled@ImDrawList@@QEAAXPEBUImVec2@@HI@Z
xdata	ENDS
;	COMDAT xdata
xdata	SEGMENT
$unwind$?AddConvexPolyFilled@ImDrawList@@QEAAXPEBUImVec2@@HI@Z DQ 00011011a00061a01r ; 2.36474e-308
	DQ	0300e700fe011f013r		; 3.28582e-77
xdata	ENDS
;	COMDAT xdata
xdata	SEGMENT
$chain$11$?PathArcTo@ImDrawList@@QEAAXAEBUImVec2@@MMMH@Z DQ 00006880000060021r ; 9.08282e-309
	DQ	00008680000077800r		; 1.16903e-308
	DD	imagerel $LN81@PathArcTo
	DD	imagerel $LN81@PathArcTo+178
	DD	imagerel $unwind$?PathArcTo@ImDrawList@@QEAAXAEBUImVec2@@MMMH@Z
xdata	ENDS
;	COMDAT xdata
xdata	SEGMENT
$chain$10$?PathArcTo@ImDrawList@@QEAAXAEBUImVec2@@MMMH@Z DD 021H
	DD	imagerel $LN81@PathArcTo
	DD	imagerel $LN81@PathArcTo+178
	DD	imagerel $unwind$?PathArcTo@ImDrawList@@QEAAXAEBUImVec2@@MMMH@Z
xdata	ENDS
;	COMDAT xdata
xdata	SEGMENT
$chain$9$?PathArcTo@ImDrawList@@QEAAXAEBUImVec2@@MMMH@Z DD 021H
	DD	imagerel $LN81@PathArcTo+178
	DD	imagerel $LN81@PathArcTo+240
	DD	imagerel $chain$2$?PathArcTo@ImDrawList@@QEAAXAEBUImVec2@@MMMH@Z
xdata	ENDS
;	COMDAT xdata
xdata	SEGMENT
$chain$8$?PathArcTo@ImDrawList@@QEAAXAEBUImVec2@@MMMH@Z DD 021H
	DD	imagerel $LN81@PathArcTo+240
	DD	imagerel $LN81@PathArcTo+252
	DD	imagerel $chain$3$?PathArcTo@ImDrawList@@QEAAXAEBUImVec2@@MMMH@Z
xdata	ENDS
;	COMDAT xdata
xdata	SEGMENT
$chain$7$?PathArcTo@ImDrawList@@QEAAXAEBUImVec2@@MMMH@Z DD 021H
	DD	imagerel $LN81@PathArcTo+252
	DD	imagerel $LN81@PathArcTo+268
	DD	imagerel $chain$5$?PathArcTo@ImDrawList@@QEAAXAEBUImVec2@@MMMH@Z
xdata	ENDS
;	COMDAT xdata
xdata	SEGMENT
$chain$6$?PathArcTo@ImDrawList@@QEAAXAEBUImVec2@@MMMH@Z DQ 00012e40800020821r ; 2.62708e-308
	DD	imagerel $LN81@PathArcTo+252
	DD	imagerel $LN81@PathArcTo+268
	DD	imagerel $chain$5$?PathArcTo@ImDrawList@@QEAAXAEBUImVec2@@MMMH@Z
xdata	ENDS
;	COMDAT xdata
xdata	SEGMENT
$chain$5$?PathArcTo@ImDrawList@@QEAAXAEBUImVec2@@MMMH@Z DQ 0001bd41000041021r ; 3.87001e-308
	DD	019c408H
	DD	imagerel $LN81@PathArcTo+240
	DD	imagerel $LN81@PathArcTo+252
	DD	imagerel $chain$3$?PathArcTo@ImDrawList@@QEAAXAEBUImVec2@@MMMH@Z
xdata	ENDS
;	COMDAT xdata
xdata	SEGMENT
$chain$3$?PathArcTo@ImDrawList@@QEAAXAEBUImVec2@@MMMH@Z DQ 00018640800020821r ; 3.39195e-308
	DD	imagerel $LN81@PathArcTo+178
	DD	imagerel $LN81@PathArcTo+240
	DD	imagerel $chain$2$?PathArcTo@ImDrawList@@QEAAXAEBUImVec2@@MMMH@Z
xdata	ENDS
;	COMDAT xdata
xdata	SEGMENT
$chain$2$?PathArcTo@ImDrawList@@QEAAXAEBUImVec2@@MMMH@Z DQ 00006881300061321r ; 9.08322e-309
	DQ	0000868080007780dr		; 1.16905e-308
	DD	imagerel $LN81@PathArcTo
	DD	imagerel $LN81@PathArcTo+178
	DD	imagerel $unwind$?PathArcTo@ImDrawList@@QEAAXAEBUImVec2@@MMMH@Z
xdata	ENDS
;	COMDAT xdata
xdata	SEGMENT
$unwind$?PathArcTo@ImDrawList@@QEAAXAEBUImVec2@@MMMH@Z DQ 00004a82b000a2b01r ; 6.47623e-309
	DQ	00013010d0005981er		; 2.64285e-308
	DQ	0300250037004f006r		; 1.97688e-77
xdata	ENDS
;	COMDAT xdata
xdata	SEGMENT
$chain$1$?PathArcToFast@ImDrawList@@QEAAXAEBUImVec2@@MHH@Z DD 021H
	DD	imagerel $LN12@PathArcToF
	DD	imagerel $LN12@PathArcToF+26
	DD	imagerel $unwind$?PathArcToFast@ImDrawList@@QEAAXAEBUImVec2@@MHH@Z
xdata	ENDS
;	COMDAT xdata
xdata	SEGMENT
$chain$0$?PathArcToFast@ImDrawList@@QEAAXAEBUImVec2@@MHH@Z DQ 00008340500020521r ; 1.1408e-308
	DD	imagerel $LN12@PathArcToF
	DD	imagerel $LN12@PathArcToF+26
	DD	imagerel $unwind$?PathArcToFast@ImDrawList@@QEAAXAEBUImVec2@@MHH@Z
xdata	ENDS
;	COMDAT xdata
xdata	SEGMENT
$unwind$?PathArcToFast@ImDrawList@@QEAAXAEBUImVec2@@MHH@Z DQ 07002520600020601r ; 3.55534e+231
xdata	ENDS
;	COMDAT xdata
xdata	SEGMENT
$unwind$?AddDrawCmd@ImDrawList@@QEAAXXZ DQ 00006783d00063d01r ; 8.9972e-309
	DQ	03002f20900076810r		; 2.0452e-77
xdata	ENDS
;	COMDAT xdata
xdata	SEGMENT
$chain$8$?_ResetForNewFrame@ImDrawList@@QEAAXXZ DD 021H
	DD	imagerel $LN155@ResetForNe
	DD	imagerel $LN155@ResetForNe+12
	DD	imagerel $unwind$?_ResetForNewFrame@ImDrawList@@QEAAXXZ
xdata	ENDS
;	COMDAT xdata
xdata	SEGMENT
$chain$7$?_ResetForNewFrame@ImDrawList@@QEAAXXZ DD 021H
	DD	imagerel $LN155@ResetForNe+12
	DD	imagerel $LN155@ResetForNe+41
	DD	imagerel $chain$1$?_ResetForNewFrame@ImDrawList@@QEAAXXZ
xdata	ENDS
;	COMDAT xdata
xdata	SEGMENT
$chain$6$?_ResetForNewFrame@ImDrawList@@QEAAXXZ DQ 0000fd40000020021r ; 2.20117e-308
	DD	imagerel $LN155@ResetForNe+12
	DD	imagerel $LN155@ResetForNe+41
	DD	imagerel $chain$1$?_ResetForNewFrame@ImDrawList@@QEAAXXZ
xdata	ENDS
;	COMDAT xdata
xdata	SEGMENT
$chain$5$?_ResetForNewFrame@ImDrawList@@QEAAXXZ DQ 0000df41d00081d21r ; 1.94048e-308
	DQ	0000fd40f000ee416r		; 2.2012e-308
	DD	010c404H
	DD	imagerel $LN155@ResetForNe+12
	DD	imagerel $LN155@ResetForNe+41
	DD	imagerel $chain$1$?_ResetForNewFrame@ImDrawList@@QEAAXXZ
xdata	ENDS
;	COMDAT xdata
xdata	SEGMENT
$chain$1$?_ResetForNewFrame@ImDrawList@@QEAAXXZ DQ 00011540b00040b21r ; 2.4098e-308
	DD	0123404H
	DD	imagerel $LN155@ResetForNe
	DD	imagerel $LN155@ResetForNe+12
	DD	imagerel $unwind$?_ResetForNewFrame@ImDrawList@@QEAAXXZ
xdata	ENDS
;	COMDAT xdata
xdata	SEGMENT
$unwind$?_ResetForNewFrame@ImDrawList@@QEAAXXZ DQ 00013010c00040c01r ; 2.64284e-308
	DD	060047005H
xdata	ENDS
;	COMDAT xdata
xdata	SEGMENT
$unwind$?_ClearFreeMemory@ImDrawList@@QEAAXXZ DQ 00006340a00040a01r ; 8.62672e-309
	DD	07006320aH
xdata	ENDS
;	COMDAT xdata
xdata	SEGMENT
$chain$1$?ClearFreeMemory@ImDrawListSplitter@@QEAAXXZ DD 021H
	DD	imagerel $LN19@ClearFreeM
	DD	imagerel $LN19@ClearFreeM+25
	DD	imagerel $unwind$?ClearFreeMemory@ImDrawListSplitter@@QEAAXXZ
xdata	ENDS
;	COMDAT xdata
xdata	SEGMENT
$chain$0$?ClearFreeMemory@ImDrawListSplitter@@QEAAXXZ DQ 00006340500020521r ; 8.62661e-309
	DD	imagerel $LN19@ClearFreeM
	DD	imagerel $LN19@ClearFreeM+25
	DD	imagerel $unwind$?ClearFreeMemory@ImDrawListSplitter@@QEAAXXZ
xdata	ENDS
;	COMDAT xdata
xdata	SEGMENT
$unwind$?ClearFreeMemory@ImDrawListSplitter@@QEAAXXZ DQ 00008640f00060f01r ; 1.16689e-308
	DQ	0700b320f0007540fr		; 5.2777e+231
xdata	ENDS
;	COMDAT xdata
xdata	SEGMENT
$unwind$?Split@ImDrawListSplitter@@QEAAXPEAUImDrawList@@H@Z DQ 00009640f00060f01r ; 1.30596e-308
	DQ	0700b320f0006340fr		; 5.2777e+231
xdata	ENDS
;	COMDAT xdata
xdata	SEGMENT
$chain$7$?Merge@ImDrawListSplitter@@QEAAXPEAUImDrawList@@@Z DD 021H
	DD	imagerel $LN97@Merge
	DD	imagerel $LN97@Merge+31
	DD	imagerel $unwind$?Merge@ImDrawListSplitter@@QEAAXPEAUImDrawList@@@Z
xdata	ENDS
;	COMDAT xdata
xdata	SEGMENT
$chain$6$?Merge@ImDrawListSplitter@@QEAAXPEAUImDrawList@@@Z DD 021H
	DD	imagerel $LN97@Merge+31
	DD	imagerel $LN97@Merge+38
	DD	imagerel $chain$0$?Merge@ImDrawListSplitter@@QEAAXPEAUImDrawList@@@Z
xdata	ENDS
;	COMDAT xdata
xdata	SEGMENT
$chain$5$?Merge@ImDrawListSplitter@@QEAAXPEAUImDrawList@@@Z DQ 00007e414000a1421r ; 1.09737e-308
	DQ	00009740c0008c410r		; 1.31464e-308
	DQ	0000b5404000a6408r		; 1.57538e-308
	DD	imagerel $LN97@Merge+31
	DD	imagerel $LN97@Merge+38
	DD	imagerel $chain$0$?Merge@ImDrawListSplitter@@QEAAXPEAUImDrawList@@@Z
xdata	ENDS
;	COMDAT xdata
xdata	SEGMENT
$chain$0$?Merge@ImDrawListSplitter@@QEAAXPEAUImDrawList@@@Z DQ 0000c340400020421r ; 1.69706e-308
	DD	imagerel $LN97@Merge
	DD	imagerel $LN97@Merge+31
	DD	imagerel $unwind$?Merge@ImDrawListSplitter@@QEAAXPEAUImDrawList@@@Z
xdata	ENDS
;	COMDAT xdata
xdata	SEGMENT
$unwind$?Merge@ImDrawListSplitter@@QEAAXPEAUImDrawList@@@Z DQ 0f00bc20f00030f01r ; -5.38686e+231
	DD	0d009H
xdata	ENDS
;	COMDAT xdata
xdata	SEGMENT
$unwind$?SetCurrentChannel@ImDrawListSplitter@@QEAAXPEAUImDrawList@@H@Z DQ 03002320600020601r ; 1.96423e-77
xdata	ENDS
;	COMDAT xdata
xdata	SEGMENT
$ip2state$??1ImFont@@QEAA@XZ DQ 000024102fe001a06r ; 3.13451e-309
xdata	ENDS
;	COMDAT xdata
xdata	SEGMENT
$stateUnwindMap$??1ImFont@@QEAA@XZ DW 0e02H
	DD	imagerel __std_terminate
xdata	ENDS
;	COMDAT xdata
xdata	SEGMENT
$cppxdata$??1ImFont@@QEAA@XZ DB 068H
	DD	imagerel $stateUnwindMap$??1ImFont@@QEAA@XZ
	DD	imagerel $ip2state$??1ImFont@@QEAA@XZ
xdata	ENDS
;	COMDAT xdata
xdata	SEGMENT
$unwind$??1ImFont@@QEAA@XZ DQ 00006340a00040a19r ; 8.62672e-309
	DD	07006320aH
	DD	imagerel __CxxFrameHandler4
	DD	imagerel $cppxdata$??1ImFont@@QEAA@XZ
xdata	ENDS
;	COMDAT xdata
xdata	SEGMENT
$chain$14$?CalcTextSizeA@ImFont@@QEBA?AUImVec2@@MMMPEBD0PEAPEBD@Z DD 021H
	DD	imagerel $LN58@CalcTextSi
	DD	imagerel $LN58@CalcTextSi+23
	DD	imagerel $unwind$?CalcTextSizeA@ImFont@@QEBA?AUImVec2@@MMMPEBD0PEAPEBD@Z
xdata	ENDS
;	COMDAT xdata
xdata	SEGMENT
$chain$13$?CalcTextSizeA@ImFont@@QEBA?AUImVec2@@MMMPEBD0PEAPEBD@Z DQ 00006880000040021r ; 9.08282e-309
	DD	077800H
	DD	imagerel $LN58@CalcTextSi
	DD	imagerel $LN58@CalcTextSi+23
	DD	imagerel $unwind$?CalcTextSizeA@ImFont@@QEBA?AUImVec2@@MMMPEBD0PEAPEBD@Z
xdata	ENDS
;	COMDAT xdata
xdata	SEGMENT
$chain$12$?CalcTextSizeA@ImFont@@QEBA?AUImVec2@@MMMPEBD0PEAPEBD@Z DQ 00006880000060021r ; 9.08282e-309
	DQ	00008680000077800r		; 1.16903e-308
	DD	imagerel $LN58@CalcTextSi
	DD	imagerel $LN58@CalcTextSi+23
	DD	imagerel $unwind$?CalcTextSizeA@ImFont@@QEBA?AUImVec2@@MMMPEBD0PEAPEBD@Z
xdata	ENDS
;	COMDAT xdata
xdata	SEGMENT
$chain$11$?CalcTextSizeA@ImFont@@QEBA?AUImVec2@@MMMPEBD0PEAPEBD@Z DD 021H
	DD	imagerel $LN58@CalcTextSi+23
	DD	imagerel $LN58@CalcTextSi+163
	DD	imagerel $chain$9$?CalcTextSizeA@ImFont@@QEBA?AUImVec2@@MMMPEBD0PEAPEBD@Z
xdata	ENDS
;	COMDAT xdata
xdata	SEGMENT
$chain$10$?CalcTextSizeA@ImFont@@QEBA?AUImVec2@@MMMPEBD0PEAPEBD@Z DQ 00016540800020821r ; 3.10512e-308
	DD	imagerel $LN58@CalcTextSi+23
	DD	imagerel $LN58@CalcTextSi+163
	DD	imagerel $chain$9$?CalcTextSizeA@ImFont@@QEBA?AUImVec2@@MMMPEBD0PEAPEBD@Z
xdata	ENDS
;	COMDAT xdata
xdata	SEGMENT
$chain$9$?CalcTextSizeA@ImFont@@QEBA?AUImVec2@@MMMPEBD0PEAPEBD@Z DQ 00003b83a00143a21r ; 5.17279e-309
	DQ	0000598300004a835r		; 7.78009e-309
	DQ	0000778230006882br		; 1.03873e-308
	DQ	00012f4180008681fr		; 2.63581e-308
	DQ	00018c4100019e414r		; 3.44412e-308
	DD	0177404H
	DD	imagerel $LN58@CalcTextSi
	DD	imagerel $LN58@CalcTextSi+23
	DD	imagerel $unwind$?CalcTextSizeA@ImFont@@QEBA?AUImVec2@@MMMPEBD0PEAPEBD@Z
xdata	ENDS
;	COMDAT xdata
xdata	SEGMENT
$unwind$?CalcTextSizeA@ImFont@@QEBA?AUImVec2@@MMMPEBD0PEAPEBD@Z DQ 00013010c00040c01r ; 2.64284e-308
	DD	030046005H
xdata	ENDS
;	COMDAT xdata
xdata	SEGMENT
$chain$3$?RenderChar@ImFont@@QEBAXPEAUImDrawList@@MAEBUImVec2@@IG@Z DD 021H
	DD	imagerel $LN21@RenderChar
	DD	imagerel $LN21@RenderChar+115
	DD	imagerel $unwind$?RenderChar@ImFont@@QEBAXPEAUImDrawList@@MAEBUImVec2@@IG@Z
xdata	ENDS
;	COMDAT xdata
xdata	SEGMENT
$chain$2$?RenderChar@ImFont@@QEBAXPEAUImDrawList@@MAEBUImVec2@@IG@Z DQ 00006781e00061e21r ; 8.99654e-309
	DQ	00013740800076813r		; 2.70531e-308
	DD	imagerel $LN21@RenderChar
	DD	imagerel $LN21@RenderChar+115
	DD	imagerel $unwind$?RenderChar@ImFont@@QEBAXPEAUImDrawList@@MAEBUImVec2@@IG@Z
xdata	ENDS
;	COMDAT xdata
xdata	SEGMENT
$unwind$?RenderChar@ImFont@@QEBAXPEAUImDrawList@@MAEBUImVec2@@IG@Z DQ 00005882900062901r ; 7.69302e-309
	DQ	06006f20d0014340dr		; 3.84561e+154
xdata	ENDS
;	COMDAT xdata
xdata	SEGMENT
$chain$2$?AddRectFilledMultiColor@ImDrawList@@QEAAXAEBUImVec2@@0IIII@Z DD 021H
	DD	imagerel $LN29@AddRectFil
	DD	imagerel $LN29@AddRectFil+94
	DD	imagerel $unwind$?AddRectFilledMultiColor@ImDrawList@@QEAAXAEBUImVec2@@0IIII@Z
xdata	ENDS
;	COMDAT xdata
xdata	SEGMENT
$chain$1$?AddRectFilledMultiColor@ImDrawList@@QEAAXAEBUImVec2@@0IIII@Z DQ 00002780a00040a21r ; 3.43343e-309
	DD	036805H
	DD	imagerel $LN29@AddRectFil
	DD	imagerel $LN29@AddRectFil+94
	DD	imagerel $unwind$?AddRectFilledMultiColor@ImDrawList@@QEAAXAEBUImVec2@@0IIII@Z
xdata	ENDS
;	COMDAT xdata
xdata	SEGMENT
$unwind$?AddRectFilledMultiColor@ImDrawList@@QEAAXAEBUImVec2@@0IIII@Z DQ 0000f741e000c1e01r ; 2.14909e-308
	DQ	0000d541e000e641er		; 1.85357e-308
	DQ	0f01a721e000c341er		; -1.02644e+232
	DD	0c016e018H
xdata	ENDS
;	COMDAT xdata
xdata	SEGMENT
$chain$2$?AddTriangle@ImDrawList@@QEAAXAEBUImVec2@@00IM@Z DD 021H
	DD	imagerel $LN34@AddTriangl
	DD	imagerel $LN34@AddTriangl+48
	DD	imagerel $unwind$?AddTriangle@ImDrawList@@QEAAXAEBUImVec2@@00IM@Z
xdata	ENDS
;	COMDAT xdata
xdata	SEGMENT
$chain$1$?AddTriangle@ImDrawList@@QEAAXAEBUImVec2@@00IM@Z DQ 0000b740a00040a21r ; 1.59277e-308
	DD	0a3405H
	DD	imagerel $LN34@AddTriangl
	DD	imagerel $LN34@AddTriangl+48
	DD	imagerel $unwind$?AddTriangle@ImDrawList@@QEAAXAEBUImVec2@@00IM@Z
xdata	ENDS
;	COMDAT xdata
xdata	SEGMENT
$unwind$?AddTriangle@ImDrawList@@QEAAXAEBUImVec2@@00IM@Z DQ 0000c640f00060f01r ; 1.72316e-308
	DQ	0c007e009f00b520fr		; -2.98439
xdata	ENDS
;	COMDAT xdata
xdata	SEGMENT
$unwind$?AddCircle@ImDrawList@@QEAAXAEBUImVec2@@MIHM@Z DQ 00008341700041701r ; 1.14083e-308
	DD	070135217H
xdata	ENDS
;	COMDAT xdata
xdata	SEGMENT
$unwind$?AddCircleFilled@ImDrawList@@QEAAXAEBUImVec2@@MIH@Z DQ 00008341700041701r ; 1.14083e-308
	DD	070135217H
xdata	ENDS
;	COMDAT xdata
xdata	SEGMENT
$unwind$?_CalcCircleAutoSegmentCount@ImDrawList@@QEBAHM@Z DQ 00000420400010401r ; 3.58617e-310
xdata	ENDS
;	COMDAT xdata
xdata	SEGMENT
$unwind$?Create@ImBitVector@@QEAAXH@Z DQ 00006340a00040a01r ; 8.62672e-309
	DD	07006320aH
xdata	ENDS
;	COMDAT xdata
xdata	SEGMENT
$chain$2$stbrp_init_target DD 021H
	DD	imagerel stbrp_init_target
	DD	imagerel stbrp_init_target+88
	DD	imagerel $unwind$stbrp_init_target
xdata	ENDS
;	COMDAT xdata
xdata	SEGMENT
$chain$1$stbrp_init_target DQ 00000780900040921r ; 6.52068e-310
	DD	016805H
	DD	imagerel stbrp_init_target
	DD	imagerel stbrp_init_target+88
	DD	imagerel $unwind$stbrp_init_target
xdata	ENDS
;	COMDAT xdata
xdata	SEGMENT
$unwind$stbrp_init_target DQ 00009741a000a1a01r	; 1.31467e-308
	DQ	00007541a0008641ar		; 1.01916e-308
	DQ	0e016321a0006341ar		; -7.4399e+154
xdata	ENDS
;	COMDAT xdata
xdata	SEGMENT
$chain$1$?stbrp__skyline_find_min_y@@YAHPEAUstbrp_context@@PEAUstbrp_node@@HHPEAH@Z DD 021H
	DD	imagerel ?stbrp__skyline_find_min_y@@YAHPEAUstbrp_context@@PEAUstbrp_node@@HHPEAH@Z
	DD	imagerel ?stbrp__skyline_find_min_y@@YAHPEAUstbrp_context@@PEAUstbrp_node@@HHPEAH@Z+40
	DD	imagerel $unwind$?stbrp__skyline_find_min_y@@YAHPEAUstbrp_context@@PEAUstbrp_node@@HHPEAH@Z
xdata	ENDS
;	COMDAT xdata
xdata	SEGMENT
$chain$0$?stbrp__skyline_find_min_y@@YAHPEAUstbrp_context@@PEAUstbrp_node@@HHPEAH@Z DQ 00003340500020521r ; 4.4546e-309
	DD	imagerel ?stbrp__skyline_find_min_y@@YAHPEAUstbrp_context@@PEAUstbrp_node@@HHPEAH@Z
	DD	imagerel ?stbrp__skyline_find_min_y@@YAHPEAUstbrp_context@@PEAUstbrp_node@@HHPEAH@Z+40
	DD	imagerel $unwind$?stbrp__skyline_find_min_y@@YAHPEAUstbrp_context@@PEAUstbrp_node@@HHPEAH@Z
xdata	ENDS
;	COMDAT xdata
xdata	SEGMENT
$unwind$?stbrp__skyline_find_min_y@@YAHPEAUstbrp_context@@PEAUstbrp_node@@HHPEAH@Z DQ 00006741300081301r ; 8.97458e-309
	DQ	00004541300056413r		; 6.0194e-309
	DD	0e011f013H
xdata	ENDS
;	COMDAT xdata
xdata	SEGMENT
$chain$4$?stbrp__skyline_find_best_pos@@YA?AUstbrp__findresult@@PEAUstbrp_context@@HH@Z DD 021H
	DD	imagerel ?stbrp__skyline_find_best_pos@@YA?AUstbrp__findresult@@PEAUstbrp_context@@HH@Z
	DD	imagerel ?stbrp__skyline_find_best_pos@@YA?AUstbrp__findresult@@PEAUstbrp_context@@HH@Z+112
	DD	imagerel $unwind$?stbrp__skyline_find_best_pos@@YA?AUstbrp__findresult@@PEAUstbrp_context@@HH@Z
xdata	ENDS
;	COMDAT xdata
xdata	SEGMENT
$chain$3$?stbrp__skyline_find_best_pos@@YA?AUstbrp__findresult@@PEAUstbrp_context@@HH@Z DQ 00009f41700081721r ; 1.3842e-308
	DQ	0000bd40a000ae412r		; 1.64492e-308
	DD	0c5405H
	DD	imagerel ?stbrp__skyline_find_best_pos@@YA?AUstbrp__findresult@@PEAUstbrp_context@@HH@Z
	DD	imagerel ?stbrp__skyline_find_best_pos@@YA?AUstbrp__findresult@@PEAUstbrp_context@@HH@Z+112
	DD	imagerel $unwind$?stbrp__skyline_find_best_pos@@YA?AUstbrp__findresult@@PEAUstbrp_context@@HH@Z
xdata	ENDS
;	COMDAT xdata
xdata	SEGMENT
$unwind$?stbrp__skyline_find_best_pos@@YA?AUstbrp__findresult@@PEAUstbrp_context@@HH@Z DQ 0c00fc21300051301r ; -3.96976
	DQ	00000300b600c700dr		; 2.60992e-310
xdata	ENDS
;	COMDAT xdata
xdata	SEGMENT
$unwind$?stbrp__skyline_pack_rectangle@@YA?AUstbrp__findresult@@PEAUstbrp_context@@HH@Z DQ 0000a641400081401r ; 1.44504e-308
	DQ	00008341400095414r		; 1.14083e-308
	DD	070105214H
xdata	ENDS
;	COMDAT xdata
xdata	SEGMENT
$chain$6$stbrp_pack_rects DD 021H
	DD	imagerel stbrp_pack_rects
	DD	imagerel stbrp_pack_rects+12
	DD	imagerel $unwind$stbrp_pack_rects
xdata	ENDS
;	COMDAT xdata
xdata	SEGMENT
$chain$5$stbrp_pack_rects DD 021H
	DD	imagerel stbrp_pack_rects+12
	DD	imagerel stbrp_pack_rects+104
	DD	imagerel $chain$0$stbrp_pack_rects
xdata	ENDS
;	COMDAT xdata
xdata	SEGMENT
$chain$4$stbrp_pack_rects DQ 00009741b00081b21r	; 1.31468e-308
	DQ	0000f540e0008c413r		; 2.13167e-308
	DD	0e3405H
	DD	imagerel stbrp_pack_rects+12
	DD	imagerel stbrp_pack_rects+104
	DD	imagerel $chain$0$stbrp_pack_rects
xdata	ENDS
;	COMDAT xdata
xdata	SEGMENT
$chain$0$stbrp_pack_rects DQ 00010640800020821r	; 2.27941e-308
	DD	imagerel stbrp_pack_rects
	DD	imagerel stbrp_pack_rects+12
	DD	imagerel $unwind$stbrp_pack_rects
xdata	ENDS
;	COMDAT xdata
xdata	SEGMENT
$unwind$stbrp_pack_rects DQ 0f006920a00040a01r	; -4.38013e+231
	DD	0d002e004H
xdata	ENDS
;	COMDAT xdata
xdata	SEGMENT
$unwind$?stbtt__buf_range@@YA?AUstbtt__buf@@PEBU1@HH@Z DQ 00000220400010401r ; 1.84783e-310
xdata	ENDS
;	COMDAT xdata
xdata	SEGMENT
$chain$1$?stbtt__cff_get_index@@YA?AUstbtt__buf@@PEAU1@@Z DD 021H
	DD	imagerel ?stbtt__cff_get_index@@YA?AUstbtt__buf@@PEAU1@@Z
	DD	imagerel ?stbtt__cff_get_index@@YA?AUstbtt__buf@@PEAU1@@Z+140
	DD	imagerel $unwind$?stbtt__cff_get_index@@YA?AUstbtt__buf@@PEAU1@@Z
xdata	ENDS
;	COMDAT xdata
xdata	SEGMENT
$chain$0$?stbtt__cff_get_index@@YA?AUstbtt__buf@@PEAU1@@Z DQ 00004740500020521r ; 6.19294e-309
	DD	imagerel ?stbtt__cff_get_index@@YA?AUstbtt__buf@@PEAU1@@Z
	DD	imagerel ?stbtt__cff_get_index@@YA?AUstbtt__buf@@PEAU1@@Z+140
	DD	imagerel $unwind$?stbtt__cff_get_index@@YA?AUstbtt__buf@@PEAU1@@Z
xdata	ENDS
;	COMDAT xdata
xdata	SEGMENT
$unwind$?stbtt__cff_get_index@@YA?AUstbtt__buf@@PEAU1@@Z DQ 03002120600020601r ; 1.95074e-77
xdata	ENDS
;	COMDAT xdata
xdata	SEGMENT
$chain$9$?stbtt__cff_int@@YAIPEAUstbtt__buf@@@Z DD 021H
	DD	imagerel ?stbtt__cff_int@@YAIPEAUstbtt__buf@@@Z
	DD	imagerel ?stbtt__cff_int@@YAIPEAUstbtt__buf@@@Z+323
	DD	imagerel $unwind$?stbtt__cff_int@@YAIPEAUstbtt__buf@@@Z
xdata	ENDS
;	COMDAT xdata
xdata	SEGMENT
$chain$8$?stbtt__cff_int@@YAIPEAUstbtt__buf@@@Z DQ 00000340000020021r ; 2.8248e-310
	DD	imagerel ?stbtt__cff_int@@YAIPEAUstbtt__buf@@@Z
	DD	imagerel ?stbtt__cff_int@@YAIPEAUstbtt__buf@@@Z+323
	DD	imagerel $unwind$?stbtt__cff_int@@YAIPEAUstbtt__buf@@@Z
xdata	ENDS
;	COMDAT xdata
xdata	SEGMENT
$chain$6$?stbtt__cff_int@@YAIPEAUstbtt__buf@@@Z DQ 00000340000020021r ; 2.8248e-310
	DD	imagerel ?stbtt__cff_int@@YAIPEAUstbtt__buf@@@Z
	DD	imagerel ?stbtt__cff_int@@YAIPEAUstbtt__buf@@@Z+323
	DD	imagerel $unwind$?stbtt__cff_int@@YAIPEAUstbtt__buf@@@Z
xdata	ENDS
;	COMDAT xdata
xdata	SEGMENT
$chain$4$?stbtt__cff_int@@YAIPEAUstbtt__buf@@@Z DQ 00000340000020021r ; 2.8248e-310
	DD	imagerel ?stbtt__cff_int@@YAIPEAUstbtt__buf@@@Z
	DD	imagerel ?stbtt__cff_int@@YAIPEAUstbtt__buf@@@Z+323
	DD	imagerel $unwind$?stbtt__cff_int@@YAIPEAUstbtt__buf@@@Z
xdata	ENDS
;	COMDAT xdata
xdata	SEGMENT
$chain$2$?stbtt__cff_int@@YAIPEAUstbtt__buf@@@Z DQ 00000340000020021r ; 2.8248e-310
	DD	imagerel ?stbtt__cff_int@@YAIPEAUstbtt__buf@@@Z
	DD	imagerel ?stbtt__cff_int@@YAIPEAUstbtt__buf@@@Z+323
	DD	imagerel $unwind$?stbtt__cff_int@@YAIPEAUstbtt__buf@@@Z
xdata	ENDS
;	COMDAT xdata
xdata	SEGMENT
$chain$0$?stbtt__cff_int@@YAIPEAUstbtt__buf@@@Z DQ 00000340400020421r ; 2.82565e-310
	DD	imagerel ?stbtt__cff_int@@YAIPEAUstbtt__buf@@@Z
	DD	imagerel ?stbtt__cff_int@@YAIPEAUstbtt__buf@@@Z+323
	DD	imagerel $unwind$?stbtt__cff_int@@YAIPEAUstbtt__buf@@@Z
xdata	ENDS
;	COMDAT xdata
xdata	SEGMENT
$unwind$?stbtt__cff_int@@YAIPEAUstbtt__buf@@@Z DQ 00000020400010401r ; 1.09495e-311
xdata	ENDS
;	COMDAT xdata
xdata	SEGMENT
$unwind$?stbtt__dict_get@@YA?AUstbtt__buf@@PEAU1@H@Z DQ 0000d741e000c1e01r ; 1.87095e-308
	DQ	0000b541e000c641er		; 1.57543e-308
	DQ	0f01a521e000a341er		; -1.02159e+232
	DD	0c016e018H
xdata	ENDS
;	COMDAT xdata
xdata	SEGMENT
$unwind$?stbtt__dict_get_ints@@YAXPEAUstbtt__buf@@HHPEAI@Z DQ 00009640f00060f01r ; 1.30596e-308
	DQ	0700b520f0008340fr		; 5.30195e+231
xdata	ENDS
;	COMDAT xdata
xdata	SEGMENT
$unwind$?stbtt__cff_index_get@@YA?AUstbtt__buf@@U1@H@Z DQ 00007641400081401r ; 1.02784e-308
	DQ	00004341400065414r		; 5.84559e-309
	DD	070101214H
xdata	ENDS
;	COMDAT xdata
xdata	SEGMENT
$unwind$?stbtt__find_table@@YAIPEAEIPEBD@Z DQ 00002740a00040a01r ; 3.4117e-309
	DD	013405H
xdata	ENDS
;	COMDAT xdata
xdata	SEGMENT
$unwind$?stbtt__get_subrs@@YA?AUstbtt__buf@@U1@0@Z DQ 00013541200082119r ; 2.68794e-308
	DQ	0e00eb21200103412r		; -5.14451e+154
	DD	0600b700cH
	DD	imagerel __GSHandlerCheck
	DD	050H
xdata	ENDS
;	COMDAT xdata
xdata	SEGMENT
$unwind$?stbtt_InitFont_internal@@YAHPEAUstbtt_fontinfo@@PEAEH@Z DQ 0001d7424000d3219r ; 4.09604e-308
	DQ	0001b3424001c6424r		; 3.78314e-308
	DQ	0e016f01800140124r		; -7.68866e+154
	DQ	000005010c012d014r		; 4.3494e-310
	DD	imagerel __GSHandlerCheck
	DD	090H
xdata	ENDS
;	COMDAT xdata
xdata	SEGMENT
$chain$1$stbtt_FindGlyphIndex DD 021H
	DD	imagerel stbtt_FindGlyphIndex
	DD	imagerel stbtt_FindGlyphIndex+301
	DD	imagerel $unwind$stbtt_FindGlyphIndex
xdata	ENDS
;	COMDAT xdata
xdata	SEGMENT
$chain$0$stbtt_FindGlyphIndex DQ 00005e40500020521r ; 8.19203e-309
	DD	imagerel stbtt_FindGlyphIndex
	DD	imagerel stbtt_FindGlyphIndex+301
	DD	imagerel $unwind$stbtt_FindGlyphIndex
xdata	ENDS
;	COMDAT xdata
xdata	SEGMENT
$unwind$stbtt_FindGlyphIndex DQ 000086416000a1601r ; 1.16691e-308
	DQ	00006341600075416r		; 8.62697e-309
	DQ	07010c012d014f016r		; 6.50128e+231
xdata	ENDS
;	COMDAT xdata
xdata	SEGMENT
$unwind$stbtt_GetGlyphBox DQ 0f008b20c00061b19r	; -4.79253e+231
	DQ	0300260037004e006r		; 1.98363e-77
	DD	imagerel __GSHandlerCheck
	DD	058H
xdata	ENDS
;	COMDAT xdata
xdata	SEGMENT
$chain$1$?stbtt__close_shape@@YAHPEAUstbtt_vertex@@HHHHHHHHH@Z DD 021H
	DD	imagerel ?stbtt__close_shape@@YAHPEAUstbtt_vertex@@HHHHHHHHH@Z
	DD	imagerel ?stbtt__close_shape@@YAHPEAUstbtt_vertex@@HHHHHHHHH@Z+24
	DD	imagerel $unwind$?stbtt__close_shape@@YAHPEAUstbtt_vertex@@HHHHHHHHH@Z
xdata	ENDS
;	COMDAT xdata
xdata	SEGMENT
$chain$0$?stbtt__close_shape@@YAHPEAUstbtt_vertex@@HHHHHHHHH@Z DQ 00000340400020421r ; 2.82565e-310
	DD	imagerel ?stbtt__close_shape@@YAHPEAUstbtt_vertex@@HHHHHHHHH@Z
	DD	imagerel ?stbtt__close_shape@@YAHPEAUstbtt_vertex@@HHHHHHHHH@Z+24
	DD	imagerel $unwind$?stbtt__close_shape@@YAHPEAUstbtt_vertex@@HHHHHHHHH@Z
xdata	ENDS
;	COMDAT xdata
xdata	SEGMENT
$unwind$?stbtt__close_shape@@YAHPEAUstbtt_vertex@@HHHHHHHHH@Z DQ 00000020400010401r ; 1.09495e-311
xdata	ENDS
;	COMDAT xdata
xdata	SEGMENT
$unwind$?stbtt__GetGlyphShapeTT@@YAHPEBUstbtt_fontinfo@@HPEAPEAUstbtt_vertex@@@Z DQ 0000be853001d6519r ; 1.65594e-308
	DQ	0000dc843000cd84br		; 1.91666e-308
	DQ	0000fa833000eb83br		; 2.17738e-308
	DQ	0001188260010982br		; 2.4381e-308
	DQ	00013681d00127821r		; 2.69883e-308
	DQ	00028011900333419r		; 6.67641e-308
	DQ	0c00cd00ee010f012r		; -3.60159
	DQ	0000050086009700ar		; 4.34762e-310
	DD	imagerel __GSHandlerCheck
	DD	0a0H
xdata	ENDS
;	COMDAT xdata
xdata	SEGMENT
$chain$2$?stbtt__csctx_v@@YAXPEAUstbtt__csctx@@EHHHHHH@Z DD 021H
	DD	imagerel ?stbtt__csctx_v@@YAXPEAUstbtt__csctx@@EHHHHHH@Z
	DD	imagerel ?stbtt__csctx_v@@YAXPEAUstbtt__csctx@@EHHHHHH@Z+25
	DD	imagerel $unwind$?stbtt__csctx_v@@YAXPEAUstbtt__csctx@@EHHHHHH@Z
xdata	ENDS
;	COMDAT xdata
xdata	SEGMENT
$chain$1$?stbtt__csctx_v@@YAXPEAUstbtt__csctx@@EHHHHHH@Z DQ 00003740a00040a21r ; 4.80237e-309
	DD	023405H
	DD	imagerel ?stbtt__csctx_v@@YAXPEAUstbtt__csctx@@EHHHHHH@Z
	DD	imagerel ?stbtt__csctx_v@@YAXPEAUstbtt__csctx@@EHHHHHH@Z+25
	DD	imagerel $unwind$?stbtt__csctx_v@@YAXPEAUstbtt__csctx@@EHHHHHH@Z
xdata	ENDS
;	COMDAT xdata
xdata	SEGMENT
$unwind$?stbtt__csctx_v@@YAXPEAUstbtt__csctx@@EHHHHHH@Z DQ 00000600200010201r ; 5.21544e-310
xdata	ENDS
;	COMDAT xdata
xdata	SEGMENT
$unwind$?stbtt__csctx_rmove_to@@YAXPEAUstbtt__csctx@@MM@Z DQ 00000420400010401r ; 3.58617e-310
xdata	ENDS
;	COMDAT xdata
xdata	SEGMENT
$unwind$?stbtt__csctx_rccurve_to@@YAXPEAUstbtt__csctx@@MMMMMM@Z DQ 00004680c00030c01r ; 6.1279e-309
	DD	0a204H
xdata	ENDS
;	COMDAT xdata
xdata	SEGMENT
$unwind$?stbtt__get_subr@@YA?AUstbtt__buf@@U1@H@Z DQ 03002520600020601r ; 1.97773e-77
xdata	ENDS
;	COMDAT xdata
xdata	SEGMENT
$unwind$?stbtt__cid_get_glyph_subrs@@YA?AUstbtt__buf@@PEBUstbtt_fontinfo@@H@Z DQ 000106418000a1801r ; 2.27945e-308
	DQ	0000e3418000f5418r		; 1.97524e-308
	DQ	07010e012f0149218r		; 6.5498e+231
xdata	ENDS
;	COMDAT xdata
xdata	SEGMENT
$unwind$?stbtt__run_charstring@@YAHPEBUstbtt_fontinfo@@HPEAUstbtt__csctx@@@Z DQ 00025f879001f7901r ; 6.11077e-308
	DQ	00027d8690026e871r		; 6.63221e-308
	DQ	00029b8590028c861r		; 7.15364e-308
	DQ	0002b9843002aa84er		; 7.67505e-308
	DQ	0002d7832002c883ar		; 8.19648e-308
	DQ	000683427002e682br		; 1.0771e-306
	DQ	0e017f019005e0127r		; -8.02386e+154
	DQ	060107011c013d015r		; 5.50986e+154
	DD	0500fH
xdata	ENDS
;	COMDAT xdata
xdata	SEGMENT
$unwind$?stbtt__GetGlyphShapeT2@@YAHPEBUstbtt_fontinfo@@HPEAPEAUstbtt_vertex@@@Z DQ 0001b340f00072119r ; 3.78309e-308
	DQ	0600770080014010fr		; 3.92809e+154
	DD	05006H
	DD	imagerel __GSHandlerCheck
	DD	090H
xdata	ENDS
;	COMDAT xdata
xdata	SEGMENT
$unwind$?stbtt__GetGlyphInfoT2@@YAHPEBUstbtt_fontinfo@@HPEAH111@Z DQ 0f008b20c00061b19r ; -4.79253e+231
	DQ	0300260037004e006r		; 1.98363e-77
	DD	imagerel __GSHandlerCheck
	DD	058H
xdata	ENDS
;	COMDAT xdata
xdata	SEGMENT
$unwind$stbtt_GetGlyphHMetrics DQ 00005e41600091601r ; 8.19239e-309
	DQ	00003641600047416r		; 4.71571e-309
	DQ	00000f01600023416r		; 1.30422e-309
xdata	ENDS
;	COMDAT xdata
xdata	SEGMENT
$unwind$stbtt_GetFontVMetrics DQ 00003740f00060f01r ; 4.80248e-309
	DQ	0000134050002640ar		; 1.67326e-309
xdata	ENDS
;	COMDAT xdata
xdata	SEGMENT
$chain$1$stbtt_GetGlyphBitmapBoxSubpixel DD 021H
	DD	imagerel stbtt_GetGlyphBitmapBoxSubpixel
	DD	imagerel stbtt_GetGlyphBitmapBoxSubpixel+311
	DD	imagerel $unwind$stbtt_GetGlyphBitmapBoxSubpixel
xdata	ENDS
;	COMDAT xdata
xdata	SEGMENT
$chain$0$stbtt_GetGlyphBitmapBoxSubpixel DQ 00008680800020821r ; 1.16905e-308
	DD	imagerel stbtt_GetGlyphBitmapBoxSubpixel
	DD	imagerel stbtt_GetGlyphBitmapBoxSubpixel+311
	DD	imagerel $unwind$stbtt_GetGlyphBitmapBoxSubpixel
xdata	ENDS
;	COMDAT xdata
xdata	SEGMENT
$unwind$stbtt_GetGlyphBitmapBoxSubpixel DQ 00006881e000d2d19r ; 9.08346e-309
	DQ	0001a341300077818r		; 3.64403e-308
	DQ	0e00af00c00120113r		; -4.51469e+154
	DQ	00000500660077008r		; 4.3472e-310
	DD	imagerel __GSHandlerCheck
	DD	058H
xdata	ENDS
;	COMDAT xdata
xdata	SEGMENT
$unwind$stbtt_GetGlyphBitmapBox DQ 00000a20400010401r ; 8.80119e-310
xdata	ENDS
;	COMDAT xdata
xdata	SEGMENT
$unwind$?stbtt__hheap_alloc@@YAPEAXPEAUstbtt__hheap@@_KPEAX@Z DQ 03002320600020601r ; 1.96423e-77
xdata	ENDS
;	COMDAT xdata
xdata	SEGMENT
$chain$2$?stbtt__hheap_cleanup@@YAXPEAUstbtt__hheap@@PEAX@Z DD 021H
	DD	imagerel ?stbtt__hheap_cleanup@@YAXPEAUstbtt__hheap@@PEAX@Z
	DD	imagerel ?stbtt__hheap_cleanup@@YAXPEAUstbtt__hheap@@PEAX@Z+16
	DD	imagerel $unwind$?stbtt__hheap_cleanup@@YAXPEAUstbtt__hheap@@PEAX@Z
xdata	ENDS
;	COMDAT xdata
xdata	SEGMENT
$chain$1$?stbtt__hheap_cleanup@@YAXPEAUstbtt__hheap@@PEAX@Z DQ 00004740a00040a21r ; 6.19304e-309
	DD	063405H
	DD	imagerel ?stbtt__hheap_cleanup@@YAXPEAUstbtt__hheap@@PEAX@Z
	DD	imagerel ?stbtt__hheap_cleanup@@YAXPEAUstbtt__hheap@@PEAX@Z+16
	DD	imagerel $unwind$?stbtt__hheap_cleanup@@YAXPEAUstbtt__hheap@@PEAX@Z
xdata	ENDS
;	COMDAT xdata
xdata	SEGMENT
$unwind$?stbtt__hheap_cleanup@@YAXPEAUstbtt__hheap@@PEAX@Z DQ 00000420400010401r ; 3.58617e-310
xdata	ENDS
;	COMDAT xdata
xdata	SEGMENT
$unwind$?stbtt__new_active@@YAPEAUstbtt__active_edge@@PEAUstbtt__hheap@@PEAUstbtt__edge@@HMPEAX@Z DQ 00002681b00081b01r ; 3.34688e-309
	DQ	00008340f0009640fr		; 1.14082e-308
	DD	0700b520fH
xdata	ENDS
;	COMDAT xdata
xdata	SEGMENT
$chain$7$?stbtt__handle_clipped_edge@@YAXPEAMHPEAUstbtt__active_edge@@MMMM@Z DD 021H
	DD	imagerel ?stbtt__handle_clipped_edge@@YAXPEAMHPEAUstbtt__active_edge@@MMMM@Z
	DD	imagerel ?stbtt__handle_clipped_edge@@YAXPEAMHPEAUstbtt__active_edge@@MMMM@Z+27
	DD	imagerel $unwind$?stbtt__handle_clipped_edge@@YAXPEAMHPEAUstbtt__active_edge@@MMMM@Z
xdata	ENDS
;	COMDAT xdata
xdata	SEGMENT
$chain$6$?stbtt__handle_clipped_edge@@YAXPEAMHPEAUstbtt__active_edge@@MMMM@Z DQ 00001780000020021r ; 2.04255e-309
	DD	imagerel ?stbtt__handle_clipped_edge@@YAXPEAMHPEAUstbtt__active_edge@@MMMM@Z
	DD	imagerel ?stbtt__handle_clipped_edge@@YAXPEAMHPEAUstbtt__active_edge@@MMMM@Z+27
	DD	imagerel $unwind$?stbtt__handle_clipped_edge@@YAXPEAMHPEAUstbtt__active_edge@@MMMM@Z
xdata	ENDS
;	COMDAT xdata
xdata	SEGMENT
$chain$5$?stbtt__handle_clipped_edge@@YAXPEAMHPEAUstbtt__active_edge@@MMMM@Z DQ 00000880000040021r ; 7.38794e-310
	DD	017800H
	DD	imagerel ?stbtt__handle_clipped_edge@@YAXPEAMHPEAUstbtt__active_edge@@MMMM@Z
	DD	imagerel ?stbtt__handle_clipped_edge@@YAXPEAMHPEAUstbtt__active_edge@@MMMM@Z+27
	DD	imagerel $unwind$?stbtt__handle_clipped_edge@@YAXPEAMHPEAUstbtt__active_edge@@MMMM@Z
xdata	ENDS
;	COMDAT xdata
xdata	SEGMENT
$chain$4$?stbtt__handle_clipped_edge@@YAXPEAMHPEAUstbtt__active_edge@@MMMM@Z DQ 00000880000060021r ; 7.38794e-310
	DQ	00002680000017800r		; 3.3463e-309
	DD	imagerel ?stbtt__handle_clipped_edge@@YAXPEAMHPEAUstbtt__active_edge@@MMMM@Z
	DD	imagerel ?stbtt__handle_clipped_edge@@YAXPEAMHPEAUstbtt__active_edge@@MMMM@Z+27
	DD	imagerel $unwind$?stbtt__handle_clipped_edge@@YAXPEAMHPEAUstbtt__active_edge@@MMMM@Z
xdata	ENDS
;	COMDAT xdata
xdata	SEGMENT
$chain$2$?stbtt__handle_clipped_edge@@YAXPEAMHPEAUstbtt__active_edge@@MMMM@Z DQ 00002683200063221r ; 3.34736e-309
	DQ	00001780500008819r		; 2.04265e-309
	DD	imagerel ?stbtt__handle_clipped_edge@@YAXPEAMHPEAUstbtt__active_edge@@MMMM@Z
	DD	imagerel ?stbtt__handle_clipped_edge@@YAXPEAMHPEAUstbtt__active_edge@@MMMM@Z+27
	DD	imagerel $unwind$?stbtt__handle_clipped_edge@@YAXPEAMHPEAUstbtt__active_edge@@MMMM@Z
xdata	ENDS
;	COMDAT xdata
xdata	SEGMENT
$unwind$?stbtt__handle_clipped_edge@@YAXPEAMHPEAUstbtt__active_edge@@MMMM@Z DQ 00000620400010401r ; 5.32451e-310
xdata	ENDS
;	COMDAT xdata
xdata	SEGMENT
$chain$8$?stbtt__fill_active_edges_new@@YAXPEAM0HPEAUstbtt__active_edge@@M@Z DD 021H
	DD	imagerel ?stbtt__fill_active_edges_new@@YAXPEAM0HPEAUstbtt__active_edge@@M@Z
	DD	imagerel ?stbtt__fill_active_edges_new@@YAXPEAM0HPEAUstbtt__active_edge@@M@Z+105
	DD	imagerel $unwind$?stbtt__fill_active_edges_new@@YAXPEAM0HPEAUstbtt__active_edge@@M@Z
xdata	ENDS
;	COMDAT xdata
xdata	SEGMENT
$chain$7$?stbtt__fill_active_edges_new@@YAXPEAM0HPEAUstbtt__active_edge@@M@Z DQ 00004f80600020621r ; 6.91002e-309
	DD	imagerel ?stbtt__fill_active_edges_new@@YAXPEAM0HPEAUstbtt__active_edge@@M@Z
	DD	imagerel ?stbtt__fill_active_edges_new@@YAXPEAM0HPEAUstbtt__active_edge@@M@Z+105
	DD	imagerel $unwind$?stbtt__fill_active_edges_new@@YAXPEAM0HPEAUstbtt__active_edge@@M@Z
xdata	ENDS
;	COMDAT xdata
xdata	SEGMENT
$unwind$?stbtt__fill_active_edges_new@@YAXPEAM0HPEAUstbtt__active_edge@@M@Z DQ 00006d86900176901r ; 9.51963e-309
	DQ	00009a85e0007c863r		; 1.34307e-308
	DQ	0000b8854000a9859r		; 1.6038e-308
	DQ	0000d6846000c784fr		; 1.86452e-308
	DQ	00008b8280005e83er		; 1.21258e-308
	DQ	0001c0118001e3418r		; 3.89447e-308
	DD	07011H
xdata	ENDS
;	COMDAT xdata
xdata	SEGMENT
$chain$17$?stbtt__rasterize_sorted_edges@@YAXPEAUstbtt__bitmap@@PEAUstbtt__edge@@HHHHPEAX@Z DD 021H
	DD	imagerel ?stbtt__rasterize_sorted_edges@@YAXPEAUstbtt__bitmap@@PEAUstbtt__edge@@HHHHPEAX@Z
	DD	imagerel ?stbtt__rasterize_sorted_edges@@YAXPEAUstbtt__bitmap@@PEAUstbtt__edge@@HHHHPEAX@Z+31
	DD	imagerel $unwind$?stbtt__rasterize_sorted_edges@@YAXPEAUstbtt__bitmap@@PEAUstbtt__edge@@HHHHPEAX@Z
xdata	ENDS
;	COMDAT xdata
xdata	SEGMENT
$chain$16$?stbtt__rasterize_sorted_edges@@YAXPEAUstbtt__bitmap@@PEAUstbtt__edge@@HHHHPEAX@Z DQ 00060f40000020021r ; 7.54439e-307
	DD	imagerel ?stbtt__rasterize_sorted_edges@@YAXPEAUstbtt__bitmap@@PEAUstbtt__edge@@HHHHPEAX@Z+31
	DD	imagerel ?stbtt__rasterize_sorted_edges@@YAXPEAUstbtt__bitmap@@PEAUstbtt__edge@@HHHHPEAX@Z+35
	DD	imagerel $chain$0$?stbtt__rasterize_sorted_edges@@YAXPEAUstbtt__bitmap@@PEAUstbtt__edge@@HHHHPEAX@Z
xdata	ENDS
;	COMDAT xdata
xdata	SEGMENT
$chain$15$?stbtt__rasterize_sorted_edges@@YAXPEAUstbtt__bitmap@@PEAUstbtt__edge@@HHHHPEAX@Z DD 021H
	DD	imagerel ?stbtt__rasterize_sorted_edges@@YAXPEAUstbtt__bitmap@@PEAUstbtt__edge@@HHHHPEAX@Z+35
	DD	imagerel ?stbtt__rasterize_sorted_edges@@YAXPEAUstbtt__bitmap@@PEAUstbtt__edge@@HHHHPEAX@Z+220
	DD	imagerel $chain$7$?stbtt__rasterize_sorted_edges@@YAXPEAUstbtt__bitmap@@PEAUstbtt__edge@@HHHHPEAX@Z
xdata	ENDS
;	COMDAT xdata
xdata	SEGMENT
$chain$14$?stbtt__rasterize_sorted_edges@@YAXPEAUstbtt__bitmap@@PEAUstbtt__edge@@HHHHPEAX@Z DQ 00028d85c000e5c21r ; 6.91029e-308
	DQ	0002ab8380029c84ar		; 7.43164e-308
	DQ	0002d8819002ba826r		; 8.21376e-308
	DQ	0002f6808002e7810r		; 8.73519e-308
	DD	imagerel ?stbtt__rasterize_sorted_edges@@YAXPEAUstbtt__bitmap@@PEAUstbtt__edge@@HHHHPEAX@Z+35
	DD	imagerel ?stbtt__rasterize_sorted_edges@@YAXPEAUstbtt__bitmap@@PEAUstbtt__edge@@HHHHPEAX@Z+220
	DD	imagerel $chain$7$?stbtt__rasterize_sorted_edges@@YAXPEAUstbtt__bitmap@@PEAUstbtt__edge@@HHHHPEAX@Z
xdata	ENDS
;	COMDAT xdata
xdata	SEGMENT
$chain$7$?stbtt__rasterize_sorted_edges@@YAXPEAUstbtt__bitmap@@PEAUstbtt__edge@@HHHHPEAX@Z DQ 0002c9823000e2321r ; 7.95305e-308
	DQ	00061e41a0060f41er		; 7.96177e-307
	DQ	00063c40f0062d416r		; 8.7961e-307
	DQ	00065540400647408r		; 9.49136e-307
	DD	imagerel ?stbtt__rasterize_sorted_edges@@YAXPEAUstbtt__bitmap@@PEAUstbtt__edge@@HHHHPEAX@Z+31
	DD	imagerel ?stbtt__rasterize_sorted_edges@@YAXPEAUstbtt__bitmap@@PEAUstbtt__edge@@HHHHPEAX@Z+35
	DD	imagerel $chain$0$?stbtt__rasterize_sorted_edges@@YAXPEAUstbtt__bitmap@@PEAUstbtt__edge@@HHHHPEAX@Z
xdata	ENDS
;	COMDAT xdata
xdata	SEGMENT
$chain$0$?stbtt__rasterize_sorted_edges@@YAXPEAUstbtt__bitmap@@PEAUstbtt__edge@@HHHHPEAX@Z DQ 0006b340400020421r ; 1.21058e-306
	DD	imagerel ?stbtt__rasterize_sorted_edges@@YAXPEAUstbtt__bitmap@@PEAUstbtt__edge@@HHHHPEAX@Z
	DD	imagerel ?stbtt__rasterize_sorted_edges@@YAXPEAUstbtt__bitmap@@PEAUstbtt__edge@@HHHHPEAX@Z+31
	DD	imagerel $unwind$?stbtt__rasterize_sorted_edges@@YAXPEAUstbtt__bitmap@@PEAUstbtt__edge@@HHHHPEAX@Z
xdata	ENDS
;	COMDAT xdata
xdata	SEGMENT
$unwind$?stbtt__rasterize_sorted_edges@@YAXPEAUstbtt__bitmap@@PEAUstbtt__edge@@HHHHPEAX@Z DQ 00066010b00031d19r ; 9.79214e-307
	DD	06004H
	DD	imagerel __GSHandlerCheck
	DD	0270H
xdata	ENDS
;	COMDAT xdata
xdata	SEGMENT
$chain$1$?stbtt__sort_edges_ins_sort@@YAXPEAUstbtt__edge@@H@Z DD 021H
	DD	imagerel ?stbtt__sort_edges_ins_sort@@YAXPEAUstbtt__edge@@H@Z
	DD	imagerel ?stbtt__sort_edges_ins_sort@@YAXPEAUstbtt__edge@@H@Z+31
	DD	imagerel $unwind$?stbtt__sort_edges_ins_sort@@YAXPEAUstbtt__edge@@H@Z
xdata	ENDS
;	COMDAT xdata
xdata	SEGMENT
$chain$0$?stbtt__sort_edges_ins_sort@@YAXPEAUstbtt__edge@@H@Z DQ 00004340500020521r ; 5.84527e-309
	DD	imagerel ?stbtt__sort_edges_ins_sort@@YAXPEAUstbtt__edge@@H@Z
	DD	imagerel ?stbtt__sort_edges_ins_sort@@YAXPEAUstbtt__edge@@H@Z+31
	DD	imagerel $unwind$?stbtt__sort_edges_ins_sort@@YAXPEAUstbtt__edge@@H@Z
xdata	ENDS
;	COMDAT xdata
xdata	SEGMENT
$unwind$?stbtt__sort_edges_ins_sort@@YAXPEAUstbtt__edge@@H@Z DQ 00000420d00011c19r ; 3.58808e-310
	DD	imagerel __GSHandlerCheck
	DD	018H
xdata	ENDS
;	COMDAT xdata
xdata	SEGMENT
$chain$4$?stbtt__sort_edges_quicksort@@YAXPEAUstbtt__edge@@H@Z DD 021H
	DD	imagerel ?stbtt__sort_edges_quicksort@@YAXPEAUstbtt__edge@@H@Z
	DD	imagerel ?stbtt__sort_edges_quicksort@@YAXPEAUstbtt__edge@@H@Z+15
	DD	imagerel $unwind$?stbtt__sort_edges_quicksort@@YAXPEAUstbtt__edge@@H@Z
xdata	ENDS
;	COMDAT xdata
xdata	SEGMENT
$chain$3$?stbtt__sort_edges_quicksort@@YAXPEAUstbtt__edge@@H@Z DQ 00004f41900081921r ; 6.8887e-309
	DQ	00009740c000ae414r		; 1.31464e-308
	DD	083405H
	DD	imagerel ?stbtt__sort_edges_quicksort@@YAXPEAUstbtt__edge@@H@Z
	DD	imagerel ?stbtt__sort_edges_quicksort@@YAXPEAUstbtt__edge@@H@Z+15
	DD	imagerel $unwind$?stbtt__sort_edges_quicksort@@YAXPEAUstbtt__edge@@H@Z
xdata	ENDS
;	COMDAT xdata
xdata	SEGMENT
$unwind$?stbtt__sort_edges_quicksort@@YAXPEAUstbtt__edge@@H@Z DQ 0600b420f00030f01r ; 4.56838e+154
	DD	0500aH
xdata	ENDS
;	COMDAT xdata
xdata	SEGMENT
$unwind$?stbtt__sort_edges@@YAXPEAUstbtt__edge@@H@Z DQ 0000c340a00041919r ; 1.69707e-308
	DD	07006720aH
	DD	imagerel __GSHandlerCheck
	DD	038H
xdata	ENDS
;	COMDAT xdata
xdata	SEGMENT
$chain$4$?stbtt__rasterize@@YAXPEAUstbtt__bitmap@@PEAUstbtt__point@@PEAHHMMMMHHHPEAX@Z DD 021H
	DD	imagerel ?stbtt__rasterize@@YAXPEAUstbtt__bitmap@@PEAUstbtt__point@@PEAHHMMMMHHHPEAX@Z
