; Listing generated by Microsoft (R) Optimizing Compiler Version 19.36.32535.0 

include listing.inc

INCLUDELIB OLDNAMES

PUBLIC	??_C@_07EKMDLNDL@windows@			; `string'
PUBLIC	??_C@_05MNMBENCC@cocoa@				; `string'
PUBLIC	??_C@_03JDMECAIF@x11@				; `string'
PUBLIC	??_C@_04JHINAIJO@DIVE@				; `string'
PUBLIC	??_C@_04PIFCDHBF@VMAN@				; `string'
PUBLIC	??_C@_0BA@GCPDENAN@imgui_impl_sdl2@		; `string'
PUBLIC	??_C@_0BN@MCLHEGDM@SDL_MOUSE_FOCUS_CLICKTHROUGH@ ; `string'
PUBLIC	??_C@_01GBGANLPD@0@				; `string'
PUBLIC	??_C@_0BH@LGNEPFCN@SDL_MOUSE_AUTO_CAPTURE@	; `string'
PUBLIC	??_C@_0N@GFDLLEAC@No?5Title?5Yet@		; `string'
EXTRN	__imp_GetWindowLongW:PROC
EXTRN	__imp_SDL_GameControllerGetAxis:PROC
EXTRN	__imp_SDL_WarpMouseGlobal:PROC
EXTRN	__imp_SDL_GetKeyboardFocus:PROC
EXTRN	__imp_SDL_GetPerformanceFrequency:PROC
EXTRN	__imp_SDL_CreateSystemCursor:PROC
EXTRN	__imp_SDL_SetTextInputRect:PROC
EXTRN	__imp_SDL_GameControllerGetButton:PROC
EXTRN	__imp_SDL_SetWindowTitle:PROC
EXTRN	__imp_SDL_FreeCursor:PROC
EXTRN	__imp_SDL_GetDisplayDPI:PROC
EXTRN	__imp_SDL_SetCursor:PROC
EXTRN	__imp_SDL_GetWindowFlags:PROC
EXTRN	__imp_ShowWindow:PROC
EXTRN	__imp_SDL_Vulkan_CreateSurface:PROC
EXTRN	__imp_SDL_ShowWindow:PROC
EXTRN	__imp_SDL_WarpMouseInWindow:PROC
EXTRN	__imp_SDL_SetWindowOpacity:PROC
EXTRN	__imp_SDL_CaptureMouse:PROC
EXTRN	__imp_SDL_GetClipboardText:PROC
EXTRN	__imp_SDL_GetCurrentVideoDriver:PROC
EXTRN	__imp_SDL_SetWindowPosition:PROC
EXTRN	__imp_SDL_SetClipboardText:PROC
EXTRN	__imp_SDL_IsGameController:PROC
EXTRN	__imp_SDL_GameControllerOpen:PROC
EXTRN	__imp_SDL_ShowCursor:PROC
EXTRN	__imp_SDL_GetWindowWMInfo:PROC
EXTRN	__imp_SDL_GameControllerClose:PROC
EXTRN	__imp_SDL_GetNumVideoDisplays:PROC
EXTRN	__imp_SDL_NumJoysticks:PROC
EXTRN	__imp_SetWindowLongW:PROC
EXTRN	__imp_SDL_GetDisplayBounds:PROC
EXTRN	__imp_SDL_GetWindowFromID:PROC
EXTRN	__imp_SDL_GL_GetDrawableSize:PROC
EXTRN	__imp_SDL_GetDisplayUsableBounds:PROC
EXTRN	__imp_SDL_GetRendererOutputSize:PROC
EXTRN	__imp_SDL_free:PROC
EXTRN	__imp_SDL_SetWindowSize:PROC
EXTRN	__imp_SDL_RaiseWindow:PROC
EXTRN	__imp_SDL_GetPerformanceCounter:PROC
;	COMDAT ??_C@_0N@GFDLLEAC@No?5Title?5Yet@
CONST	SEGMENT
??_C@_0N@GFDLLEAC@No?5Title?5Yet@ DB 'No Title Yet', 00H ; `string'
CONST	ENDS
;	COMDAT ??_C@_0BH@LGNEPFCN@SDL_MOUSE_AUTO_CAPTURE@
CONST	SEGMENT
??_C@_0BH@LGNEPFCN@SDL_MOUSE_AUTO_CAPTURE@ DB 'SDL_MOUSE_AUTO_CAPTURE', 00H ; `string'
CONST	ENDS
;	COMDAT ??_C@_01GBGANLPD@0@
CONST	SEGMENT
??_C@_01GBGANLPD@0@ DB '0', 00H				; `string'
CONST	ENDS
;	COMDAT ??_C@_0BN@MCLHEGDM@SDL_MOUSE_FOCUS_CLICKTHROUGH@
CONST	SEGMENT
??_C@_0BN@MCLHEGDM@SDL_MOUSE_FOCUS_CLICKTHROUGH@ DB 'SDL_MOUSE_FOCUS_CLIC'
	DB	'KTHROUGH', 00H				; `string'
CONST	ENDS
;	COMDAT ??_C@_0BA@GCPDENAN@imgui_impl_sdl2@
CONST	SEGMENT
??_C@_0BA@GCPDENAN@imgui_impl_sdl2@ DB 'imgui_impl_sdl2', 00H ; `string'
CONST	ENDS
;	COMDAT ??_C@_04PIFCDHBF@VMAN@
CONST	SEGMENT
??_C@_04PIFCDHBF@VMAN@ DB 'VMAN', 00H			; `string'
CONST	ENDS
;	COMDAT ??_C@_04JHINAIJO@DIVE@
CONST	SEGMENT
??_C@_04JHINAIJO@DIVE@ DB 'DIVE', 00H			; `string'
CONST	ENDS
;	COMDAT ??_C@_03JDMECAIF@x11@
CONST	SEGMENT
??_C@_03JDMECAIF@x11@ DB 'x11', 00H			; `string'
CONST	ENDS
;	COMDAT ??_C@_05MNMBENCC@cocoa@
CONST	SEGMENT
??_C@_05MNMBENCC@cocoa@ DB 'cocoa', 00H			; `string'
CONST	ENDS
;	COMDAT ??_C@_07EKMDLNDL@windows@
CONST	SEGMENT
??_C@_07EKMDLNDL@windows@ DB 'windows', 00H		; `string'
PUBLIC	??_GImGui_ImplSDL2_ViewportData@@QEAAPEAXI@Z	; ImGui_ImplSDL2_ViewportData::`scalar deleting destructor'
PUBLIC	??1ImGui_ImplSDL2_Data@@QEAA@XZ			; ImGui_ImplSDL2_Data::~ImGui_ImplSDL2_Data
PUBLIC	??_GImGui_ImplSDL2_Data@@QEAAPEAXI@Z		; ImGui_ImplSDL2_Data::`scalar deleting destructor'
PUBLIC	??$IM_DELETE@UImGui_ImplSDL2_ViewportData@@@@YAXPEAUImGui_ImplSDL2_ViewportData@@@Z ; IM_DELETE<ImGui_ImplSDL2_ViewportData>
PUBLIC	??$IM_DELETE@UImGui_ImplSDL2_Data@@@@YAXPEAUImGui_ImplSDL2_Data@@@Z ; IM_DELETE<ImGui_ImplSDL2_Data>
PUBLIC	?_grow_capacity@?$ImVector@UImGuiPlatformMonitor@@@@QEBAHH@Z ; ImVector<ImGuiPlatformMonitor>::_grow_capacity
PUBLIC	?reserve@?$ImVector@UImGuiPlatformMonitor@@@@QEAAXH@Z ; ImVector<ImGuiPlatformMonitor>::reserve
PUBLIC	?_grow_capacity@?$ImVector@PEAU_SDL_GameController@@@@QEBAHH@Z ; ImVector<_SDL_GameController *>::_grow_capacity
PUBLIC	?reserve@?$ImVector@PEAU_SDL_GameController@@@@QEAAXH@Z ; ImVector<_SDL_GameController *>::reserve
PUBLIC	?resize@?$ImVector@UImGuiPlatformMonitor@@@@QEAAXH@Z ; ImVector<ImGuiPlatformMonitor>::resize
PUBLIC	?push_back@?$ImVector@UImGuiPlatformMonitor@@@@QEAAXAEBUImGuiPlatformMonitor@@@Z ; ImVector<ImGuiPlatformMonitor>::push_back
PUBLIC	??0?$ImVector@PEAU_SDL_GameController@@@@QEAA@XZ ; ImVector<_SDL_GameController *>::ImVector<_SDL_GameController *>
PUBLIC	??1?$ImVector@PEAU_SDL_GameController@@@@QEAA@XZ ; ImVector<_SDL_GameController *>::~ImVector<_SDL_GameController *>
PUBLIC	?begin@?$ImVector@PEAU_SDL_GameController@@@@QEAAPEAPEAU_SDL_GameController@@XZ ; ImVector<_SDL_GameController *>::begin
PUBLIC	?end@?$ImVector@PEAU_SDL_GameController@@@@QEAAPEAPEAU_SDL_GameController@@XZ ; ImVector<_SDL_GameController *>::end
PUBLIC	?resize@?$ImVector@PEAU_SDL_GameController@@@@QEAAXH@Z ; ImVector<_SDL_GameController *>::resize
PUBLIC	?push_back@?$ImVector@PEAU_SDL_GameController@@@@QEAAXAEBQEAU_SDL_GameController@@@Z ; ImVector<_SDL_GameController *>::push_back
PUBLIC	??1ImGui_ImplSDL2_ViewportData@@QEAA@XZ		; ImGui_ImplSDL2_ViewportData::~ImGui_ImplSDL2_ViewportData
PUBLIC	??0ImGui_ImplSDL2_ViewportData@@QEAA@XZ		; ImGui_ImplSDL2_ViewportData::ImGui_ImplSDL2_ViewportData
PUBLIC	??0ImGui_ImplSDL2_Data@@QEAA@XZ			; ImGui_ImplSDL2_Data::ImGui_ImplSDL2_Data
PUBLIC	??0ImGuiPlatformMonitor@@QEAA@XZ		; ImGuiPlatformMonitor::ImGuiPlatformMonitor
PUBLIC	??0ImVec2@@QEAA@XZ				; ImVec2::ImVec2
PUBLIC	?ImGui_ImplSDL2_Shutdown@@YAXXZ			; ImGui_ImplSDL2_Shutdown
PUBLIC	?ImGui_ImplSDL2_InitForOpenGL@@YA_NPEAUSDL_Window@@PEAX@Z ; ImGui_ImplSDL2_InitForOpenGL
PUBLIC	?ImGui_ImplSDL2_NewFrame@@YAXXZ			; ImGui_ImplSDL2_NewFrame
PUBLIC	?ImGui_ImplSDL2_ProcessEvent@@YA_NPEBTSDL_Event@@@Z ; ImGui_ImplSDL2_ProcessEvent
;	COMDAT ?frequency@?1??ImGui_ImplSDL2_NewFrame@@YAXXZ@4_KA
_BSS	SEGMENT
?frequency@?1??ImGui_ImplSDL2_NewFrame@@YAXXZ@4_KA DQ 01H DUP (?) ; `ImGui_ImplSDL2_NewFrame'::`2'::frequency
_BSS	ENDS
;	COMDAT ?$TSS0@?1??ImGui_ImplSDL2_NewFrame@@YAXXZ@4HA
_BSS	SEGMENT
?$TSS0@?1??ImGui_ImplSDL2_NewFrame@@YAXXZ@4HA DD 01H DUP (?) ; `ImGui_ImplSDL2_NewFrame'::`2'::$TSS0
_BSS	ENDS
;	COMDAT pdata
pdata	SEGMENT
$pdata$??_GImGui_ImplSDL2_Data@@QEAAPEAXI@Z DD imagerel $LN9@scalar
	DD	imagerel $LN9@scalar+30
	DD	imagerel $unwind$??_GImGui_ImplSDL2_Data@@QEAAPEAXI@Z
pdata	ENDS
;	COMDAT pdata
pdata	SEGMENT
$pdata$??$IM_DELETE@UImGui_ImplSDL2_Data@@@@YAXPEAUImGui_ImplSDL2_Data@@@Z DD imagerel $LN29@IM_DELETE
	DD	imagerel $LN29@IM_DELETE+153
	DD	imagerel $unwind$??$IM_DELETE@UImGui_ImplSDL2_Data@@@@YAXPEAUImGui_ImplSDL2_Data@@@Z
pdata	ENDS
;	COMDAT pdata
pdata	SEGMENT
$pdata$?reserve@?$ImVector@UImGuiPlatformMonitor@@@@QEAAXH@Z DD imagerel $LN24@reserve
	DD	imagerel $LN24@reserve+29
	DD	imagerel $unwind$?reserve@?$ImVector@UImGuiPlatformMonitor@@@@QEAAXH@Z
pdata	ENDS
;	COMDAT pdata
pdata	SEGMENT
$pdata$0$?reserve@?$ImVector@UImGuiPlatformMonitor@@@@QEAAXH@Z DD imagerel $LN24@reserve+29
	DD	imagerel $LN24@reserve+217
	DD	imagerel $chain$0$?reserve@?$ImVector@UImGuiPlatformMonitor@@@@QEAAXH@Z
pdata	ENDS
;	COMDAT pdata
pdata	SEGMENT
$pdata$1$?reserve@?$ImVector@UImGuiPlatformMonitor@@@@QEAAXH@Z DD imagerel $LN24@reserve+217
	DD	imagerel $LN24@reserve+228
	DD	imagerel $chain$1$?reserve@?$ImVector@UImGuiPlatformMonitor@@@@QEAAXH@Z
pdata	ENDS
;	COMDAT pdata
pdata	SEGMENT
$pdata$?reserve@?$ImVector@PEAU_SDL_GameController@@@@QEAAXH@Z DD imagerel $LN24@reserve
	DD	imagerel $LN24@reserve+28
	DD	imagerel $unwind$?reserve@?$ImVector@PEAU_SDL_GameController@@@@QEAAXH@Z
pdata	ENDS
;	COMDAT pdata
pdata	SEGMENT
$pdata$0$?reserve@?$ImVector@PEAU_SDL_GameController@@@@QEAAXH@Z DD imagerel $LN24@reserve+28
	DD	imagerel $LN24@reserve+212
	DD	imagerel $chain$0$?reserve@?$ImVector@PEAU_SDL_GameController@@@@QEAAXH@Z
pdata	ENDS
;	COMDAT pdata
pdata	SEGMENT
$pdata$1$?reserve@?$ImVector@PEAU_SDL_GameController@@@@QEAAXH@Z DD imagerel $LN24@reserve+212
	DD	imagerel $LN24@reserve+223
	DD	imagerel $chain$1$?reserve@?$ImVector@PEAU_SDL_GameController@@@@QEAAXH@Z
pdata	ENDS
;	COMDAT pdata
pdata	SEGMENT
$pdata$?resize@?$ImVector@UImGuiPlatformMonitor@@@@QEAAXH@Z DD imagerel $LN11@resize
	DD	imagerel $LN11@resize+52
	DD	imagerel $unwind$?resize@?$ImVector@UImGuiPlatformMonitor@@@@QEAAXH@Z
pdata	ENDS
;	COMDAT pdata
pdata	SEGMENT
$pdata$?push_back@?$ImVector@UImGuiPlatformMonitor@@@@QEAAXAEBUImGuiPlatformMonitor@@@Z DD imagerel $LN11@push_back
	DD	imagerel $LN11@push_back+120
	DD	imagerel $unwind$?push_back@?$ImVector@UImGuiPlatformMonitor@@@@QEAAXAEBUImGuiPlatformMonitor@@@Z
pdata	ENDS
;	COMDAT pdata
pdata	SEGMENT
$pdata$??1?$ImVector@PEAU_SDL_GameController@@@@QEAA@XZ DD imagerel $LN19@ImVector
	DD	imagerel $LN19@ImVector+137
	DD	imagerel $unwind$??1?$ImVector@PEAU_SDL_GameController@@@@QEAA@XZ
pdata	ENDS
;	COMDAT pdata
pdata	SEGMENT
$pdata$?resize@?$ImVector@PEAU_SDL_GameController@@@@QEAAXH@Z DD imagerel $LN11@resize
	DD	imagerel $LN11@resize+52
	DD	imagerel $unwind$?resize@?$ImVector@PEAU_SDL_GameController@@@@QEAAXH@Z
pdata	ENDS
;	COMDAT pdata
pdata	SEGMENT
$pdata$?push_back@?$ImVector@PEAU_SDL_GameController@@@@QEAAXAEBQEAU_SDL_GameController@@@Z DD imagerel $LN11@push_back
	DD	imagerel $LN11@push_back+95
	DD	imagerel $unwind$?push_back@?$ImVector@PEAU_SDL_GameController@@@@QEAAXAEBQEAU_SDL_GameController@@@Z
pdata	ENDS
;	COMDAT pdata
pdata	SEGMENT
$pdata$?ImGui_ImplSDL2_ShutdownPlatformInterface@@YAXXZ DD imagerel ?ImGui_ImplSDL2_ShutdownPlatformInterface@@YAXXZ
	DD	imagerel ?ImGui_ImplSDL2_ShutdownPlatformInterface@@YAXXZ+68
	DD	imagerel $unwind$?ImGui_ImplSDL2_ShutdownPlatformInterface@@YAXXZ
pdata	ENDS
;	COMDAT pdata
pdata	SEGMENT
$pdata$?ImGui_ImplSDL2_InitPlatformInterface@@YAXPEAUSDL_Window@@PEAX@Z DD imagerel ?ImGui_ImplSDL2_InitPlatformInterface@@YAXPEAUSDL_Window@@PEAX@Z
	DD	imagerel ?ImGui_ImplSDL2_InitPlatformInterface@@YAXPEAUSDL_Window@@PEAX@Z+455
	DD	imagerel $unwind$?ImGui_ImplSDL2_InitPlatformInterface@@YAXPEAUSDL_Window@@PEAX@Z
pdata	ENDS
;	COMDAT pdata
pdata	SEGMENT
$pdata$?ImGui_ImplSDL2_CreateVkSurface@@YAHPEAUImGuiViewport@@_KPEBXPEA_K@Z DD imagerel ?ImGui_ImplSDL2_CreateVkSurface@@YAHPEAUImGuiViewport@@_KPEBXPEA_K@Z
	DD	imagerel ?ImGui_ImplSDL2_CreateVkSurface@@YAHPEAUImGuiViewport@@_KPEBXPEA_K@Z+34
	DD	imagerel $unwind$?ImGui_ImplSDL2_CreateVkSurface@@YAHPEAUImGuiViewport@@_KPEBXPEA_K@Z
pdata	ENDS
;	COMDAT pdata
pdata	SEGMENT
$pdata$?ImGui_ImplSDL2_SwapBuffers@@YAXPEAUImGuiViewport@@PEAX@Z DD imagerel ?ImGui_ImplSDL2_SwapBuffers@@YAXPEAUImGuiViewport@@PEAX@Z
	DD	imagerel ?ImGui_ImplSDL2_SwapBuffers@@YAXPEAUImGuiViewport@@PEAX@Z+49
	DD	imagerel $unwind$?ImGui_ImplSDL2_SwapBuffers@@YAXPEAUImGuiViewport@@PEAX@Z
pdata	ENDS
;	COMDAT pdata
pdata	SEGMENT
$pdata$?ImGui_ImplSDL2_GetWindowMinimized@@YA_NPEAUImGuiViewport@@@Z DD imagerel ?ImGui_ImplSDL2_GetWindowMinimized@@YA_NPEAUImGuiViewport@@@Z
	DD	imagerel ?ImGui_ImplSDL2_GetWindowMinimized@@YA_NPEAUImGuiViewport@@@Z+27
	DD	imagerel $unwind$?ImGui_ImplSDL2_GetWindowMinimized@@YA_NPEAUImGuiViewport@@@Z
pdata	ENDS
;	COMDAT pdata
pdata	SEGMENT
$pdata$?ImGui_ImplSDL2_GetWindowFocus@@YA_NPEAUImGuiViewport@@@Z DD imagerel ?ImGui_ImplSDL2_GetWindowFocus@@YA_NPEAUImGuiViewport@@@Z
	DD	imagerel ?ImGui_ImplSDL2_GetWindowFocus@@YA_NPEAUImGuiViewport@@@Z+27
	DD	imagerel $unwind$?ImGui_ImplSDL2_GetWindowFocus@@YA_NPEAUImGuiViewport@@@Z
pdata	ENDS
;	COMDAT pdata
pdata	SEGMENT
$pdata$?ImGui_ImplSDL2_GetWindowSize@@YA?AUImVec2@@PEAUImGuiViewport@@@Z DD imagerel ?ImGui_ImplSDL2_GetWindowSize@@YA?AUImVec2@@PEAUImGuiViewport@@@Z
	DD	imagerel ?ImGui_ImplSDL2_GetWindowSize@@YA?AUImVec2@@PEAUImGuiViewport@@@Z+106
	DD	imagerel $unwind$?ImGui_ImplSDL2_GetWindowSize@@YA?AUImVec2@@PEAUImGuiViewport@@@Z
pdata	ENDS
;	COMDAT pdata
pdata	SEGMENT
$pdata$?ImGui_ImplSDL2_GetWindowPos@@YA?AUImVec2@@PEAUImGuiViewport@@@Z DD imagerel ?ImGui_ImplSDL2_GetWindowPos@@YA?AUImVec2@@PEAUImGuiViewport@@@Z
	DD	imagerel ?ImGui_ImplSDL2_GetWindowPos@@YA?AUImVec2@@PEAUImGuiViewport@@@Z+106
	DD	imagerel $unwind$?ImGui_ImplSDL2_GetWindowPos@@YA?AUImVec2@@PEAUImGuiViewport@@@Z
pdata	ENDS
;	COMDAT pdata
pdata	SEGMENT
$pdata$?ImGui_ImplSDL2_ShowWindow@@YAXPEAUImGuiViewport@@@Z DD imagerel ?ImGui_ImplSDL2_ShowWindow@@YAXPEAUImGuiViewport@@@Z
	DD	imagerel ?ImGui_ImplSDL2_ShowWindow@@YAXPEAUImGuiViewport@@@Z+132
	DD	imagerel $unwind$?ImGui_ImplSDL2_ShowWindow@@YAXPEAUImGuiViewport@@@Z
pdata	ENDS
;	COMDAT pdata
pdata	SEGMENT
$pdata$?ImGui_ImplSDL2_DestroyWindow@@YAXPEAUImGuiViewport@@@Z DD imagerel ?ImGui_ImplSDL2_DestroyWindow@@YAXPEAUImGuiViewport@@@Z
	DD	imagerel ?ImGui_ImplSDL2_DestroyWindow@@YAXPEAUImGuiViewport@@@Z+247
	DD	imagerel $unwind$?ImGui_ImplSDL2_DestroyWindow@@YAXPEAUImGuiViewport@@@Z
pdata	ENDS
;	COMDAT pdata
pdata	SEGMENT
$pdata$?ImGui_ImplSDL2_CreateWindow@@YAXPEAUImGuiViewport@@@Z DD imagerel ?ImGui_ImplSDL2_CreateWindow@@YAXPEAUImGuiViewport@@@Z
	DD	imagerel ?ImGui_ImplSDL2_CreateWindow@@YAXPEAUImGuiViewport@@@Z+565
	DD	imagerel $unwind$?ImGui_ImplSDL2_CreateWindow@@YAXPEAUImGuiViewport@@@Z
pdata	ENDS
;	COMDAT pdata
pdata	SEGMENT
$pdata$?ImGui_ImplSDL2_UpdateMonitors@@YAXXZ DD imagerel ?ImGui_ImplSDL2_UpdateMonitors@@YAXXZ
	DD	imagerel ?ImGui_ImplSDL2_UpdateMonitors@@YAXXZ+132
	DD	imagerel $unwind$?ImGui_ImplSDL2_UpdateMonitors@@YAXXZ
pdata	ENDS
;	COMDAT pdata
pdata	SEGMENT
$pdata$0$?ImGui_ImplSDL2_UpdateMonitors@@YAXXZ DD imagerel ?ImGui_ImplSDL2_UpdateMonitors@@YAXXZ+132
	DD	imagerel ?ImGui_ImplSDL2_UpdateMonitors@@YAXXZ+455
	DD	imagerel $chain$0$?ImGui_ImplSDL2_UpdateMonitors@@YAXXZ
pdata	ENDS
;	COMDAT pdata
pdata	SEGMENT
$pdata$1$?ImGui_ImplSDL2_UpdateMonitors@@YAXXZ DD imagerel ?ImGui_ImplSDL2_UpdateMonitors@@YAXXZ+455
	DD	imagerel ?ImGui_ImplSDL2_UpdateMonitors@@YAXXZ+496
	DD	imagerel $chain$1$?ImGui_ImplSDL2_UpdateMonitors@@YAXXZ
pdata	ENDS
;	COMDAT pdata
pdata	SEGMENT
$pdata$?ImGui_ImplSDL2_UpdateGamepads@@YAXXZ DD imagerel ?ImGui_ImplSDL2_UpdateGamepads@@YAXXZ
	DD	imagerel ?ImGui_ImplSDL2_UpdateGamepads@@YAXXZ+80
	DD	imagerel $unwind$?ImGui_ImplSDL2_UpdateGamepads@@YAXXZ
pdata	ENDS
;	COMDAT pdata
pdata	SEGMENT
$pdata$2$?ImGui_ImplSDL2_UpdateGamepads@@YAXXZ DD imagerel ?ImGui_ImplSDL2_UpdateGamepads@@YAXXZ+80
	DD	imagerel ?ImGui_ImplSDL2_UpdateGamepads@@YAXXZ+243
	DD	imagerel $chain$2$?ImGui_ImplSDL2_UpdateGamepads@@YAXXZ
pdata	ENDS
;	COMDAT pdata
pdata	SEGMENT
$pdata$3$?ImGui_ImplSDL2_UpdateGamepads@@YAXXZ DD imagerel ?ImGui_ImplSDL2_UpdateGamepads@@YAXXZ+243
	DD	imagerel ?ImGui_ImplSDL2_UpdateGamepads@@YAXXZ+277
	DD	imagerel $chain$3$?ImGui_ImplSDL2_UpdateGamepads@@YAXXZ
pdata	ENDS
;	COMDAT pdata
pdata	SEGMENT
$pdata$7$?ImGui_ImplSDL2_UpdateGamepads@@YAXXZ DD imagerel ?ImGui_ImplSDL2_UpdateGamepads@@YAXXZ+277
	DD	imagerel ?ImGui_ImplSDL2_UpdateGamepads@@YAXXZ+2078
	DD	imagerel $chain$7$?ImGui_ImplSDL2_UpdateGamepads@@YAXXZ
pdata	ENDS
;	COMDAT pdata
pdata	SEGMENT
$pdata$8$?ImGui_ImplSDL2_UpdateGamepads@@YAXXZ DD imagerel ?ImGui_ImplSDL2_UpdateGamepads@@YAXXZ+2078
	DD	imagerel ?ImGui_ImplSDL2_UpdateGamepads@@YAXXZ+2102
	DD	imagerel $chain$8$?ImGui_ImplSDL2_UpdateGamepads@@YAXXZ
pdata	ENDS
;	COMDAT pdata
pdata	SEGMENT
$pdata$?ImGui_ImplSDL2_UpdateGamepadAnalog@@YAXPEAUImGui_ImplSDL2_Data@@AEAUImGuiIO@@W4ImGuiKey@@W4SDL_GameControllerAxis@@MM@Z DD imagerel ?ImGui_ImplSDL2_UpdateGamepadAnalog@@YAXPEAUImGui_ImplSDL2_Data@@AEAUImGuiIO@@W4ImGuiKey@@W4SDL_GameControllerAxis@@MM@Z
	DD	imagerel ?ImGui_ImplSDL2_UpdateGamepadAnalog@@YAXPEAUImGui_ImplSDL2_Data@@AEAUImGuiIO@@W4ImGuiKey@@W4SDL_GameControllerAxis@@MM@Z+77
	DD	imagerel $unwind$?ImGui_ImplSDL2_UpdateGamepadAnalog@@YAXPEAUImGui_ImplSDL2_Data@@AEAUImGuiIO@@W4ImGuiKey@@W4SDL_GameControllerAxis@@MM@Z
pdata	ENDS
;	COMDAT pdata
pdata	SEGMENT
$pdata$2$?ImGui_ImplSDL2_UpdateGamepadAnalog@@YAXPEAUImGui_ImplSDL2_Data@@AEAUImGuiIO@@W4ImGuiKey@@W4SDL_GameControllerAxis@@MM@Z DD imagerel ?ImGui_ImplSDL2_UpdateGamepadAnalog@@YAXPEAUImGui_ImplSDL2_Data@@AEAUImGuiIO@@W4ImGuiKey@@W4SDL_GameControllerAxis@@MM@Z+77
	DD	imagerel ?ImGui_ImplSDL2_UpdateGamepadAnalog@@YAXPEAUImGui_ImplSDL2_Data@@AEAUImGuiIO@@W4ImGuiKey@@W4SDL_GameControllerAxis@@MM@Z+211
	DD	imagerel $chain$2$?ImGui_ImplSDL2_UpdateGamepadAnalog@@YAXPEAUImGui_ImplSDL2_Data@@AEAUImGuiIO@@W4ImGuiKey@@W4SDL_GameControllerAxis@@MM@Z
pdata	ENDS
;	COMDAT pdata
pdata	SEGMENT
$pdata$3$?ImGui_ImplSDL2_UpdateGamepadAnalog@@YAXPEAUImGui_ImplSDL2_Data@@AEAUImGuiIO@@W4ImGuiKey@@W4SDL_GameControllerAxis@@MM@Z DD imagerel ?ImGui_ImplSDL2_UpdateGamepadAnalog@@YAXPEAUImGui_ImplSDL2_Data@@AEAUImGuiIO@@W4ImGuiKey@@W4SDL_GameControllerAxis@@MM@Z+211
	DD	imagerel ?ImGui_ImplSDL2_UpdateGamepadAnalog@@YAXPEAUImGui_ImplSDL2_Data@@AEAUImGuiIO@@W4ImGuiKey@@W4SDL_GameControllerAxis@@MM@Z+271
	DD	imagerel $chain$3$?ImGui_ImplSDL2_UpdateGamepadAnalog@@YAXPEAUImGui_ImplSDL2_Data@@AEAUImGuiIO@@W4ImGuiKey@@W4SDL_GameControllerAxis@@MM@Z
pdata	ENDS
;	COMDAT pdata
pdata	SEGMENT
$pdata$?ImGui_ImplSDL2_UpdateGamepadButton@@YAXPEAUImGui_ImplSDL2_Data@@AEAUImGuiIO@@W4ImGuiKey@@W4SDL_GameControllerButton@@@Z DD imagerel ?ImGui_ImplSDL2_UpdateGamepadButton@@YAXPEAUImGui_ImplSDL2_Data@@AEAUImGuiIO@@W4ImGuiKey@@W4SDL_GameControllerButton@@@Z
	DD	imagerel ?ImGui_ImplSDL2_UpdateGamepadButton@@YAXPEAUImGui_ImplSDL2_Data@@AEAUImGuiIO@@W4ImGuiKey@@W4SDL_GameControllerButton@@@Z+160
	DD	imagerel $unwind$?ImGui_ImplSDL2_UpdateGamepadButton@@YAXPEAUImGui_ImplSDL2_Data@@AEAUImGuiIO@@W4ImGuiKey@@W4SDL_GameControllerButton@@@Z
pdata	ENDS
;	COMDAT pdata
pdata	SEGMENT
$pdata$?ImGui_ImplSDL2_CloseGamepads@@YAXXZ DD imagerel ?ImGui_ImplSDL2_CloseGamepads@@YAXXZ
	DD	imagerel ?ImGui_ImplSDL2_CloseGamepads@@YAXXZ+41
	DD	imagerel $unwind$?ImGui_ImplSDL2_CloseGamepads@@YAXXZ
pdata	ENDS
;	COMDAT pdata
pdata	SEGMENT
$pdata$1$?ImGui_ImplSDL2_CloseGamepads@@YAXXZ DD imagerel ?ImGui_ImplSDL2_CloseGamepads@@YAXXZ+41
	DD	imagerel ?ImGui_ImplSDL2_CloseGamepads@@YAXXZ+95
	DD	imagerel $chain$1$?ImGui_ImplSDL2_CloseGamepads@@YAXXZ
pdata	ENDS
;	COMDAT pdata
pdata	SEGMENT
$pdata$2$?ImGui_ImplSDL2_CloseGamepads@@YAXXZ DD imagerel ?ImGui_ImplSDL2_CloseGamepads@@YAXXZ+95
	DD	imagerel ?ImGui_ImplSDL2_CloseGamepads@@YAXXZ+149
	DD	imagerel $chain$2$?ImGui_ImplSDL2_CloseGamepads@@YAXXZ
pdata	ENDS
;	COMDAT pdata
pdata	SEGMENT
$pdata$?ImGui_ImplSDL2_UpdateMouseCursor@@YAXXZ DD imagerel ?ImGui_ImplSDL2_UpdateMouseCursor@@YAXXZ
	DD	imagerel ?ImGui_ImplSDL2_UpdateMouseCursor@@YAXXZ+17
	DD	imagerel $unwind$?ImGui_ImplSDL2_UpdateMouseCursor@@YAXXZ
pdata	ENDS
;	COMDAT pdata
pdata	SEGMENT
$pdata$1$?ImGui_ImplSDL2_UpdateMouseCursor@@YAXXZ DD imagerel ?ImGui_ImplSDL2_UpdateMouseCursor@@YAXXZ+17
	DD	imagerel ?ImGui_ImplSDL2_UpdateMouseCursor@@YAXXZ+120
	DD	imagerel $chain$1$?ImGui_ImplSDL2_UpdateMouseCursor@@YAXXZ
pdata	ENDS
;	COMDAT pdata
pdata	SEGMENT
$pdata$3$?ImGui_ImplSDL2_UpdateMouseCursor@@YAXXZ DD imagerel ?ImGui_ImplSDL2_UpdateMouseCursor@@YAXXZ+120
	DD	imagerel ?ImGui_ImplSDL2_UpdateMouseCursor@@YAXXZ+138
	DD	imagerel $chain$3$?ImGui_ImplSDL2_UpdateMouseCursor@@YAXXZ
pdata	ENDS
;	COMDAT pdata
pdata	SEGMENT
$pdata$4$?ImGui_ImplSDL2_UpdateMouseCursor@@YAXXZ DD imagerel ?ImGui_ImplSDL2_UpdateMouseCursor@@YAXXZ+138
	DD	imagerel ?ImGui_ImplSDL2_UpdateMouseCursor@@YAXXZ+148
	DD	imagerel $chain$4$?ImGui_ImplSDL2_UpdateMouseCursor@@YAXXZ
pdata	ENDS
;	COMDAT pdata
pdata	SEGMENT
$pdata$?ImGui_ImplSDL2_UpdateMouseData@@YAXXZ DD imagerel ?ImGui_ImplSDL2_UpdateMouseData@@YAXXZ
	DD	imagerel ?ImGui_ImplSDL2_UpdateMouseData@@YAXXZ+644
	DD	imagerel $unwind$?ImGui_ImplSDL2_UpdateMouseData@@YAXXZ
pdata	ENDS
;	COMDAT pdata
pdata	SEGMENT
$pdata$?ImGui_ImplSDL2_Init@@YA_NPEAUSDL_Window@@PEAUSDL_Renderer@@PEAX@Z DD imagerel ?ImGui_ImplSDL2_Init@@YA_NPEAUSDL_Window@@PEAUSDL_Renderer@@PEAX@Z
	DD	imagerel ?ImGui_ImplSDL2_Init@@YA_NPEAUSDL_Window@@PEAUSDL_Renderer@@PEAX@Z+1219
	DD	imagerel $unwind$?ImGui_ImplSDL2_Init@@YA_NPEAUSDL_Window@@PEAUSDL_Renderer@@PEAX@Z
pdata	ENDS
;	COMDAT pdata
pdata	SEGMENT
$pdata$?ImGui_ImplSDL2_UpdateKeyModifiers@@YAXW4SDL_Keymod@@@Z DD imagerel ?ImGui_ImplSDL2_UpdateKeyModifiers@@YAXW4SDL_Keymod@@@Z
	DD	imagerel ?ImGui_ImplSDL2_UpdateKeyModifiers@@YAXW4SDL_Keymod@@@Z+227
	DD	imagerel $unwind$?ImGui_ImplSDL2_UpdateKeyModifiers@@YAXW4SDL_Keymod@@@Z
pdata	ENDS
;	COMDAT pdata
pdata	SEGMENT
$pdata$?ImGui_ImplSDL2_SetPlatformImeData@@YAXPEAUImGuiViewport@@PEAUImGuiPlatformImeData@@@Z DD imagerel ?ImGui_ImplSDL2_SetPlatformImeData@@YAXPEAUImGuiViewport@@PEAUImGuiPlatformImeData@@@Z
	DD	imagerel ?ImGui_ImplSDL2_SetPlatformImeData@@YAXPEAUImGuiViewport@@PEAUImGuiPlatformImeData@@@Z+111
	DD	imagerel $unwind$?ImGui_ImplSDL2_SetPlatformImeData@@YAXPEAUImGuiViewport@@PEAUImGuiPlatformImeData@@@Z
pdata	ENDS
;	COMDAT pdata
pdata	SEGMENT
$pdata$?ImGui_ImplSDL2_GetClipboardText@@YAPEBDPEAX@Z DD imagerel ?ImGui_ImplSDL2_GetClipboardText@@YAPEBDPEAX@Z
	DD	imagerel ?ImGui_ImplSDL2_GetClipboardText@@YAPEBDPEAX@Z+56
	DD	imagerel $unwind$?ImGui_ImplSDL2_GetClipboardText@@YAPEBDPEAX@Z
pdata	ENDS
;	COMDAT pdata
pdata	SEGMENT
$pdata$??0ImGui_ImplSDL2_Data@@QEAA@XZ DD imagerel $LN7@ImGui_Impl
	DD	imagerel $LN7@ImGui_Impl+46
	DD	imagerel $unwind$??0ImGui_ImplSDL2_Data@@QEAA@XZ
pdata	ENDS
;	COMDAT pdata
pdata	SEGMENT
$pdata$?ImGui_ImplSDL2_Shutdown@@YAXXZ DD imagerel $LN59@ImGui_Impl
	DD	imagerel $LN59@ImGui_Impl+329
	DD	imagerel $unwind$?ImGui_ImplSDL2_Shutdown@@YAXXZ
pdata	ENDS
;	COMDAT pdata
pdata	SEGMENT
$pdata$?ImGui_ImplSDL2_NewFrame@@YAXXZ DD imagerel $LN72@ImGui_Impl
	DD	imagerel $LN72@ImGui_Impl+684
	DD	imagerel $unwind$?ImGui_ImplSDL2_NewFrame@@YAXXZ
pdata	ENDS
;	COMDAT pdata
pdata	SEGMENT
$pdata$?ImGui_ImplSDL2_ProcessEvent@@YA_NPEBTSDL_Event@@@Z DD imagerel $LN227@ImGui_Impl
	DD	imagerel $LN227@ImGui_Impl+957
	DD	imagerel $unwind$?ImGui_ImplSDL2_ProcessEvent@@YA_NPEBTSDL_Event@@@Z
pdata	ENDS
;	COMDAT pdata
pdata	SEGMENT
$pdata$4$?ImGui_ImplSDL2_ProcessEvent@@YA_NPEBTSDL_Event@@@Z DD imagerel $LN227@ImGui_Impl+957
	DD	imagerel $LN227@ImGui_Impl+1077
	DD	imagerel $chain$4$?ImGui_ImplSDL2_ProcessEvent@@YA_NPEBTSDL_Event@@@Z
pdata	ENDS
;	COMDAT pdata
pdata	SEGMENT
$pdata$5$?ImGui_ImplSDL2_ProcessEvent@@YA_NPEBTSDL_Event@@@Z DD imagerel $LN227@ImGui_Impl+1077
	DD	imagerel $LN227@ImGui_Impl+1833
	DD	imagerel $chain$5$?ImGui_ImplSDL2_ProcessEvent@@YA_NPEBTSDL_Event@@@Z
;	COMDAT xdata
xdata	SEGMENT
$chain$5$?ImGui_ImplSDL2_ProcessEvent@@YA_NPEBTSDL_Event@@@Z DD 021H
	DD	imagerel $LN227@ImGui_Impl
	DD	imagerel $LN227@ImGui_Impl+957
	DD	imagerel $unwind$?ImGui_ImplSDL2_ProcessEvent@@YA_NPEBTSDL_Event@@@Z
xdata	ENDS
;	COMDAT xdata
xdata	SEGMENT
$chain$4$?ImGui_ImplSDL2_ProcessEvent@@YA_NPEBTSDL_Event@@@Z DQ 00005780500020521r ; 7.60534e-309
	DD	imagerel $LN227@ImGui_Impl
	DD	imagerel $LN227@ImGui_Impl+957
	DD	imagerel $unwind$?ImGui_ImplSDL2_ProcessEvent@@YA_NPEBTSDL_Event@@@Z
xdata	ENDS
;	COMDAT xdata
xdata	SEGMENT
$unwind$?ImGui_ImplSDL2_ProcessEvent@@YA_NPEBTSDL_Event@@@Z DQ 00006685e000e5e19r ; 8.91098e-309
	DQ	00016e4510017f459r		; 3.18351e-308
	DQ	0d008d20f00157449r		; -3.59253e+77
	DQ	0500230036004c006r		; 2.63247e+77
	DD	imagerel __GSHandlerCheck
	DD	048H
xdata	ENDS
;	COMDAT xdata
xdata	SEGMENT
$unwind$?ImGui_ImplSDL2_NewFrame@@YAXXZ DQ 0000b640f00061e19r ; 1.58409e-308
	DQ	0700b720f000a340fr		; 5.32621e+231
	DD	imagerel __GSHandlerCheck
	DD	030H
xdata	ENDS
;	COMDAT xdata
xdata	SEGMENT
$unwind$?ImGui_ImplSDL2_Shutdown@@YAXXZ DQ 00009741a000a1a01r ; 1.31467e-308
	DQ	00007541a0008641ar		; 1.01916e-308
	DQ	0e016321a0006341ar		; -7.4399e+154
xdata	ENDS
;	COMDAT xdata
xdata	SEGMENT
$unwind$??0ImGui_ImplSDL2_Data@@QEAA@XZ DQ 03002320600020601r ; 1.96423e-77
xdata	ENDS
;	COMDAT xdata
xdata	SEGMENT
$unwind$?ImGui_ImplSDL2_GetClipboardText@@YAPEBDPEAX@Z DQ 03002320600020601r ; 1.96423e-77
xdata	ENDS
;	COMDAT xdata
xdata	SEGMENT
$unwind$?ImGui_ImplSDL2_SetPlatformImeData@@YAXPEAUImGuiViewport@@PEAUImGuiPlatformImeData@@@Z DQ 00000820400011319r ; 7.06285e-310
	DD	imagerel __GSHandlerCheck
	DD	030H
xdata	ENDS
;	COMDAT xdata
xdata	SEGMENT
$unwind$?ImGui_ImplSDL2_UpdateKeyModifiers@@YAXW4SDL_Keymod@@@Z DQ 00002681c00061c01r ; 3.3469e-309
	DQ	07006520a0008340ar		; 4.33162e+231
xdata	ENDS
;	COMDAT xdata
xdata	SEGMENT
$unwind$?ImGui_ImplSDL2_Init@@YA_NPEAUSDL_Window@@PEAUSDL_Renderer@@PEAX@Z DQ 00021641f000d3119r ; 4.83706e-308
	DQ	0001f341f0020541fr		; 4.33939e-308
	DQ	0e016f0180018011fr		; -7.68866e+154
	DQ	000007010c012d014r		; 6.08774e-310
	DD	imagerel __GSHandlerCheck
	DD	0b0H
xdata	ENDS
;	COMDAT xdata
xdata	SEGMENT
$unwind$?ImGui_ImplSDL2_UpdateMouseData@@YAXXZ DQ 0000f640f00061e19r ; 2.14036e-308
	DQ	0700bb20f000e340fr		; 5.37473e+231
	DD	imagerel __GSHandlerCheck
	DD	050H
xdata	ENDS
;	COMDAT xdata
xdata	SEGMENT
$chain$4$?ImGui_ImplSDL2_UpdateMouseCursor@@YAXXZ DD 021H
	DD	imagerel ?ImGui_ImplSDL2_UpdateMouseCursor@@YAXXZ
	DD	imagerel ?ImGui_ImplSDL2_UpdateMouseCursor@@YAXXZ+17
	DD	imagerel $unwind$?ImGui_ImplSDL2_UpdateMouseCursor@@YAXXZ
xdata	ENDS
;	COMDAT xdata
xdata	SEGMENT
$chain$3$?ImGui_ImplSDL2_UpdateMouseCursor@@YAXXZ DQ 00006340000020021r ; 8.62651e-309
	DD	imagerel ?ImGui_ImplSDL2_UpdateMouseCursor@@YAXXZ
	DD	imagerel ?ImGui_ImplSDL2_UpdateMouseCursor@@YAXXZ+17
	DD	imagerel $unwind$?ImGui_ImplSDL2_UpdateMouseCursor@@YAXXZ
xdata	ENDS
;	COMDAT xdata
xdata	SEGMENT
$chain$1$?ImGui_ImplSDL2_UpdateMouseCursor@@YAXXZ DQ 00004742c00042c21r ; 6.19377e-309
	DD	063405H
	DD	imagerel ?ImGui_ImplSDL2_UpdateMouseCursor@@YAXXZ
	DD	imagerel ?ImGui_ImplSDL2_UpdateMouseCursor@@YAXXZ+17
	DD	imagerel $unwind$?ImGui_ImplSDL2_UpdateMouseCursor@@YAXXZ
xdata	ENDS
;	COMDAT xdata
xdata	SEGMENT
$unwind$?ImGui_ImplSDL2_UpdateMouseCursor@@YAXXZ DQ 00000420400010401r ; 3.58617e-310
xdata	ENDS
;	COMDAT xdata
xdata	SEGMENT
$chain$2$?ImGui_ImplSDL2_CloseGamepads@@YAXXZ DD 021H
	DD	imagerel ?ImGui_ImplSDL2_CloseGamepads@@YAXXZ
	DD	imagerel ?ImGui_ImplSDL2_CloseGamepads@@YAXXZ+41
	DD	imagerel $unwind$?ImGui_ImplSDL2_CloseGamepads@@YAXXZ
xdata	ENDS
;	COMDAT xdata
xdata	SEGMENT
$chain$1$?ImGui_ImplSDL2_CloseGamepads@@YAXXZ DQ 00007641100041121r ; 1.02783e-308
	DD	063405H
	DD	imagerel ?ImGui_ImplSDL2_CloseGamepads@@YAXXZ
	DD	imagerel ?ImGui_ImplSDL2_CloseGamepads@@YAXXZ+41
	DD	imagerel $unwind$?ImGui_ImplSDL2_CloseGamepads@@YAXXZ
xdata	ENDS
;	COMDAT xdata
xdata	SEGMENT
$unwind$?ImGui_ImplSDL2_CloseGamepads@@YAXXZ DQ 07002320600020601r ; 3.53109e+231
xdata	ENDS
;	COMDAT xdata
xdata	SEGMENT
$unwind$?ImGui_ImplSDL2_UpdateGamepadButton@@YAXPEAUImGui_ImplSDL2_Data@@AEAUImGuiIO@@W4ImGuiKey@@W4SDL_GameControllerButton@@@Z DQ 0000a6418000a1801r ; 1.44505e-308
	DQ	00008341800095418r		; 1.14084e-308
	DQ	07010e012f0143218r		; 6.5498e+231
xdata	ENDS
;	COMDAT xdata
xdata	SEGMENT
$chain$3$?ImGui_ImplSDL2_UpdateGamepadAnalog@@YAXPEAUImGui_ImplSDL2_Data@@AEAUImGuiIO@@W4ImGuiKey@@W4SDL_GameControllerAxis@@MM@Z DD 021H
	DD	imagerel ?ImGui_ImplSDL2_UpdateGamepadAnalog@@YAXPEAUImGui_ImplSDL2_Data@@AEAUImGuiIO@@W4ImGuiKey@@W4SDL_GameControllerAxis@@MM@Z
	DD	imagerel ?ImGui_ImplSDL2_UpdateGamepadAnalog@@YAXPEAUImGui_ImplSDL2_Data@@AEAUImGuiIO@@W4ImGuiKey@@W4SDL_GameControllerAxis@@MM@Z+77
	DD	imagerel $unwind$?ImGui_ImplSDL2_UpdateGamepadAnalog@@YAXPEAUImGui_ImplSDL2_Data@@AEAUImGuiIO@@W4ImGuiKey@@W4SDL_GameControllerAxis@@MM@Z
xdata	ENDS
;	COMDAT xdata
xdata	SEGMENT
$chain$2$?ImGui_ImplSDL2_UpdateGamepadAnalog@@YAXPEAUImGui_ImplSDL2_Data@@AEAUImGuiIO@@W4ImGuiKey@@W4SDL_GameControllerAxis@@MM@Z DQ 00002a82200062221r ; 3.69469e-309
	DQ	00004880500039814r		; 6.30158e-309
	DD	imagerel ?ImGui_ImplSDL2_UpdateGamepadAnalog@@YAXPEAUImGui_ImplSDL2_Data@@AEAUImGuiIO@@W4ImGuiKey@@W4SDL_GameControllerAxis@@MM@Z
	DD	imagerel ?ImGui_ImplSDL2_UpdateGamepadAnalog@@YAXPEAUImGui_ImplSDL2_Data@@AEAUImGuiIO@@W4ImGuiKey@@W4SDL_GameControllerAxis@@MM@Z+77
	DD	imagerel $unwind$?ImGui_ImplSDL2_UpdateGamepadAnalog@@YAXPEAUImGui_ImplSDL2_Data@@AEAUImGuiIO@@W4ImGuiKey@@W4SDL_GameControllerAxis@@MM@Z
xdata	ENDS
;	COMDAT xdata
xdata	SEGMENT
$unwind$?ImGui_ImplSDL2_UpdateGamepadAnalog@@YAXPEAUImGui_ImplSDL2_Data@@AEAUImGuiIO@@W4ImGuiKey@@W4SDL_GameControllerAxis@@MM@Z DQ 00005783a000e3a01r ; 7.60646e-309
	DQ	00013741900066832r		; 2.70534e-308
	DQ	00011541900126419r		; 2.40983e-308
	DQ	0e015d21900103419r		; -7.31419e+154
xdata	ENDS
;	COMDAT xdata
xdata	SEGMENT
$chain$8$?ImGui_ImplSDL2_UpdateGamepads@@YAXXZ DD 021H
	DD	imagerel ?ImGui_ImplSDL2_UpdateGamepads@@YAXXZ+243
	DD	imagerel ?ImGui_ImplSDL2_UpdateGamepads@@YAXXZ+277
	DD	imagerel $chain$3$?ImGui_ImplSDL2_UpdateGamepads@@YAXXZ
xdata	ENDS
;	COMDAT xdata
xdata	SEGMENT
$chain$7$?ImGui_ImplSDL2_UpdateGamepads@@YAXXZ DQ 00003982a00082a21r ; 4.99862e-309
	DQ	00005781e00048824r		; 7.60587e-309
	DD	066805H
	DD	imagerel ?ImGui_ImplSDL2_UpdateGamepads@@YAXXZ+243
	DD	imagerel ?ImGui_ImplSDL2_UpdateGamepads@@YAXXZ+277
	DD	imagerel $chain$3$?ImGui_ImplSDL2_UpdateGamepads@@YAXXZ
xdata	ENDS
;	COMDAT xdata
xdata	SEGMENT
$chain$3$?ImGui_ImplSDL2_UpdateGamepads@@YAXXZ DD 021H
	DD	imagerel ?ImGui_ImplSDL2_UpdateGamepads@@YAXXZ
	DD	imagerel ?ImGui_ImplSDL2_UpdateGamepads@@YAXXZ+80
	DD	imagerel $unwind$?ImGui_ImplSDL2_UpdateGamepads@@YAXXZ
xdata	ENDS
;	COMDAT xdata
xdata	SEGMENT
$chain$2$?ImGui_ImplSDL2_UpdateGamepads@@YAXXZ DQ 00014f40800020821r ; 2.91391e-308
	DD	imagerel ?ImGui_ImplSDL2_UpdateGamepads@@YAXXZ
	DD	imagerel ?ImGui_ImplSDL2_UpdateGamepads@@YAXXZ+80
	DD	imagerel $unwind$?ImGui_ImplSDL2_UpdateGamepads@@YAXXZ
xdata	ENDS
;	COMDAT xdata
xdata	SEGMENT
$unwind$?ImGui_ImplSDL2_UpdateGamepads@@YAXXZ DQ 00013e43600083601r ; 2.76625e-308
	DQ	06004d2080012742er		; 3.48945e+154
	DD	030025003H
xdata	ENDS
;	COMDAT xdata
xdata	SEGMENT
$chain$1$?ImGui_ImplSDL2_UpdateMonitors@@YAXXZ DD 021H
	DD	imagerel ?ImGui_ImplSDL2_UpdateMonitors@@YAXXZ
	DD	imagerel ?ImGui_ImplSDL2_UpdateMonitors@@YAXXZ+132
	DD	imagerel $unwind$?ImGui_ImplSDL2_UpdateMonitors@@YAXXZ
xdata	ENDS
;	COMDAT xdata
xdata	SEGMENT
$chain$0$?ImGui_ImplSDL2_UpdateMonitors@@YAXXZ DQ 00007680500020521r ; 1.02998e-308
	DD	imagerel ?ImGui_ImplSDL2_UpdateMonitors@@YAXXZ
	DD	imagerel ?ImGui_ImplSDL2_UpdateMonitors@@YAXXZ+132
	DD	imagerel $unwind$?ImGui_ImplSDL2_UpdateMonitors@@YAXXZ
xdata	ENDS
;	COMDAT xdata
xdata	SEGMENT
$unwind$?ImGui_ImplSDL2_UpdateMonitors@@YAXXZ DQ 00015e41f000a2d19r ; 3.04433e-308
	DQ	00013641f0014741fr		; 2.69666e-308
	DQ	05015f21f0012341fr		; 6.35287e+77
	DD	imagerel __GSHandlerCheck
	DD	068H
xdata	ENDS
;	COMDAT xdata
xdata	SEGMENT
$unwind$?ImGui_ImplSDL2_CreateWindow@@YAXPEAUImGuiViewport@@@Z DQ 0001c5419000b2b19r ; 3.93956e-308
	DQ	000140119001b3419r		; 2.78194e-308
	DQ	0700cc00ee010f012r		; 5.57941e+231
	DD	0600bH
	DD	imagerel __GSHandlerCheck
	DD	090H
xdata	ENDS
;	COMDAT xdata
xdata	SEGMENT
$unwind$?ImGui_ImplSDL2_DestroyWindow@@YAXPEAUImGuiViewport@@@Z DQ 00007640f00060f01r ; 1.02782e-308
	DQ	0700b320f0006340fr		; 5.2777e+231
xdata	ENDS
;	COMDAT xdata
xdata	SEGMENT
$unwind$?ImGui_ImplSDL2_ShowWindow@@YAXPEAUImGuiViewport@@@Z DQ 00007640f00060f01r ; 1.02782e-308
	DQ	0700b320f0006340fr		; 5.2777e+231
xdata	ENDS
;	COMDAT xdata
xdata	SEGMENT
$unwind$?ImGui_ImplSDL2_GetWindowPos@@YA?AUImVec2@@PEAUImGuiViewport@@@Z DQ 03002520600021519r ; 1.97773e-77
	DD	imagerel __GSHandlerCheck
	DD	028H
xdata	ENDS
;	COMDAT xdata
xdata	SEGMENT
$unwind$?ImGui_ImplSDL2_GetWindowSize@@YA?AUImVec2@@PEAUImGuiViewport@@@Z DQ 03002520600021519r ; 1.97773e-77
	DD	imagerel __GSHandlerCheck
	DD	028H
xdata	ENDS
;	COMDAT xdata
xdata	SEGMENT
$unwind$?ImGui_ImplSDL2_GetWindowFocus@@YA_NPEAUImGuiViewport@@@Z DQ 00000420400010401r ; 3.58617e-310
xdata	ENDS
;	COMDAT xdata
xdata	SEGMENT
$unwind$?ImGui_ImplSDL2_GetWindowMinimized@@YA_NPEAUImGuiViewport@@@Z DQ 00000420400010401r ; 3.58617e-310
xdata	ENDS
;	COMDAT xdata
xdata	SEGMENT
$unwind$?ImGui_ImplSDL2_SwapBuffers@@YAXPEAUImGuiViewport@@PEAX@Z DQ 03002320600020601r ; 1.96423e-77
xdata	ENDS
;	COMDAT xdata
xdata	SEGMENT
$unwind$?ImGui_ImplSDL2_CreateVkSurface@@YAHPEAUImGuiViewport@@_KPEBXPEA_K@Z DQ 00000420400010401r ; 3.58617e-310
xdata	ENDS
;	COMDAT xdata
xdata	SEGMENT
$unwind$?ImGui_ImplSDL2_InitPlatformInterface@@YAXPEAUSDL_Window@@PEAX@Z DQ 00009641400081401r ; 1.30597e-308
	DQ	00007341400085414r		; 1.00176e-308
	DD	070103214H
xdata	ENDS
;	COMDAT xdata
xdata	SEGMENT
$unwind$?ImGui_ImplSDL2_ShutdownPlatformInterface@@YAXXZ DQ 00006340a00040a01r ; 8.62672e-309
	DD	07006320aH
xdata	ENDS
;	COMDAT xdata
xdata	SEGMENT
$unwind$?push_back@?$ImVector@PEAU_SDL_GameController@@@@QEAAXAEBQEAU_SDL_GameController@@@Z DQ 00006340a00040a01r ; 8.62672e-309
	DD	07006320aH
xdata	ENDS
;	COMDAT xdata
xdata	SEGMENT
$unwind$?resize@?$ImVector@PEAU_SDL_GameController@@@@QEAAXH@Z DQ 03002320600020601r ; 1.96423e-77
xdata	ENDS
;	COMDAT xdata
xdata	SEGMENT
$ip2state$??1?$ImVector@PEAU_SDL_GameController@@@@QEAA@XZ DW 0fa02H
	DB	00H
xdata	ENDS
;	COMDAT xdata
xdata	SEGMENT
$cppxdata$??1?$ImVector@PEAU_SDL_GameController@@@@QEAA@XZ DB 060H
	DD	imagerel $ip2state$??1?$ImVector@PEAU_SDL_GameController@@@@QEAA@XZ
xdata	ENDS
;	COMDAT xdata
xdata	SEGMENT
$unwind$??1?$ImVector@PEAU_SDL_GameController@@@@QEAA@XZ DQ 00000420400010419r ; 3.58617e-310
	DD	imagerel __CxxFrameHandler4
	DD	imagerel $cppxdata$??1?$ImVector@PEAU_SDL_GameController@@@@QEAA@XZ
xdata	ENDS
;	COMDAT xdata
xdata	SEGMENT
$unwind$?push_back@?$ImVector@UImGuiPlatformMonitor@@@@QEAAXAEBUImGuiPlatformMonitor@@@Z DQ 00006340a00040a01r ; 8.62672e-309
	DD	07006320aH
xdata	ENDS
;	COMDAT xdata
xdata	SEGMENT
$unwind$?resize@?$ImVector@UImGuiPlatformMonitor@@@@QEAAXH@Z DQ 03002320600020601r ; 1.96423e-77
xdata	ENDS
;	COMDAT xdata
xdata	SEGMENT
$chain$1$?reserve@?$ImVector@PEAU_SDL_GameController@@@@QEAAXH@Z DD 021H
	DD	imagerel $LN24@reserve
	DD	imagerel $LN24@reserve+28
	DD	imagerel $unwind$?reserve@?$ImVector@PEAU_SDL_GameController@@@@QEAAXH@Z
xdata	ENDS
;	COMDAT xdata
xdata	SEGMENT
$chain$0$?reserve@?$ImVector@PEAU_SDL_GameController@@@@QEAAXH@Z DQ 00006640500020521r ; 8.88736e-309
	DD	imagerel $LN24@reserve
	DD	imagerel $LN24@reserve+28
	DD	imagerel $unwind$?reserve@?$ImVector@PEAU_SDL_GameController@@@@QEAAXH@Z
xdata	ENDS
;	COMDAT xdata
xdata	SEGMENT
$unwind$?reserve@?$ImVector@PEAU_SDL_GameController@@@@QEAAXH@Z DQ 00007340a00040a01r ; 1.00174e-308
	DD	07006320aH
xdata	ENDS
;	COMDAT xdata
xdata	SEGMENT
$chain$1$?reserve@?$ImVector@UImGuiPlatformMonitor@@@@QEAAXH@Z DD 021H
	DD	imagerel $LN24@reserve
	DD	imagerel $LN24@reserve+29
	DD	imagerel $unwind$?reserve@?$ImVector@UImGuiPlatformMonitor@@@@QEAAXH@Z
xdata	ENDS
;	COMDAT xdata
xdata	SEGMENT
$chain$0$?reserve@?$ImVector@UImGuiPlatformMonitor@@@@QEAAXH@Z DQ 00006640500020521r ; 8.88736e-309
	DD	imagerel $LN24@reserve
	DD	imagerel $LN24@reserve+29
	DD	imagerel $unwind$?reserve@?$ImVector@UImGuiPlatformMonitor@@@@QEAAXH@Z
xdata	ENDS
;	COMDAT xdata
xdata	SEGMENT
$unwind$?reserve@?$ImVector@UImGuiPlatformMonitor@@@@QEAAXH@Z DQ 00007340a00040a01r ; 1.00174e-308
	DD	07006320aH
xdata	ENDS
;	COMDAT xdata
xdata	SEGMENT
$unwind$??$IM_DELETE@UImGui_ImplSDL2_Data@@@@YAXPEAUImGui_ImplSDL2_Data@@@Z DQ 0300a320e00020e01r ; 2.82786e-77
xdata	ENDS
;	COMDAT xdata
xdata	SEGMENT
$unwind$??_GImGui_ImplSDL2_Data@@QEAAPEAXI@Z DQ 03002320600020601r ; 1.96423e-77
END
