; Listing generated by Microsoft (R) Optimizing Compiler Version 19.36.32534.0 

include listing.inc

INCLUDELIB OLDNAMES

PUBLIC	??_C@_0P@HEMCFMMD@?$CKMissing?5Text?$CK@	; `string'
PUBLIC	??_C@_09BJOGEADB@?$CDCOLLAPSE@			; `string'
PUBLIC	??_C@_09BJIHMJFE@imgui?4ini@			; `string'
PUBLIC	??_C@_0O@HCOAADPE@imgui_log?4txt@		; `string'
PUBLIC	??_C@_06OJHGLDPL@?$CInull?$CJ@			; `string'
PUBLIC	??_C@_00CNPNBAHC@@				; `string'
PUBLIC	??_C@_0CB@GNIOCDHI@Clipper?3?5Begin?$CI?$CFd?0?$CF?42f?$CJ?5in?5?8?$CFs?8@ ; `string'
PUBLIC	??_C@_0BI@CAOKIKBG@Clipper?3?5End?$CI?$CJ?5in?5?8?$CFs?8?6@ ; `string'
PUBLIC	??_C@_0CL@INMALPKG@Clipper?3?5Step?$CI?$CJ?3?5inside?5frozen?5@ ; `string'
PUBLIC	??_C@_0CO@DPDPBJBN@Clipper?3?5Step?$CI?$CJ?3?5computed?5Items@ ; `string'
PUBLIC	??_C@_0CE@JEMCBOCJ@Clipper?3?5Step?$CI?$CJ?3?5display?5?$CFd?5to?5@ ; `string'
PUBLIC	??_C@_0BH@MKOKNAKC@Clipper?3?5Step?$CI?$CJ?3?5End?4?6@ ; `string'
PUBLIC	??_C@_04OJAHODMC@Text@				; `string'
PUBLIC	??_C@_0N@LNHHFNPK@TextDisabled@			; `string'
PUBLIC	??_C@_08DMKFNKPN@WindowBg@			; `string'
PUBLIC	??_C@_07BLEJOHFO@ChildBg@			; `string'
PUBLIC	??_C@_07LKIIIJHA@PopupBg@			; `string'
PUBLIC	??_C@_06CMOGDIBK@Border@			; `string'
PUBLIC	??_C@_0N@DECGFAEC@BorderShadow@			; `string'
PUBLIC	??_C@_07PJIIOGAC@FrameBg@			; `string'
PUBLIC	??_C@_0P@KIOOHHAC@FrameBgHovered@		; `string'
PUBLIC	??_C@_0O@BGDCDDEA@FrameBgActive@		; `string'
PUBLIC	??_C@_07MMLEKCPI@TitleBg@			; `string'
PUBLIC	??_C@_0O@JHBFJHNE@TitleBgActive@		; `string'
PUBLIC	??_C@_0BB@EGCOMBJG@TitleBgCollapsed@		; `string'
PUBLIC	??_C@_09GEKCKLDE@MenuBarBg@			; `string'
PUBLIC	??_C@_0M@MFDHPFJF@ScrollbarBg@			; `string'
PUBLIC	??_C@_0O@HABIDNBE@ScrollbarGrab@		; `string'
PUBLIC	??_C@_0BF@JFEOOMLL@ScrollbarGrabHovered@	; `string'
PUBLIC	??_C@_0BE@GODMFNCF@ScrollbarGrabActive@		; `string'
PUBLIC	??_C@_09DMKAANGE@CheckMark@			; `string'
PUBLIC	??_C@_0L@LAMBADIC@SliderGrab@			; `string'
PUBLIC	??_C@_0BB@HBOBMOMP@SliderGrabActive@		; `string'
PUBLIC	??_C@_06LKBCGDFD@Button@			; `string'
PUBLIC	??_C@_0O@HBCGNIAI@ButtonHovered@		; `string'
PUBLIC	??_C@_0N@IMHOFKJ@ButtonActive@			; `string'
PUBLIC	??_C@_06OENKJGA@Header@				; `string'
PUBLIC	??_C@_0O@HAINNLMC@HeaderHovered@		; `string'
PUBLIC	??_C@_0N@HILFCJOI@HeaderActive@			; `string'
PUBLIC	??_C@_09IBFEOKHN@Separator@			; `string'
PUBLIC	??_C@_0BB@CHICANJA@SeparatorHovered@		; `string'
PUBLIC	??_C@_0BA@BPNGFOJM@SeparatorActive@		; `string'
PUBLIC	??_C@_0L@NGBDNFNJ@ResizeGrip@			; `string'
PUBLIC	??_C@_0BC@NNEDPMNH@ResizeGripHovered@		; `string'
PUBLIC	??_C@_0BB@NBBKHKIC@ResizeGripActive@		; `string'
PUBLIC	??_C@_03IEAKBACE@Tab@				; `string'
PUBLIC	??_C@_0L@JFDLBKBD@TabHovered@			; `string'
PUBLIC	??_C@_09BLMKPFCF@TabActive@			; `string'
PUBLIC	??_C@_0N@KLEENDFP@TabUnfocused@			; `string'
PUBLIC	??_C@_0BD@JMEALEPP@TabUnfocusedActive@		; `string'
PUBLIC	??_C@_0P@OMJIDAGN@DockingPreview@		; `string'
PUBLIC	??_C@_0P@EHFHDGOG@DockingEmptyBg@		; `string'
PUBLIC	??_C@_09HDJFFJLL@PlotLines@			; `string'
PUBLIC	??_C@_0BB@OMALNJLN@PlotLinesHovered@		; `string'
PUBLIC	??_C@_0O@EEKOCENA@PlotHistogram@		; `string'
PUBLIC	??_C@_0BF@GJALJGDC@PlotHistogramHovered@	; `string'
PUBLIC	??_C@_0O@OAEMMJAA@TableHeaderBg@		; `string'
PUBLIC	??_C@_0BC@EJINMLMM@TableBorderStrong@		; `string'
PUBLIC	??_C@_0BB@IPAPNNJD@TableBorderLight@		; `string'
PUBLIC	??_C@_0L@LLALIFOE@TableRowBg@			; `string'
PUBLIC	??_C@_0O@FGPLHMKP@TableRowBgAlt@		; `string'
PUBLIC	??_C@_0P@IBBLAEBJ@TextSelectedBg@		; `string'
PUBLIC	??_C@_0P@GDDMCLOI@DragDropTarget@		; `string'
PUBLIC	??_C@_0N@ENCIHEPH@NavHighlight@			; `string'
PUBLIC	??_C@_0BG@MCGDEFOI@NavWindowingHighlight@	; `string'
PUBLIC	??_C@_0BC@JHKONDGH@NavWindowingDimBg@		; `string'
PUBLIC	??_C@_0BB@JOEAHKNC@ModalWindowDimBg@		; `string'
PUBLIC	??_C@_07NBCGADJA@Unknown@			; `string'
PUBLIC	??_C@_0BK@BHOLKFKP@Dear?5ImGui?51?490?45?5?$CI19050?$CJ@ ; `string'
PUBLIC	??_C@_0BN@CNPDCOK@Size?5column?5to?5fit?$CD?$CD?$CDSizeOne@ ; `string'
PUBLIC	??_C@_0CC@MJIBPDCL@Size?5all?5columns?5to?5fit?$CD?$CD?$CDSizeA@ ; `string'
PUBLIC	??_C@_0CG@CFICKNDA@Size?5all?5columns?5to?5default?$CD?$CD?$CDS@ ; `string'
PUBLIC	??_C@_0BJ@BBKAOKNK@Reset?5order?$CD?$CD?$CDResetOrder@ ; `string'
PUBLIC	??_C@_0BA@KDPNEDEH@?$CIMain?5menu?5bar?$CJ@	; `string'
PUBLIC	??_C@_07NPLNEKJH@?$CIPopup?$CJ@			; `string'
PUBLIC	??_C@_0L@JOJOIPFK@?$CIUntitled?$CJ@		; `string'
PUBLIC	??_C@_0BK@NANBGPLM@Hide?5tab?5bar?$CD?$CD?$CDHideTabBar@ ; `string'
PUBLIC	??_C@_0CF@PINFAJBF@Hold?5SHIFT?5to?5enable?5Docking?5wi@ ; `string'
PUBLIC	??_C@_0CN@IECNIBAI@Click?5and?5drag?5to?5move?5or?5undoc@ ; `string'
PUBLIC	??_C@_05EJCOBEBF@?$CDMOVE@			; `string'
PUBLIC	??_C@_04EIMEAPLD@?$CDTAB@			; `string'
PUBLIC	??_C@_0CD@PNHNJJBD@SetActiveID?$CI?$CJ?5cancel?5MovingWind@ ; `string'
PUBLIC	??_C@_0EE@BGNDHHFI@SetActiveID?$CI?$CJ?5old?30x?$CF08X?5?$CIwindo@ ; `string'
PUBLIC	??_C@_0N@MFFOHPLI@?$CD?$CDBackground@		; `string'
PUBLIC	??_C@_0N@MFHPHIIJ@?$CD?$CDForeground@		; `string'
PUBLIC	??_C@_0EE@CAHEIKBO@NewFrame?$CI?$CJ?3?5ClearActiveID?$CI?$CJ?5bec@ ; `string'
PUBLIC	??_C@_0ED@GDNFFPHD@?$CIDebug?5Log?3?5Auto?9disabled?5some?5@ ; `string'
PUBLIC	??_C@_0P@IMLDNMEK@Debug?$CD?$CDDefault@		; `string'
PUBLIC	??_C@_0EP@CMIOMJGE@?$FLio?$FN?5Calling?5io?4SetPlatformImeD@ ; `string'
PUBLIC	??_C@_03KHICJKCI@?4?4?4@			; `string'
PUBLIC	??_C@_0L@BDFLDJGI@?$CFs?1?$CFs_?$CF08X@		; `string'
PUBLIC	??_C@_07KBCBAKFA@?$CFs?1?$CF08X@		; `string'
PUBLIC	??_C@_07DFINAGAC@?$CD?$CDChild@			; `string'
PUBLIC	??_C@_07HDHBJEOI@?$CDRESIZE@			; `string'
PUBLIC	??_C@_09CHGPIMJN@_IMWINDOW@			; `string'
PUBLIC	??_C@_07NNJJHCEM@?$CDUNHIDE@			; `string'
PUBLIC	??_C@_06KIIKKNMI@?$CDCLOSE@			; `string'
PUBLIC	??_C@_0DH@KJPDDGDH@?$FLviewport?$FN?5Window?5?8?$CFs?8?5closed?5b@ ; `string'
PUBLIC	??_C@_06CBHGEMFM@?$DMNULL?$DO@			; `string'
PUBLIC	??_C@_0EB@KDILIEDM@?$FLfocus?$FN?5FocusWindow?$CI?$CC?$CFs?$CC?0?5Unles@ ; `string'
PUBLIC	??_C@_0CC@KHLKAMBL@FocusItem?$CI0x?$CF08x?$CJ?5in?5window?5?$CC?$CFs@ ; `string'
PUBLIC	??_C@_0CL@CDPKAPGK@FocusItem?$CI?$CJ?5ignored?5while?5DragD@ ; `string'
PUBLIC	??_C@_0CJ@HBEFDIPK@SetKeyboardFocusHere?$CI?$CFd?$CJ?5in?5win@ ; `string'
PUBLIC	??_C@_0DG@HEGBDNMN@SetKeyboardFocusHere?$CI?$CJ?5ignored?5@ ; `string'
PUBLIC	??_C@_09CFHBIIBF@LeftArrow@			; `string'
PUBLIC	??_C@_0L@BPKGMHEK@RightArrow@			; `string'
PUBLIC	??_C@_07MOKGGMEC@UpArrow@			; `string'
PUBLIC	??_C@_09NADHLAEK@DownArrow@			; `string'
PUBLIC	??_C@_06OAEMCMAI@PageUp@			; `string'
PUBLIC	??_C@_08FDLMHKA@PageDown@			; `string'
PUBLIC	??_C@_04GKJODLKO@Home@				; `string'
PUBLIC	??_C@_03DBKJMAGF@End@				; `string'
PUBLIC	??_C@_06CPFCODOD@Insert@			; `string'
PUBLIC	??_C@_06JBKGCNBB@Delete@			; `string'
PUBLIC	??_C@_09LPBCIPOJ@Backspace@			; `string'
PUBLIC	??_C@_05OMHELODH@Space@				; `string'
PUBLIC	??_C@_05IAOCCJNL@Enter@				; `string'
PUBLIC	??_C@_06OIGFGPHJ@Escape@			; `string'
PUBLIC	??_C@_08KELNAOFC@LeftCtrl@			; `string'
PUBLIC	??_C@_09OCNLBMHE@LeftShift@			; `string'
PUBLIC	??_C@_07MGKIIPNA@LeftAlt@			; `string'
PUBLIC	??_C@_09DKGEOIN@LeftSuper@			; `string'
PUBLIC	??_C@_09MGKDJPDD@RightCtrl@			; `string'
PUBLIC	??_C@_0L@NIAMFDCL@RightShift@			; `string'
PUBLIC	??_C@_08FCEDBIM@RightAlt@			; `string'
PUBLIC	??_C@_0L@DJHBABNC@RightSuper@			; `string'
PUBLIC	??_C@_04IFEHPILC@Menu@				; `string'
PUBLIC	??_C@_01FDFGLJHB@2@				; `string'
PUBLIC	??_C@_01EKENIIDA@3@				; `string'
PUBLIC	??_C@_01FAMBOPH@4@				; `string'
PUBLIC	??_C@_01BMBHCPLG@5@				; `string'
PUBLIC	??_C@_01DHDKHMHF@6@				; `string'
PUBLIC	??_C@_01COCBENDE@7@				; `string'
PUBLIC	??_C@_01KJLJFBPL@8@				; `string'
PUBLIC	??_C@_01LAKCGALK@9@				; `string'
PUBLIC	??_C@_01FHEEJDEE@A@				; `string'
PUBLIC	??_C@_01HMGJMAIH@B@				; `string'
PUBLIC	??_C@_01GFHCPBMG@C@				; `string'
PUBLIC	??_C@_01CKDDGHAB@D@				; `string'
PUBLIC	??_C@_01DDCIFGEA@E@				; `string'
PUBLIC	??_C@_01BIAFAFID@F@				; `string'
PUBLIC	??_C@_01BBODEMC@G@				; `string'
PUBLIC	??_C@_01IGIGCIAN@H@				; `string'
PUBLIC	??_C@_01JPJNBJEM@I@				; `string'
PUBLIC	??_C@_01LELAEKIP@J@				; `string'
PUBLIC	??_C@_01KNKLHLMO@K@				; `string'
PUBLIC	??_C@_01OCOKONAJ@L@				; `string'
PUBLIC	??_C@_01PLPBNMEI@M@				; `string'
PUBLIC	??_C@_01NANMIPIL@N@				; `string'
PUBLIC	??_C@_01MJMHLOMK@O@				; `string'
PUBLIC	??_C@_01EJNLAFE@P@				; `string'
PUBLIC	??_C@_01BNIGIBBF@Q@				; `string'
PUBLIC	??_C@_01DGKLNCNG@R@				; `string'
PUBLIC	??_C@_01CPLAODJH@S@				; `string'
PUBLIC	??_C@_01GAPBHFFA@T@				; `string'
PUBLIC	??_C@_01HJOKEEBB@U@				; `string'
PUBLIC	??_C@_01FCMHBHNC@V@				; `string'
PUBLIC	??_C@_01ELNMCGJD@W@				; `string'
PUBLIC	??_C@_01MMEEDKFM@X@				; `string'
PUBLIC	??_C@_01NFFPALBN@Y@				; `string'
PUBLIC	??_C@_01POHCFINO@Z@				; `string'
PUBLIC	??_C@_02LCPENACN@F1@				; `string'
PUBLIC	??_C@_02JJNJIDOO@F2@				; `string'
PUBLIC	??_C@_02IAMCLCKP@F3@				; `string'
PUBLIC	??_C@_02MPIDCEGI@F4@				; `string'
PUBLIC	??_C@_02NGJIBFCJ@F5@				; `string'
PUBLIC	??_C@_02PNLFEGOK@F6@				; `string'
PUBLIC	??_C@_02OEKOHHKL@F7@				; `string'
PUBLIC	??_C@_02GDDGGLGE@F8@				; `string'
PUBLIC	??_C@_02HKCNFKCF@F9@				; `string'
PUBLIC	??_C@_03JKCLJOFG@F10@				; `string'
PUBLIC	??_C@_03IDDAKPBH@F11@				; `string'
PUBLIC	??_C@_03KIBNPMNE@F12@				; `string'
PUBLIC	??_C@_03LBAGMNJF@F13@				; `string'
PUBLIC	??_C@_03POEHFLFC@F14@				; `string'
PUBLIC	??_C@_03OHFMGKBD@F15@				; `string'
PUBLIC	??_C@_03MMHBDJNA@F16@				; `string'
PUBLIC	??_C@_03NFGKAIJB@F17@				; `string'
PUBLIC	??_C@_03FCPCBEFO@F18@				; `string'
PUBLIC	??_C@_03ELOJCFBP@F19@				; `string'
PUBLIC	??_C@_03JIGNCAAP@F20@				; `string'
PUBLIC	??_C@_03IBHGBBEO@F21@				; `string'
PUBLIC	??_C@_03KKFLECIN@F22@				; `string'
PUBLIC	??_C@_03LDEAHDMM@F23@				; `string'
PUBLIC	??_C@_03PMABOFAL@F24@				; `string'
PUBLIC	??_C@_0L@KECMMICK@Apostrophe@			; `string'
PUBLIC	??_C@_05CJDGOLEJ@Comma@				; `string'
PUBLIC	??_C@_05OEAIFCGM@Minus@				; `string'
PUBLIC	??_C@_06JOFJHOEH@Period@			; `string'
PUBLIC	??_C@_05OAOMBJIJ@Slash@				; `string'
PUBLIC	??_C@_09FBGFMNJC@Semicolon@			; `string'
PUBLIC	??_C@_05JKGNJOO@Equal@				; `string'
PUBLIC	??_C@_0M@FGLAPLO@LeftBracket@			; `string'
PUBLIC	??_C@_09LDIKCIFH@Backslash@			; `string'
PUBLIC	??_C@_0N@NOCLCIPD@RightBracket@			; `string'
PUBLIC	??_C@_0M@PEGEKEFO@GraveAccent@			; `string'
PUBLIC	??_C@_08LBKIEOPK@CapsLock@			; `string'
PUBLIC	??_C@_0L@JJJEGPLJ@ScrollLock@			; `string'
PUBLIC	??_C@_07JOCOIGEJ@NumLock@			; `string'
PUBLIC	??_C@_0M@CJIDBHOK@PrintScreen@			; `string'
PUBLIC	??_C@_05PEDNBBBD@Pause@				; `string'
PUBLIC	??_C@_07PBFJOEMA@Keypad0@			; `string'
PUBLIC	??_C@_07OIECNFIB@Keypad1@			; `string'
PUBLIC	??_C@_07MDGPIGEC@Keypad2@			; `string'
PUBLIC	??_C@_07NKHELHAD@Keypad3@			; `string'
PUBLIC	??_C@_07JFDFCBME@Keypad4@			; `string'
PUBLIC	??_C@_07IMCOBAIF@Keypad5@			; `string'
PUBLIC	??_C@_07KHADEDEG@Keypad6@			; `string'
PUBLIC	??_C@_07LOBIHCAH@Keypad7@			; `string'
PUBLIC	??_C@_07DJIAGOMI@Keypad8@			; `string'
PUBLIC	??_C@_07CAJLFPIJ@Keypad9@			; `string'
PUBLIC	??_C@_0O@GMHIBIOG@KeypadDecimal@		; `string'
PUBLIC	??_C@_0N@IOPGAACF@KeypadDivide@			; `string'
PUBLIC	??_C@_0P@DDMFINAM@KeypadMultiply@		; `string'
PUBLIC	??_C@_0P@EGJPMAKL@KeypadSubtract@		; `string'
PUBLIC	??_C@_09PBFBAKNA@KeypadAdd@			; `string'
PUBLIC	??_C@_0M@LDMAMCMH@KeypadEnter@			; `string'
PUBLIC	??_C@_0M@DKIEDCPC@KeypadEqual@			; `string'
PUBLIC	??_C@_07PFJBGDFF@AppBack@			; `string'
PUBLIC	??_C@_0L@MPDOCLPJ@AppForward@			; `string'
PUBLIC	??_C@_0N@KFODLNBI@GamepadStart@			; `string'
PUBLIC	??_C@_0M@BMKDKCOL@GamepadBack@			; `string'
PUBLIC	??_C@_0BA@LLLNHFDH@GamepadFaceLeft@		; `string'
PUBLIC	??_C@_0BB@KCPJBHBD@GamepadFaceRight@		; `string'
PUBLIC	??_C@_0O@NEIKDCMN@GamepadFaceUp@		; `string'
PUBLIC	??_C@_0BA@EJLJONAO@GamepadFaceDown@		; `string'
PUBLIC	??_C@_0BA@HJJJKOII@GamepadDpadLeft@		; `string'
PUBLIC	??_C@_0BB@PJOFJNNF@GamepadDpadRight@		; `string'
PUBLIC	??_C@_0O@EJODMGNP@GamepadDpadUp@		; `string'
PUBLIC	??_C@_0BA@ILJNDGLB@GamepadDpadDown@		; `string'
PUBLIC	??_C@_09BNICIIOB@GamepadL1@			; `string'
PUBLIC	??_C@_09LDKAGJL@GamepadR1@			; `string'
PUBLIC	??_C@_09DGKPNLCC@GamepadL2@			; `string'
PUBLIC	??_C@_09CABHFFFI@GamepadR2@			; `string'
PUBLIC	??_C@_09CPLEOKGD@GamepadL3@			; `string'
PUBLIC	??_C@_09DJAMGEBJ@GamepadR3@			; `string'
PUBLIC	??_C@_0BC@MGONIKHG@GamepadLStickLeft@		; `string'
PUBLIC	??_C@_0BD@KDFPDGOK@GamepadLStickRight@		; `string'
PUBLIC	??_C@_0BA@NNMPJILJ@GamepadLStickUp@		; `string'
PUBLIC	??_C@_0BC@DEOJBCEP@GamepadLStickDown@		; `string'
PUBLIC	??_C@_0BC@DKGNGFLL@GamepadRStickLeft@		; `string'
PUBLIC	??_C@_0BD@EGHGAIAI@GamepadRStickRight@		; `string'
PUBLIC	??_C@_0BA@LJMNABFK@GamepadRStickUp@		; `string'
PUBLIC	??_C@_0BC@MIGJPNIC@GamepadRStickDown@		; `string'
PUBLIC	??_C@_09DBACHFO@MouseLeft@			; `string'
PUBLIC	??_C@_0L@JGCPGDLN@MouseRight@			; `string'
PUBLIC	??_C@_0M@CDBJKEDH@MouseMiddle@			; `string'
PUBLIC	??_C@_07BICMLCEA@MouseX1@			; `string'
PUBLIC	??_C@_07DDABOBID@MouseX2@			; `string'
PUBLIC	??_C@_0M@MENPLCHJ@MouseWheelX@			; `string'
PUBLIC	??_C@_0M@NNMEIDDI@MouseWheelY@			; `string'
PUBLIC	??_C@_07KDONALCN@ModCtrl@			; `string'
PUBLIC	??_C@_08CCGGCANM@ModShift@			; `string'
PUBLIC	??_C@_06PLGJOJNE@ModAlt@			; `string'
PUBLIC	??_C@_08MDBLHCCF@ModSuper@			; `string'
PUBLIC	??_C@_03HPADHAHE@N?1A@				; `string'
PUBLIC	??_C@_04OHJIHAFH@None@				; `string'
PUBLIC	??_C@_04NGGMJLDA@Cmd?$CL@			; `string'
PUBLIC	??_C@_06PPGOOJHA@Super?$CL@			; `string'
PUBLIC	??_C@_04IDGAMEF@Alt?$CL@			; `string'
PUBLIC	??_C@_06DLOONOJK@Shift?$CL@			; `string'
PUBLIC	??_C@_05DNCIMHKL@Ctrl?$CL@			; `string'
PUBLIC	??_C@_0L@MOHIGKOO@?$CFs?$CFs?$CFs?$CFs?$CFs@	; `string'
PUBLIC	??_C@_0DP@IFIPNOOG@SetShortcutRouting?$CI?$CFs?0?5owner_id@ ; `string'
PUBLIC	??_C@_0FJ@LLHNOCAH@SetShortcutRouting?$CI?$CFs?0?5owner_id@ ; `string'
PUBLIC	??_C@_0EB@CKACFPBK@SetShortcutRouting?$CI?$CFs?0?5owner_id@ ; `string'
PUBLIC	??_C@_0BM@NCIGIPBK@?9?9?$DO?5granting?5current?5route?6@ ; `string'
PUBLIC	??_C@_04HIBGFPH@NULL@				; `string'
PUBLIC	??_C@_0CA@IDIONDFE@?$FLio?$FN?5LockWheelingWindow?$CI?$CJ?5?$CC?$CFs?$CC?6@ ; `string'
PUBLIC	??_C@_05PEEFLODH@Mouse@				; `string'
PUBLIC	??_C@_08CPOKIBJK@Keyboard@			; `string'
PUBLIC	??_C@_07FCEHOHKC@Gamepad@			; `string'
PUBLIC	??_C@_0M@KICOAHAM@TouchScreen@			; `string'
PUBLIC	??_C@_03KANEGAKD@Pen@				; `string'
PUBLIC	??_C@_0CI@NLCAGBEH@?$FLio?$FN?5?$CFs?3?5MousePos?5?$CI?9FLT_MAX?0?5?9F@ ; `string'
PUBLIC	??_C@_0CF@BKHCFEMJ@?$FLio?$FN?5?$CFs?3?5MousePos?5?$CI?$CF?41f?0?5?$CF?41f?$CJ?5@ ; `string'
PUBLIC	??_C@_04FNCLCJMC@Down@				; `string'
PUBLIC	??_C@_02EFPGLDEA@Up@				; `string'
PUBLIC	??_C@_0CB@MABBEIGA@?$FLio?$FN?5?$CFs?3?5MouseButton?5?$CFd?5?$CFs?5?$CI?$CFs?$CJ@ ; `string'
PUBLIC	??_C@_0CH@OGJIDLOF@?$FLio?$FN?5?$CFs?3?5MouseWheel?5?$CI?$CF?43f?0?5?$CF?43f@ ; `string'
PUBLIC	??_C@_0CB@GODGHBAH@?$FLio?$FN?5?$CFs?3?5MouseViewport?5?$CI0x?$CF08X?$CJ@ ; `string'
PUBLIC	??_C@_0BG@BAABPACK@?$FLio?$FN?5?$CFs?3?5Key?5?$CC?$CFs?$CC?5?$CFs?6@ ; `string'
PUBLIC	??_C@_0BM@HGMGDMMC@?$FLio?$FN?5?$CFs?3?5Text?3?5?$CFc?5?$CIU?$CL?$CF08X?$CJ?6@ ; `string'
PUBLIC	??_C@_0BI@JDDIGJON@?$FLio?$FN?5?$CFs?3?5AppFocused?5?$CFd?6@ ; `string'
PUBLIC	??_C@_09BIONLCBB@Processed@			; `string'
PUBLIC	??_C@_09PGGNMDFB@Remaining@			; `string'
PUBLIC	??_C@_0CL@PKEBJEJO@Recovered?5from?5missing?5EndChild@ ; `string'
PUBLIC	??_C@_0CG@PCFKFCHL@Recovered?5from?5missing?5End?$CI?$CJ?5fo@ ; `string'
PUBLIC	??_C@_0CK@MCEMIAFO@Recovered?5from?5missing?5EndTable@ ; `string'
PUBLIC	??_C@_0CL@PFJDIEBE@Recovered?5from?5missing?5EndTabBa@ ; `string'
PUBLIC	??_C@_0CJ@OIELACHL@Recovered?5from?5missing?5TreePop?$CI@ ; `string'
PUBLIC	??_C@_0CK@EIGPLJIB@Recovered?5from?5missing?5EndGroup@ ; `string'
PUBLIC	??_C@_0CH@CBEJECIE@Recovered?5from?5missing?5PopID?$CI?$CJ?5@ ; `string'
PUBLIC	??_C@_0CN@OIBMKKFF@Recovered?5from?5missing?5EndDisab@ ; `string'
PUBLIC	??_C@_0DP@GKCPPFKN@Recovered?5from?5missing?5PopStyle@ ; `string'
PUBLIC	??_C@_0CN@HDGJMJNM@Recovered?5from?5missing?5PopItemF@ ; `string'
PUBLIC	??_C@_0CN@EFPNNJDL@Recovered?5from?5missing?5PopStyle@ ; `string'
PUBLIC	??_C@_0CJ@MABIEKMF@Recovered?5from?5missing?5PopFont?$CI@ ; `string'
PUBLIC	??_C@_0CP@NEGGJCEB@Recovered?5from?5missing?5PopFocus@ ; `string'
PUBLIC	??_C@_0P@DHLMFJKK@?$CD?$CDTooltip_?$CF02d@	; `string'
PUBLIC	??_C@_0CD@LOACMKE@?$FLpopup?$FN?5OpenPopup?$CI?$CC?$CFs?$CC?5?9?$DO?50x?$CF08@ ; `string'
PUBLIC	??_C@_0BN@MEGOLGEO@?$FLpopup?$FN?5OpenPopupEx?$CI0x?$CF08X?$CJ?6@ ; `string'
PUBLIC	??_C@_0CF@KJFMKFLJ@?$FLpopup?$FN?5ClosePopupsOverWindow?$CI?$CC@ ; `string'
PUBLIC	??_C@_0DB@MJNKEABH@?$FLpopup?$FN?5ClosePopupToLevel?$CI?$CFd?$CJ?0?5@ ; `string'
PUBLIC	??_C@_0CE@FCCNCIKM@?$FLpopup?$FN?5CloseCurrentPopup?5?$CFd?5?9?$DO@ ; `string'
PUBLIC	??_C@_0M@NANGKBBK@?$CD?$CDMenu_?$CF02d@		; `string'
PUBLIC	??_C@_0N@PIPFDMLM@?$CD?$CDPopup_?$CF08x@	; `string'
PUBLIC	??_C@_0P@DCJGJLLM@window_context@		; `string'
PUBLIC	??_C@_0N@OOFNFKBH@void_context@			; `string'
PUBLIC	??_C@_0BM@CFDBCOKD@?$FLfocus?$FN?5SetNavWindow?$CI?$CC?$CFs?$CC?$CJ?6@ ; `string'
PUBLIC	??_C@_0DK@NLPDJHKG@?$FLfocus?$FN?5NavRestoreLayer?3?5from?5?$CC@ ; `string'
PUBLIC	??_C@_0FE@LKAOFKOF@?$FLnav?$FN?5NavInitRequest?3?5from?5NavI@ ; `string'
PUBLIC	??_C@_0EJ@EKHMMIGJ@?$FLnav?$FN?5NavInitRequest?3?5ApplyResu@ ; `string'
PUBLIC	??_C@_0CA@BNPHEIIJ@?$FLnav?$FN?5NavMoveRequestForward?5?$CFd?6@ ; `string'
PUBLIC	??_C@_0DI@DAIPCILO@?$FLnav?$FN?5NavInitRequest?3?5from?5move@ ; `string'
PUBLIC	??_C@_0DJ@MAGJKKCG@?$FLnav?$FN?5NavMoveRequest?3?5clamp?5Nav@ ; `string'
PUBLIC	??_C@_0DB@EPMLAAL@?$FLnav?$FN?5NavMoveSubmitted?5but?5not?5@ ; `string'
PUBLIC	??_C@_0CM@KMMAIAOD@?$FLfocus?$FN?5NavMoveRequest?3?5SetNavW@ ; `string'
PUBLIC	??_C@_0ED@JMNIALPC@?$FLnav?$FN?5NavMoveRequest?3?5result?5Na@ ; `string'
PUBLIC	??_C@_0CA@JJLLCANH@?$FLnav?$FN?5NavUpdateCancelRequest?$CI?$CJ?6@ ; `string'
PUBLIC	??_C@_0BG@NEECCIPG@?$CD?$CD?$CDNavUpdateWindowing@ ; `string'
PUBLIC	??_C@_0O@BKOLOJFE@?$CD?$CDMainMenuBar@		; `string'
PUBLIC	??_C@_0M@GMDKOBNE@?$CIDock?5node?$CJ@		; `string'
PUBLIC	??_C@_0BE@EBHFKNCA@?$CD?$CD?$CDNavWindowingList@ ; `string'
PUBLIC	??_C@_0BB@IFIOILBM@?$CD?$CDTooltip_Hidden@	; `string'
PUBLIC	??_C@_0O@KMAIKFAM@?$CDSourceExtern@		; `string'
PUBLIC	??_C@_02PCIJFNDE@?$AN?6@			; `string'
PUBLIC	??_C@_07LFDEMEGD@?$CF?$CKs?$CF?4?$CKs@		; `string'
PUBLIC	??_C@_02BOGAIONP@ab@				; `string'
PUBLIC	??_C@_0L@DMNDGOCF@LogButtons@			; `string'
PUBLIC	??_C@_0L@COILDFG@Log?5To?5TTY@			; `string'
PUBLIC	??_C@_0M@KAEBEAHF@Log?5To?5File@		; `string'
PUBLIC	??_C@_0BB@CPOBJDKM@Log?5To?5Clipboard@		; `string'
PUBLIC	??_C@_0O@CONALMON@Default?5Depth@		; `string'
PUBLIC	??_C@_02JDPG@rb@				; `string'
PUBLIC	??_C@_02BKFDOEMK@wt@				; `string'
PUBLIC	??_C@_03OIJOKPOL@?$CD?$CD?$CD@			; `string'
PUBLIC	??_C@_09GOMOMIIP@Pos?$DN?$CFi?0?$CFi@		; `string'
PUBLIC	??_C@_0L@MPPKDMFA@Size?$DN?$CFi?0?$CFi@		; `string'
PUBLIC	??_C@_0BC@BICMNPLO@ViewportId?$DN0x?$CF08X@	; `string'
PUBLIC	??_C@_0BC@PJHNCLIJ@ViewportPos?$DN?$CFi?0?$CFi@	; `string'
PUBLIC	??_C@_0N@IAKNMBB@Collapsed?$DN?$CFd@		; `string'
PUBLIC	??_C@_0L@PAOOMOGA@IsChild?$DN?$CFd@		; `string'
PUBLIC	??_C@_0P@CCNHOEDK@DockId?$DN0x?$CFX?0?$CFd@	; `string'
PUBLIC	??_C@_0M@CCAELBAK@DockId?$DN0x?$CFX@		; `string'
PUBLIC	??_C@_0N@CKBPCLAD@ClassId?$DN0x?$CFX@		; `string'
PUBLIC	??_C@_09HNFDDBIF@?$FL?$CFs?$FN?$FL?$CFs?$FN?6@	; `string'
PUBLIC	??_C@_0L@BALPIDOF@IsChild?$DN1?6@		; `string'
PUBLIC	??_C@_0M@CFANMDMP@Size?$DN?$CFd?0?$CFd?6@	; `string'
PUBLIC	??_C@_0BD@NKDECOKI@ViewportPos?$DN?$CFd?0?$CFd?6@ ; `string'
PUBLIC	??_C@_0BD@NGCOFKNO@ViewportId?$DN0x?$CF08X?6@	; `string'
PUBLIC	??_C@_0L@DDMADIHO@Pos?$DN?$CFd?0?$CFd?6@	; `string'
PUBLIC	??_C@_0O@JAFHMCKE@Collapsed?$DN?$CFd?6@		; `string'
PUBLIC	??_C@_0P@PDLJKFFE@DockId?$DN0x?$CF08X?6@	; `string'
PUBLIC	??_C@_0BC@GGCEMLMF@DockId?$DN0x?$CF08X?0?$CFd?6@ ; `string'
PUBLIC	??_C@_0BA@PNKDDFKP@ClassId?$DN0x?$CF08X?6@	; `string'
PUBLIC	??_C@_0FC@KKNCGLEH@?$FLviewport?$FN?5Focused?5viewport?5cha@ ; `string'
PUBLIC	??_C@_0CD@EIJBEOHE@?$FLviewport?$FN?5Add?5Viewport?5?$CF08X?5?8?$CF@ ; `string'
PUBLIC	??_C@_03EKLFPLOI@n?1a@				; `string'
PUBLIC	??_C@_0CG@FBJHJPNC@?$FLviewport?$FN?5Delete?5Viewport?5?$CF08X@ ; `string'
PUBLIC	??_C@_0DN@BEKJGNBG@?$FLviewport?$FN?5Window?5?8?$CFs?8?5steal?5Vi@ ; `string'
PUBLIC	??_C@_0CN@KLCOHGLC@?$FLviewport?$FN?5Create?5Platform?5Wind@ ; `string'
PUBLIC	??_C@_0CO@JNHGPOLA@?$FLviewport?$FN?5Destroy?5Platform?5Win@ ; `string'
PUBLIC	??_C@_0BA@DGHNEHPH@?$CD?$CDDockNode_?$CF02X@	; `string'
PUBLIC	??_C@_07EKNEIOG@Docking@			; `string'
PUBLIC	??_C@_0CD@JNLCNHLB@?$FLdocking?$FN?5DockContextRebuildNod@ ; `string'
PUBLIC	??_C@_0CF@FLIDOAKC@?$FLdocking?$FN?5DockContextAddNode?50x@ ; `string'
PUBLIC	??_C@_0CI@CLJCBFON@?$FLdocking?$FN?5DockContextRemoveNode@ ; `string'
PUBLIC	??_C@_0DN@KHOOENI@?$FLdocking?$FN?5DockContextPruneUnuse@ ; `string'
PUBLIC	??_C@_0FJ@DDMKCBPE@?$FLdocking?$FN?5DockContextProcessDoc@ ; `string'
PUBLIC	??_C@_0DM@DPIPCCIF@?$FLdocking?$FN?5DockContextProcessDoc@ ; `string'
PUBLIC	??_C@_0FJ@HENHGIAD@?$FLdocking?$FN?5DockContextProcessUnd@ ; `string'
PUBLIC	??_C@_0DC@MKBFJKJL@?$FLdocking?$FN?5DockContextProcessUnd@ ; `string'
PUBLIC	??_C@_0DF@JBNCMFGI@?$FLdocking?$FN?5DockNodeAddWindow?5nod@ ; `string'
PUBLIC	??_C@_0DI@OLLMNIML@?$FLdocking?$FN?5DockNodeRemoveWindow?5@ ; `string'
PUBLIC	??_C@_0EC@OJPOEPNF@?$FLviewport?$FN?5Node?5?$CF08X?5transfer?5V@ ; `string'
PUBLIC	??_C@_03NDEAONJP@?5?5?5@			; `string'
PUBLIC	??_C@_0M@IALBNCNH@?$CDWindowMenu@		; `string'
PUBLIC	??_C@_02DKCKIIND@?$CFs@				; `string'
PUBLIC	??_C@_0N@BFNBGBBP@?5?$CIwill?5sort?$CJ@		; `string'
PUBLIC	??_C@_0DE@DDFDIKCC@?$FLdocking?$FN?5In?5node?50x?$CF08X?3?5?$CFd?5ne@ ; `string'
PUBLIC	??_C@_0CG@OGIFOOH@?$FLdocking?$FN?5?9?5Tab?50x?$CF08X?5?8?$CFs?8?5Ord@ ; `string'
PUBLIC	??_C@_0DN@KDEPEANI@?$FLdocking?$FN?5SelectedTabId?5?$DN?50x?$CF08@ ; `string'
PUBLIC	??_C@_07HPOFFKIA@?$CDTabBar@			; `string'
PUBLIC	??_C@_09FGKIHOPL@?$CDTITLEBAR@			; `string'
PUBLIC	??_C@_0EG@PABCKJPO@?$FLdocking?$FN?5DockNodeTreeMerge?3?50x@ ; `string'
PUBLIC	??_C@_0L@BABEOIEN@?$CD?$CDSplitter@		; `string'
PUBLIC	??_C@_0DE@BHECDHOE@?$FLdocking?$FN?5DockSpace?3?5dockspace?5@ ; `string'
PUBLIC	??_C@_0FA@CHDCOLDM@?$FLdocking?$FN?5DockSpace?3?5dockspace?5@ ; `string'
PUBLIC	??_C@_0BC@HILLNFEB@?$CFs?1DockSpace_?$CF08X@	; `string'
PUBLIC	??_C@_0BH@FMIKPECO@DockSpaceViewport_?$CF08X@	; `string'
PUBLIC	??_C@_09HNGCCBAK@DockSpace@			; `string'
PUBLIC	??_C@_0DF@IBLNKNIA@?$FLdocking?$FN?5DockBuilderDockWindow@ ; `string'
PUBLIC	??_C@_0DA@JDAILCIJ@?$FLdocking?$FN?5DockBuilderAddNode?50x@ ; `string'
PUBLIC	??_C@_0CI@GIBILGEJ@?$FLdocking?$FN?5DockBuilderRemoveNode@ ; `string'
PUBLIC	??_C@_0DL@IAPIIABA@?$FLdocking?$FN?5DockBuilderSplitNode?3@ ; `string'
PUBLIC	??_C@_0CO@FGKCLCPK@?$FLdocking?$FN?5Fork?5node?5?$CF08X?5?9?$DO?5?$CF08@ ; `string'
PUBLIC	??_C@_0DI@KJBIILHG@?$FLdocking?$FN?5Remap?5live?5window?5?8?$CFs@ ; `string'
PUBLIC	??_C@_0CO@CAPLLOJA@?$FLdocking?$FN?5Remap?5window?5settings@ ; `string'
PUBLIC	??_C@_0CK@DDPHJLLO@?$FLdocking?$FN?5Remap?5window?5?8?$CFs?8?5?$CF08@ ; `string'
PUBLIC	??_C@_0EG@OEJHDGEJ@?$FLdocking?$FN?5DockSettingsRenameNod@ ; `string'
PUBLIC	??_C@_04DICKPMGH@Data@				; `string'
PUBLIC	??_C@_08JIPMFPMP@DockNode@			; `string'
PUBLIC	??_C@_0M@EABHJKFN@ID?$DN0x?$CF08X?$CFn@		; `string'
PUBLIC	??_C@_0BB@LDAMKONE@?5Parent?$DN0x?$CF08X?$CFn@	; `string'
PUBLIC	??_C@_0BB@BCOKMEIM@?5Window?$DN0x?$CF08X?$CFn@	; `string'
PUBLIC	??_C@_0N@CLIDKJPC@?5Pos?$DN?$CFi?0?$CFi?$CFn@	; `string'
PUBLIC	??_C@_0O@EDIHGLJG@?5Size?$DN?$CFi?0?$CFi?$CFn@	; `string'
PUBLIC	??_C@_0BB@EBIPMFPM@?5SizeRef?$DN?$CFi?0?$CFi?$CFn@ ; `string'
PUBLIC	??_C@_0M@LLHEMPAF@?5Split?$DN?$CFc?$CFn@	; `string'
PUBLIC	??_C@_0P@DLFCGAHK@?5NoResize?$DN?$CFd?$CFn@	; `string'
PUBLIC	??_C@_0BC@KJIGMIOI@?5CentralNode?$DN?$CFd?$CFn@	; `string'
PUBLIC	??_C@_0P@CPNGMPIN@?5NoTabBar?$DN?$CFd?$CFn@	; `string'
PUBLIC	??_C@_0BD@EJDLDLAA@?5HiddenTabBar?$DN?$CFd?$CFn@ ; `string'
PUBLIC	??_C@_0BJ@INNALLK@?5NoWindowMenuButton?$DN?$CFd?$CFn@ ; `string'
PUBLIC	??_C@_0BE@DCDHEIFG@?5NoCloseButton?$DN?$CFd?$CFn@ ; `string'
PUBLIC	??_C@_0BD@MACBKJLI@?5Selected?$DN0x?$CF08X?$CFn@ ; `string'
PUBLIC	??_C@_0M@MKIIJNLI@?$FL?$CFs?$FN?$FLData?$FN?6@	; `string'
PUBLIC	??_C@_09JOMHAHNM@DockNode?5@			; `string'
PUBLIC	??_C@_08CLJBCAAA@?$CF?$CKs?$CFs?$CF?$CKs@	; `string'
PUBLIC	??_C@_0L@DPPOIFG@?5ID?$DN0x?$CF08X@		; `string'
PUBLIC	??_C@_0BN@EEFCAKCA@?5Parent?$DN0x?$CF08X?5SizeRef?$DN?$CFd?0?$CFd@ ; `string'
PUBLIC	??_C@_0P@OMDIPND@?5Window?$DN0x?$CF08X@		; `string'
PUBLIC	??_C@_0BG@BLEMDCJH@?5Pos?$DN?$CFd?0?$CFd?5Size?$DN?$CFd?0?$CFd@ ; `string'
PUBLIC	??_C@_09KJAPNKGF@?5Split?$DN?$CFc@		; `string'
PUBLIC	??_C@_0M@FLGJFCFJ@?5NoResize?$DN1@		; `string'
PUBLIC	??_C@_0P@FIKHIGFG@?5CentralNode?$DN1@		; `string'
PUBLIC	??_C@_0M@NKAFIOBD@?5NoTabBar?$DN1@		; `string'
PUBLIC	??_C@_0BA@MKPNOACN@?5HiddenTabBar?$DN1@		; `string'
PUBLIC	??_C@_0BG@IECGHHO@?5NoWindowMenuButton?$DN1@	; `string'
PUBLIC	??_C@_0BB@BFJFBNOA@?5NoCloseButton?$DN1@	; `string'
PUBLIC	??_C@_0BB@OKNDBLOJ@?5Selected?$DN0x?$CF08X@	; `string'
PUBLIC	??_C@_03HIJPJGOM@?$CF?$CKs@			; `string'
PUBLIC	??_C@_0L@HLPIHLMC@?5?$DL?5in?5?8?$CFs?8@	; `string'
PUBLIC	??_C@_0N@ILNOODLK@?5?$DL?5contains?5@		; `string'
PUBLIC	??_C@_05IMLJLABD@?8?$CFs?8?5@			; `string'
PUBLIC	??_C@_0L@NOOHJNEN@Text?3?5?$CC?$CFs?$CC@	; `string'
PUBLIC	??_C@_0BE@GJJMBBD@?$CD?$CDDebugTextEncoding@	; `string'
PUBLIC	??_C@_06GEMKPBPA@Offset@			; `string'
PUBLIC	??_C@_05EGJIMALK@UTF?98@			; `string'
PUBLIC	??_C@_05OPEAJICN@Glyph@				; `string'
PUBLIC	??_C@_09DIHJKHFA@Codepoint@			; `string'
PUBLIC	??_C@_02DPKJAMEF@?$CFd@				; `string'
PUBLIC	??_C@_06IBAGLEAI@0x?$CF02X@			; `string'
PUBLIC	??_C@_09HOBHDEIO@?$FLinvalid?$FN@		; `string'
PUBLIC	??_C@_09GCGJOJDM@?$FLmissing?$FN@		; `string'
PUBLIC	??_C@_06NGBPNBKB@U?$CL?$CF04X@			; `string'
PUBLIC	??_C@_03NAEMJKHE@?$CI?$DP?$CJ@			; `string'
PUBLIC	??_C@_0BK@BHFPKHKC@Font?5Atlas?5?$CI?$CFdx?$CFd?5pixels?$CJ@ ; `string'
PUBLIC	??_C@_0L@NMOGCNN@Font?5Atlas@			; `string'
PUBLIC	??_C@_0BF@JAFFJHHF@Tint?5with?5Text?5Color@	; `string'
PUBLIC	??_C@_0BM@CNHCNFCK@Dear?5ImGui?5Metrics?1Debugger@ ; `string'
PUBLIC	??_C@_0O@NCHBJMJF@Dear?5ImGui?5?$CFs@		; `string'
PUBLIC	??_C@_0CN@EIPBEGMP@Application?5average?5?$CF?43f?5ms?1fra@ ; `string'
PUBLIC	??_C@_0CH@HHKODNBE@?$CFd?5vertices?0?5?$CFd?5indices?5?$CI?$CFd?5tri@ ; `string'
PUBLIC	??_C@_0CL@HEAONCKO@?$CFd?5visible?5windows?0?5?$CFd?5current?5@ ; `string'
PUBLIC	??_C@_09DBGHEPMN@OuterRect@			; `string'
PUBLIC	??_C@_0BB@CJNOCIFN@OuterRectClipped@		; `string'
PUBLIC	??_C@_09PPJHMOMF@InnerRect@			; `string'
PUBLIC	??_C@_0O@BNFMFEHO@InnerClipRect@		; `string'
PUBLIC	??_C@_08FACDBJHD@WorkRect@			; `string'
PUBLIC	??_C@_07HLHPKMFI@Content@			; `string'
PUBLIC	??_C@_0N@FEPIKFED@ContentIdeal@			; `string'
PUBLIC	??_C@_0BC@NDBPEMLC@ContentRegionRect@		; `string'
PUBLIC	??_C@_0N@OPBPMFAC@HostClipRect@			; `string'
PUBLIC	??_C@_0BD@PAHDAJDC@BackgroundClipRect@		; `string'
PUBLIC	??_C@_0M@CDCMPDKG@ColumnsRect@			; `string'
PUBLIC	??_C@_0BA@ODEDLNCO@ColumnsWorkRect@		; `string'
PUBLIC	??_C@_0BA@JACIJDNM@ColumnsClipRect@		; `string'
PUBLIC	??_C@_0BK@BLBFMAOD@ColumnsContentHeadersUsed@	; `string'
PUBLIC	??_C@_0BL@FAEPMJDA@ColumnsContentHeadersIdeal@	; `string'
PUBLIC	??_C@_0BF@HAPEHPAK@ColumnsContentFrozen@	; `string'
PUBLIC	??_C@_0BH@NNGOPODG@ColumnsContentUnfrozen@	; `string'
PUBLIC	??_C@_05OENKALAF@Tools@				; `string'
PUBLIC	??_C@_0N@CMPJCBOP@Debug?5breaks@		; `string'
PUBLIC	??_C@_0IF@BGKDCLHL@Will?5call?5the?5IM_DEBUG_BREAK?$CI?$CJ?5@ ; `string'
PUBLIC	??_C@_0BB@KCIONAAN@Show?5Item?5Picker@		; `string'
PUBLIC	??_C@_0EP@GKBEHFCP@Show?5?$CCDebug?5Break?$CC?5buttons?5in?5o@ ; `string'
PUBLIC	??_C@_09FMJILDNI@Visualize@			; `string'
PUBLIC	??_C@_0P@DGHPLGOO@Show?5Debug?5Log@		; `string'
PUBLIC	??_C@_0DO@CKGHHFPI@You?5can?5also?5call?5ImGui?3?3ShowDe@ ; `string'
PUBLIC	??_C@_0BD@BMCMKPKD@Show?5ID?5Stack?5Tool@	; `string'
PUBLIC	??_C@_0EB@DCLLOLJL@You?5can?5also?5call?5ImGui?3?3ShowID@ ; `string'
PUBLIC	??_C@_0BJ@HJBAEIMP@Show?5windows?5begin?5order@	; `string'
PUBLIC	??_C@_0BI@DIKJGFFM@Show?5windows?5rectangles@	; `string'
PUBLIC	??_C@_0BJ@OFHLDDCB@?$CD?$CDshow_windows_rect_type@ ; `string'
PUBLIC	??_C@_05DMJEEKMI@?8?$CFs?8?3@			; `string'
PUBLIC	??_C@_0DC@MPAIEFII@?$CI?$CF6?41f?0?$CF6?41f?$CJ?5?$CI?$CF6?41f?0?$CF6?41f?$CJ?5Siz@ ; `string'
PUBLIC	??_C@_0BH@GINBNIDO@Show?5tables?5rectangles@	; `string'
PUBLIC	??_C@_0BI@CCENNJPN@?$CD?$CDshow_table_rects_type@ ; `string'
PUBLIC	??_C@_0CD@PGABKCAC@Table?50x?$CF08X?5?$CI?$CFd?5columns?0?5in?5?8?$CF@ ; `string'
PUBLIC	??_C@_0DJ@IFLDIHOJ@?$CI?$CF6?41f?0?$CF6?41f?$CJ?5?$CI?$CF6?41f?0?$CF6?41f?$CJ?5Siz@ ; `string'
PUBLIC	??_C@_0BH@DBHEADMF@Show?5groups?5rectangles@	; `string'
PUBLIC	??_C@_08MDEIBFAO@Validate@			; `string'
PUBLIC	??_C@_0CE@LPOIPIPP@Debug?5Begin?1BeginChild?5return?5v@ ; `string'
PUBLIC	??_C@_0JB@BLJMKPEN@Some?5calls?5to?5Begin?$CI?$CJ?1BeginChil@ ; `string'
PUBLIC	??_C@_0BG@EANHHHDM@UTF?98?5Encoding?5viewer@	; `string'
PUBLIC	??_C@_0IH@JFLBENFG@You?5can?5also?5call?5ImGui?3?3DebugT@ ; `string'
PUBLIC	??_C@_0BH@BFNCCGOM@?$CD?$CDDebugTextEncodingBuf@ ; `string'
PUBLIC	??_C@_0N@HJIBBJFL@Windows?5?$CI?$CFd?$CJ@	; `string'
PUBLIC	??_C@_07LDLFNPGN@Windows@			; `string'
PUBLIC	??_C@_0BB@OFNDBHKO@By?5display?5order@		; `string'
PUBLIC	??_C@_0BO@HBHGMPEI@By?5focus?5order?5?$CIroot?5windows?$CJ@ ; `string'
PUBLIC	??_C@_0CC@PJNGLIEE@By?5submission?5order?5?$CIbegin?5stac@ ; `string'
PUBLIC	??_C@_0P@EHGADCPI@DrawLists?5?$CI?$CFd?$CJ@	; `string'
PUBLIC	??_C@_09KCCHKPGA@DrawLists@			; `string'
PUBLIC	??_C@_0CC@NLEJJGFA@Show?5ImDrawCmd?5mesh?5when?5hoveri@ ; `string'
PUBLIC	??_C@_0CM@GCNMPAKG@Show?5ImDrawCmd?5bounding?5boxes?5w@ ; `string'
PUBLIC	??_C@_0CN@KDMCNFJK@Active?5DrawLists?5in?5Viewport?5?$CD?$CF@ ; `string'
PUBLIC	??_C@_08IJNCDCKF@DrawList@			; `string'
PUBLIC	??_C@_0P@HKKCMMOO@Viewports?5?$CI?$CFd?$CJ@	; `string'
PUBLIC	??_C@_09GPOHHJPA@Viewports@			; `string'
PUBLIC	??_C@_0O@DOJKOMHG@Monitors?5?$CI?$CFd?$CJ@	; `string'
PUBLIC	??_C@_08PHOCODGN@Monitors@			; `string'
PUBLIC	??_C@_0IL@ELEEPJGF@Dear?5ImGui?5uses?5monitor?5data?3?6?9@ ; `string'
PUBLIC	??_C@_0JI@EONONGH@Monitor?5?$CD?$CFd?3?5DPI?5?$CF?40f?$CF?$CF?6?5MainMi@ ; `string'
PUBLIC	??_C@_0BA@CMPIOGEE@Windows?5Minimap@		; `string'
PUBLIC	??_C@_0DP@NELEPLJN@MouseViewport?3?50x?$CF08X?5?$CIUserHove@ ; `string'
PUBLIC	??_C@_0CB@JHOIGOCP@Inferred?5Z?5order?5?$CIfront?9to?9back@ ; `string'
PUBLIC	??_C@_0FB@GPMNEOHO@Viewport?5?$CD?$CFd?0?5ID?3?50x?$CF08X?0?5LastF@ ; `string'
PUBLIC	??_C@_0M@CMLJJLKO@Popups?5?$CI?$CFd?$CJ@	; `string'
PUBLIC	??_C@_06ENDEIGLN@Popups@			; `string'
PUBLIC	??_C@_05BJFIHKGA@Menu?$DL@			; `string'
PUBLIC	??_C@_06GFGJBDBB@Child?$DL@			; `string'
PUBLIC	??_C@_0EN@OGPFJEIE@PopupID?3?5?$CF08x?0?5Window?3?5?8?$CFs?8?5?$CI?$CFs@ ; `string'
PUBLIC	??_C@_0O@JLIGAOM@Tab?5Bars?5?$CI?$CFd?$CJ@	; `string'
PUBLIC	??_C@_07NBICDJOO@TabBars@			; `string'
PUBLIC	??_C@_06PAFCDPCC@TabBar@			; `string'
PUBLIC	??_C@_0M@GKKKBBGH@Tables?5?$CI?$CFd?$CJ@	; `string'
PUBLIC	??_C@_06KOKNHOLC@Tables@			; `string'
PUBLIC	??_C@_0L@IBDLAPEA@Fonts?5?$CI?$CFd?$CJ@		; `string'
PUBLIC	??_C@_05ENDNDI@Fonts@				; `string'
PUBLIC	??_C@_09LIBCCLDO@InputText@			; `string'
PUBLIC	??_C@_0BC@EGOPGFED@TypingSelect?5?$CI?$CFd?$CJ@	; `string'
PUBLIC	??_C@_0N@GPIOIBH@TypingSelect@			; `string'
PUBLIC	??_C@_0BA@GPCPAJDA@List?5root?5nodes@		; `string'
PUBLIC	??_C@_0BM@OEMNPJGM@Ctrl?5shows?5window?5dock?5info@ ; `string'
PUBLIC	??_C@_0M@BDNBGANB@Clear?5nodes@			; `string'
PUBLIC	??_C@_0M@MAMGOMGO@Rebuild?5all@			; `string'
PUBLIC	??_C@_04OKAPPFIB@Node@				; `string'
PUBLIC	??_C@_08EEOHOBEO@Settings@			; `string'
PUBLIC	??_C@_05MDNHABIA@Clear@				; `string'
PUBLIC	??_C@_0P@BGFPLLLP@Save?5to?5memory@		; `string'
PUBLIC	??_C@_0N@PMPOLMLD@Save?5to?5disk@		; `string'
PUBLIC	??_C@_04OEDFLLKD@?$CC?$CFs?$CC@			; `string'
PUBLIC	??_C@_0BK@NMDAIABL@io?4ConfigDebugIniSettings@	; `string'
PUBLIC	??_C@_0BI@KCGHKNOH@SettingsDirtyTimer?5?$CF?42f@ ; `string'
PUBLIC	??_C@_0BI@PGENAEOL@Settings?5handlers?3?5?$CI?$CFd?$CJ@ ; `string'
PUBLIC	??_C@_0BB@NEINIHH@SettingsHandlers@		; `string'
PUBLIC	??_C@_0CI@CKIDLOMN@Settings?5packed?5data?3?5Windows?3?5@ ; `string'
PUBLIC	??_C@_0BA@GOMGONFN@SettingsWindows@		; `string'
PUBLIC	??_C@_0CH@GODOBOJJ@Settings?5packed?5data?3?5Tables?3?5?$CF@ ; `string'
PUBLIC	??_C@_0P@NAODIHNN@SettingsTables@		; `string'
PUBLIC	??_C@_0BO@EFGBGMCF@Settings?5packed?5data?3?5Docking@ ; `string'
PUBLIC	??_C@_0BA@NJNOHKNG@SettingsDocking@		; `string'
PUBLIC	??_C@_0BE@JJNECGJF@In?5SettingsWindows?3@	; `string'
PUBLIC	??_C@_0CI@NDHBPJJN@Window?5?8?$CFs?8?5?9?$DO?5DockId?5?$CF08X?5Dock@ ; `string'
PUBLIC	??_C@_0BC@DFKHMEEL@In?5SettingsNodes?3@		; `string'
PUBLIC	??_C@_0DA@HPNBHCPC@Node?5?$CF08X?0?5Parent?5?$CF08X?0?5Selecte@ ; `string'
PUBLIC	??_C@_0CI@MPNDIPDD@Settings?5unpacked?5data?5?$CI?4ini?$CJ?3?5@ ; `string'
PUBLIC	??_C@_0BA@IEPJFGMP@SettingsIniData@		; `string'
PUBLIC	??_C@_05FJAOFNGD@?$CD?$CDIni@			; `string'
PUBLIC	??_C@_0BD@CAJKIOOH@Memory?5allocations@		; `string'
PUBLIC	??_C@_0BH@HIAKMOIL@?$CFd?5current?5allocations@	; `string'
PUBLIC	??_C@_06FDDONPKM@GC?5now@			; `string'
PUBLIC	??_C@_0CA@MNEBFLML@Recent?5frames?5with?5allocations?3@ ; `string'
PUBLIC	??_C@_0P@HDFANBLD@?5?$CImost?5recent?$CJ@	; `string'
PUBLIC	??_C@_0CM@EKOGIOFC@Frame?5?$CF06d?3?5?$CF?$CL3d?5?$CI?5?$CF2d?5malloc?0?5@ ; `string'
PUBLIC	??_C@_06HDCHCENJ@Inputs@			; `string'
PUBLIC	??_C@_0BM@CMPOEGIF@KEYBOARD?1GAMEPAD?1MOUSE?5KEYS@ ; `string'
PUBLIC	??_C@_0L@POLCMIEL@Keys?5down?3@			; `string'
PUBLIC	??_C@_07BFJJNFBL@?$CC?$CFs?$CC?5?$CFd@		; `string'
PUBLIC	??_C@_07ODHCILNN@?$CI?$CF?402f?$CJ@		; `string'
PUBLIC	??_C@_0O@DAHEMGJA@Keys?5pressed?3@		; `string'
PUBLIC	??_C@_0P@HNKDNBMM@Keys?5released?3@		; `string'
PUBLIC	??_C@_06ECIIPDFH@SUPER?5@			; `string'
PUBLIC	??_C@_04HDLNDMFA@ALT?5@				; `string'
PUBLIC	??_C@_06IGAIMELN@SHIFT?5@			; `string'
PUBLIC	??_C@_05IHGCNILK@CTRL?5@			; `string'
PUBLIC	??_C@_0BE@HPBGOMPC@Keys?5mods?3?5?$CFs?$CFs?$CFs?$CFs@ ; `string'
PUBLIC	??_C@_0N@PKFKOHDJ@Chars?5queue?3@		; `string'
PUBLIC	??_C@_0O@FLAJMFCG@?8?$CFc?8?5?$CI0x?$CF04X?$CJ@	; `string'
PUBLIC	??_C@_0M@FHOOLGCL@MOUSE?5STATE@			; `string'
PUBLIC	??_C@_0BE@HGGCPGOH@Mouse?5pos?3?5?$CI?$CFg?0?5?$CFg?$CJ@ ; `string'
PUBLIC	??_C@_0BF@BCIGOCNH@Mouse?5pos?3?5?$DMINVALID?$DO@ ; `string'
PUBLIC	??_C@_0BG@MNNMKHFC@Mouse?5delta?3?5?$CI?$CFg?0?5?$CFg?$CJ@ ; `string'
PUBLIC	??_C@_0M@HODNMGFJ@Mouse?5down?3@		; `string'
PUBLIC	??_C@_0BB@BCIHMLII@b?$CFd?5?$CI?$CF?402f?5secs?$CJ@ ; `string'
PUBLIC	??_C@_0P@KEMIOLDA@Mouse?5clicked?3@		; `string'
PUBLIC	??_C@_08MPGFIEFP@b?$CFd?5?$CI?$CFd?$CJ@		; `string'
PUBLIC	??_C@_0BA@NMIOGEHG@Mouse?5released?3@		; `string'
PUBLIC	??_C@_03HAIDDFMD@b?$CFd@			; `string'
PUBLIC	??_C@_0BC@CFHNPKHB@Mouse?5wheel?3?5?$CF?41f@	; `string'
PUBLIC	??_C@_0BL@HJGPGGCC@MouseStationaryTimer?3?5?$CF?42f@ ; `string'
PUBLIC	??_C@_0BB@OGEGHANL@Mouse?5source?3?5?$CFs@	; `string'
PUBLIC	??_C@_0BD@PNGBMOAE@Pen?5Pressure?3?5?$CF?41f@	; `string'
PUBLIC	??_C@_0P@KFDIODJM@MOUSE?5WHEELING@		; `string'
PUBLIC	??_C@_0BF@JFEICAPA@WheelingWindow?3?5?8?$CFs?8@	; `string'
PUBLIC	??_C@_0CB@GKEOFNFN@WheelingWindowReleaseTimer?3?5?$CF?42@ ; `string'
PUBLIC	??_C@_06PAOMPDJH@?$DMnone?$DO@			; `string'
PUBLIC	??_C@_0DC@COLEDANA@WheelingAxisAvg?$FL?$FN?5?$DN?5?$HL?5?$CF?43f?0?5?$CF?43@ ; `string'
PUBLIC	??_C@_0L@CIGKAOJG@KEY?5OWNERS@			; `string'
PUBLIC	??_C@_08MHDHGJOB@?$CD?$CDowners@		; `string'
PUBLIC	??_C@_0BC@LKHMKKD@?5LockUntilRelease@		; `string'
PUBLIC	??_C@_0P@KHDHNDE@?5LockThisFrame@		; `string'
PUBLIC	??_C@_0N@OFJBCDIC@?$CFs?3?50x?$CF08X?$CFs@	; `string'
PUBLIC	??_C@_0BB@IIHPPFOB@SHORTCUT?5ROUTING@		; `string'
PUBLIC	??_C@_0EI@GJCEMDFM@Declared?5shortcut?5routes?5automa@ ; `string'
PUBLIC	??_C@_08MIEHDHIF@?$CD?$CDroutes@		; `string'
PUBLIC	??_C@_0BH@JMBJOGJM@?$CFs?3?50x?$CF08X?5?$CIscored?5?$CFd?$CJ@ ; `string'
PUBLIC	??_C@_0CK@LNLOIDCJ@in?5SetShortcutRouting?$CI?$CJ?5for?5thi@ ; `string'
PUBLIC	??_C@_0P@GPBIMLCE@?$CK?$CKDebugBreak?$CK?$CK@	; `string'
PUBLIC	??_C@_0DH@IBPBMDJD@?$CIActiveIdUsing?3?5AllKeyboardKeys@ ; `string'
PUBLIC	??_C@_0P@DKNCHHLP@Internal?5state@		; `string'
PUBLIC	??_C@_09OOMCPLIM@WINDOWING@			; `string'
PUBLIC	??_C@_0BE@NBGIHPGN@HoveredWindow?3?5?8?$CFs?8@	; `string'
PUBLIC	??_C@_0BK@GFBMGONH@HoveredWindow?9?$DORoot?3?5?8?$CFs?8@ ; `string'
PUBLIC	??_C@_0CF@OOIEDAD@HoveredWindowUnderMovingWindow?3@ ; `string'
PUBLIC	??_C@_0BI@HNDCBICI@HoveredDockNode?3?50x?$CF08X@ ; `string'
PUBLIC	??_C@_0BD@HCKEDLME@MovingWindow?3?5?8?$CFs?8@	; `string'
PUBLIC	??_C@_05OOOHNEPI@ITEMS@				; `string'
PUBLIC	??_C@_0EB@PEJDHKLE@ActiveId?3?50x?$CF08X?10x?$CF08X?5?$CI?$CF?42f?5s@ ; `string'
PUBLIC	??_C@_0BF@CPEAOPEJ@ActiveIdWindow?3?5?8?$CFs?8@	; `string'
PUBLIC	??_C@_0DD@CAAMDFEK@ActiveIdUsing?3?5AllKeyboardKeys?3@ ; `string'
PUBLIC	??_C@_0CP@CCEEBMAB@HoveredId?3?50x?$CF08X?5?$CI?$CF?42f?5sec?$CJ?0?5A@ ; `string'
PUBLIC	??_C@_0DI@LCGCLGIP@HoverItemDelayId?3?50x?$CF08X?0?5Timer@ ; `string'
PUBLIC	??_C@_0DJ@OPOHHHAC@DragDrop?3?5?$CFd?0?5SourceId?5?$DN?50x?$CF08X@ ; `string'
PUBLIC	??_C@_09LPFJCNIB@NAV?0FOCUS@			; `string'
PUBLIC	??_C@_0BA@KJPDENCF@NavWindow?3?5?8?$CFs?8@	; `string'
PUBLIC	??_C@_0BM@KFFINKHC@NavId?3?50x?$CF08X?0?5NavLayer?3?5?$CFd@ ; `string'
PUBLIC	??_C@_0BD@HIKDFBG@NavInputSource?3?5?$CFs@	; `string'
PUBLIC	??_C@_0DA@BPKLGDAF@NavLastValidSelectionUserData?5?$DN@ ; `string'
PUBLIC	??_C@_0BO@PADIALFI@NavActive?3?5?$CFd?0?5NavVisible?3?5?$CFd@ ; `string'
PUBLIC	??_C@_0CP@NGKGGGDE@NavActivateId?1DownId?1PressedId?3@ ; `string'
PUBLIC	??_C@_0BH@DDMJGBPN@NavActivateFlags?3?5?$CF04X@	; `string'
PUBLIC	??_C@_0DC@PBLGJJAI@NavDisableHighlight?3?5?$CFd?0?5NavDis@ ; `string'
PUBLIC	??_C@_0BJ@GGAKOFG@NavFocusScopeId?5?$DN?50x?$CF08X@ ; `string'
PUBLIC	??_C@_0BD@KMCAKLFO@NavFocusRoute?$FL?$FN?5?$DN?5@ ; `string'
PUBLIC	??_C@_07HDPLFGIP@0x?$CF08X?1@			; `string'
PUBLIC	??_C@_0P@CPDHMPDO@In?5window?5?$CC?$CFs?$CC@	; `string'
PUBLIC	??_C@_0BJ@HGGGEMAP@NavWindowingTarget?3?5?8?$CFs?8@ ; `string'
PUBLIC	??_C@_0P@MHANFNLE@?5?$CKCentralNode?$CK@	; `string'
PUBLIC	??_C@_0O@KPMNKFNG@DockId?3?5?$CFX?$CFs?6@	; `string'
PUBLIC	??_C@_0BD@IANEACFO@WindowClass?3?5?$CF08X?6@	; `string'
PUBLIC	??_C@_0BE@PEMKEDJL@Size?3?5?$CI?$CF?40f?0?5?$CF?40f?$CJ?6@ ; `string'
PUBLIC	??_C@_0BH@JEMNMICE@SizeRef?3?5?$CI?$CF?40f?0?5?$CF?40f?$CJ?6@ ; `string'
PUBLIC	??_C@_0BN@FAEENFHD@To?5call?5IM_DEBUG_BREAK?$CI?$CJ?5?$CFs?3@ ; `string'
PUBLIC	??_C@_0CD@FEOHFLMJ@?9?5Press?5?8Pause?1Break?8?5on?5keyboa@ ; `string'
PUBLIC	??_C@_0HJ@KHDGNDHG@?9?5Press?5?8Pause?1Break?8?5on?5keyboa@ ; `string'
PUBLIC	??_C@_0HK@FMHOPFEI@Choose?5one?5way?5that?5doesn?8t?5int@ ; `string'
PUBLIC	??_C@_0CN@LMOAIACO@Columns?5Id?3?50x?$CF08X?0?5Count?3?5?$CFd?0?5@ ; `string'
PUBLIC	??_C@_0CF@PKFCLBKA@Width?3?5?$CF?41f?5?$CIMinX?3?5?$CF?41f?0?5MaxX?3?5@ ; `string'
PUBLIC	??_C@_0CJ@CPAFBJNN@Column?5?$CF02d?3?5OffsetNorm?5?$CF?43f?5?$CI?$DN@ ; `string'
PUBLIC	??_C@_03DKEJHHJP@?$CFs?3@			; `string'
PUBLIC	??_C@_08FDKOLHFG@NoResize@			; `string'
PUBLIC	??_C@_09PADJINCK@NoResizeX@			; `string'
PUBLIC	??_C@_09OJCCLMGL@NoResizeY@			; `string'
PUBLIC	??_C@_08JEKMJOHA@NoTabBar@			; `string'
PUBLIC	??_C@_0N@NLKLIFFD@HiddenTabBar@			; `string'
PUBLIC	??_C@_0BD@KCGGIEPF@NoWindowMenuButton@		; `string'
PUBLIC	??_C@_0O@DJJOAHDN@NoCloseButton@		; `string'
PUBLIC	??_C@_0BK@OJKPENED@DockedWindowsInFocusRoute@	; `string'
PUBLIC	??_C@_09IBKMIGJP@NoDocking@			; `string'
PUBLIC	??_C@_0P@GHPDMKFI@NoDockingSplit@		; `string'
PUBLIC	??_C@_0BE@NDHGIJGE@NoDockingSplitOther@		; `string'
PUBLIC	??_C@_0O@FPHEPEPE@NoDockingOver@		; `string'
PUBLIC	??_C@_0BD@IFLAMFJP@NoDockingOverOther@		; `string'
PUBLIC	??_C@_0BD@CCGGHMPG@NoDockingOverEmpty@		; `string'
PUBLIC	??_C@_0M@DCMOCCJM@NoUndocking@			; `string'
PUBLIC	??_C@_09ICABOEOL@?5?$CIhidden?$CJ@		; `string'
PUBLIC	??_C@_0CE@FOJGCEOL@?$CFs?50x?$CF04X?$CFs?3?5?$CFd?5windows?5?$CIvis?3?5?8@ ; `string'
PUBLIC	??_C@_0BB@LFFCBEPF@horizontal?5split@		; `string'
PUBLIC	??_C@_0P@OCHJPFEB@vertical?5split@		; `string'
PUBLIC	??_C@_05LBJMNBOG@empty@				; `string'
PUBLIC	??_C@_0BM@MFJJAIA@?$CFs?50x?$CF04X?$CFs?3?5?$CFs?5?$CIvis?3?5?8?$CFs?8?$CJ@ ; `string'
PUBLIC	??_C@_0DE@FLJOFLDG@Pos?5?$CI?$CF?40f?0?$CF?40f?$CJ?0?5Size?5?$CI?$CF?40f?0?5?$CF?4@ ; `string'
PUBLIC	??_C@_0L@EBBBMKMB@HostWindow@			; `string'
PUBLIC	??_C@_0O@IPNCGGMB@VisibleWindow@		; `string'
PUBLIC	??_C@_0DB@EFCFPKBP@SelectedTabID?3?50x?$CF08X?0?5LastFocu@ ; `string'
PUBLIC	??_C@_0BF@JEDBAMHN@?5HasCentralNodeChild@	; `string'
PUBLIC	??_C@_0BC@DOFLNDJF@?5WantLockSizeOnce@		; `string'
PUBLIC	??_C@_0L@KCDMFPIJ@?5IsFocused@			; `string'
PUBLIC	??_C@_09GNFAMBMJ@?5IsActive@			; `string'
PUBLIC	??_C@_08OGELAKIO@?5IsAlive@			; `string'
PUBLIC	??_C@_0P@CDHHMAOD@?5IsCentralNode@		; `string'
PUBLIC	??_C@_0N@OIOIPNJI@?5IsDockSpace@		; `string'
PUBLIC	??_C@_0BE@EKLPOGND@Misc?3?$CFs?$CFs?$CFs?$CFs?$CFs?$CFs?$CFs@ ; `string'
PUBLIC	??_C@_0EH@IFKMPGFC@Flags?5Merged?3?50x?$CF04X?0?5Local?3?50x@ ; `string'
PUBLIC	??_C@_05GECEPKB@flags@				; `string'
PUBLIC	??_C@_0M@GJPKNONO@MergedFlags@			; `string'
PUBLIC	??_C@_0L@BCKMLFNI@LocalFlags@			; `string'
PUBLIC	??_C@_0BE@CALKKIMP@LocalFlagsInWindows@		; `string'
PUBLIC	??_C@_0M@GNIJJAOO@SharedFlags@			; `string'
PUBLIC	??_C@_0L@MFFDMPJ@ParentNode@			; `string'
PUBLIC	??_C@_08MHDPDGCN@Child?$FL0?$FN@		; `string'
PUBLIC	??_C@_08MGPNFMBK@Child?$FL1?$FN@		; `string'
PUBLIC	??_C@_04CHMOMFOK@0x?$CFp@			; `string'
PUBLIC	??_C@_06IFILMILK@0x?$CF04X@			; `string'
PUBLIC	??_C@_0CF@IMBENNLG@?$CFs?3?5?8?$CFs?8?5?$CFd?5vtx?0?5?$CFd?5indices?0?5?$CFd@ ; `string'
PUBLIC	??_C@_0BE@LDCFEMCB@CURRENTLY?5APPENDING@	; `string'
PUBLIC	??_C@_0EJ@LNIIFBMO@Warning?3?5owning?5Window?5is?5inact@ ; `string'
PUBLIC	??_C@_0BK@FDNBBNBF@Callback?5?$CFp?0?5user_data?5?$CFp@ ; `string'
PUBLIC	??_C@_0DP@EMIMHPEE@DrawCmd?3?$CF5d?5tris?0?5Tex?5?$CFs?0?5ClipR@ ; `string'
PUBLIC	??_C@_0EE@EGAMBHDK@Mesh?3?5ElemCount?3?5?$CFd?0?5VtxOffset?3@ ; `string'
PUBLIC	??_C@_05HCFPDLGJ@Vert?3@			; `string'
PUBLIC	??_C@_05IFKLLJBC@?5?5?5?5?5@			; `string'
PUBLIC	??_C@_0DG@MPIFBGBG@?$CFs?5?$CF04d?3?5pos?5?$CI?$CF8?42f?0?$CF8?42f?$CJ?0?5uv?5@ ; `string'
PUBLIC	??_C@_0CK@IFCNIJMP@Font?3?5?$CC?$CFs?$CC?6?$CF?42f?5px?0?5?$CFd?5glyphs?0?5@ ; `string'
PUBLIC	??_C@_0P@HCLAAKJM@Set?5as?5default@		; `string'
PUBLIC	??_C@_0CM@HCLJNHNJ@The?5quick?5brown?5fox?5jumps?5over?5@ ; `string'
PUBLIC	??_C@_04GGBPDDBN@?$CF?41f@			; `string'
PUBLIC	??_C@_0L@HAJGHBLA@Font?5scale@			; `string'
PUBLIC	??_C@_0BIM@KGKNLDMD@Note?5that?5the?5default?5embedded?5@ ; `string'
PUBLIC	??_C@_0CE@FJCMKHHK@Ascent?3?5?$CFf?0?5Descent?3?5?$CFf?0?5Height@ ; `string'
PUBLIC	??_C@_0CC@FDGLEGDM@Fallback?5character?3?5?8?$CFs?8?5?$CIU?$CL?$CF04@ ; `string'
PUBLIC	??_C@_0CC@FAJAAGEH@Ellipsis?5character?3?5?8?$CFs?8?5?$CIU?$CL?$CF04@ ; `string'
PUBLIC	??_C@_0CE@LLADJGCM@Texture?5Area?3?5about?5?$CFd?5px?5?$HO?$CFdx?$CF@ ; `string'
PUBLIC	??_C@_0EJ@EOFKACMP@Input?5?$CFd?3?5?8?$CFs?8?0?5Oversample?3?5?$CI?$CFd@ ; `string'
PUBLIC	??_C@_0M@NEAHLNMH@Glyphs?5?$CI?$CFd?$CJ@	; `string'
PUBLIC	??_C@_06EBCCDGNI@Glyphs@			; `string'
PUBLIC	??_C@_06IOJPAPEE@glyphs@			; `string'
PUBLIC	??_C@_05OIOMJNBL@glyph@				; `string'
PUBLIC	??_C@_0BH@KIECHKHD@U?$CL?$CF04X?4?4U?$CL?$CF04X?5?$CI?$CFd?5?$CFs?$CJ@ ; `string'
PUBLIC	??_C@_0BC@JMLDGIFC@Codepoint?3?5U?$CL?$CF04X@	; `string'
PUBLIC	??_C@_0M@GDBOFNKK@Visible?3?5?$CFd@		; `string'
PUBLIC	??_C@_0P@JLIDDFIB@AdvanceX?3?5?$CF?41f@		; `string'
PUBLIC	??_C@_0BO@BCFBHCGJ@Pos?3?5?$CI?$CF?42f?0?$CF?42f?$CJ?9?$DO?$CI?$CF?42f?0?$CF?42f?$CJ@ ; `string'
PUBLIC	??_C@_0BN@EHEDNDHJ@UV?3?5?$CI?$CF?43f?0?$CF?43f?$CJ?9?$DO?$CI?$CF?43f?0?$CF?43f?$CJ@ ; `string'
PUBLIC	??_C@_0BJ@EFAEFOHB@?$CFs?3?5?$CFd?5entries?0?5?$CFd?5bytes@ ; `string'
PUBLIC	??_C@_0BL@LEAFLIMO@Key?50x?$CF08X?5Value?5?$HL?5i?3?5?$CFd?5?$HN@ ; `string'
PUBLIC	??_C@_0M@MDILNFHC@?5?$CKInactive?$CK@		; `string'
PUBLIC	??_C@_0BJ@ONDPJKKK@?$CFs?50x?$CF08X?5?$CI?$CFd?5tabs?$CJ?$CFs?5?5?$HL@ ; `string'
PUBLIC	??_C@_02KEGNLNML@?0?5@				; `string'
PUBLIC	??_C@_06BKNPIBKB@?$CFs?8?$CFs?8@		; `string'
PUBLIC	??_C@_06MEIHFGI@?5?4?4?4?5?$HN@			; `string'
PUBLIC	??_C@_03LHCEFAHM@?5?$HN?5@			; `string'
PUBLIC	??_C@_01MNNFJEPP@?$DM@				; `string'
PUBLIC	??_C@_01PPODPGHN@?$DO@				; `string'
PUBLIC	??_C@_0DG@DJKHNEAJ@?$CF02d?$CFc?5Tab?50x?$CF08X?5?8?$CFs?8?5Offset?3?5@ ; `string'
PUBLIC	??_C@_0DH@HNONKGMB@Viewport?5?$CD?$CFd?0?5ID?3?50x?$CF08X?0?5Paren@ ; `string'
PUBLIC	??_C@_0IH@FFJBKKJA@Main?5Pos?3?5?$CI?$CF?40f?0?$CF?40f?$CJ?0?5Size?3?5?$CI?$CF@ ; `string'
PUBLIC	??_C@_09JBNHDJHP@Reset?5Pos@			; `string'
PUBLIC	??_C@_0BF@IOKACMGF@?5CanHostOtherWindows@	; `string'
PUBLIC	??_C@_08OCHFLEFF@?5TopMost@			; `string'
PUBLIC	??_C@_0N@LBBDHGCF@?5NoAutoMerge@		; `string'
PUBLIC	??_C@_0BB@HDKDJCCA@?5NoRendererClear@		; `string'
PUBLIC	??_C@_09FNAHPKID@?5NoInputs@			; `string'
PUBLIC	??_C@_0BA@NKOABBBB@?5NoFocusOnClick@		; `string'
PUBLIC	??_C@_0BE@IPEOHMPD@?5NoFocusOnAppearing@	; `string'
PUBLIC	??_C@_0P@KKDBOABP@?5NoTaskBarIcon@		; `string'
PUBLIC	??_C@_0O@IJCBBDOC@?5NoDecoration@		; `string'
PUBLIC	??_C@_0M@FAFJAKJI@?5OwnedByApp@			; `string'
PUBLIC	??_C@_0N@KCHDKFGD@?5IsMinimized@		; `string'
PUBLIC	??_C@_0BD@FKGIEJBE@?5IsPlatformMonitor@		; `string'
PUBLIC	??_C@_0CK@CLLAEBME@Flags?3?50x?$CF04X?5?$DN?$CFs?$CFs?$CFs?$CFs?$CFs?$CFs?$CFs?$CFs@ ; `string'
PUBLIC	??_C@_08MGKMCIPB@?$CFs?3?5NULL@			; `string'
PUBLIC	??_C@_09GBCBPCGK@?$CFs?5?8?$CFs?8?$CFs@		; `string'
PUBLIC	??_C@_0DF@KJLKCABL@Note?3?5some?5memory?5buffers?5have?5@ ; `string'
PUBLIC	??_C@_0L@GIDKNEEB@in?5Begin?$CI?$CJ@		; `string'
PUBLIC	??_C@_0EP@MJAPPIBI@Pos?3?5?$CI?$CF?41f?0?$CF?41f?$CJ?0?5Size?3?5?$CI?$CF?41f?0?$CF@ ; `string'
PUBLIC	??_C@_0BB@GGEIPOID@AlwaysAutoResize@		; `string'
PUBLIC	??_C@_0M@COLEABDL@NoNavInputs@			; `string'
PUBLIC	??_C@_0O@LAPEOEIJ@NoMouseInputs@		; `string'
PUBLIC	??_C@_0BB@EBNDPMCP@NoSavedSettings?5@		; `string'
PUBLIC	??_C@_0L@OPMMHACC@ChildMenu?5@			; `string'
PUBLIC	??_C@_06IFIMNOLK@Modal?5@			; `string'
PUBLIC	??_C@_06NMKCIICK@Popup?5@			; `string'
PUBLIC	??_C@_08LGECAIGF@Tooltip?5@			; `string'
PUBLIC	??_C@_06MMFPNIIL@Child?5@			; `string'
PUBLIC	??_C@_0CF@HFFEAFCN@Flags?3?50x?$CF08X?5?$CI?$CFs?$CFs?$CFs?$CFs?$CFs?$CFs?$CFs?$CFs@ ; `string'
PUBLIC	??_C@_0BG@PFBKDAIH@WindowClassId?3?50x?$CF08X@	; `string'
PUBLIC	??_C@_0CN@OBHMFINH@Scroll?3?5?$CI?$CF?42f?1?$CF?42f?0?$CF?42f?1?$CF?42f?$CJ?5S@ ; `string'
PUBLIC	??_C@_0DO@LPCMGHLI@Active?3?5?$CFd?1?$CFd?0?5WriteAccessed?3?5?$CF@ ; `string'
PUBLIC	??_C@_0EA@JLDPMAKO@Appearing?3?5?$CFd?0?5Hidden?3?5?$CFd?5?$CICanS@ ; `string'
PUBLIC	??_C@_0BH@EDAJMFBI@NavLastIds?$FL?$CFd?$FN?3?50x?$CF08X@ ; `string'
PUBLIC	??_C@_0DC@PKDENGJH@NavLastIds?$FL?$CFd?$FN?3?50x?$CF08X?5at?5?$CL?$CI?$CF?41@ ; `string'
PUBLIC	??_C@_0CM@IPLFCAGE@NavPreferredScoringPosRel?$FL?$CFd?$FN?5?$DN@ ; `string'
PUBLIC	??_C@_0DD@ILECKNFA@NavLayersActiveMask?3?5?$CFX?0?5NavLas@ ; `string'
PUBLIC	??_C@_08DEJCBKPC@?5?$CIOwned?$CJ@		; `string'
PUBLIC	??_C@_0DN@NJLPMAEL@Viewport?3?5?$CFd?$CFs?0?5ViewportId?3?50x?$CF@ ; `string'
PUBLIC	??_C@_0BE@NOMHEHKG@ViewportMonitor?3?5?$CFd@	; `string'
PUBLIC	??_C@_0DA@GNKDNGHK@DockId?3?50x?$CF04X?0?5DockOrder?3?5?$CFd?0?5@ ; `string'
PUBLIC	??_C@_0P@BMKFCLKI@DockNodeAsHost@		; `string'
PUBLIC	??_C@_0L@EHLMOHOL@RootWindow@			; `string'
PUBLIC	??_C@_0BD@JHINCIDB@RootWindowDockTree@		; `string'
PUBLIC	??_C@_0N@BPPHAMMO@ParentWindow@			; `string'
PUBLIC	??_C@_0BK@MDKHNDJC@ParentWindowForFocusRoute@	; `string'
PUBLIC	??_C@_0N@BGDHDNPO@ChildWindows@			; `string'
PUBLIC	??_C@_0BC@FIDDFLAI@Columns?5sets?5?$CI?$CFd?$CJ@ ; `string'
PUBLIC	??_C@_07IBCCJKML@Columns@			; `string'
PUBLIC	??_C@_07PFGLPMIK@Storage@			; `string'
PUBLIC	??_C@_0DC@NLKEEDHM@0x?$CF08X?5?$CC?$CFs?$CC?5Pos?5?$CI?$CFd?0?$CFd?$CJ?5Size?5?$CI?$CF@ ; `string'
PUBLIC	??_C@_07JMKCEEPK@?$CFs?5?$CI?$CFd?$CJ@		; `string'
PUBLIC	??_C@_0O@LOOBKDLG@?$FL?$CF04d?$FN?5Window@	; `string'
PUBLIC	??_C@_07CHALBAHD@?$FL?$CF05d?$FN?5@		; `string'
PUBLIC	??_C@_0FF@OHABGPHK@Hold?5SHIFT?5when?5clicking?5to?5ena@ ; `string'
PUBLIC	??_C@_0BF@DOBPLNCP@Dear?5ImGui?5Debug?5Log@	; `string'
PUBLIC	??_C@_03HFJGAJFE@All@				; `string'
PUBLIC	??_C@_0CG@EDNCDNDC@?$CIexcept?5InputRouting?5which?5is?5s@ ; `string'
PUBLIC	??_C@_08LNBHPLFF@ActiveId@			; `string'
PUBLIC	??_C@_07JPNKMPHH@Clipper@			; `string'
PUBLIC	??_C@_05PDOFIPNC@Focus@				; `string'
PUBLIC	??_C@_02IBEMDGI@IO@				; `string'
PUBLIC	??_C@_03JFAAHAIK@Nav@				; `string'
PUBLIC	??_C@_05EPOLMFOG@Popup@				; `string'
PUBLIC	??_C@_08JOACDBFA@Viewport@			; `string'
PUBLIC	??_C@_0N@FLGGKCNH@InputRouting@			; `string'
PUBLIC	??_C@_04OPMHGHMB@Copy@				; `string'
PUBLIC	??_C@_05FBKDEFNG@?$CD?$CDlog@			; `string'
PUBLIC	??_C@_02EMFKHFLK@?$CFX@				; `string'
PUBLIC	??_C@_0N@ONHCIEOA@in?5ItemAdd?$CI?$CJ@		; `string'
PUBLIC	??_C@_0BC@JHPKFIGH@HoveredId?3?50x?$CF08X@	; `string'
PUBLIC	??_C@_0BM@IIPBLKLJ@Press?5ESC?5to?5abort?5picking?4@ ; `string'
PUBLIC	??_C@_04KPCPLBPL@Left@				; `string'
PUBLIC	??_C@_05DADPALEM@Right@				; `string'
PUBLIC	??_C@_06OJAFHGNF@Middle@			; `string'
PUBLIC	??_C@_0EA@BFCGJGEN@Remap?5w?1?5Ctrl?$CLShift?3?5click?5anyw@ ; `string'
PUBLIC	??_C@_0DM@LGIJPHCL@Click?5?$CFs?5Button?5to?5break?5in?5deb@ ; `string'
PUBLIC	??_C@_04EBNJJJJI@?$CF?4?$CKs@			; `string'
PUBLIC	??_C@_0M@FNHADFEB@?$CIvoid?$CK?$CJ0x?$CFp@	; `string'
PUBLIC	??_C@_0BC@CHOABEME@0x?$CF08X?5?$FLoverride?$FN@	; `string'
PUBLIC	??_C@_0O@EFHIOPED@?$CC?$CFs?$CC?5?$FLwindow?$FN@ ; `string'
PUBLIC	??_C@_03BBKEAIF@?$DP?$DP?$DP@			; `string'
PUBLIC	??_C@_0BJ@LFKOCKLE@Dear?5ImGui?5ID?5Stack?5Tool@ ; `string'
PUBLIC	??_C@_0CF@KONAEAN@HoveredId?3?50x?$CF08X?0?5ActiveId?3?5?50@ ; `string'
PUBLIC	??_C@_0BEF@BCBIEAKB@Hover?5an?5item?5with?5the?5mouse?5to@ ; `string'
PUBLIC	??_C@_0BP@DNALLFDP@Ctrl?$CLC?3?5copy?5path?5to?5clipboard@ ; `string'
PUBLIC	??_C@_08PGCHFAAG@?$CKCOPIED?$CK@		; `string'
PUBLIC	??_C@_07OPPIOFCG@?$CD?$CDtable@			; `string'
PUBLIC	??_C@_0L@JCLNJJB@0xDDDDDDDD@			; `string'
PUBLIC	??_C@_04FBLBNKA@Seed@				; `string'
PUBLIC	??_C@_06LBBHCMPJ@PushID@			; `string'
PUBLIC	??_C@_06GGONACPB@Result@			; `string'
PUBLIC	??_C@_06IMJBDBNO@0x?$CF08X@			; `string'
PUBLIC	?EmptyString@ImGuiTextBuffer@@2PADA		; ImGuiTextBuffer::EmptyString
PUBLIC	?GImGui@@3PEAUImGuiContext@@EA			; GImGui
EXTRN	??_L@YAXPEAX_K1P6AX0@Z2@Z:PROC			; `eh vector constructor iterator'
EXTRN	__imp_GlobalUnlock:PROC
EXTRN	__imp_ImmGetContext:PROC
EXTRN	__imp_ImmReleaseContext:PROC
EXTRN	__imp_WideCharToMultiByte:PROC
EXTRN	__imp_GlobalLock:PROC
EXTRN	_Init_thread_abort:PROC
EXTRN	__imp___stdio_common_vsprintf:PROC
EXTRN	__imp_OpenClipboard:PROC
EXTRN	__imp__wfopen:PROC
EXTRN	__imp_GlobalFree:PROC
EXTRN	__imp_GlobalAlloc:PROC
EXTRN	__imp_ImmSetCompositionWindow:PROC
EXTRN	__imp_CloseClipboard:PROC
EXTRN	__imp_EmptyClipboard:PROC
EXTRN	__imp_strncpy:PROC
EXTRN	__imp_qsort:PROC
EXTRN	__imp_MultiByteToWideChar:PROC
EXTRN	??_M@YAXPEAX_K1P6AX0@Z@Z:PROC			; `eh vector destructor iterator'
EXTRN	__imp_fseek:PROC
EXTRN	__imp_GetClipboardData:PROC
EXTRN	__imp_ImmSetCandidateWindow:PROC
EXTRN	__imp_SetClipboardData:PROC
EXTRN	__report_rangecheckfailure:PROC
EXTRN	__imp_ftell:PROC
?GImAllocatorUserData@@3PEAXEA DQ 01H DUP (?)		; GImAllocatorUserData
_BSS	ENDS
;	COMDAT ?buf@?DC@??ShowMetricsWindow@ImGui@@YAXPEA_N@Z@4PADA
_BSS	SEGMENT
?buf@?DC@??ShowMetricsWindow@ImGui@@YAXPEA_N@Z@4PADA DB 040H DUP (?) ; `ImGui::ShowMetricsWindow'::`50'::buf
?EmptyString@ImGuiTextBuffer@@2PADA DB 01H DUP (?)	; ImGuiTextBuffer::EmptyString
	ALIGN	8

?GImGui@@3PEAUImGuiContext@@EA DQ 01H DUP (?)		; GImGui
_BSS	ENDS
;	COMDAT ?masks@?1??ImTextCharFromUtf8@@YAHPEAIPEBD1@Z@4QBHB
CONST	SEGMENT
?masks@?1??ImTextCharFromUtf8@@YAHPEAIPEBD1@Z@4QBHB DD 00H ; `ImTextCharFromUtf8'::`2'::masks
	DD	07fH
	DD	01fH
	DD	0fH
	DD	07H
CONST	ENDS
;	COMDAT ?root_nodes_only@?IK@??ShowMetricsWindow@ImGui@@YAXPEA_N@Z@4_NA
_DATA	SEGMENT
?root_nodes_only@?IK@??ShowMetricsWindow@ImGui@@YAXPEA_N@Z@4_NA DB 01H ; `ImGui::ShowMetricsWindow'[::K]::root_nodes_only
_DATA	ENDS
;	COMDAT ?shifte@?1??ImTextCharFromUtf8@@YAHPEAIPEBD1@Z@4QBHB
CONST	SEGMENT
?shifte@?1??ImTextCharFromUtf8@@YAHPEAIPEBD1@Z@4QBHB DD 00H ; `ImTextCharFromUtf8'::`2'::shifte
	DD	06H
	DD	04H
	DD	02H
	DD	00H
CONST	ENDS
;	COMDAT ?lengths@?1??ImTextCharFromUtf8@@YAHPEAIPEBD1@Z@4QBDB
CONST	SEGMENT
?lengths@?1??ImTextCharFromUtf8@@YAHPEAIPEBD1@Z@4QBDB DB 01H ; `ImTextCharFromUtf8'::`2'::lengths
	DB	01H
	DB	01H
	DB	01H
	DB	01H
	DB	01H
	DB	01H
	DB	01H
	DB	01H
	DB	01H
	DB	01H
	DB	01H
	DB	01H
	DB	01H
	DB	01H
	DB	01H
	DB	00H
	DB	00H
	DB	00H
	DB	00H
	DB	00H
	DB	00H
	DB	00H
	DB	00H
	DB	02H
	DB	02H
	DB	02H
	DB	02H
	DB	03H
	DB	03H
	DB	04H
	DB	00H
CONST	ENDS
;	COMDAT ?shiftc@?1??ImTextCharFromUtf8@@YAHPEAIPEBD1@Z@4QBHB
CONST	SEGMENT
?shiftc@?1??ImTextCharFromUtf8@@YAHPEAIPEBD1@Z@4QBHB DD 00H ; `ImTextCharFromUtf8'::`2'::shiftc
	DD	012H
	DD	0cH
	DD	06H
	DD	00H
CONST	ENDS
;	COMDAT ?mins@?1??ImTextCharFromUtf8@@YAHPEAIPEBD1@Z@4QBIB
CONST	SEGMENT
?mins@?1??ImTextCharFromUtf8@@YAHPEAIPEBD1@Z@4QBIB DD 0400000H ; `ImTextCharFromUtf8'::`2'::mins
	DD	00H
	DD	080H
	DD	0800H
	DD	010000H
CONST	ENDS
;	COMDAT ??_C@_06IMJBDBNO@0x?$CF08X@
CONST	SEGMENT
??_C@_06IMJBDBNO@0x?$CF08X@ DB '0x%08X', 00H		; `string'
CONST	ENDS
;	COMDAT ??_C@_06GGONACPB@Result@
CONST	SEGMENT
??_C@_06GGONACPB@Result@ DB 'Result', 00H		; `string'
CONST	ENDS
;	COMDAT ??_C@_06LBBHCMPJ@PushID@
CONST	SEGMENT
??_C@_06LBBHCMPJ@PushID@ DB 'PushID', 00H		; `string'
CONST	ENDS
;	COMDAT ??_C@_04FBLBNKA@Seed@
CONST	SEGMENT
??_C@_04FBLBNKA@Seed@ DB 'Seed', 00H			; `string'
CONST	ENDS
;	COMDAT ??_C@_0L@JCLNJJB@0xDDDDDDDD@
CONST	SEGMENT
??_C@_0L@JCLNJJB@0xDDDDDDDD@ DB '0xDDDDDDDD', 00H	; `string'
CONST	ENDS
;	COMDAT ??_C@_07OPPIOFCG@?$CD?$CDtable@
CONST	SEGMENT
??_C@_07OPPIOFCG@?$CD?$CDtable@ DB '##table', 00H	; `string'
CONST	ENDS
;	COMDAT ??_C@_08PGCHFAAG@?$CKCOPIED?$CK@
CONST	SEGMENT
??_C@_08PGCHFAAG@?$CKCOPIED?$CK@ DB '*COPIED*', 00H	; `string'
CONST	ENDS
;	COMDAT ??_C@_0BP@DNALLFDP@Ctrl?$CLC?3?5copy?5path?5to?5clipboard@
CONST	SEGMENT
??_C@_0BP@DNALLFDP@Ctrl?$CLC?3?5copy?5path?5to?5clipboard@ DB 'Ctrl+C: co'
	DB	'py path to clipboard', 00H			; `string'
CONST	ENDS
;	COMDAT ??_C@_0BEF@BCBIEAKB@Hover?5an?5item?5with?5the?5mouse?5to@
CONST	SEGMENT
??_C@_0BEF@BCBIEAKB@Hover?5an?5item?5with?5the?5mouse?5to@ DB 'Hover an i'
	DB	'tem with the mouse to display elements of the ID Stack leadin'
	DB	'g to the item''s final ID.', 0aH, 'Each level of the stack co'
	DB	'rrespond to a PushID() call.', 0aH, 'All levels of the stack '
	DB	'are hashed together to make the final ID of a widget (ID disp'
	DB	'layed at the bottom level of the stack).', 0aH, 'Read FAQ ent'
	DB	'ry about the ID stack for details.', 00H	; `string'
CONST	ENDS
;	COMDAT ??_C@_0CF@KONAEAN@HoveredId?3?50x?$CF08X?0?5ActiveId?3?5?50@
CONST	SEGMENT
??_C@_0CF@KONAEAN@HoveredId?3?50x?$CF08X?0?5ActiveId?3?5?50@ DB 'HoveredI'
	DB	'd: 0x%08X, ActiveId:  0x%08X', 00H		; `string'
CONST	ENDS
;	COMDAT ??_C@_0BJ@LFKOCKLE@Dear?5ImGui?5ID?5Stack?5Tool@
CONST	SEGMENT
??_C@_0BJ@LFKOCKLE@Dear?5ImGui?5ID?5Stack?5Tool@ DB 'Dear ImGui ID Stack '
	DB	'Tool', 00H					; `string'
CONST	ENDS
;	COMDAT ??_C@_03BBKEAIF@?$DP?$DP?$DP@
CONST	SEGMENT
??_C@_03BBKEAIF@?$DP?$DP?$DP@ DB '???', 00H		; `string'
CONST	ENDS
;	COMDAT ??_C@_0O@EFHIOPED@?$CC?$CFs?$CC?5?$FLwindow?$FN@
CONST	SEGMENT
??_C@_0O@EFHIOPED@?$CC?$CFs?$CC?5?$FLwindow?$FN@ DB '"%s" [window]', 00H ; `string'
CONST	ENDS
;	COMDAT ??_C@_0BC@CHOABEME@0x?$CF08X?5?$FLoverride?$FN@
CONST	SEGMENT
??_C@_0BC@CHOABEME@0x?$CF08X?5?$FLoverride?$FN@ DB '0x%08X [override]', 00H ; `string'
CONST	ENDS
;	COMDAT ??_C@_0M@FNHADFEB@?$CIvoid?$CK?$CJ0x?$CFp@
CONST	SEGMENT
??_C@_0M@FNHADFEB@?$CIvoid?$CK?$CJ0x?$CFp@ DB '(void*)0x%p', 00H ; `string'
CONST	ENDS
;	COMDAT ??_C@_04EBNJJJJI@?$CF?4?$CKs@
CONST	SEGMENT
??_C@_04EBNJJJJI@?$CF?4?$CKs@ DB '%.*s', 00H		; `string'
CONST	ENDS
;	COMDAT ??_C@_0DM@LGIJPHCL@Click?5?$CFs?5Button?5to?5break?5in?5deb@
CONST	SEGMENT
??_C@_0DM@LGIJPHCL@Click?5?$CFs?5Button?5to?5break?5in?5deb@ DB 'Click %s'
	DB	' Button to break in debugger! (remap w/ Ctrl+Shift)', 00H ; `string'
CONST	ENDS
;	COMDAT ??_C@_0EA@BFCGJGEN@Remap?5w?1?5Ctrl?$CLShift?3?5click?5anyw@
CONST	SEGMENT
??_C@_0EA@BFCGJGEN@Remap?5w?1?5Ctrl?$CLShift?3?5click?5anyw@ DB 'Remap w/'
	DB	' Ctrl+Shift: click anywhere to select new mouse button.', 00H ; `string'
CONST	ENDS
;	COMDAT ??_C@_06OJAFHGNF@Middle@
CONST	SEGMENT
??_C@_06OJAFHGNF@Middle@ DB 'Middle', 00H		; `string'
CONST	ENDS
;	COMDAT ??_C@_05DADPALEM@Right@
CONST	SEGMENT
??_C@_05DADPALEM@Right@ DB 'Right', 00H			; `string'
CONST	ENDS
;	COMDAT ??_C@_04KPCPLBPL@Left@
CONST	SEGMENT
??_C@_04KPCPLBPL@Left@ DB 'Left', 00H			; `string'
CONST	ENDS
;	COMDAT ??_C@_0BM@IIPBLKLJ@Press?5ESC?5to?5abort?5picking?4@
CONST	SEGMENT
??_C@_0BM@IIPBLKLJ@Press?5ESC?5to?5abort?5picking?4@ DB 'Press ESC to abo'
	DB	'rt picking.', 00H				; `string'
CONST	ENDS
;	COMDAT ??_C@_0BC@JHPKFIGH@HoveredId?3?50x?$CF08X@
CONST	SEGMENT
??_C@_0BC@JHPKFIGH@HoveredId?3?50x?$CF08X@ DB 'HoveredId: 0x%08X', 00H ; `string'
CONST	ENDS
;	COMDAT ??_C@_0N@ONHCIEOA@in?5ItemAdd?$CI?$CJ@
CONST	SEGMENT
??_C@_0N@ONHCIEOA@in?5ItemAdd?$CI?$CJ@ DB 'in ItemAdd()', 00H ; `string'
CONST	ENDS
;	COMDAT ??_C@_02EMFKHFLK@?$CFX@
CONST	SEGMENT
??_C@_02EMFKHFLK@?$CFX@ DB '%X', 00H			; `string'
CONST	ENDS
;	COMDAT ??_C@_05FBKDEFNG@?$CD?$CDlog@
CONST	SEGMENT
??_C@_05FBKDEFNG@?$CD?$CDlog@ DB '##log', 00H		; `string'
CONST	ENDS
;	COMDAT ??_C@_04OPMHGHMB@Copy@
CONST	SEGMENT
??_C@_04OPMHGHMB@Copy@ DB 'Copy', 00H			; `string'
CONST	ENDS
;	COMDAT ??_C@_0N@FLGGKCNH@InputRouting@
CONST	SEGMENT
??_C@_0N@FLGGKCNH@InputRouting@ DB 'InputRouting', 00H	; `string'
CONST	ENDS
;	COMDAT ??_C@_08JOACDBFA@Viewport@
CONST	SEGMENT
??_C@_08JOACDBFA@Viewport@ DB 'Viewport', 00H		; `string'
CONST	ENDS
;	COMDAT ??_C@_05EPOLMFOG@Popup@
CONST	SEGMENT
??_C@_05EPOLMFOG@Popup@ DB 'Popup', 00H			; `string'
CONST	ENDS
;	COMDAT ??_C@_03JFAAHAIK@Nav@
CONST	SEGMENT
??_C@_03JFAAHAIK@Nav@ DB 'Nav', 00H			; `string'
CONST	ENDS
;	COMDAT ??_C@_02IBEMDGI@IO@
CONST	SEGMENT
??_C@_02IBEMDGI@IO@ DB 'IO', 00H			; `string'
CONST	ENDS
;	COMDAT ??_C@_05PDOFIPNC@Focus@
CONST	SEGMENT
??_C@_05PDOFIPNC@Focus@ DB 'Focus', 00H			; `string'
CONST	ENDS
;	COMDAT ??_C@_07JPNKMPHH@Clipper@
CONST	SEGMENT
??_C@_07JPNKMPHH@Clipper@ DB 'Clipper', 00H		; `string'
CONST	ENDS
;	COMDAT ??_C@_08LNBHPLFF@ActiveId@
CONST	SEGMENT
??_C@_08LNBHPLFF@ActiveId@ DB 'ActiveId', 00H		; `string'
CONST	ENDS
;	COMDAT ??_C@_0CG@EDNCDNDC@?$CIexcept?5InputRouting?5which?5is?5s@
CONST	SEGMENT
??_C@_0CG@EDNCDNDC@?$CIexcept?5InputRouting?5which?5is?5s@ DB '(except In'
	DB	'putRouting which is spammy)', 00H		; `string'
CONST	ENDS
;	COMDAT ??_C@_03HFJGAJFE@All@
CONST	SEGMENT
??_C@_03HFJGAJFE@All@ DB 'All', 00H			; `string'
CONST	ENDS
;	COMDAT ??_C@_0BF@DOBPLNCP@Dear?5ImGui?5Debug?5Log@
CONST	SEGMENT
??_C@_0BF@DOBPLNCP@Dear?5ImGui?5Debug?5Log@ DB 'Dear ImGui Debug Log', 00H ; `string'
CONST	ENDS
;	COMDAT ??_C@_0FF@OHABGPHK@Hold?5SHIFT?5when?5clicking?5to?5ena@
CONST	SEGMENT
??_C@_0FF@OHABGPHK@Hold?5SHIFT?5when?5clicking?5to?5ena@ DB 'Hold SHIFT w'
	DB	'hen clicking to enable for 2 frames only (useful for spammy l'
	DB	'og entries)', 00H				; `string'
CONST	ENDS
;	COMDAT ??_C@_07CHALBAHD@?$FL?$CF05d?$FN?5@
CONST	SEGMENT
??_C@_07CHALBAHD@?$FL?$CF05d?$FN?5@ DB '[%05d] ', 00H	; `string'
CONST	ENDS
;	COMDAT ??_C@_0O@LOOBKDLG@?$FL?$CF04d?$FN?5Window@
CONST	SEGMENT
??_C@_0O@LOOBKDLG@?$FL?$CF04d?$FN?5Window@ DB '[%04d] Window', 00H ; `string'
CONST	ENDS
;	COMDAT ??_C@_07JMKCEEPK@?$CFs?5?$CI?$CFd?$CJ@
CONST	SEGMENT
??_C@_07JMKCEEPK@?$CFs?5?$CI?$CFd?$CJ@ DB '%s (%d)', 00H ; `string'
CONST	ENDS
;	COMDAT ??_C@_0DC@NLKEEDHM@0x?$CF08X?5?$CC?$CFs?$CC?5Pos?5?$CI?$CFd?0?$CFd?$CJ?5Size?5?$CI?$CF@
CONST	SEGMENT
??_C@_0DC@NLKEEDHM@0x?$CF08X?5?$CC?$CFs?$CC?5Pos?5?$CI?$CFd?0?$CFd?$CJ?5Size?5?$CI?$CF@ DB '0'
	DB	'x%08X "%s" Pos (%d,%d) Size (%d,%d) Collapsed=%d', 00H ; `string'
CONST	ENDS
;	COMDAT ??_C@_07PFGLPMIK@Storage@
CONST	SEGMENT
??_C@_07PFGLPMIK@Storage@ DB 'Storage', 00H		; `string'
CONST	ENDS
;	COMDAT ??_C@_07IBCCJKML@Columns@
CONST	SEGMENT
??_C@_07IBCCJKML@Columns@ DB 'Columns', 00H		; `string'
CONST	ENDS
;	COMDAT ??_C@_0BC@FIDDFLAI@Columns?5sets?5?$CI?$CFd?$CJ@
CONST	SEGMENT
??_C@_0BC@FIDDFLAI@Columns?5sets?5?$CI?$CFd?$CJ@ DB 'Columns sets (%d)', 00H ; `string'
CONST	ENDS
;	COMDAT ??_C@_0N@BGDHDNPO@ChildWindows@
CONST	SEGMENT
??_C@_0N@BGDHDNPO@ChildWindows@ DB 'ChildWindows', 00H	; `string'
CONST	ENDS
;	COMDAT ??_C@_0BK@MDKHNDJC@ParentWindowForFocusRoute@
CONST	SEGMENT
??_C@_0BK@MDKHNDJC@ParentWindowForFocusRoute@ DB 'ParentWindowForFocusRou'
	DB	'te', 00H					; `string'
CONST	ENDS
;	COMDAT ??_C@_0N@BPPHAMMO@ParentWindow@
CONST	SEGMENT
??_C@_0N@BPPHAMMO@ParentWindow@ DB 'ParentWindow', 00H	; `string'
CONST	ENDS
;	COMDAT ??_C@_0BD@JHINCIDB@RootWindowDockTree@
CONST	SEGMENT
??_C@_0BD@JHINCIDB@RootWindowDockTree@ DB 'RootWindowDockTree', 00H ; `string'
CONST	ENDS
;	COMDAT ??_C@_0L@EHLMOHOL@RootWindow@
CONST	SEGMENT
??_C@_0L@EHLMOHOL@RootWindow@ DB 'RootWindow', 00H	; `string'
CONST	ENDS
;	COMDAT ??_C@_0P@BMKFCLKI@DockNodeAsHost@
CONST	SEGMENT
??_C@_0P@BMKFCLKI@DockNodeAsHost@ DB 'DockNodeAsHost', 00H ; `string'
CONST	ENDS
;	COMDAT ??_C@_0DA@GNKDNGHK@DockId?3?50x?$CF04X?0?5DockOrder?3?5?$CFd?0?5@
CONST	SEGMENT
??_C@_0DA@GNKDNGHK@DockId?3?50x?$CF04X?0?5DockOrder?3?5?$CFd?0?5@ DB 'Doc'
	DB	'kId: 0x%04X, DockOrder: %d, Act: %d, Vis: %d', 00H ; `string'
CONST	ENDS
;	COMDAT ??_C@_0BE@NOMHEHKG@ViewportMonitor?3?5?$CFd@
CONST	SEGMENT
??_C@_0BE@NOMHEHKG@ViewportMonitor?3?5?$CFd@ DB 'ViewportMonitor: %d', 00H ; `string'
CONST	ENDS
;	COMDAT ??_C@_0DN@NJLPMAEL@Viewport?3?5?$CFd?$CFs?0?5ViewportId?3?50x?$CF@
CONST	SEGMENT
??_C@_0DN@NJLPMAEL@Viewport?3?5?$CFd?$CFs?0?5ViewportId?3?50x?$CF@ DB 'Vi'
	DB	'ewport: %d%s, ViewportId: 0x%08X, ViewportPos: (%.1f,%.1f)', 00H ; `string'
CONST	ENDS
;	COMDAT ??_C@_08DEJCBKPC@?5?$CIOwned?$CJ@
CONST	SEGMENT
??_C@_08DEJCBKPC@?5?$CIOwned?$CJ@ DB ' (Owned)', 00H	; `string'
CONST	ENDS
;	COMDAT ??_C@_0DD@ILECKNFA@NavLayersActiveMask?3?5?$CFX?0?5NavLas@
CONST	SEGMENT
??_C@_0DD@ILECKNFA@NavLayersActiveMask?3?5?$CFX?0?5NavLas@ DB 'NavLayersA'
	DB	'ctiveMask: %X, NavLastChildNavWindow: %s', 00H ; `string'
CONST	ENDS
;	COMDAT ??_C@_0CM@IPLFCAGE@NavPreferredScoringPosRel?$FL?$CFd?$FN?5?$DN@
CONST	SEGMENT
??_C@_0CM@IPLFCAGE@NavPreferredScoringPosRel?$FL?$CFd?$FN?5?$DN@ DB 'NavP'
	DB	'referredScoringPosRel[%d] = {%.1f,%.1f)', 00H ; `string'
CONST	ENDS
;	COMDAT ??_C@_0DC@PKDENGJH@NavLastIds?$FL?$CFd?$FN?3?50x?$CF08X?5at?5?$CL?$CI?$CF?41@
CONST	SEGMENT
??_C@_0DC@PKDENGJH@NavLastIds?$FL?$CFd?$FN?3?50x?$CF08X?5at?5?$CL?$CI?$CF?41@ DB 'N'
	DB	'avLastIds[%d]: 0x%08X at +(%.1f,%.1f)(%.1f,%.1f)', 00H ; `string'
CONST	ENDS
;	COMDAT ??_C@_0BH@EDAJMFBI@NavLastIds?$FL?$CFd?$FN?3?50x?$CF08X@
CONST	SEGMENT
??_C@_0BH@EDAJMFBI@NavLastIds?$FL?$CFd?$FN?3?50x?$CF08X@ DB 'NavLastIds[%'
	DB	'd]: 0x%08X', 00H				; `string'
CONST	ENDS
;	COMDAT ??_C@_0EA@JLDPMAKO@Appearing?3?5?$CFd?0?5Hidden?3?5?$CFd?5?$CICanS@
CONST	SEGMENT
??_C@_0EA@JLDPMAKO@Appearing?3?5?$CFd?0?5Hidden?3?5?$CFd?5?$CICanS@ DB 'A'
	DB	'ppearing: %d, Hidden: %d (CanSkip %d Cannot %d), SkipItems: %'
	DB	'd', 00H					; `string'
CONST	ENDS
;	COMDAT ??_C@_0DO@LPCMGHLI@Active?3?5?$CFd?1?$CFd?0?5WriteAccessed?3?5?$CF@
CONST	SEGMENT
??_C@_0DO@LPCMGHLI@Active?3?5?$CFd?1?$CFd?0?5WriteAccessed?3?5?$CF@ DB 'A'
	DB	'ctive: %d/%d, WriteAccessed: %d, BeginOrderWithinContext: %d', 00H ; `string'
CONST	ENDS
;	COMDAT ??_C@_0CN@OBHMFINH@Scroll?3?5?$CI?$CF?42f?1?$CF?42f?0?$CF?42f?1?$CF?42f?$CJ?5S@
CONST	SEGMENT
??_C@_0CN@OBHMFINH@Scroll?3?5?$CI?$CF?42f?1?$CF?42f?0?$CF?42f?1?$CF?42f?$CJ?5S@ DB 'S'
	DB	'croll: (%.2f/%.2f,%.2f/%.2f) Scrollbar:%s%s', 00H ; `string'
CONST	ENDS
;	COMDAT ??_C@_0BG@PFBKDAIH@WindowClassId?3?50x?$CF08X@
CONST	SEGMENT
??_C@_0BG@PFBKDAIH@WindowClassId?3?50x?$CF08X@ DB 'WindowClassId: 0x%08X', 00H ; `string'
CONST	ENDS
;	COMDAT ??_C@_0CF@HFFEAFCN@Flags?3?50x?$CF08X?5?$CI?$CFs?$CFs?$CFs?$CFs?$CFs?$CFs?$CFs?$CFs@
CONST	SEGMENT
??_C@_0CF@HFFEAFCN@Flags?3?50x?$CF08X?5?$CI?$CFs?$CFs?$CFs?$CFs?$CFs?$CFs?$CFs?$CFs@ DB 'F'
	DB	'lags: 0x%08X (%s%s%s%s%s%s%s%s%s..)', 00H	; `string'
CONST	ENDS
;	COMDAT ??_C@_06MMFPNIIL@Child?5@
CONST	SEGMENT
??_C@_06MMFPNIIL@Child?5@ DB 'Child ', 00H		; `string'
CONST	ENDS
;	COMDAT ??_C@_08LGECAIGF@Tooltip?5@
CONST	SEGMENT
??_C@_08LGECAIGF@Tooltip?5@ DB 'Tooltip ', 00H		; `string'
CONST	ENDS
;	COMDAT ??_C@_06NMKCIICK@Popup?5@
CONST	SEGMENT
??_C@_06NMKCIICK@Popup?5@ DB 'Popup ', 00H		; `string'
CONST	ENDS
;	COMDAT ??_C@_06IFIMNOLK@Modal?5@
CONST	SEGMENT
??_C@_06IFIMNOLK@Modal?5@ DB 'Modal ', 00H		; `string'
CONST	ENDS
;	COMDAT ??_C@_0L@OPMMHACC@ChildMenu?5@
CONST	SEGMENT
??_C@_0L@OPMMHACC@ChildMenu?5@ DB 'ChildMenu ', 00H	; `string'
CONST	ENDS
;	COMDAT ??_C@_0BB@EBNDPMCP@NoSavedSettings?5@
CONST	SEGMENT
??_C@_0BB@EBNDPMCP@NoSavedSettings?5@ DB 'NoSavedSettings ', 00H ; `string'
CONST	ENDS
;	COMDAT ??_C@_0O@LAPEOEIJ@NoMouseInputs@
CONST	SEGMENT
??_C@_0O@LAPEOEIJ@NoMouseInputs@ DB 'NoMouseInputs', 00H ; `string'
CONST	ENDS
;	COMDAT ??_C@_0M@COLEABDL@NoNavInputs@
CONST	SEGMENT
??_C@_0M@COLEABDL@NoNavInputs@ DB 'NoNavInputs', 00H	; `string'
CONST	ENDS
;	COMDAT ??_C@_0BB@GGEIPOID@AlwaysAutoResize@
CONST	SEGMENT
??_C@_0BB@GGEIPOID@AlwaysAutoResize@ DB 'AlwaysAutoResize', 00H ; `string'
CONST	ENDS
;	COMDAT ??_C@_0EP@MJAPPIBI@Pos?3?5?$CI?$CF?41f?0?$CF?41f?$CJ?0?5Size?3?5?$CI?$CF?41f?0?$CF@
CONST	SEGMENT
??_C@_0EP@MJAPPIBI@Pos?3?5?$CI?$CF?41f?0?$CF?41f?$CJ?0?5Size?3?5?$CI?$CF?41f?0?$CF@ DB 'P'
	DB	'os: (%.1f,%.1f), Size: (%.1f,%.1f), ContentSize (%.1f,%.1f) I'
	DB	'deal (%.1f,%.1f)', 00H			; `string'
CONST	ENDS
;	COMDAT ??_C@_0L@GIDKNEEB@in?5Begin?$CI?$CJ@
CONST	SEGMENT
??_C@_0L@GIDKNEEB@in?5Begin?$CI?$CJ@ DB 'in Begin()', 00H ; `string'
CONST	ENDS
;	COMDAT ??_C@_0DF@KJLKCABL@Note?3?5some?5memory?5buffers?5have?5@
CONST	SEGMENT
??_C@_0DF@KJLKCABL@Note?3?5some?5memory?5buffers?5have?5@ DB 'Note: some '
	DB	'memory buffers have been compacted/freed.', 00H ; `string'
CONST	ENDS
;	COMDAT ??_C@_09GBCBPCGK@?$CFs?5?8?$CFs?8?$CFs@
CONST	SEGMENT
??_C@_09GBCBPCGK@?$CFs?5?8?$CFs?8?$CFs@ DB '%s ''%s''%s', 00H ; `string'
CONST	ENDS
;	COMDAT ??_C@_08MGKMCIPB@?$CFs?3?5NULL@
CONST	SEGMENT
??_C@_08MGKMCIPB@?$CFs?3?5NULL@ DB '%s: NULL', 00H	; `string'
CONST	ENDS
;	COMDAT ??_C@_0CK@CLLAEBME@Flags?3?50x?$CF04X?5?$DN?$CFs?$CFs?$CFs?$CFs?$CFs?$CFs?$CFs?$CFs@
CONST	SEGMENT
??_C@_0CK@CLLAEBME@Flags?3?50x?$CF04X?5?$DN?$CFs?$CFs?$CFs?$CFs?$CFs?$CFs?$CFs?$CFs@ DB 'F'
	DB	'lags: 0x%04X =%s%s%s%s%s%s%s%s%s%s%s%s%s', 00H ; `string'
CONST	ENDS
;	COMDAT ??_C@_0BD@FKGIEJBE@?5IsPlatformMonitor@
CONST	SEGMENT
??_C@_0BD@FKGIEJBE@?5IsPlatformMonitor@ DB ' IsPlatformMonitor', 00H ; `string'
CONST	ENDS
;	COMDAT ??_C@_0N@KCHDKFGD@?5IsMinimized@
CONST	SEGMENT
??_C@_0N@KCHDKFGD@?5IsMinimized@ DB ' IsMinimized', 00H	; `string'
CONST	ENDS
;	COMDAT ??_C@_0M@FAFJAKJI@?5OwnedByApp@
CONST	SEGMENT
??_C@_0M@FAFJAKJI@?5OwnedByApp@ DB ' OwnedByApp', 00H	; `string'
CONST	ENDS
;	COMDAT ??_C@_0O@IJCBBDOC@?5NoDecoration@
CONST	SEGMENT
??_C@_0O@IJCBBDOC@?5NoDecoration@ DB ' NoDecoration', 00H ; `string'
CONST	ENDS
;	COMDAT ??_C@_0P@KKDBOABP@?5NoTaskBarIcon@
CONST	SEGMENT
??_C@_0P@KKDBOABP@?5NoTaskBarIcon@ DB ' NoTaskBarIcon', 00H ; `string'
CONST	ENDS
;	COMDAT ??_C@_0BE@IPEOHMPD@?5NoFocusOnAppearing@
CONST	SEGMENT
??_C@_0BE@IPEOHMPD@?5NoFocusOnAppearing@ DB ' NoFocusOnAppearing', 00H ; `string'
CONST	ENDS
;	COMDAT ??_C@_0BA@NKOABBBB@?5NoFocusOnClick@
CONST	SEGMENT
??_C@_0BA@NKOABBBB@?5NoFocusOnClick@ DB ' NoFocusOnClick', 00H ; `string'
CONST	ENDS
;	COMDAT ??_C@_09FNAHPKID@?5NoInputs@
CONST	SEGMENT
??_C@_09FNAHPKID@?5NoInputs@ DB ' NoInputs', 00H	; `string'
CONST	ENDS
;	COMDAT ??_C@_0BB@HDKDJCCA@?5NoRendererClear@
CONST	SEGMENT
??_C@_0BB@HDKDJCCA@?5NoRendererClear@ DB ' NoRendererClear', 00H ; `string'
CONST	ENDS
;	COMDAT ??_C@_0N@LBBDHGCF@?5NoAutoMerge@
CONST	SEGMENT
??_C@_0N@LBBDHGCF@?5NoAutoMerge@ DB ' NoAutoMerge', 00H	; `string'
CONST	ENDS
;	COMDAT ??_C@_08OCHFLEFF@?5TopMost@
CONST	SEGMENT
??_C@_08OCHFLEFF@?5TopMost@ DB ' TopMost', 00H		; `string'
CONST	ENDS
;	COMDAT ??_C@_0BF@IOKACMGF@?5CanHostOtherWindows@
CONST	SEGMENT
??_C@_0BF@IOKACMGF@?5CanHostOtherWindows@ DB ' CanHostOtherWindows', 00H ; `string'
CONST	ENDS
;	COMDAT ??_C@_09JBNHDJHP@Reset?5Pos@
CONST	SEGMENT
??_C@_09JBNHDJHP@Reset?5Pos@ DB 'Reset Pos', 00H	; `string'
CONST	ENDS
;	COMDAT ??_C@_0IH@FFJBKKJA@Main?5Pos?3?5?$CI?$CF?40f?0?$CF?40f?$CJ?0?5Size?3?5?$CI?$CF@
CONST	SEGMENT
??_C@_0IH@FFJBKKJA@Main?5Pos?3?5?$CI?$CF?40f?0?$CF?40f?$CJ?0?5Size?3?5?$CI?$CF@ DB 'M'
	DB	'ain Pos: (%.0f,%.0f), Size: (%.0f,%.0f)', 0aH, 'WorkArea Offs'
	DB	'et Left: %.0f Top: %.0f, Right: %.0f, Bottom: %.0f', 0aH, 'Mo'
	DB	'nitor: %d, DpiScale: %.0f%%', 00H		; `string'
CONST	ENDS
;	COMDAT ??_C@_0DH@HNONKGMB@Viewport?5?$CD?$CFd?0?5ID?3?50x?$CF08X?0?5Paren@
CONST	SEGMENT
??_C@_0DH@HNONKGMB@Viewport?5?$CD?$CFd?0?5ID?3?50x?$CF08X?0?5Paren@ DB 'V'
	DB	'iewport #%d, ID: 0x%08X, Parent: 0x%08X, Window: "%s"', 00H ; `string'
CONST	ENDS
;	COMDAT ??_C@_0DG@DJKHNEAJ@?$CF02d?$CFc?5Tab?50x?$CF08X?5?8?$CFs?8?5Offset?3?5@
CONST	SEGMENT
??_C@_0DG@DJKHNEAJ@?$CF02d?$CFc?5Tab?50x?$CF08X?5?8?$CFs?8?5Offset?3?5@ DB '%'
	DB	'02d%c Tab 0x%08X ''%s'' Offset: %.2f, Width: %.2f/%.2f', 00H ; `string'
CONST	ENDS
;	COMDAT ??_C@_01PPODPGHN@?$DO@
CONST	SEGMENT
??_C@_01PPODPGHN@?$DO@ DB '>', 00H			; `string'
CONST	ENDS
;	COMDAT ??_C@_01MNNFJEPP@?$DM@
CONST	SEGMENT
??_C@_01MNNFJEPP@?$DM@ DB '<', 00H			; `string'
CONST	ENDS
;	COMDAT ??_C@_03LHCEFAHM@?5?$HN?5@
CONST	SEGMENT
??_C@_03LHCEFAHM@?5?$HN?5@ DB ' } ', 00H		; `string'
CONST	ENDS
;	COMDAT ??_C@_06MEIHFGI@?5?4?4?4?5?$HN@
CONST	SEGMENT
??_C@_06MEIHFGI@?5?4?4?4?5?$HN@ DB ' ... }', 00H	; `string'
CONST	ENDS
;	COMDAT ??_C@_06BKNPIBKB@?$CFs?8?$CFs?8@
CONST	SEGMENT
??_C@_06BKNPIBKB@?$CFs?8?$CFs?8@ DB '%s''%s''', 00H	; `string'
CONST	ENDS
;	COMDAT ??_C@_02KEGNLNML@?0?5@
CONST	SEGMENT
??_C@_02KEGNLNML@?0?5@ DB ', ', 00H			; `string'
CONST	ENDS
;	COMDAT ??_C@_0BJ@ONDPJKKK@?$CFs?50x?$CF08X?5?$CI?$CFd?5tabs?$CJ?$CFs?5?5?$HL@
CONST	SEGMENT
??_C@_0BJ@ONDPJKKK@?$CFs?50x?$CF08X?5?$CI?$CFd?5tabs?$CJ?$CFs?5?5?$HL@ DB '%'
	DB	's 0x%08X (%d tabs)%s  {', 00H		; `string'
CONST	ENDS
;	COMDAT ??_C@_0M@MDILNFHC@?5?$CKInactive?$CK@
CONST	SEGMENT
??_C@_0M@MDILNFHC@?5?$CKInactive?$CK@ DB ' *Inactive*', 00H ; `string'
CONST	ENDS
;	COMDAT ??_C@_0BL@LEAFLIMO@Key?50x?$CF08X?5Value?5?$HL?5i?3?5?$CFd?5?$HN@
CONST	SEGMENT
??_C@_0BL@LEAFLIMO@Key?50x?$CF08X?5Value?5?$HL?5i?3?5?$CFd?5?$HN@ DB 'Key'
	DB	' 0x%08X Value { i: %d }', 00H		; `string'
CONST	ENDS
;	COMDAT ??_C@_0BJ@EFAEFOHB@?$CFs?3?5?$CFd?5entries?0?5?$CFd?5bytes@
CONST	SEGMENT
??_C@_0BJ@EFAEFOHB@?$CFs?3?5?$CFd?5entries?0?5?$CFd?5bytes@ DB '%s: %d en'
	DB	'tries, %d bytes', 00H			; `string'
CONST	ENDS
;	COMDAT ??_C@_0BN@EHEDNDHJ@UV?3?5?$CI?$CF?43f?0?$CF?43f?$CJ?9?$DO?$CI?$CF?43f?0?$CF?43f?$CJ@
CONST	SEGMENT
??_C@_0BN@EHEDNDHJ@UV?3?5?$CI?$CF?43f?0?$CF?43f?$CJ?9?$DO?$CI?$CF?43f?0?$CF?43f?$CJ@ DB 'U'
	DB	'V: (%.3f,%.3f)->(%.3f,%.3f)', 00H		; `string'
CONST	ENDS
;	COMDAT ??_C@_0BO@BCFBHCGJ@Pos?3?5?$CI?$CF?42f?0?$CF?42f?$CJ?9?$DO?$CI?$CF?42f?0?$CF?42f?$CJ@
CONST	SEGMENT
??_C@_0BO@BCFBHCGJ@Pos?3?5?$CI?$CF?42f?0?$CF?42f?$CJ?9?$DO?$CI?$CF?42f?0?$CF?42f?$CJ@ DB 'P'
	DB	'os: (%.2f,%.2f)->(%.2f,%.2f)', 00H		; `string'
CONST	ENDS
;	COMDAT ??_C@_0P@JLIDDFIB@AdvanceX?3?5?$CF?41f@
CONST	SEGMENT
??_C@_0P@JLIDDFIB@AdvanceX?3?5?$CF?41f@ DB 'AdvanceX: %.1f', 00H ; `string'
CONST	ENDS
;	COMDAT ??_C@_0M@GDBOFNKK@Visible?3?5?$CFd@
CONST	SEGMENT
??_C@_0M@GDBOFNKK@Visible?3?5?$CFd@ DB 'Visible: %d', 00H ; `string'
CONST	ENDS
;	COMDAT ??_C@_0BC@JMLDGIFC@Codepoint?3?5U?$CL?$CF04X@
CONST	SEGMENT
??_C@_0BC@JMLDGIFC@Codepoint?3?5U?$CL?$CF04X@ DB 'Codepoint: U+%04X', 00H ; `string'
CONST	ENDS
;	COMDAT ??_C@_0BH@KIECHKHD@U?$CL?$CF04X?4?4U?$CL?$CF04X?5?$CI?$CFd?5?$CFs?$CJ@
CONST	SEGMENT
??_C@_0BH@KIECHKHD@U?$CL?$CF04X?4?4U?$CL?$CF04X?5?$CI?$CFd?5?$CFs?$CJ@ DB 'U'
	DB	'+%04X..U+%04X (%d %s)', 00H			; `string'
CONST	ENDS
;	COMDAT ??_C@_05OIOMJNBL@glyph@
CONST	SEGMENT
??_C@_05OIOMJNBL@glyph@ DB 'glyph', 00H			; `string'
CONST	ENDS
;	COMDAT ??_C@_06IOJPAPEE@glyphs@
CONST	SEGMENT
??_C@_06IOJPAPEE@glyphs@ DB 'glyphs', 00H		; `string'
CONST	ENDS
;	COMDAT ??_C@_06EBCCDGNI@Glyphs@
CONST	SEGMENT
??_C@_06EBCCDGNI@Glyphs@ DB 'Glyphs', 00H		; `string'
CONST	ENDS
;	COMDAT ??_C@_0M@NEAHLNMH@Glyphs?5?$CI?$CFd?$CJ@
CONST	SEGMENT
??_C@_0M@NEAHLNMH@Glyphs?5?$CI?$CFd?$CJ@ DB 'Glyphs (%d)', 00H ; `string'
CONST	ENDS
;	COMDAT ??_C@_0EJ@EOFKACMP@Input?5?$CFd?3?5?8?$CFs?8?0?5Oversample?3?5?$CI?$CFd@
CONST	SEGMENT
??_C@_0EJ@EOFKACMP@Input?5?$CFd?3?5?8?$CFs?8?0?5Oversample?3?5?$CI?$CFd@ DB 'I'
	DB	'nput %d: ''%s'', Oversample: (%d,%d), PixelSnapH: %d, Offset:'
	DB	' (%.1f,%.1f)', 00H				; `string'
CONST	ENDS
;	COMDAT ??_C@_0CE@LLADJGCM@Texture?5Area?3?5about?5?$CFd?5px?5?$HO?$CFdx?$CF@
CONST	SEGMENT
??_C@_0CE@LLADJGCM@Texture?5Area?3?5about?5?$CFd?5px?5?$HO?$CFdx?$CF@ DB 'T'
	DB	'exture Area: about %d px ~%dx%d px', 00H	; `string'
CONST	ENDS
;	COMDAT ??_C@_0CC@FAJAAGEH@Ellipsis?5character?3?5?8?$CFs?8?5?$CIU?$CL?$CF04@
CONST	SEGMENT
??_C@_0CC@FAJAAGEH@Ellipsis?5character?3?5?8?$CFs?8?5?$CIU?$CL?$CF04@ DB 'E'
	DB	'llipsis character: ''%s'' (U+%04X)', 00H	; `string'
CONST	ENDS
;	COMDAT ??_C@_0CC@FDGLEGDM@Fallback?5character?3?5?8?$CFs?8?5?$CIU?$CL?$CF04@
CONST	SEGMENT
??_C@_0CC@FDGLEGDM@Fallback?5character?3?5?8?$CFs?8?5?$CIU?$CL?$CF04@ DB 'F'
	DB	'allback character: ''%s'' (U+%04X)', 00H	; `string'
CONST	ENDS
;	COMDAT ??_C@_0CE@FJCMKHHK@Ascent?3?5?$CFf?0?5Descent?3?5?$CFf?0?5Height@
CONST	SEGMENT
??_C@_0CE@FJCMKHHK@Ascent?3?5?$CFf?0?5Descent?3?5?$CFf?0?5Height@ DB 'Asc'
	DB	'ent: %f, Descent: %f, Height: %f', 00H	; `string'
CONST	ENDS
;	COMDAT ??_C@_0BIM@KGKNLDMD@Note?5that?5the?5default?5embedded?5@
CONST	SEGMENT
??_C@_0BIM@KGKNLDMD@Note?5that?5the?5default?5embedded?5@ DB 'Note that t'
	DB	'he default embedded font is NOT meant to be scaled.', 0aH, 0aH
	DB	'Font are currently rendered into bitmaps at a given size at t'
	DB	'he time of building the atlas. You may oversample them to get'
	DB	' some flexibility with scaling. You can also render at multip'
	DB	'le sizes and select which one to use at runtime.', 0aH, 0aH, '('
	DB	'Glimmer of hope: the atlas system will be rewritten in the fu'
	DB	'ture to make scaling more flexible.)', 00H	; `string'
CONST	ENDS
;	COMDAT ??_C@_0L@HAJGHBLA@Font?5scale@
CONST	SEGMENT
??_C@_0L@HAJGHBLA@Font?5scale@ DB 'Font scale', 00H	; `string'
CONST	ENDS
;	COMDAT ??_C@_04GGBPDDBN@?$CF?41f@
CONST	SEGMENT
??_C@_04GGBPDDBN@?$CF?41f@ DB '%.1f', 00H		; `string'
CONST	ENDS
;	COMDAT ??_C@_0CM@HCLJNHNJ@The?5quick?5brown?5fox?5jumps?5over?5@
CONST	SEGMENT
??_C@_0CM@HCLJNHNJ@The?5quick?5brown?5fox?5jumps?5over?5@ DB 'The quick b'
	DB	'rown fox jumps over the lazy dog', 00H	; `string'
CONST	ENDS
;	COMDAT ??_C@_0P@HCLAAKJM@Set?5as?5default@
CONST	SEGMENT
??_C@_0P@HCLAAKJM@Set?5as?5default@ DB 'Set as default', 00H ; `string'
CONST	ENDS
;	COMDAT ??_C@_0CK@IFCNIJMP@Font?3?5?$CC?$CFs?$CC?6?$CF?42f?5px?0?5?$CFd?5glyphs?0?5@
CONST	SEGMENT
??_C@_0CK@IFCNIJMP@Font?3?5?$CC?$CFs?$CC?6?$CF?42f?5px?0?5?$CFd?5glyphs?0?5@ DB 'F'
	DB	'ont: "%s"', 0aH, '%.2f px, %d glyphs, %d file(s)', 00H ; `string'
CONST	ENDS
;	COMDAT ??_C@_0DG@MPIFBGBG@?$CFs?5?$CF04d?3?5pos?5?$CI?$CF8?42f?0?$CF8?42f?$CJ?0?5uv?5@
CONST	SEGMENT
??_C@_0DG@MPIFBGBG@?$CFs?5?$CF04d?3?5pos?5?$CI?$CF8?42f?0?$CF8?42f?$CJ?0?5uv?5@ DB '%'
	DB	's %04d: pos (%8.2f,%8.2f), uv (%.6f,%.6f), col %08X', 0aH, 00H ; `string'
CONST	ENDS
;	COMDAT ??_C@_05IFKLLJBC@?5?5?5?5?5@
CONST	SEGMENT
??_C@_05IFKLLJBC@?5?5?5?5?5@ DB '     ', 00H		; `string'
CONST	ENDS
;	COMDAT ??_C@_05HCFPDLGJ@Vert?3@
CONST	SEGMENT
??_C@_05HCFPDLGJ@Vert?3@ DB 'Vert:', 00H		; `string'
CONST	ENDS
;	COMDAT ??_C@_0EE@EGAMBHDK@Mesh?3?5ElemCount?3?5?$CFd?0?5VtxOffset?3@
CONST	SEGMENT
??_C@_0EE@EGAMBHDK@Mesh?3?5ElemCount?3?5?$CFd?0?5VtxOffset?3@ DB 'Mesh: E'
	DB	'lemCount: %d, VtxOffset: +%d, IdxOffset: +%d, Area: ~%0.f px', 00H ; `string'
CONST	ENDS
;	COMDAT ??_C@_0DP@EMIMHPEE@DrawCmd?3?$CF5d?5tris?0?5Tex?5?$CFs?0?5ClipR@
CONST	SEGMENT
??_C@_0DP@EMIMHPEE@DrawCmd?3?$CF5d?5tris?0?5Tex?5?$CFs?0?5ClipR@ DB 'Draw'
	DB	'Cmd:%5d tris, Tex %s, ClipRect (%4.0f,%4.0f)-(%4.0f,%4.0f)', 00H ; `string'
CONST	ENDS
;	COMDAT ??_C@_0BK@FDNBBNBF@Callback?5?$CFp?0?5user_data?5?$CFp@
CONST	SEGMENT
??_C@_0BK@FDNBBNBF@Callback?5?$CFp?0?5user_data?5?$CFp@ DB 'Callback %p, '
	DB	'user_data %p', 00H				; `string'
CONST	ENDS
;	COMDAT ??_C@_0EJ@LNIIFBMO@Warning?3?5owning?5Window?5is?5inact@
CONST	SEGMENT
??_C@_0EJ@LNIIFBMO@Warning?3?5owning?5Window?5is?5inact@ DB 'Warning: own'
	DB	'ing Window is inactive. This DrawList is not being rendered!', 00H ; `string'
CONST	ENDS
;	COMDAT ??_C@_0BE@LDCFEMCB@CURRENTLY?5APPENDING@
CONST	SEGMENT
??_C@_0BE@LDCFEMCB@CURRENTLY?5APPENDING@ DB 'CURRENTLY APPENDING', 00H ; `string'
CONST	ENDS
;	COMDAT ??_C@_0CF@IMBENNLG@?$CFs?3?5?8?$CFs?8?5?$CFd?5vtx?0?5?$CFd?5indices?0?5?$CFd@
CONST	SEGMENT
??_C@_0CF@IMBENNLG@?$CFs?3?5?8?$CFs?8?5?$CFd?5vtx?0?5?$CFd?5indices?0?5?$CFd@ DB '%'
	DB	's: ''%s'' %d vtx, %d indices, %d cmds', 00H	; `string'
CONST	ENDS
;	COMDAT ??_C@_06IFILMILK@0x?$CF04X@
CONST	SEGMENT
??_C@_06IFILMILK@0x?$CF04X@ DB '0x%04X', 00H		; `string'
CONST	ENDS
;	COMDAT ??_C@_04CHMOMFOK@0x?$CFp@
CONST	SEGMENT
??_C@_04CHMOMFOK@0x?$CFp@ DB '0x%p', 00H		; `string'
CONST	ENDS
;	COMDAT ??_C@_08MGPNFMBK@Child?$FL1?$FN@
CONST	SEGMENT
??_C@_08MGPNFMBK@Child?$FL1?$FN@ DB 'Child[1]', 00H	; `string'
CONST	ENDS
;	COMDAT ??_C@_08MHDPDGCN@Child?$FL0?$FN@
CONST	SEGMENT
??_C@_08MHDPDGCN@Child?$FL0?$FN@ DB 'Child[0]', 00H	; `string'
CONST	ENDS
;	COMDAT ??_C@_0L@MFFDMPJ@ParentNode@
CONST	SEGMENT
??_C@_0L@MFFDMPJ@ParentNode@ DB 'ParentNode', 00H	; `string'
CONST	ENDS
;	COMDAT ??_C@_0M@GNIJJAOO@SharedFlags@
CONST	SEGMENT
??_C@_0M@GNIJJAOO@SharedFlags@ DB 'SharedFlags', 00H	; `string'
CONST	ENDS
;	COMDAT ??_C@_0BE@CALKKIMP@LocalFlagsInWindows@
CONST	SEGMENT
??_C@_0BE@CALKKIMP@LocalFlagsInWindows@ DB 'LocalFlagsInWindows', 00H ; `string'
CONST	ENDS
;	COMDAT ??_C@_0L@BCKMLFNI@LocalFlags@
CONST	SEGMENT
??_C@_0L@BCKMLFNI@LocalFlags@ DB 'LocalFlags', 00H	; `string'
CONST	ENDS
;	COMDAT ??_C@_0M@GJPKNONO@MergedFlags@
CONST	SEGMENT
??_C@_0M@GJPKNONO@MergedFlags@ DB 'MergedFlags', 00H	; `string'
CONST	ENDS
;	COMDAT ??_C@_05GECEPKB@flags@
CONST	SEGMENT
??_C@_05GECEPKB@flags@ DB 'flags', 00H			; `string'
CONST	ENDS
;	COMDAT ??_C@_0EH@IFKMPGFC@Flags?5Merged?3?50x?$CF04X?0?5Local?3?50x@
CONST	SEGMENT
??_C@_0EH@IFKMPGFC@Flags?5Merged?3?50x?$CF04X?0?5Local?3?50x@ DB 'Flags M'
	DB	'erged: 0x%04X, Local: 0x%04X, InWindows: 0x%04X, Shared: 0x%0'
	DB	'4X', 00H					; `string'
CONST	ENDS
;	COMDAT ??_C@_0BE@EKLPOGND@Misc?3?$CFs?$CFs?$CFs?$CFs?$CFs?$CFs?$CFs@
CONST	SEGMENT
??_C@_0BE@EKLPOGND@Misc?3?$CFs?$CFs?$CFs?$CFs?$CFs?$CFs?$CFs@ DB 'Misc:%s'
	DB	'%s%s%s%s%s%s', 00H				; `string'
CONST	ENDS
;	COMDAT ??_C@_0N@OIOIPNJI@?5IsDockSpace@
CONST	SEGMENT
??_C@_0N@OIOIPNJI@?5IsDockSpace@ DB ' IsDockSpace', 00H	; `string'
CONST	ENDS
;	COMDAT ??_C@_0P@CDHHMAOD@?5IsCentralNode@
CONST	SEGMENT
??_C@_0P@CDHHMAOD@?5IsCentralNode@ DB ' IsCentralNode', 00H ; `string'
CONST	ENDS
;	COMDAT ??_C@_08OGELAKIO@?5IsAlive@
CONST	SEGMENT
??_C@_08OGELAKIO@?5IsAlive@ DB ' IsAlive', 00H		; `string'
CONST	ENDS
;	COMDAT ??_C@_09GNFAMBMJ@?5IsActive@
CONST	SEGMENT
??_C@_09GNFAMBMJ@?5IsActive@ DB ' IsActive', 00H	; `string'
CONST	ENDS
;	COMDAT ??_C@_0L@KCDMFPIJ@?5IsFocused@
CONST	SEGMENT
??_C@_0L@KCDMFPIJ@?5IsFocused@ DB ' IsFocused', 00H	; `string'
CONST	ENDS
;	COMDAT ??_C@_0BC@DOFLNDJF@?5WantLockSizeOnce@
CONST	SEGMENT
??_C@_0BC@DOFLNDJF@?5WantLockSizeOnce@ DB ' WantLockSizeOnce', 00H ; `string'
CONST	ENDS
;	COMDAT ??_C@_0BF@JEDBAMHN@?5HasCentralNodeChild@
CONST	SEGMENT
??_C@_0BF@JEDBAMHN@?5HasCentralNodeChild@ DB ' HasCentralNodeChild', 00H ; `string'
CONST	ENDS
;	COMDAT ??_C@_0DB@EFCFPKBP@SelectedTabID?3?50x?$CF08X?0?5LastFocu@
CONST	SEGMENT
??_C@_0DB@EFCFPKBP@SelectedTabID?3?50x?$CF08X?0?5LastFocu@ DB 'SelectedTa'
	DB	'bID: 0x%08X, LastFocusedNodeID: 0x%08X', 00H ; `string'
CONST	ENDS
;	COMDAT ??_C@_0O@IPNCGGMB@VisibleWindow@
CONST	SEGMENT
??_C@_0O@IPNCGGMB@VisibleWindow@ DB 'VisibleWindow', 00H ; `string'
CONST	ENDS
;	COMDAT ??_C@_0L@EBBBMKMB@HostWindow@
CONST	SEGMENT
??_C@_0L@EBBBMKMB@HostWindow@ DB 'HostWindow', 00H	; `string'
CONST	ENDS
;	COMDAT ??_C@_0DE@FLJOFLDG@Pos?5?$CI?$CF?40f?0?$CF?40f?$CJ?0?5Size?5?$CI?$CF?40f?0?5?$CF?4@
CONST	SEGMENT
??_C@_0DE@FLJOFLDG@Pos?5?$CI?$CF?40f?0?$CF?40f?$CJ?0?5Size?5?$CI?$CF?40f?0?5?$CF?4@ DB 'P'
	DB	'os (%.0f,%.0f), Size (%.0f, %.0f) Ref (%.0f, %.0f)', 00H ; `string'
CONST	ENDS
;	COMDAT ??_C@_0BM@MFJJAIA@?$CFs?50x?$CF04X?$CFs?3?5?$CFs?5?$CIvis?3?5?8?$CFs?8?$CJ@
CONST	SEGMENT
??_C@_0BM@MFJJAIA@?$CFs?50x?$CF04X?$CFs?3?5?$CFs?5?$CIvis?3?5?8?$CFs?8?$CJ@ DB '%'
	DB	's 0x%04X%s: %s (vis: ''%s'')', 00H		; `string'
CONST	ENDS
;	COMDAT ??_C@_05LBJMNBOG@empty@
CONST	SEGMENT
??_C@_05LBJMNBOG@empty@ DB 'empty', 00H			; `string'
CONST	ENDS
;	COMDAT ??_C@_0P@OCHJPFEB@vertical?5split@
CONST	SEGMENT
??_C@_0P@OCHJPFEB@vertical?5split@ DB 'vertical split', 00H ; `string'
CONST	ENDS
;	COMDAT ??_C@_0BB@LFFCBEPF@horizontal?5split@
CONST	SEGMENT
??_C@_0BB@LFFCBEPF@horizontal?5split@ DB 'horizontal split', 00H ; `string'
CONST	ENDS
;	COMDAT ??_C@_0CE@FOJGCEOL@?$CFs?50x?$CF04X?$CFs?3?5?$CFd?5windows?5?$CIvis?3?5?8@
CONST	SEGMENT
??_C@_0CE@FOJGCEOL@?$CFs?50x?$CF04X?$CFs?3?5?$CFd?5windows?5?$CIvis?3?5?8@ DB '%'
	DB	's 0x%04X%s: %d windows (vis: ''%s'')', 00H	; `string'
CONST	ENDS
;	COMDAT ??_C@_09ICABOEOL@?5?$CIhidden?$CJ@
CONST	SEGMENT
??_C@_09ICABOEOL@?5?$CIhidden?$CJ@ DB ' (hidden)', 00H	; `string'
CONST	ENDS
;	COMDAT ??_C@_0M@DCMOCCJM@NoUndocking@
CONST	SEGMENT
??_C@_0M@DCMOCCJM@NoUndocking@ DB 'NoUndocking', 00H	; `string'
CONST	ENDS
;	COMDAT ??_C@_0BD@CCGGHMPG@NoDockingOverEmpty@
CONST	SEGMENT
??_C@_0BD@CCGGHMPG@NoDockingOverEmpty@ DB 'NoDockingOverEmpty', 00H ; `string'
CONST	ENDS
;	COMDAT ??_C@_0BD@IFLAMFJP@NoDockingOverOther@
CONST	SEGMENT
??_C@_0BD@IFLAMFJP@NoDockingOverOther@ DB 'NoDockingOverOther', 00H ; `string'
CONST	ENDS
;	COMDAT ??_C@_0O@FPHEPEPE@NoDockingOver@
CONST	SEGMENT
??_C@_0O@FPHEPEPE@NoDockingOver@ DB 'NoDockingOver', 00H ; `string'
CONST	ENDS
;	COMDAT ??_C@_0BE@NDHGIJGE@NoDockingSplitOther@
CONST	SEGMENT
??_C@_0BE@NDHGIJGE@NoDockingSplitOther@ DB 'NoDockingSplitOther', 00H ; `string'
CONST	ENDS
;	COMDAT ??_C@_0P@GHPDMKFI@NoDockingSplit@
CONST	SEGMENT
??_C@_0P@GHPDMKFI@NoDockingSplit@ DB 'NoDockingSplit', 00H ; `string'
CONST	ENDS
;	COMDAT ??_C@_09IBKMIGJP@NoDocking@
CONST	SEGMENT
??_C@_09IBKMIGJP@NoDocking@ DB 'NoDocking', 00H		; `string'
CONST	ENDS
;	COMDAT ??_C@_0BK@OJKPENED@DockedWindowsInFocusRoute@
CONST	SEGMENT
??_C@_0BK@OJKPENED@DockedWindowsInFocusRoute@ DB 'DockedWindowsInFocusRou'
	DB	'te', 00H					; `string'
CONST	ENDS
;	COMDAT ??_C@_0O@DJJOAHDN@NoCloseButton@
CONST	SEGMENT
??_C@_0O@DJJOAHDN@NoCloseButton@ DB 'NoCloseButton', 00H ; `string'
CONST	ENDS
;	COMDAT ??_C@_0BD@KCGGIEPF@NoWindowMenuButton@
CONST	SEGMENT
??_C@_0BD@KCGGIEPF@NoWindowMenuButton@ DB 'NoWindowMenuButton', 00H ; `string'
CONST	ENDS
;	COMDAT ??_C@_0N@NLKLIFFD@HiddenTabBar@
CONST	SEGMENT
??_C@_0N@NLKLIFFD@HiddenTabBar@ DB 'HiddenTabBar', 00H	; `string'
CONST	ENDS
;	COMDAT ??_C@_08JEKMJOHA@NoTabBar@
CONST	SEGMENT
??_C@_08JEKMJOHA@NoTabBar@ DB 'NoTabBar', 00H		; `string'
CONST	ENDS
;	COMDAT ??_C@_09OJCCLMGL@NoResizeY@
CONST	SEGMENT
??_C@_09OJCCLMGL@NoResizeY@ DB 'NoResizeY', 00H		; `string'
CONST	ENDS
;	COMDAT ??_C@_09PADJINCK@NoResizeX@
CONST	SEGMENT
??_C@_09PADJINCK@NoResizeX@ DB 'NoResizeX', 00H		; `string'
CONST	ENDS
;	COMDAT ??_C@_08FDKOLHFG@NoResize@
CONST	SEGMENT
??_C@_08FDKOLHFG@NoResize@ DB 'NoResize', 00H		; `string'
CONST	ENDS
;	COMDAT ??_C@_03DKEJHHJP@?$CFs?3@
CONST	SEGMENT
??_C@_03DKEJHHJP@?$CFs?3@ DB '%s:', 00H			; `string'
CONST	ENDS
;	COMDAT ??_C@_0CJ@CPAFBJNN@Column?5?$CF02d?3?5OffsetNorm?5?$CF?43f?5?$CI?$DN@
CONST	SEGMENT
??_C@_0CJ@CPAFBJNN@Column?5?$CF02d?3?5OffsetNorm?5?$CF?43f?5?$CI?$DN@ DB 'C'
	DB	'olumn %02d: OffsetNorm %.3f (= %.1f px)', 00H ; `string'
CONST	ENDS
;	COMDAT ??_C@_0CF@PKFCLBKA@Width?3?5?$CF?41f?5?$CIMinX?3?5?$CF?41f?0?5MaxX?3?5@
CONST	SEGMENT
??_C@_0CF@PKFCLBKA@Width?3?5?$CF?41f?5?$CIMinX?3?5?$CF?41f?0?5MaxX?3?5@ DB 'W'
	DB	'idth: %.1f (MinX: %.1f, MaxX: %.1f)', 00H	; `string'
CONST	ENDS
;	COMDAT ??_C@_0CN@LMOAIACO@Columns?5Id?3?50x?$CF08X?0?5Count?3?5?$CFd?0?5@
CONST	SEGMENT
??_C@_0CN@LMOAIACO@Columns?5Id?3?50x?$CF08X?0?5Count?3?5?$CFd?0?5@ DB 'Co'
	DB	'lumns Id: 0x%08X, Count: %d, Flags: 0x%04X', 00H ; `string'
CONST	ENDS
;	COMDAT ??_C@_0HK@FMHOPFEI@Choose?5one?5way?5that?5doesn?8t?5int@
CONST	SEGMENT
??_C@_0HK@FMHOPFEI@Choose?5one?5way?5that?5doesn?8t?5int@ DB 'Choose one '
	DB	'way that doesn''t interfere with what you are trying to debug'
	DB	'!', 0aH, 'You need a debugger attached or this will crash!', 00H ; `string'
CONST	ENDS
;	COMDAT ??_C@_0HJ@KHDGNDHG@?9?5Press?5?8Pause?1Break?8?5on?5keyboa@
CONST	SEGMENT
??_C@_0HJ@KHDGNDHG@?9?5Press?5?8Pause?1Break?8?5on?5keyboa@ DB '- Press '''
	DB	'Pause/Break'' on keyboard.', 0aH, '- or Click (may alter focu'
	DB	's/active id).', 0aH, '- or navigate using keyboard and press '
	DB	'space.', 00H				; `string'
CONST	ENDS
;	COMDAT ??_C@_0CD@FEOHFLMJ@?9?5Press?5?8Pause?1Break?8?5on?5keyboa@
CONST	SEGMENT
??_C@_0CD@FEOHFLMJ@?9?5Press?5?8Pause?1Break?8?5on?5keyboa@ DB '- Press '''
	DB	'Pause/Break'' on keyboard.', 00H		; `string'
CONST	ENDS
;	COMDAT ??_C@_0BN@FAEENFHD@To?5call?5IM_DEBUG_BREAK?$CI?$CJ?5?$CFs?3@
CONST	SEGMENT
??_C@_0BN@FAEENFHD@To?5call?5IM_DEBUG_BREAK?$CI?$CJ?5?$CFs?3@ DB 'To call'
	DB	' IM_DEBUG_BREAK() %s:', 00H			; `string'
CONST	ENDS
;	COMDAT ??_C@_0BH@JEMNMICE@SizeRef?3?5?$CI?$CF?40f?0?5?$CF?40f?$CJ?6@
CONST	SEGMENT
??_C@_0BH@JEMNMICE@SizeRef?3?5?$CI?$CF?40f?0?5?$CF?40f?$CJ?6@ DB 'SizeRef'
	DB	': (%.0f, %.0f)', 0aH, 00H			; `string'
CONST	ENDS
;	COMDAT ??_C@_0BE@PEMKEDJL@Size?3?5?$CI?$CF?40f?0?5?$CF?40f?$CJ?6@
CONST	SEGMENT
??_C@_0BE@PEMKEDJL@Size?3?5?$CI?$CF?40f?0?5?$CF?40f?$CJ?6@ DB 'Size: (%.0'
	DB	'f, %.0f)', 0aH, 00H				; `string'
CONST	ENDS
;	COMDAT ??_C@_0BD@IANEACFO@WindowClass?3?5?$CF08X?6@
CONST	SEGMENT
??_C@_0BD@IANEACFO@WindowClass?3?5?$CF08X?6@ DB 'WindowClass: %08X', 0aH, 00H ; `string'
CONST	ENDS
;	COMDAT ??_C@_0O@KPMNKFNG@DockId?3?5?$CFX?$CFs?6@
CONST	SEGMENT
??_C@_0O@KPMNKFNG@DockId?3?5?$CFX?$CFs?6@ DB 'DockId: %X%s', 0aH, 00H ; `string'
CONST	ENDS
;	COMDAT ??_C@_0P@MHANFNLE@?5?$CKCentralNode?$CK@
CONST	SEGMENT
??_C@_0P@MHANFNLE@?5?$CKCentralNode?$CK@ DB ' *CentralNode*', 00H ; `string'
CONST	ENDS
;	COMDAT ??_C@_0BJ@HGGGEMAP@NavWindowingTarget?3?5?8?$CFs?8@
CONST	SEGMENT
??_C@_0BJ@HGGGEMAP@NavWindowingTarget?3?5?8?$CFs?8@ DB 'NavWindowingTarge'
	DB	't: ''%s''', 00H				; `string'
CONST	ENDS
;	COMDAT ??_C@_0P@CPDHMPDO@In?5window?5?$CC?$CFs?$CC@
CONST	SEGMENT
??_C@_0P@CPDHMPDO@In?5window?5?$CC?$CFs?$CC@ DB 'In window "%s"', 00H ; `string'
CONST	ENDS
;	COMDAT ??_C@_07HDPLFGIP@0x?$CF08X?1@
CONST	SEGMENT
??_C@_07HDPLFGIP@0x?$CF08X?1@ DB '0x%08X/', 00H		; `string'
CONST	ENDS
;	COMDAT ??_C@_0BD@KMCAKLFO@NavFocusRoute?$FL?$FN?5?$DN?5@
CONST	SEGMENT
??_C@_0BD@KMCAKLFO@NavFocusRoute?$FL?$FN?5?$DN?5@ DB 'NavFocusRoute[] = ', 00H ; `string'
CONST	ENDS
;	COMDAT ??_C@_0BJ@GGAKOFG@NavFocusScopeId?5?$DN?50x?$CF08X@
CONST	SEGMENT
??_C@_0BJ@GGAKOFG@NavFocusScopeId?5?$DN?50x?$CF08X@ DB 'NavFocusScopeId ='
	DB	' 0x%08X', 00H				; `string'
CONST	ENDS
;	COMDAT ??_C@_0DC@PBLGJJAI@NavDisableHighlight?3?5?$CFd?0?5NavDis@
CONST	SEGMENT
??_C@_0DC@PBLGJJAI@NavDisableHighlight?3?5?$CFd?0?5NavDis@ DB 'NavDisable'
	DB	'Highlight: %d, NavDisableMouseHover: %d', 00H ; `string'
CONST	ENDS
;	COMDAT ??_C@_0BH@DDMJGBPN@NavActivateFlags?3?5?$CF04X@
CONST	SEGMENT
??_C@_0BH@DDMJGBPN@NavActivateFlags?3?5?$CF04X@ DB 'NavActivateFlags: %04'
	DB	'X', 00H					; `string'
CONST	ENDS
;	COMDAT ??_C@_0CP@NGKGGGDE@NavActivateId?1DownId?1PressedId?3@
CONST	SEGMENT
??_C@_0CP@NGKGGGDE@NavActivateId?1DownId?1PressedId?3@ DB 'NavActivateId/'
	DB	'DownId/PressedId: %08X/%08X/%08X', 00H	; `string'
CONST	ENDS
;	COMDAT ??_C@_0BO@PADIALFI@NavActive?3?5?$CFd?0?5NavVisible?3?5?$CFd@
CONST	SEGMENT
??_C@_0BO@PADIALFI@NavActive?3?5?$CFd?0?5NavVisible?3?5?$CFd@ DB 'NavActi'
	DB	've: %d, NavVisible: %d', 00H		; `string'
CONST	ENDS
;	COMDAT ??_C@_0DA@BPKLGDAF@NavLastValidSelectionUserData?5?$DN@
CONST	SEGMENT
??_C@_0DA@BPKLGDAF@NavLastValidSelectionUserData?5?$DN@ DB 'NavLastValidS'
	DB	'electionUserData = %I64d (0x%I64X)', 00H	; `string'
CONST	ENDS
;	COMDAT ??_C@_0BD@HIKDFBG@NavInputSource?3?5?$CFs@
CONST	SEGMENT
??_C@_0BD@HIKDFBG@NavInputSource?3?5?$CFs@ DB 'NavInputSource: %s', 00H ; `string'
CONST	ENDS
;	COMDAT ??_C@_0BM@KFFINKHC@NavId?3?50x?$CF08X?0?5NavLayer?3?5?$CFd@
CONST	SEGMENT
??_C@_0BM@KFFINKHC@NavId?3?50x?$CF08X?0?5NavLayer?3?5?$CFd@ DB 'NavId: 0x'
	DB	'%08X, NavLayer: %d', 00H			; `string'
CONST	ENDS
;	COMDAT ??_C@_0BA@KJPDENCF@NavWindow?3?5?8?$CFs?8@
CONST	SEGMENT
??_C@_0BA@KJPDENCF@NavWindow?3?5?8?$CFs?8@ DB 'NavWindow: ''%s''', 00H ; `string'
CONST	ENDS
;	COMDAT ??_C@_09LPFJCNIB@NAV?0FOCUS@
CONST	SEGMENT
??_C@_09LPFJCNIB@NAV?0FOCUS@ DB 'NAV,FOCUS', 00H	; `string'
CONST	ENDS
;	COMDAT ??_C@_0DJ@OPOHHHAC@DragDrop?3?5?$CFd?0?5SourceId?5?$DN?50x?$CF08X@
CONST	SEGMENT
??_C@_0DJ@OPOHHHAC@DragDrop?3?5?$CFd?0?5SourceId?5?$DN?50x?$CF08X@ DB 'Dr'
	DB	'agDrop: %d, SourceId = 0x%08X, Payload "%s" (%d bytes)', 00H ; `string'
CONST	ENDS
;	COMDAT ??_C@_0DI@LCGCLGIP@HoverItemDelayId?3?50x?$CF08X?0?5Timer@
CONST	SEGMENT
??_C@_0DI@LCGCLGIP@HoverItemDelayId?3?50x?$CF08X?0?5Timer@ DB 'HoverItemD'
	DB	'elayId: 0x%08X, Timer: %.2f, ClearTimer: %.2f', 00H ; `string'
CONST	ENDS
;	COMDAT ??_C@_0CP@CCEEBMAB@HoveredId?3?50x?$CF08X?5?$CI?$CF?42f?5sec?$CJ?0?5A@
CONST	SEGMENT
??_C@_0CP@CCEEBMAB@HoveredId?3?50x?$CF08X?5?$CI?$CF?42f?5sec?$CJ?0?5A@ DB 'H'
	DB	'overedId: 0x%08X (%.2f sec), AllowOverlap: %d', 00H ; `string'
CONST	ENDS
;	COMDAT ??_C@_0DD@CAAMDFEK@ActiveIdUsing?3?5AllKeyboardKeys?3@
CONST	SEGMENT
??_C@_0DD@CAAMDFEK@ActiveIdUsing?3?5AllKeyboardKeys?3@ DB 'ActiveIdUsing:'
	DB	' AllKeyboardKeys: %d, NavDirMask: %X', 00H	; `string'
CONST	ENDS
;	COMDAT ??_C@_0BF@CPEAOPEJ@ActiveIdWindow?3?5?8?$CFs?8@
CONST	SEGMENT
??_C@_0BF@CPEAOPEJ@ActiveIdWindow?3?5?8?$CFs?8@ DB 'ActiveIdWindow: ''%s'''
	DB	00H						; `string'
CONST	ENDS
;	COMDAT ??_C@_0EB@PEJDHKLE@ActiveId?3?50x?$CF08X?10x?$CF08X?5?$CI?$CF?42f?5s@
CONST	SEGMENT
??_C@_0EB@PEJDHKLE@ActiveId?3?50x?$CF08X?10x?$CF08X?5?$CI?$CF?42f?5s@ DB 'A'
	DB	'ctiveId: 0x%08X/0x%08X (%.2f sec), AllowOverlap: %d, Source: '
	DB	'%s', 00H					; `string'
CONST	ENDS
;	COMDAT ??_C@_05OOOHNEPI@ITEMS@
CONST	SEGMENT
??_C@_05OOOHNEPI@ITEMS@ DB 'ITEMS', 00H			; `string'
CONST	ENDS
;	COMDAT ??_C@_0BD@HCKEDLME@MovingWindow?3?5?8?$CFs?8@
CONST	SEGMENT
??_C@_0BD@HCKEDLME@MovingWindow?3?5?8?$CFs?8@ DB 'MovingWindow: ''%s''', 00H ; `string'
CONST	ENDS
;	COMDAT ??_C@_0BI@HNDCBICI@HoveredDockNode?3?50x?$CF08X@
CONST	SEGMENT
??_C@_0BI@HNDCBICI@HoveredDockNode?3?50x?$CF08X@ DB 'HoveredDockNode: 0x%'
	DB	'08X', 00H					; `string'
CONST	ENDS
;	COMDAT ??_C@_0CF@OOIEDAD@HoveredWindowUnderMovingWindow?3@
CONST	SEGMENT
??_C@_0CF@OOIEDAD@HoveredWindowUnderMovingWindow?3@ DB 'HoveredWindowUnde'
	DB	'rMovingWindow: ''%s''', 00H			; `string'
CONST	ENDS
;	COMDAT ??_C@_0BK@GFBMGONH@HoveredWindow?9?$DORoot?3?5?8?$CFs?8@
CONST	SEGMENT
??_C@_0BK@GFBMGONH@HoveredWindow?9?$DORoot?3?5?8?$CFs?8@ DB 'HoveredWindo'
	DB	'w->Root: ''%s''', 00H			; `string'
CONST	ENDS
;	COMDAT ??_C@_0BE@NBGIHPGN@HoveredWindow?3?5?8?$CFs?8@
CONST	SEGMENT
??_C@_0BE@NBGIHPGN@HoveredWindow?3?5?8?$CFs?8@ DB 'HoveredWindow: ''%s''', 00H ; `string'
CONST	ENDS
;	COMDAT ??_C@_09OOMCPLIM@WINDOWING@
CONST	SEGMENT
??_C@_09OOMCPLIM@WINDOWING@ DB 'WINDOWING', 00H		; `string'
CONST	ENDS
;	COMDAT ??_C@_0P@DKNCHHLP@Internal?5state@
CONST	SEGMENT
??_C@_0P@DKNCHHLP@Internal?5state@ DB 'Internal state', 00H ; `string'
CONST	ENDS
;	COMDAT ??_C@_0DH@IBPBMDJD@?$CIActiveIdUsing?3?5AllKeyboardKeys@
CONST	SEGMENT
??_C@_0DH@IBPBMDJD@?$CIActiveIdUsing?3?5AllKeyboardKeys@ DB '(ActiveIdUsi'
	DB	'ng: AllKeyboardKeys: %d, NavDirMask: 0x%X)', 00H ; `string'
CONST	ENDS
;	COMDAT ??_C@_0P@GPBIMLCE@?$CK?$CKDebugBreak?$CK?$CK@
CONST	SEGMENT
??_C@_0P@GPBIMLCE@?$CK?$CKDebugBreak?$CK?$CK@ DB '**DebugBreak**', 00H ; `string'
CONST	ENDS
;	COMDAT ??_C@_0CK@LNLOIDCJ@in?5SetShortcutRouting?$CI?$CJ?5for?5thi@
CONST	SEGMENT
??_C@_0CK@LNLOIDCJ@in?5SetShortcutRouting?$CI?$CJ?5for?5thi@ DB 'in SetSh'
	DB	'ortcutRouting() for this KeyChord', 00H	; `string'
CONST	ENDS
;	COMDAT ??_C@_0BH@JMBJOGJM@?$CFs?3?50x?$CF08X?5?$CIscored?5?$CFd?$CJ@
CONST	SEGMENT
??_C@_0BH@JMBJOGJM@?$CFs?3?50x?$CF08X?5?$CIscored?5?$CFd?$CJ@ DB '%s: 0x%'
	DB	'08X (scored %d)', 00H			; `string'
CONST	ENDS
;	COMDAT ??_C@_08MIEHDHIF@?$CD?$CDroutes@
CONST	SEGMENT
??_C@_08MIEHDHIF@?$CD?$CDroutes@ DB '##routes', 00H	; `string'
CONST	ENDS
;	COMDAT ??_C@_0EI@GJCEMDFM@Declared?5shortcut?5routes?5automa@
CONST	SEGMENT
??_C@_0EI@GJCEMDFM@Declared?5shortcut?5routes?5automa@ DB 'Declared short'
	DB	'cut routes automatically set key owner when mods matches.', 00H ; `string'
CONST	ENDS
;	COMDAT ??_C@_0BB@IIHPPFOB@SHORTCUT?5ROUTING@
CONST	SEGMENT
??_C@_0BB@IIHPPFOB@SHORTCUT?5ROUTING@ DB 'SHORTCUT ROUTING', 00H ; `string'
CONST	ENDS
;	COMDAT ??_C@_0N@OFJBCDIC@?$CFs?3?50x?$CF08X?$CFs@
CONST	SEGMENT
??_C@_0N@OFJBCDIC@?$CFs?3?50x?$CF08X?$CFs@ DB '%s: 0x%08X%s', 00H ; `string'
CONST	ENDS
;	COMDAT ??_C@_0P@KHDHNDE@?5LockThisFrame@
CONST	SEGMENT
??_C@_0P@KHDHNDE@?5LockThisFrame@ DB ' LockThisFrame', 00H ; `string'
CONST	ENDS
;	COMDAT ??_C@_0BC@LKHMKKD@?5LockUntilRelease@
CONST	SEGMENT
??_C@_0BC@LKHMKKD@?5LockUntilRelease@ DB ' LockUntilRelease', 00H ; `string'
CONST	ENDS
;	COMDAT ??_C@_08MHDHGJOB@?$CD?$CDowners@
CONST	SEGMENT
??_C@_08MHDHGJOB@?$CD?$CDowners@ DB '##owners', 00H	; `string'
CONST	ENDS
;	COMDAT ??_C@_0L@CIGKAOJG@KEY?5OWNERS@
CONST	SEGMENT
??_C@_0L@CIGKAOJG@KEY?5OWNERS@ DB 'KEY OWNERS', 00H	; `string'
CONST	ENDS
;	COMDAT ??_C@_0DC@COLEDANA@WheelingAxisAvg?$FL?$FN?5?$DN?5?$HL?5?$CF?43f?0?5?$CF?43@
CONST	SEGMENT
??_C@_0DC@COLEDANA@WheelingAxisAvg?$FL?$FN?5?$DN?5?$HL?5?$CF?43f?0?5?$CF?43@ DB 'W'
	DB	'heelingAxisAvg[] = { %.3f, %.3f }, Main Axis: %s', 00H ; `string'
CONST	ENDS
;	COMDAT ??_C@_06PAOMPDJH@?$DMnone?$DO@
CONST	SEGMENT
??_C@_06PAOMPDJH@?$DMnone?$DO@ DB '<none>', 00H		; `string'
CONST	ENDS
;	COMDAT ??_C@_0CB@GKEOFNFN@WheelingWindowReleaseTimer?3?5?$CF?42@
CONST	SEGMENT
??_C@_0CB@GKEOFNFN@WheelingWindowReleaseTimer?3?5?$CF?42@ DB 'WheelingWin'
	DB	'dowReleaseTimer: %.2f', 00H			; `string'
CONST	ENDS
;	COMDAT ??_C@_0BF@JFEICAPA@WheelingWindow?3?5?8?$CFs?8@
CONST	SEGMENT
??_C@_0BF@JFEICAPA@WheelingWindow?3?5?8?$CFs?8@ DB 'WheelingWindow: ''%s'''
	DB	00H						; `string'
CONST	ENDS
;	COMDAT ??_C@_0P@KFDIODJM@MOUSE?5WHEELING@
CONST	SEGMENT
??_C@_0P@KFDIODJM@MOUSE?5WHEELING@ DB 'MOUSE WHEELING', 00H ; `string'
CONST	ENDS
;	COMDAT ??_C@_0BD@PNGBMOAE@Pen?5Pressure?3?5?$CF?41f@
CONST	SEGMENT
??_C@_0BD@PNGBMOAE@Pen?5Pressure?3?5?$CF?41f@ DB 'Pen Pressure: %.1f', 00H ; `string'
CONST	ENDS
;	COMDAT ??_C@_0BB@OGEGHANL@Mouse?5source?3?5?$CFs@
CONST	SEGMENT
??_C@_0BB@OGEGHANL@Mouse?5source?3?5?$CFs@ DB 'Mouse source: %s', 00H ; `string'
CONST	ENDS
;	COMDAT ??_C@_0BL@HJGPGGCC@MouseStationaryTimer?3?5?$CF?42f@
CONST	SEGMENT
??_C@_0BL@HJGPGGCC@MouseStationaryTimer?3?5?$CF?42f@ DB 'MouseStationaryT'
	DB	'imer: %.2f', 00H				; `string'
CONST	ENDS
;	COMDAT ??_C@_0BC@CFHNPKHB@Mouse?5wheel?3?5?$CF?41f@
CONST	SEGMENT
??_C@_0BC@CFHNPKHB@Mouse?5wheel?3?5?$CF?41f@ DB 'Mouse wheel: %.1f', 00H ; `string'
CONST	ENDS
;	COMDAT ??_C@_03HAIDDFMD@b?$CFd@
CONST	SEGMENT
??_C@_03HAIDDFMD@b?$CFd@ DB 'b%d', 00H			; `string'
CONST	ENDS
;	COMDAT ??_C@_0BA@NMIOGEHG@Mouse?5released?3@
CONST	SEGMENT
??_C@_0BA@NMIOGEHG@Mouse?5released?3@ DB 'Mouse released:', 00H ; `string'
CONST	ENDS
;	COMDAT ??_C@_08MPGFIEFP@b?$CFd?5?$CI?$CFd?$CJ@
CONST	SEGMENT
??_C@_08MPGFIEFP@b?$CFd?5?$CI?$CFd?$CJ@ DB 'b%d (%d)', 00H ; `string'
CONST	ENDS
;	COMDAT ??_C@_0P@KEMIOLDA@Mouse?5clicked?3@
CONST	SEGMENT
??_C@_0P@KEMIOLDA@Mouse?5clicked?3@ DB 'Mouse clicked:', 00H ; `string'
CONST	ENDS
;	COMDAT ??_C@_0BB@BCIHMLII@b?$CFd?5?$CI?$CF?402f?5secs?$CJ@
CONST	SEGMENT
??_C@_0BB@BCIHMLII@b?$CFd?5?$CI?$CF?402f?5secs?$CJ@ DB 'b%d (%.02f secs)', 00H ; `string'
CONST	ENDS
;	COMDAT ??_C@_0M@HODNMGFJ@Mouse?5down?3@
CONST	SEGMENT
??_C@_0M@HODNMGFJ@Mouse?5down?3@ DB 'Mouse down:', 00H	; `string'
CONST	ENDS
;	COMDAT ??_C@_0BG@MNNMKHFC@Mouse?5delta?3?5?$CI?$CFg?0?5?$CFg?$CJ@
CONST	SEGMENT
??_C@_0BG@MNNMKHFC@Mouse?5delta?3?5?$CI?$CFg?0?5?$CFg?$CJ@ DB 'Mouse delt'
	DB	'a: (%g, %g)', 00H				; `string'
CONST	ENDS
;	COMDAT ??_C@_0BF@BCIGOCNH@Mouse?5pos?3?5?$DMINVALID?$DO@
CONST	SEGMENT
??_C@_0BF@BCIGOCNH@Mouse?5pos?3?5?$DMINVALID?$DO@ DB 'Mouse pos: <INVALID'
	DB	'>', 00H					; `string'
CONST	ENDS
;	COMDAT ??_C@_0BE@HGGCPGOH@Mouse?5pos?3?5?$CI?$CFg?0?5?$CFg?$CJ@
CONST	SEGMENT
??_C@_0BE@HGGCPGOH@Mouse?5pos?3?5?$CI?$CFg?0?5?$CFg?$CJ@ DB 'Mouse pos: ('
	DB	'%g, %g)', 00H				; `string'
CONST	ENDS
;	COMDAT ??_C@_0M@FHOOLGCL@MOUSE?5STATE@
CONST	SEGMENT
??_C@_0M@FHOOLGCL@MOUSE?5STATE@ DB 'MOUSE STATE', 00H	; `string'
CONST	ENDS
;	COMDAT ??_C@_0O@FLAJMFCG@?8?$CFc?8?5?$CI0x?$CF04X?$CJ@
CONST	SEGMENT
??_C@_0O@FLAJMFCG@?8?$CFc?8?5?$CI0x?$CF04X?$CJ@ DB '''%c'' (0x%04X)', 00H ; `string'
CONST	ENDS
;	COMDAT ??_C@_0N@PKFKOHDJ@Chars?5queue?3@
CONST	SEGMENT
??_C@_0N@PKFKOHDJ@Chars?5queue?3@ DB 'Chars queue:', 00H ; `string'
CONST	ENDS
;	COMDAT ??_C@_0BE@HPBGOMPC@Keys?5mods?3?5?$CFs?$CFs?$CFs?$CFs@
CONST	SEGMENT
??_C@_0BE@HPBGOMPC@Keys?5mods?3?5?$CFs?$CFs?$CFs?$CFs@ DB 'Keys mods: %s%'
	DB	's%s%s', 00H					; `string'
CONST	ENDS
;	COMDAT ??_C@_05IHGCNILK@CTRL?5@
CONST	SEGMENT
??_C@_05IHGCNILK@CTRL?5@ DB 'CTRL ', 00H		; `string'
CONST	ENDS
;	COMDAT ??_C@_06IGAIMELN@SHIFT?5@
CONST	SEGMENT
??_C@_06IGAIMELN@SHIFT?5@ DB 'SHIFT ', 00H		; `string'
CONST	ENDS
;	COMDAT ??_C@_04HDLNDMFA@ALT?5@
CONST	SEGMENT
??_C@_04HDLNDMFA@ALT?5@ DB 'ALT ', 00H			; `string'
CONST	ENDS
;	COMDAT ??_C@_06ECIIPDFH@SUPER?5@
CONST	SEGMENT
??_C@_06ECIIPDFH@SUPER?5@ DB 'SUPER ', 00H		; `string'
CONST	ENDS
;	COMDAT ??_C@_0P@HNKDNBMM@Keys?5released?3@
CONST	SEGMENT
??_C@_0P@HNKDNBMM@Keys?5released?3@ DB 'Keys released:', 00H ; `string'
CONST	ENDS
;	COMDAT ??_C@_0O@DAHEMGJA@Keys?5pressed?3@
CONST	SEGMENT
??_C@_0O@DAHEMGJA@Keys?5pressed?3@ DB 'Keys pressed:', 00H ; `string'
CONST	ENDS
;	COMDAT ??_C@_07ODHCILNN@?$CI?$CF?402f?$CJ@
CONST	SEGMENT
??_C@_07ODHCILNN@?$CI?$CF?402f?$CJ@ DB '(%.02f)', 00H	; `string'
CONST	ENDS
;	COMDAT ??_C@_07BFJJNFBL@?$CC?$CFs?$CC?5?$CFd@
CONST	SEGMENT
??_C@_07BFJJNFBL@?$CC?$CFs?$CC?5?$CFd@ DB '"%s" %d', 00H ; `string'
CONST	ENDS
;	COMDAT ??_C@_0L@POLCMIEL@Keys?5down?3@
CONST	SEGMENT
??_C@_0L@POLCMIEL@Keys?5down?3@ DB 'Keys down:', 00H	; `string'
CONST	ENDS
;	COMDAT ??_C@_0BM@CMPOEGIF@KEYBOARD?1GAMEPAD?1MOUSE?5KEYS@
CONST	SEGMENT
??_C@_0BM@CMPOEGIF@KEYBOARD?1GAMEPAD?1MOUSE?5KEYS@ DB 'KEYBOARD/GAMEPAD/M'
	DB	'OUSE KEYS', 00H				; `string'
CONST	ENDS
;	COMDAT ??_C@_06HDCHCENJ@Inputs@
CONST	SEGMENT
??_C@_06HDCHCENJ@Inputs@ DB 'Inputs', 00H		; `string'
CONST	ENDS
;	COMDAT ??_C@_0CM@EKOGIOFC@Frame?5?$CF06d?3?5?$CF?$CL3d?5?$CI?5?$CF2d?5malloc?0?5@
CONST	SEGMENT
??_C@_0CM@EKOGIOFC@Frame?5?$CF06d?3?5?$CF?$CL3d?5?$CI?5?$CF2d?5malloc?0?5@ DB 'F'
	DB	'rame %06d: %+3d ( %2d malloc, %2d free )%s', 00H ; `string'
CONST	ENDS
;	COMDAT ??_C@_0P@HDFANBLD@?5?$CImost?5recent?$CJ@
CONST	SEGMENT
??_C@_0P@HDFANBLD@?5?$CImost?5recent?$CJ@ DB ' (most recent)', 00H ; `string'
CONST	ENDS
;	COMDAT ??_C@_0CA@MNEBFLML@Recent?5frames?5with?5allocations?3@
CONST	SEGMENT
??_C@_0CA@MNEBFLML@Recent?5frames?5with?5allocations?3@ DB 'Recent frames'
	DB	' with allocations:', 00H			; `string'
CONST	ENDS
;	COMDAT ??_C@_06FDDONPKM@GC?5now@
CONST	SEGMENT
??_C@_06FDDONPKM@GC?5now@ DB 'GC now', 00H		; `string'
CONST	ENDS
;	COMDAT ??_C@_0BH@HIAKMOIL@?$CFd?5current?5allocations@
CONST	SEGMENT
??_C@_0BH@HIAKMOIL@?$CFd?5current?5allocations@ DB '%d current allocation'
	DB	's', 00H					; `string'
CONST	ENDS
;	COMDAT ??_C@_0BD@CAJKIOOH@Memory?5allocations@
CONST	SEGMENT
??_C@_0BD@CAJKIOOH@Memory?5allocations@ DB 'Memory allocations', 00H ; `string'
CONST	ENDS
;	COMDAT ??_C@_05FJAOFNGD@?$CD?$CDIni@
CONST	SEGMENT
??_C@_05FJAOFNGD@?$CD?$CDIni@ DB '##Ini', 00H		; `string'
CONST	ENDS
;	COMDAT ??_C@_0BA@IEPJFGMP@SettingsIniData@
CONST	SEGMENT
??_C@_0BA@IEPJFGMP@SettingsIniData@ DB 'SettingsIniData', 00H ; `string'
CONST	ENDS
;	COMDAT ??_C@_0CI@MPNDIPDD@Settings?5unpacked?5data?5?$CI?4ini?$CJ?3?5@
CONST	SEGMENT
??_C@_0CI@MPNDIPDD@Settings?5unpacked?5data?5?$CI?4ini?$CJ?3?5@ DB 'Setti'
	DB	'ngs unpacked data (.ini): %d bytes', 00H	; `string'
CONST	ENDS
;	COMDAT ??_C@_0DA@HPNBHCPC@Node?5?$CF08X?0?5Parent?5?$CF08X?0?5Selecte@
CONST	SEGMENT
??_C@_0DA@HPNBHCPC@Node?5?$CF08X?0?5Parent?5?$CF08X?0?5Selecte@ DB 'Node '
	DB	'%08X, Parent %08X, SelectedTab %08X (''%s'')', 00H ; `string'
CONST	ENDS
;	COMDAT ??_C@_0BC@DFKHMEEL@In?5SettingsNodes?3@
CONST	SEGMENT
??_C@_0BC@DFKHMEEL@In?5SettingsNodes?3@ DB 'In SettingsNodes:', 00H ; `string'
CONST	ENDS
;	COMDAT ??_C@_0CI@NDHBPJJN@Window?5?8?$CFs?8?5?9?$DO?5DockId?5?$CF08X?5Dock@
CONST	SEGMENT
??_C@_0CI@NDHBPJJN@Window?5?8?$CFs?8?5?9?$DO?5DockId?5?$CF08X?5Dock@ DB 'W'
	DB	'indow ''%s'' -> DockId %08X DockOrder=%d', 00H ; `string'
CONST	ENDS
;	COMDAT ??_C@_0BE@JJNECGJF@In?5SettingsWindows?3@
CONST	SEGMENT
??_C@_0BE@JJNECGJF@In?5SettingsWindows?3@ DB 'In SettingsWindows:', 00H ; `string'
CONST	ENDS
;	COMDAT ??_C@_0BA@NJNOHKNG@SettingsDocking@
CONST	SEGMENT
??_C@_0BA@NJNOHKNG@SettingsDocking@ DB 'SettingsDocking', 00H ; `string'
CONST	ENDS
;	COMDAT ??_C@_0BO@EFGBGMCF@Settings?5packed?5data?3?5Docking@
CONST	SEGMENT
??_C@_0BO@EFGBGMCF@Settings?5packed?5data?3?5Docking@ DB 'Settings packed'
	DB	' data: Docking', 00H			; `string'
CONST	ENDS
;	COMDAT ??_C@_0P@NAODIHNN@SettingsTables@
CONST	SEGMENT
??_C@_0P@NAODIHNN@SettingsTables@ DB 'SettingsTables', 00H ; `string'
CONST	ENDS
;	COMDAT ??_C@_0CH@GODOBOJJ@Settings?5packed?5data?3?5Tables?3?5?$CF@
CONST	SEGMENT
??_C@_0CH@GODOBOJJ@Settings?5packed?5data?3?5Tables?3?5?$CF@ DB 'Settings'
	DB	' packed data: Tables: %d bytes', 00H	; `string'
CONST	ENDS
;	COMDAT ??_C@_0BA@GOMGONFN@SettingsWindows@
CONST	SEGMENT
??_C@_0BA@GOMGONFN@SettingsWindows@ DB 'SettingsWindows', 00H ; `string'
CONST	ENDS
;	COMDAT ??_C@_0CI@CKIDLOMN@Settings?5packed?5data?3?5Windows?3?5@
CONST	SEGMENT
??_C@_0CI@CKIDLOMN@Settings?5packed?5data?3?5Windows?3?5@ DB 'Settings pa'
	DB	'cked data: Windows: %d bytes', 00H		; `string'
CONST	ENDS
;	COMDAT ??_C@_0BB@NEINIHH@SettingsHandlers@
CONST	SEGMENT
??_C@_0BB@NEINIHH@SettingsHandlers@ DB 'SettingsHandlers', 00H ; `string'
CONST	ENDS
;	COMDAT ??_C@_0BI@PGENAEOL@Settings?5handlers?3?5?$CI?$CFd?$CJ@
CONST	SEGMENT
??_C@_0BI@PGENAEOL@Settings?5handlers?3?5?$CI?$CFd?$CJ@ DB 'Settings hand'
	DB	'lers: (%d)', 00H				; `string'
CONST	ENDS
;	COMDAT ??_C@_0BI@KCGHKNOH@SettingsDirtyTimer?5?$CF?42f@
CONST	SEGMENT
??_C@_0BI@KCGHKNOH@SettingsDirtyTimer?5?$CF?42f@ DB 'SettingsDirtyTimer %'
	DB	'.2f', 00H					; `string'
CONST	ENDS
;	COMDAT ??_C@_0BK@NMDAIABL@io?4ConfigDebugIniSettings@
CONST	SEGMENT
??_C@_0BK@NMDAIABL@io?4ConfigDebugIniSettings@ DB 'io.ConfigDebugIniSetti'
	DB	'ngs', 00H					; `string'
CONST	ENDS
;	COMDAT ??_C@_04OEDFLLKD@?$CC?$CFs?$CC@
CONST	SEGMENT
??_C@_04OEDFLLKD@?$CC?$CFs?$CC@ DB '"%s"', 00H		; `string'
CONST	ENDS
;	COMDAT ??_C@_0N@PMPOLMLD@Save?5to?5disk@
CONST	SEGMENT
??_C@_0N@PMPOLMLD@Save?5to?5disk@ DB 'Save to disk', 00H ; `string'
CONST	ENDS
;	COMDAT ??_C@_0P@BGFPLLLP@Save?5to?5memory@
CONST	SEGMENT
??_C@_0P@BGFPLLLP@Save?5to?5memory@ DB 'Save to memory', 00H ; `string'
CONST	ENDS
;	COMDAT ??_C@_05MDNHABIA@Clear@
CONST	SEGMENT
??_C@_05MDNHABIA@Clear@ DB 'Clear', 00H			; `string'
CONST	ENDS
;	COMDAT ??_C@_08EEOHOBEO@Settings@
CONST	SEGMENT
??_C@_08EEOHOBEO@Settings@ DB 'Settings', 00H		; `string'
CONST	ENDS
;	COMDAT ??_C@_04OKAPPFIB@Node@
CONST	SEGMENT
??_C@_04OKAPPFIB@Node@ DB 'Node', 00H			; `string'
CONST	ENDS
;	COMDAT ??_C@_0M@MAMGOMGO@Rebuild?5all@
CONST	SEGMENT
??_C@_0M@MAMGOMGO@Rebuild?5all@ DB 'Rebuild all', 00H	; `string'
CONST	ENDS
;	COMDAT ??_C@_0M@BDNBGANB@Clear?5nodes@
CONST	SEGMENT
??_C@_0M@BDNBGANB@Clear?5nodes@ DB 'Clear nodes', 00H	; `string'
CONST	ENDS
;	COMDAT ??_C@_0BM@OEMNPJGM@Ctrl?5shows?5window?5dock?5info@
CONST	SEGMENT
??_C@_0BM@OEMNPJGM@Ctrl?5shows?5window?5dock?5info@ DB 'Ctrl shows window'
	DB	' dock info', 00H				; `string'
CONST	ENDS
;	COMDAT ??_C@_0BA@GPCPAJDA@List?5root?5nodes@
CONST	SEGMENT
??_C@_0BA@GPCPAJDA@List?5root?5nodes@ DB 'List root nodes', 00H ; `string'
CONST	ENDS
;	COMDAT ??_C@_0N@GPIOIBH@TypingSelect@
CONST	SEGMENT
??_C@_0N@GPIOIBH@TypingSelect@ DB 'TypingSelect', 00H	; `string'
CONST	ENDS
;	COMDAT ??_C@_0BC@EGOPGFED@TypingSelect?5?$CI?$CFd?$CJ@
CONST	SEGMENT
??_C@_0BC@EGOPGFED@TypingSelect?5?$CI?$CFd?$CJ@ DB 'TypingSelect (%d)', 00H ; `string'
CONST	ENDS
;	COMDAT ??_C@_09LIBCCLDO@InputText@
CONST	SEGMENT
??_C@_09LIBCCLDO@InputText@ DB 'InputText', 00H		; `string'
CONST	ENDS
;	COMDAT ??_C@_05ENDNDI@Fonts@
CONST	SEGMENT
??_C@_05ENDNDI@Fonts@ DB 'Fonts', 00H			; `string'
CONST	ENDS
;	COMDAT ??_C@_0L@IBDLAPEA@Fonts?5?$CI?$CFd?$CJ@
CONST	SEGMENT
??_C@_0L@IBDLAPEA@Fonts?5?$CI?$CFd?$CJ@ DB 'Fonts (%d)', 00H ; `string'
CONST	ENDS
;	COMDAT ??_C@_06KOKNHOLC@Tables@
CONST	SEGMENT
??_C@_06KOKNHOLC@Tables@ DB 'Tables', 00H		; `string'
CONST	ENDS
;	COMDAT ??_C@_0M@GKKKBBGH@Tables?5?$CI?$CFd?$CJ@
CONST	SEGMENT
??_C@_0M@GKKKBBGH@Tables?5?$CI?$CFd?$CJ@ DB 'Tables (%d)', 00H ; `string'
CONST	ENDS
;	COMDAT ??_C@_06PAFCDPCC@TabBar@
CONST	SEGMENT
??_C@_06PAFCDPCC@TabBar@ DB 'TabBar', 00H		; `string'
CONST	ENDS
;	COMDAT ??_C@_07NBICDJOO@TabBars@
CONST	SEGMENT
??_C@_07NBICDJOO@TabBars@ DB 'TabBars', 00H		; `string'
CONST	ENDS
;	COMDAT ??_C@_0O@JLIGAOM@Tab?5Bars?5?$CI?$CFd?$CJ@
CONST	SEGMENT
??_C@_0O@JLIGAOM@Tab?5Bars?5?$CI?$CFd?$CJ@ DB 'Tab Bars (%d)', 00H ; `string'
CONST	ENDS
;	COMDAT ??_C@_0EN@OGPFJEIE@PopupID?3?5?$CF08x?0?5Window?3?5?8?$CFs?8?5?$CI?$CFs@
CONST	SEGMENT
??_C@_0EN@OGPFJEIE@PopupID?3?5?$CF08x?0?5Window?3?5?8?$CFs?8?5?$CI?$CFs@ DB 'P'
	DB	'opupID: %08x, Window: ''%s'' (%s%s), RestoreNavWindow ''%s'','
	DB	' ParentWindow ''%s''', 00H			; `string'
CONST	ENDS
;	COMDAT ??_C@_06GFGJBDBB@Child?$DL@
CONST	SEGMENT
??_C@_06GFGJBDBB@Child?$DL@ DB 'Child;', 00H		; `string'
CONST	ENDS
;	COMDAT ??_C@_05BJFIHKGA@Menu?$DL@
CONST	SEGMENT
??_C@_05BJFIHKGA@Menu?$DL@ DB 'Menu;', 00H		; `string'
CONST	ENDS
;	COMDAT ??_C@_06ENDEIGLN@Popups@
CONST	SEGMENT
??_C@_06ENDEIGLN@Popups@ DB 'Popups', 00H		; `string'
CONST	ENDS
;	COMDAT ??_C@_0M@CMLJJLKO@Popups?5?$CI?$CFd?$CJ@
CONST	SEGMENT
??_C@_0M@CMLJJLKO@Popups?5?$CI?$CFd?$CJ@ DB 'Popups (%d)', 00H ; `string'
CONST	ENDS
;	COMDAT ??_C@_0FB@GPMNEOHO@Viewport?5?$CD?$CFd?0?5ID?3?50x?$CF08X?0?5LastF@
CONST	SEGMENT
??_C@_0FB@GPMNEOHO@Viewport?5?$CD?$CFd?0?5ID?3?50x?$CF08X?0?5LastF@ DB 'V'
	DB	'iewport #%d, ID: 0x%08X, LastFocused = %08d, PlatformFocused '
	DB	'= %s, Window: "%s"', 00H			; `string'
CONST	ENDS
;	COMDAT ??_C@_0CB@JHOIGOCP@Inferred?5Z?5order?5?$CIfront?9to?9back@
CONST	SEGMENT
??_C@_0CB@JHOIGOCP@Inferred?5Z?5order?5?$CIfront?9to?9back@ DB 'Inferred '
	DB	'Z order (front-to-back)', 00H		; `string'
CONST	ENDS
;	COMDAT ??_C@_0DP@NELEPLJN@MouseViewport?3?50x?$CF08X?5?$CIUserHove@
CONST	SEGMENT
??_C@_0DP@NELEPLJN@MouseViewport?3?50x?$CF08X?5?$CIUserHove@ DB 'MouseVie'
	DB	'wport: 0x%08X (UserHovered 0x%08X, LastHovered 0x%08X)', 00H ; `string'
CONST	ENDS
;	COMDAT ??_C@_0BA@CMPIOGEE@Windows?5Minimap@
CONST	SEGMENT
??_C@_0BA@CMPIOGEE@Windows?5Minimap@ DB 'Windows Minimap', 00H ; `string'
CONST	ENDS
;	COMDAT ??_C@_0JI@EONONGH@Monitor?5?$CD?$CFd?3?5DPI?5?$CF?40f?$CF?$CF?6?5MainMi@
CONST	SEGMENT
??_C@_0JI@EONONGH@Monitor?5?$CD?$CFd?3?5DPI?5?$CF?40f?$CF?$CF?6?5MainMi@ DB 'M'
	DB	'onitor #%d: DPI %.0f%%', 0aH, ' MainMin (%.0f,%.0f), MainMax '
	DB	'(%.0f,%.0f), MainSize (%.0f,%.0f)', 0aH, ' WorkMin (%.0f,%.0f'
	DB	'), WorkMax (%.0f,%.0f), WorkSize (%.0f,%.0f)', 00H ; `string'
CONST	ENDS
;	COMDAT ??_C@_0IL@ELEEPJGF@Dear?5ImGui?5uses?5monitor?5data?3?6?9@
CONST	SEGMENT
??_C@_0IL@ELEEPJGF@Dear?5ImGui?5uses?5monitor?5data?3?6?9@ DB 'Dear ImGui'
	DB	' uses monitor data:', 0aH, '- to query DPI settings on a per '
	DB	'monitor basis', 0aH, '- to position popup/tooltips so they do'
	DB	'n''t straddle monitors.', 00H		; `string'
CONST	ENDS
;	COMDAT ??_C@_08PHOCODGN@Monitors@
CONST	SEGMENT
??_C@_08PHOCODGN@Monitors@ DB 'Monitors', 00H		; `string'
CONST	ENDS
;	COMDAT ??_C@_0O@DOJKOMHG@Monitors?5?$CI?$CFd?$CJ@
CONST	SEGMENT
??_C@_0O@DOJKOMHG@Monitors?5?$CI?$CFd?$CJ@ DB 'Monitors (%d)', 00H ; `string'
CONST	ENDS
;	COMDAT ??_C@_09GPOHHJPA@Viewports@
CONST	SEGMENT
??_C@_09GPOHHJPA@Viewports@ DB 'Viewports', 00H		; `string'
CONST	ENDS
;	COMDAT ??_C@_0P@HKKCMMOO@Viewports?5?$CI?$CFd?$CJ@
CONST	SEGMENT
??_C@_0P@HKKCMMOO@Viewports?5?$CI?$CFd?$CJ@ DB 'Viewports (%d)', 00H ; `string'
CONST	ENDS
;	COMDAT ??_C@_08IJNCDCKF@DrawList@
CONST	SEGMENT
??_C@_08IJNCDCKF@DrawList@ DB 'DrawList', 00H		; `string'
CONST	ENDS
;	COMDAT ??_C@_0CN@KDMCNFJK@Active?5DrawLists?5in?5Viewport?5?$CD?$CF@
CONST	SEGMENT
??_C@_0CN@KDMCNFJK@Active?5DrawLists?5in?5Viewport?5?$CD?$CF@ DB 'Active '
	DB	'DrawLists in Viewport #%d, ID: 0x%08X', 00H	; `string'
CONST	ENDS
;	COMDAT ??_C@_0CM@GCNMPAKG@Show?5ImDrawCmd?5bounding?5boxes?5w@
CONST	SEGMENT
??_C@_0CM@GCNMPAKG@Show?5ImDrawCmd?5bounding?5boxes?5w@ DB 'Show ImDrawCm'
	DB	'd bounding boxes when hovering', 00H	; `string'
CONST	ENDS
;	COMDAT ??_C@_0CC@NLEJJGFA@Show?5ImDrawCmd?5mesh?5when?5hoveri@
CONST	SEGMENT
??_C@_0CC@NLEJJGFA@Show?5ImDrawCmd?5mesh?5when?5hoveri@ DB 'Show ImDrawCm'
	DB	'd mesh when hovering', 00H			; `string'
CONST	ENDS
;	COMDAT ??_C@_09KCCHKPGA@DrawLists@
CONST	SEGMENT
??_C@_09KCCHKPGA@DrawLists@ DB 'DrawLists', 00H		; `string'
CONST	ENDS
;	COMDAT ??_C@_0P@EHGADCPI@DrawLists?5?$CI?$CFd?$CJ@
CONST	SEGMENT
??_C@_0P@EHGADCPI@DrawLists?5?$CI?$CFd?$CJ@ DB 'DrawLists (%d)', 00H ; `string'
CONST	ENDS
;	COMDAT ??_C@_0CC@PJNGLIEE@By?5submission?5order?5?$CIbegin?5stac@
CONST	SEGMENT
??_C@_0CC@PJNGLIEE@By?5submission?5order?5?$CIbegin?5stac@ DB 'By submiss'
	DB	'ion order (begin stack)', 00H		; `string'
CONST	ENDS
;	COMDAT ??_C@_0BO@HBHGMPEI@By?5focus?5order?5?$CIroot?5windows?$CJ@
CONST	SEGMENT
??_C@_0BO@HBHGMPEI@By?5focus?5order?5?$CIroot?5windows?$CJ@ DB 'By focus '
	DB	'order (root windows)', 00H			; `string'
CONST	ENDS
;	COMDAT ??_C@_0BB@OFNDBHKO@By?5display?5order@
CONST	SEGMENT
??_C@_0BB@OFNDBHKO@By?5display?5order@ DB 'By display order', 00H ; `string'
CONST	ENDS
;	COMDAT ??_C@_07LDLFNPGN@Windows@
CONST	SEGMENT
??_C@_07LDLFNPGN@Windows@ DB 'Windows', 00H		; `string'
CONST	ENDS
;	COMDAT ??_C@_0N@HJIBBJFL@Windows?5?$CI?$CFd?$CJ@
CONST	SEGMENT
??_C@_0N@HJIBBJFL@Windows?5?$CI?$CFd?$CJ@ DB 'Windows (%d)', 00H ; `string'
CONST	ENDS
;	COMDAT ??_C@_0BH@BFNCCGOM@?$CD?$CDDebugTextEncodingBuf@
CONST	SEGMENT
??_C@_0BH@BFNCCGOM@?$CD?$CDDebugTextEncodingBuf@ DB '##DebugTextEncodingB'
	DB	'uf', 00H					; `string'
CONST	ENDS
;	COMDAT ??_C@_0IH@JFLBENFG@You?5can?5also?5call?5ImGui?3?3DebugT@
CONST	SEGMENT
??_C@_0IH@JFLBENFG@You?5can?5also?5call?5ImGui?3?3DebugT@ DB 'You can als'
	DB	'o call ImGui::DebugTextEncoding() from your code with a given'
	DB	' string to test that your UTF-8 encoding settings are correct'
	DB	'.', 00H					; `string'
CONST	ENDS
;	COMDAT ??_C@_0BG@EANHHHDM@UTF?98?5Encoding?5viewer@
CONST	SEGMENT
??_C@_0BG@EANHHHDM@UTF?98?5Encoding?5viewer@ DB 'UTF-8 Encoding viewer', 00H ; `string'
CONST	ENDS
;	COMDAT ??_C@_0JB@BLJMKPEN@Some?5calls?5to?5Begin?$CI?$CJ?1BeginChil@
CONST	SEGMENT
??_C@_0JB@BLJMKPEN@Some?5calls?5to?5Begin?$CI?$CJ?1BeginChil@ DB 'Some ca'
	DB	'lls to Begin()/BeginChild() will return false.', 0aH, 0aH, 'W'
	DB	'ill cycle through window depths then repeat. Windows should b'
	DB	'e flickering while running.', 00H		; `string'
CONST	ENDS
;	COMDAT ??_C@_0CE@LPOIPIPP@Debug?5Begin?1BeginChild?5return?5v@
CONST	SEGMENT
??_C@_0CE@LPOIPIPP@Debug?5Begin?1BeginChild?5return?5v@ DB 'Debug Begin/B'
	DB	'eginChild return value', 00H		; `string'
CONST	ENDS
;	COMDAT ??_C@_08MDEIBFAO@Validate@
CONST	SEGMENT
??_C@_08MDEIBFAO@Validate@ DB 'Validate', 00H		; `string'
CONST	ENDS
;	COMDAT ??_C@_0BH@DBHEADMF@Show?5groups?5rectangles@
CONST	SEGMENT
??_C@_0BH@DBHEADMF@Show?5groups?5rectangles@ DB 'Show groups rectangles', 00H ; `string'
CONST	ENDS
;	COMDAT ??_C@_0DJ@IFLDIHOJ@?$CI?$CF6?41f?0?$CF6?41f?$CJ?5?$CI?$CF6?41f?0?$CF6?41f?$CJ?5Siz@
CONST	SEGMENT
??_C@_0DJ@IFLDIHOJ@?$CI?$CF6?41f?0?$CF6?41f?$CJ?5?$CI?$CF6?41f?0?$CF6?41f?$CJ?5Siz@ DB '('
	DB	'%6.1f,%6.1f) (%6.1f,%6.1f) Size (%6.1f,%6.1f) Col %d %s', 00H ; `string'
CONST	ENDS
;	COMDAT ??_C@_0CD@PGABKCAC@Table?50x?$CF08X?5?$CI?$CFd?5columns?0?5in?5?8?$CF@
CONST	SEGMENT
??_C@_0CD@PGABKCAC@Table?50x?$CF08X?5?$CI?$CFd?5columns?0?5in?5?8?$CF@ DB 'T'
	DB	'able 0x%08X (%d columns, in ''%s'')', 00H	; `string'
CONST	ENDS
;	COMDAT ??_C@_0BI@CCENNJPN@?$CD?$CDshow_table_rects_type@
CONST	SEGMENT
??_C@_0BI@CCENNJPN@?$CD?$CDshow_table_rects_type@ DB '##show_table_rects_'
	DB	'type', 00H					; `string'
CONST	ENDS
;	COMDAT ??_C@_0BH@GINBNIDO@Show?5tables?5rectangles@
CONST	SEGMENT
??_C@_0BH@GINBNIDO@Show?5tables?5rectangles@ DB 'Show tables rectangles', 00H ; `string'
CONST	ENDS
;	COMDAT ??_C@_0DC@MPAIEFII@?$CI?$CF6?41f?0?$CF6?41f?$CJ?5?$CI?$CF6?41f?0?$CF6?41f?$CJ?5Siz@
CONST	SEGMENT
??_C@_0DC@MPAIEFII@?$CI?$CF6?41f?0?$CF6?41f?$CJ?5?$CI?$CF6?41f?0?$CF6?41f?$CJ?5Siz@ DB '('
	DB	'%6.1f,%6.1f) (%6.1f,%6.1f) Size (%6.1f,%6.1f) %s', 00H ; `string'
CONST	ENDS
;	COMDAT ??_C@_05DMJEEKMI@?8?$CFs?8?3@
CONST	SEGMENT
??_C@_05DMJEEKMI@?8?$CFs?8?3@ DB '''%s'':', 00H		; `string'
CONST	ENDS
;	COMDAT ??_C@_0BJ@OFHLDDCB@?$CD?$CDshow_windows_rect_type@
CONST	SEGMENT
??_C@_0BJ@OFHLDDCB@?$CD?$CDshow_windows_rect_type@ DB '##show_windows_rec'
	DB	't_type', 00H				; `string'
CONST	ENDS
;	COMDAT ??_C@_0BI@DIKJGFFM@Show?5windows?5rectangles@
CONST	SEGMENT
??_C@_0BI@DIKJGFFM@Show?5windows?5rectangles@ DB 'Show windows rectangles'
	DB	00H						; `string'
CONST	ENDS
;	COMDAT ??_C@_0BJ@HJBAEIMP@Show?5windows?5begin?5order@
CONST	SEGMENT
??_C@_0BJ@HJBAEIMP@Show?5windows?5begin?5order@ DB 'Show windows begin or'
	DB	'der', 00H					; `string'
CONST	ENDS
;	COMDAT ??_C@_0EB@DCLLOLJL@You?5can?5also?5call?5ImGui?3?3ShowID@
CONST	SEGMENT
??_C@_0EB@DCLLOLJL@You?5can?5also?5call?5ImGui?3?3ShowID@ DB 'You can als'
	DB	'o call ImGui::ShowIDStackToolWindow() from your code.', 00H ; `string'
CONST	ENDS
;	COMDAT ??_C@_0BD@BMCMKPKD@Show?5ID?5Stack?5Tool@
CONST	SEGMENT
??_C@_0BD@BMCMKPKD@Show?5ID?5Stack?5Tool@ DB 'Show ID Stack Tool', 00H ; `string'
CONST	ENDS
;	COMDAT ??_C@_0DO@CKGHHFPI@You?5can?5also?5call?5ImGui?3?3ShowDe@
CONST	SEGMENT
??_C@_0DO@CKGHHFPI@You?5can?5also?5call?5ImGui?3?3ShowDe@ DB 'You can als'
	DB	'o call ImGui::ShowDebugLogWindow() from your code.', 00H ; `string'
CONST	ENDS
;	COMDAT ??_C@_0P@DGHPLGOO@Show?5Debug?5Log@
CONST	SEGMENT
??_C@_0P@DGHPLGOO@Show?5Debug?5Log@ DB 'Show Debug Log', 00H ; `string'
CONST	ENDS
;	COMDAT ??_C@_09FMJILDNI@Visualize@
CONST	SEGMENT
??_C@_09FMJILDNI@Visualize@ DB 'Visualize', 00H		; `string'
CONST	ENDS
;	COMDAT ??_C@_0EP@GKBEHFCP@Show?5?$CCDebug?5Break?$CC?5buttons?5in?5o@
CONST	SEGMENT
??_C@_0EP@GKBEHFCP@Show?5?$CCDebug?5Break?$CC?5buttons?5in?5o@ DB 'Show "'
	DB	'Debug Break" buttons in other sections (io.ConfigDebugIsDebug'
	DB	'gerPresent)', 00H				; `string'
CONST	ENDS
;	COMDAT ??_C@_0BB@KCIONAAN@Show?5Item?5Picker@
CONST	SEGMENT
??_C@_0BB@KCIONAAN@Show?5Item?5Picker@ DB 'Show Item Picker', 00H ; `string'
CONST	ENDS
;	COMDAT ??_C@_0IF@BGKDCLHL@Will?5call?5the?5IM_DEBUG_BREAK?$CI?$CJ?5@
CONST	SEGMENT
??_C@_0IF@BGKDCLHL@Will?5call?5the?5IM_DEBUG_BREAK?$CI?$CJ?5@ DB 'Will ca'
	DB	'll the IM_DEBUG_BREAK() macro to break in debugger.', 0aH, 'W'
	DB	'arning: If you don''t have a debugger attached, this will pro'
	DB	'bably crash.', 00H				; `string'
CONST	ENDS
;	COMDAT ??_C@_0N@CMPJCBOP@Debug?5breaks@
CONST	SEGMENT
??_C@_0N@CMPJCBOP@Debug?5breaks@ DB 'Debug breaks', 00H	; `string'
CONST	ENDS
;	COMDAT ??_C@_05OENKALAF@Tools@
CONST	SEGMENT
??_C@_05OENKALAF@Tools@ DB 'Tools', 00H			; `string'
CONST	ENDS
;	COMDAT ??_C@_0BH@NNGOPODG@ColumnsContentUnfrozen@
CONST	SEGMENT
??_C@_0BH@NNGOPODG@ColumnsContentUnfrozen@ DB 'ColumnsContentUnfrozen', 00H ; `string'
CONST	ENDS
;	COMDAT ??_C@_0BF@HAPEHPAK@ColumnsContentFrozen@
CONST	SEGMENT
??_C@_0BF@HAPEHPAK@ColumnsContentFrozen@ DB 'ColumnsContentFrozen', 00H ; `string'
CONST	ENDS
;	COMDAT ??_C@_0BL@FAEPMJDA@ColumnsContentHeadersIdeal@
CONST	SEGMENT
??_C@_0BL@FAEPMJDA@ColumnsContentHeadersIdeal@ DB 'ColumnsContentHeadersI'
	DB	'deal', 00H					; `string'
CONST	ENDS
;	COMDAT ??_C@_0BK@BLBFMAOD@ColumnsContentHeadersUsed@
CONST	SEGMENT
??_C@_0BK@BLBFMAOD@ColumnsContentHeadersUsed@ DB 'ColumnsContentHeadersUs'
	DB	'ed', 00H					; `string'
CONST	ENDS
;	COMDAT ??_C@_0BA@JACIJDNM@ColumnsClipRect@
CONST	SEGMENT
??_C@_0BA@JACIJDNM@ColumnsClipRect@ DB 'ColumnsClipRect', 00H ; `string'
CONST	ENDS
;	COMDAT ??_C@_0BA@ODEDLNCO@ColumnsWorkRect@
CONST	SEGMENT
??_C@_0BA@ODEDLNCO@ColumnsWorkRect@ DB 'ColumnsWorkRect', 00H ; `string'
CONST	ENDS
;	COMDAT ??_C@_0M@CDCMPDKG@ColumnsRect@
CONST	SEGMENT
??_C@_0M@CDCMPDKG@ColumnsRect@ DB 'ColumnsRect', 00H	; `string'
CONST	ENDS
;	COMDAT ??_C@_0BD@PAHDAJDC@BackgroundClipRect@
CONST	SEGMENT
??_C@_0BD@PAHDAJDC@BackgroundClipRect@ DB 'BackgroundClipRect', 00H ; `string'
CONST	ENDS
;	COMDAT ??_C@_0N@OPBPMFAC@HostClipRect@
CONST	SEGMENT
??_C@_0N@OPBPMFAC@HostClipRect@ DB 'HostClipRect', 00H	; `string'
CONST	ENDS
;	COMDAT ??_C@_0BC@NDBPEMLC@ContentRegionRect@
CONST	SEGMENT
??_C@_0BC@NDBPEMLC@ContentRegionRect@ DB 'ContentRegionRect', 00H ; `string'
CONST	ENDS
;	COMDAT ??_C@_0N@FEPIKFED@ContentIdeal@
CONST	SEGMENT
??_C@_0N@FEPIKFED@ContentIdeal@ DB 'ContentIdeal', 00H	; `string'
CONST	ENDS
;	COMDAT ??_C@_07HLHPKMFI@Content@
CONST	SEGMENT
??_C@_07HLHPKMFI@Content@ DB 'Content', 00H		; `string'
CONST	ENDS
;	COMDAT ??_C@_08FACDBJHD@WorkRect@
CONST	SEGMENT
??_C@_08FACDBJHD@WorkRect@ DB 'WorkRect', 00H		; `string'
CONST	ENDS
;	COMDAT ??_C@_0O@BNFMFEHO@InnerClipRect@
CONST	SEGMENT
??_C@_0O@BNFMFEHO@InnerClipRect@ DB 'InnerClipRect', 00H ; `string'
CONST	ENDS
;	COMDAT ??_C@_09PPJHMOMF@InnerRect@
CONST	SEGMENT
??_C@_09PPJHMOMF@InnerRect@ DB 'InnerRect', 00H		; `string'
CONST	ENDS
;	COMDAT ??_C@_0BB@CJNOCIFN@OuterRectClipped@
CONST	SEGMENT
??_C@_0BB@CJNOCIFN@OuterRectClipped@ DB 'OuterRectClipped', 00H ; `string'
CONST	ENDS
;	COMDAT ??_C@_09DBGHEPMN@OuterRect@
CONST	SEGMENT
??_C@_09DBGHEPMN@OuterRect@ DB 'OuterRect', 00H		; `string'
CONST	ENDS
;	COMDAT ??_C@_0CL@HEAONCKO@?$CFd?5visible?5windows?0?5?$CFd?5current?5@
CONST	SEGMENT
??_C@_0CL@HEAONCKO@?$CFd?5visible?5windows?0?5?$CFd?5current?5@ DB '%d vi'
	DB	'sible windows, %d current allocations', 00H	; `string'
CONST	ENDS
;	COMDAT ??_C@_0CH@HHKODNBE@?$CFd?5vertices?0?5?$CFd?5indices?5?$CI?$CFd?5tri@
CONST	SEGMENT
??_C@_0CH@HHKODNBE@?$CFd?5vertices?0?5?$CFd?5indices?5?$CI?$CFd?5tri@ DB '%'
	DB	'd vertices, %d indices (%d triangles)', 00H	; `string'
CONST	ENDS
;	COMDAT ??_C@_0CN@EIPBEGMP@Application?5average?5?$CF?43f?5ms?1fra@
CONST	SEGMENT
??_C@_0CN@EIPBEGMP@Application?5average?5?$CF?43f?5ms?1fra@ DB 'Applicati'
	DB	'on average %.3f ms/frame (%.1f FPS)', 00H	; `string'
CONST	ENDS
;	COMDAT ??_C@_0O@NCHBJMJF@Dear?5ImGui?5?$CFs@
CONST	SEGMENT
??_C@_0O@NCHBJMJF@Dear?5ImGui?5?$CFs@ DB 'Dear ImGui %s', 00H ; `string'
CONST	ENDS
;	COMDAT ??_C@_0BM@CNHCNFCK@Dear?5ImGui?5Metrics?1Debugger@
CONST	SEGMENT
??_C@_0BM@CNHCNFCK@Dear?5ImGui?5Metrics?1Debugger@ DB 'Dear ImGui Metrics'
	DB	'/Debugger', 00H				; `string'
CONST	ENDS
;	COMDAT ??_C@_0BF@JAFFJHHF@Tint?5with?5Text?5Color@
CONST	SEGMENT
??_C@_0BF@JAFFJHHF@Tint?5with?5Text?5Color@ DB 'Tint with Text Color', 00H ; `string'
CONST	ENDS
;	COMDAT ??_C@_0L@NMOGCNN@Font?5Atlas@
CONST	SEGMENT
??_C@_0L@NMOGCNN@Font?5Atlas@ DB 'Font Atlas', 00H	; `string'
CONST	ENDS
;	COMDAT ??_C@_0BK@BHFPKHKC@Font?5Atlas?5?$CI?$CFdx?$CFd?5pixels?$CJ@
CONST	SEGMENT
??_C@_0BK@BHFPKHKC@Font?5Atlas?5?$CI?$CFdx?$CFd?5pixels?$CJ@ DB 'Font Atl'
	DB	'as (%dx%d pixels)', 00H			; `string'
CONST	ENDS
;	COMDAT ??_C@_03NAEMJKHE@?$CI?$DP?$CJ@
CONST	SEGMENT
??_C@_03NAEMJKHE@?$CI?$DP?$CJ@ DB '(?)', 00H		; `string'
CONST	ENDS
;	COMDAT ??_C@_06NGBPNBKB@U?$CL?$CF04X@
CONST	SEGMENT
??_C@_06NGBPNBKB@U?$CL?$CF04X@ DB 'U+%04X', 00H		; `string'
CONST	ENDS
;	COMDAT ??_C@_09GCGJOJDM@?$FLmissing?$FN@
CONST	SEGMENT
??_C@_09GCGJOJDM@?$FLmissing?$FN@ DB '[missing]', 00H	; `string'
CONST	ENDS
;	COMDAT ??_C@_09HOBHDEIO@?$FLinvalid?$FN@
CONST	SEGMENT
??_C@_09HOBHDEIO@?$FLinvalid?$FN@ DB '[invalid]', 00H	; `string'
CONST	ENDS
;	COMDAT ??_C@_06IBAGLEAI@0x?$CF02X@
CONST	SEGMENT
??_C@_06IBAGLEAI@0x?$CF02X@ DB '0x%02X', 00H		; `string'
CONST	ENDS
;	COMDAT ??_C@_02DPKJAMEF@?$CFd@
CONST	SEGMENT
??_C@_02DPKJAMEF@?$CFd@ DB '%d', 00H			; `string'
CONST	ENDS
;	COMDAT ??_C@_09DIHJKHFA@Codepoint@
CONST	SEGMENT
??_C@_09DIHJKHFA@Codepoint@ DB 'Codepoint', 00H		; `string'
CONST	ENDS
;	COMDAT ??_C@_05OPEAJICN@Glyph@
CONST	SEGMENT
??_C@_05OPEAJICN@Glyph@ DB 'Glyph', 00H			; `string'
CONST	ENDS
;	COMDAT ??_C@_05EGJIMALK@UTF?98@
CONST	SEGMENT
??_C@_05EGJIMALK@UTF?98@ DB 'UTF-8', 00H		; `string'
CONST	ENDS
;	COMDAT ??_C@_06GEMKPBPA@Offset@
CONST	SEGMENT
??_C@_06GEMKPBPA@Offset@ DB 'Offset', 00H		; `string'
CONST	ENDS
;	COMDAT ??_C@_0BE@GJJMBBD@?$CD?$CDDebugTextEncoding@
CONST	SEGMENT
??_C@_0BE@GJJMBBD@?$CD?$CDDebugTextEncoding@ DB '##DebugTextEncoding', 00H ; `string'
CONST	ENDS
;	COMDAT ??_C@_0L@NOOHJNEN@Text?3?5?$CC?$CFs?$CC@
CONST	SEGMENT
??_C@_0L@NOOHJNEN@Text?3?5?$CC?$CFs?$CC@ DB 'Text: "%s"', 00H ; `string'
CONST	ENDS
;	COMDAT ??_C@_05IMLJLABD@?8?$CFs?8?5@
CONST	SEGMENT
??_C@_05IMLJLABD@?8?$CFs?8?5@ DB '''%s'' ', 00H		; `string'
CONST	ENDS
;	COMDAT ??_C@_0N@ILNOODLK@?5?$DL?5contains?5@
CONST	SEGMENT
??_C@_0N@ILNOODLK@?5?$DL?5contains?5@ DB ' ; contains ', 00H ; `string'
CONST	ENDS
;	COMDAT ??_C@_0L@HLPIHLMC@?5?$DL?5in?5?8?$CFs?8@
CONST	SEGMENT
??_C@_0L@HLPIHLMC@?5?$DL?5in?5?8?$CFs?8@ DB ' ; in ''%s''', 00H ; `string'
CONST	ENDS
;	COMDAT ??_C@_03HIJPJGOM@?$CF?$CKs@
CONST	SEGMENT
??_C@_03HIJPJGOM@?$CF?$CKs@ DB '%*s', 00H		; `string'
CONST	ENDS
;	COMDAT ??_C@_0BB@OKNDBLOJ@?5Selected?$DN0x?$CF08X@
CONST	SEGMENT
??_C@_0BB@OKNDBLOJ@?5Selected?$DN0x?$CF08X@ DB ' Selected=0x%08X', 00H ; `string'
CONST	ENDS
;	COMDAT ??_C@_0BB@BFJFBNOA@?5NoCloseButton?$DN1@
CONST	SEGMENT
??_C@_0BB@BFJFBNOA@?5NoCloseButton?$DN1@ DB ' NoCloseButton=1', 00H ; `string'
CONST	ENDS
;	COMDAT ??_C@_0BG@IECGHHO@?5NoWindowMenuButton?$DN1@
CONST	SEGMENT
??_C@_0BG@IECGHHO@?5NoWindowMenuButton?$DN1@ DB ' NoWindowMenuButton=1', 00H ; `string'
CONST	ENDS
;	COMDAT ??_C@_0BA@MKPNOACN@?5HiddenTabBar?$DN1@
CONST	SEGMENT
??_C@_0BA@MKPNOACN@?5HiddenTabBar?$DN1@ DB ' HiddenTabBar=1', 00H ; `string'
CONST	ENDS
;	COMDAT ??_C@_0M@NKAFIOBD@?5NoTabBar?$DN1@
CONST	SEGMENT
??_C@_0M@NKAFIOBD@?5NoTabBar?$DN1@ DB ' NoTabBar=1', 00H ; `string'
CONST	ENDS
;	COMDAT ??_C@_0P@FIKHIGFG@?5CentralNode?$DN1@
CONST	SEGMENT
??_C@_0P@FIKHIGFG@?5CentralNode?$DN1@ DB ' CentralNode=1', 00H ; `string'
CONST	ENDS
;	COMDAT ??_C@_0M@FLGJFCFJ@?5NoResize?$DN1@
CONST	SEGMENT
??_C@_0M@FLGJFCFJ@?5NoResize?$DN1@ DB ' NoResize=1', 00H ; `string'
CONST	ENDS
;	COMDAT ??_C@_09KJAPNKGF@?5Split?$DN?$CFc@
CONST	SEGMENT
??_C@_09KJAPNKGF@?5Split?$DN?$CFc@ DB ' Split=%c', 00H	; `string'
CONST	ENDS
;	COMDAT ??_C@_0BG@BLEMDCJH@?5Pos?$DN?$CFd?0?$CFd?5Size?$DN?$CFd?0?$CFd@
CONST	SEGMENT
??_C@_0BG@BLEMDCJH@?5Pos?$DN?$CFd?0?$CFd?5Size?$DN?$CFd?0?$CFd@ DB ' Pos='
	DB	'%d,%d Size=%d,%d', 00H			; `string'
CONST	ENDS
;	COMDAT ??_C@_0P@OMDIPND@?5Window?$DN0x?$CF08X@
CONST	SEGMENT
??_C@_0P@OMDIPND@?5Window?$DN0x?$CF08X@ DB ' Window=0x%08X', 00H ; `string'
CONST	ENDS
;	COMDAT ??_C@_0BN@EEFCAKCA@?5Parent?$DN0x?$CF08X?5SizeRef?$DN?$CFd?0?$CFd@
CONST	SEGMENT
??_C@_0BN@EEFCAKCA@?5Parent?$DN0x?$CF08X?5SizeRef?$DN?$CFd?0?$CFd@ DB ' P'
	DB	'arent=0x%08X SizeRef=%d,%d', 00H		; `string'
CONST	ENDS
;	COMDAT ??_C@_0L@DPPOIFG@?5ID?$DN0x?$CF08X@
CONST	SEGMENT
??_C@_0L@DPPOIFG@?5ID?$DN0x?$CF08X@ DB ' ID=0x%08X', 00H ; `string'
CONST	ENDS
;	COMDAT ??_C@_08CLJBCAAA@?$CF?$CKs?$CFs?$CF?$CKs@
CONST	SEGMENT
??_C@_08CLJBCAAA@?$CF?$CKs?$CFs?$CF?$CKs@ DB '%*s%s%*s', 00H ; `string'
CONST	ENDS
;	COMDAT ??_C@_09JOMHAHNM@DockNode?5@
CONST	SEGMENT
??_C@_09JOMHAHNM@DockNode?5@ DB 'DockNode ', 00H	; `string'
CONST	ENDS
;	COMDAT ??_C@_0M@MKIIJNLI@?$FL?$CFs?$FN?$FLData?$FN?6@
CONST	SEGMENT
??_C@_0M@MKIIJNLI@?$FL?$CFs?$FN?$FLData?$FN?6@ DB '[%s][Data]', 0aH, 00H ; `string'
CONST	ENDS
;	COMDAT ??_C@_0BD@MACBKJLI@?5Selected?$DN0x?$CF08X?$CFn@
CONST	SEGMENT
??_C@_0BD@MACBKJLI@?5Selected?$DN0x?$CF08X?$CFn@ DB ' Selected=0x%08X%n', 00H ; `string'
CONST	ENDS
;	COMDAT ??_C@_0BE@DCDHEIFG@?5NoCloseButton?$DN?$CFd?$CFn@
CONST	SEGMENT
??_C@_0BE@DCDHEIFG@?5NoCloseButton?$DN?$CFd?$CFn@ DB ' NoCloseButton=%d%n'
	DB	00H						; `string'
CONST	ENDS
;	COMDAT ??_C@_0BJ@INNALLK@?5NoWindowMenuButton?$DN?$CFd?$CFn@
CONST	SEGMENT
??_C@_0BJ@INNALLK@?5NoWindowMenuButton?$DN?$CFd?$CFn@ DB ' NoWindowMenuBu'
	DB	'tton=%d%n', 00H				; `string'
CONST	ENDS
;	COMDAT ??_C@_0BD@EJDLDLAA@?5HiddenTabBar?$DN?$CFd?$CFn@
CONST	SEGMENT
??_C@_0BD@EJDLDLAA@?5HiddenTabBar?$DN?$CFd?$CFn@ DB ' HiddenTabBar=%d%n', 00H ; `string'
CONST	ENDS
;	COMDAT ??_C@_0P@CPNGMPIN@?5NoTabBar?$DN?$CFd?$CFn@
CONST	SEGMENT
??_C@_0P@CPNGMPIN@?5NoTabBar?$DN?$CFd?$CFn@ DB ' NoTabBar=%d%n', 00H ; `string'
CONST	ENDS
;	COMDAT ??_C@_0BC@KJIGMIOI@?5CentralNode?$DN?$CFd?$CFn@
CONST	SEGMENT
??_C@_0BC@KJIGMIOI@?5CentralNode?$DN?$CFd?$CFn@ DB ' CentralNode=%d%n', 00H ; `string'
CONST	ENDS
;	COMDAT ??_C@_0P@DLFCGAHK@?5NoResize?$DN?$CFd?$CFn@
CONST	SEGMENT
??_C@_0P@DLFCGAHK@?5NoResize?$DN?$CFd?$CFn@ DB ' NoResize=%d%n', 00H ; `string'
CONST	ENDS
;	COMDAT ??_C@_0M@LLHEMPAF@?5Split?$DN?$CFc?$CFn@
CONST	SEGMENT
??_C@_0M@LLHEMPAF@?5Split?$DN?$CFc?$CFn@ DB ' Split=%c%n', 00H ; `string'
CONST	ENDS
;	COMDAT ??_C@_0BB@EBIPMFPM@?5SizeRef?$DN?$CFi?0?$CFi?$CFn@
CONST	SEGMENT
??_C@_0BB@EBIPMFPM@?5SizeRef?$DN?$CFi?0?$CFi?$CFn@ DB ' SizeRef=%i,%i%n', 00H ; `string'
CONST	ENDS
;	COMDAT ??_C@_0O@EDIHGLJG@?5Size?$DN?$CFi?0?$CFi?$CFn@
CONST	SEGMENT
??_C@_0O@EDIHGLJG@?5Size?$DN?$CFi?0?$CFi?$CFn@ DB ' Size=%i,%i%n', 00H ; `string'
CONST	ENDS
;	COMDAT ??_C@_0N@CLIDKJPC@?5Pos?$DN?$CFi?0?$CFi?$CFn@
CONST	SEGMENT
??_C@_0N@CLIDKJPC@?5Pos?$DN?$CFi?0?$CFi?$CFn@ DB ' Pos=%i,%i%n', 00H ; `string'
CONST	ENDS
;	COMDAT ??_C@_0BB@BCOKMEIM@?5Window?$DN0x?$CF08X?$CFn@
CONST	SEGMENT
??_C@_0BB@BCOKMEIM@?5Window?$DN0x?$CF08X?$CFn@ DB ' Window=0x%08X%n', 00H ; `string'
CONST	ENDS
;	COMDAT ??_C@_0BB@LDAMKONE@?5Parent?$DN0x?$CF08X?$CFn@
CONST	SEGMENT
??_C@_0BB@LDAMKONE@?5Parent?$DN0x?$CF08X?$CFn@ DB ' Parent=0x%08X%n', 00H ; `string'
CONST	ENDS
;	COMDAT ??_C@_0M@EABHJKFN@ID?$DN0x?$CF08X?$CFn@
CONST	SEGMENT
??_C@_0M@EABHJKFN@ID?$DN0x?$CF08X?$CFn@ DB 'ID=0x%08X%n', 00H ; `string'
CONST	ENDS
;	COMDAT ??_C@_08JIPMFPMP@DockNode@
CONST	SEGMENT
??_C@_08JIPMFPMP@DockNode@ DB 'DockNode', 00H		; `string'
CONST	ENDS
;	COMDAT ??_C@_04DICKPMGH@Data@
CONST	SEGMENT
??_C@_04DICKPMGH@Data@ DB 'Data', 00H			; `string'
CONST	ENDS
;	COMDAT ??_C@_0EG@OEJHDGEJ@?$FLdocking?$FN?5DockSettingsRenameNod@
CONST	SEGMENT
??_C@_0EG@OEJHDGEJ@?$FLdocking?$FN?5DockSettingsRenameNod@ DB '[docking] '
	DB	'DockSettingsRenameNodeReferences: from 0x%08X -> to 0x%08X', 0aH
	DB	00H						; `string'
CONST	ENDS
;	COMDAT ??_C@_0CK@DDPHJLLO@?$FLdocking?$FN?5Remap?5window?5?8?$CFs?8?5?$CF08@
CONST	SEGMENT
??_C@_0CK@DDPHJLLO@?$FLdocking?$FN?5Remap?5window?5?8?$CFs?8?5?$CF08@ DB '['
	DB	'docking] Remap window ''%s'' %08X -> %08X', 0aH, 00H ; `string'
CONST	ENDS
;	COMDAT ??_C@_0CO@CAPLLOJA@?$FLdocking?$FN?5Remap?5window?5settings@
CONST	SEGMENT
??_C@_0CO@CAPLLOJA@?$FLdocking?$FN?5Remap?5window?5settings@ DB '[docking'
	DB	'] Remap window settings ''%s'' -> ''%s''', 0aH, 00H ; `string'
CONST	ENDS
;	COMDAT ??_C@_0DI@KJBIILHG@?$FLdocking?$FN?5Remap?5live?5window?5?8?$CFs@
CONST	SEGMENT
??_C@_0DI@KJBIILHG@?$FLdocking?$FN?5Remap?5live?5window?5?8?$CFs@ DB '[do'
	DB	'cking] Remap live window ''%s'' 0x%08X -> ''%s'' 0x%08X', 0aH
	DB	00H						; `string'
CONST	ENDS
;	COMDAT ??_C@_0CO@FGKCLCPK@?$FLdocking?$FN?5Fork?5node?5?$CF08X?5?9?$DO?5?$CF08@
CONST	SEGMENT
??_C@_0CO@FGKCLCPK@?$FLdocking?$FN?5Fork?5node?5?$CF08X?5?9?$DO?5?$CF08@ DB '['
	DB	'docking] Fork node %08X -> %08X (%d childs)', 0aH, 00H ; `string'
CONST	ENDS
;	COMDAT ??_C@_0DL@IAPIIABA@?$FLdocking?$FN?5DockBuilderSplitNode?3@
CONST	SEGMENT
??_C@_0DL@IAPIIABA@?$FLdocking?$FN?5DockBuilderSplitNode?3@ DB '[docking]'
	DB	' DockBuilderSplitNode: node 0x%08X, split_dir %d', 0aH, 00H ; `string'
CONST	ENDS
;	COMDAT ??_C@_0CI@GIBILGEJ@?$FLdocking?$FN?5DockBuilderRemoveNode@
CONST	SEGMENT
??_C@_0CI@GIBILGEJ@?$FLdocking?$FN?5DockBuilderRemoveNode@ DB '[docking] '
	DB	'DockBuilderRemoveNode 0x%08X', 0aH, 00H	; `string'
CONST	ENDS
;	COMDAT ??_C@_0DA@JDAILCIJ@?$FLdocking?$FN?5DockBuilderAddNode?50x@
CONST	SEGMENT
??_C@_0DA@JDAILCIJ@?$FLdocking?$FN?5DockBuilderAddNode?50x@ DB '[docking]'
	DB	' DockBuilderAddNode 0x%08X flags=%08X', 0aH, 00H ; `string'
CONST	ENDS
;	COMDAT ??_C@_0DF@IBLNKNIA@?$FLdocking?$FN?5DockBuilderDockWindow@
CONST	SEGMENT
??_C@_0DF@IBLNKNIA@?$FLdocking?$FN?5DockBuilderDockWindow@ DB '[docking] '
	DB	'DockBuilderDockWindow ''%s'' to node 0x%08X', 0aH, 00H ; `string'
CONST	ENDS
;	COMDAT ??_C@_09HNGCCBAK@DockSpace@
CONST	SEGMENT
??_C@_09HNGCCBAK@DockSpace@ DB 'DockSpace', 00H		; `string'
CONST	ENDS
;	COMDAT ??_C@_0BH@FMIKPECO@DockSpaceViewport_?$CF08X@
CONST	SEGMENT
??_C@_0BH@FMIKPECO@DockSpaceViewport_?$CF08X@ DB 'DockSpaceViewport_%08X', 00H ; `string'
CONST	ENDS
;	COMDAT ??_C@_0BC@HILLNFEB@?$CFs?1DockSpace_?$CF08X@
CONST	SEGMENT
??_C@_0BC@HILLNFEB@?$CFs?1DockSpace_?$CF08X@ DB '%s/DockSpace_%08X', 00H ; `string'
CONST	ENDS
;	COMDAT ??_C@_0FA@CHDCOLDM@?$FLdocking?$FN?5DockSpace?3?5dockspace?5@
CONST	SEGMENT
??_C@_0FA@CHDCOLDM@?$FLdocking?$FN?5DockSpace?3?5dockspace?5@ DB '[dockin'
	DB	'g] DockSpace: dockspace node 0x%08X: setup WindowClass 0x%08X'
	DB	' -> 0x%08X', 0aH, 00H			; `string'
CONST	ENDS
;	COMDAT ??_C@_0DE@BHECDHOE@?$FLdocking?$FN?5DockSpace?3?5dockspace?5@
CONST	SEGMENT
??_C@_0DE@BHECDHOE@?$FLdocking?$FN?5DockSpace?3?5dockspace?5@ DB '[dockin'
	DB	'g] DockSpace: dockspace node 0x%08X created', 0aH, 00H ; `string'
CONST	ENDS
;	COMDAT ??_C@_0L@BABEOIEN@?$CD?$CDSplitter@
CONST	SEGMENT
??_C@_0L@BABEOIEN@?$CD?$CDSplitter@ DB '##Splitter', 00H ; `string'
CONST	ENDS
;	COMDAT ??_C@_0EG@PABCKJPO@?$FLdocking?$FN?5DockNodeTreeMerge?3?50x@
CONST	SEGMENT
??_C@_0EG@PABCKJPO@?$FLdocking?$FN?5DockNodeTreeMerge?3?50x@ DB '[docking'
	DB	'] DockNodeTreeMerge: 0x%08X + 0x%08X back into parent 0x%08X', 0aH
	DB	00H						; `string'
CONST	ENDS
;	COMDAT ??_C@_09FGKIHOPL@?$CDTITLEBAR@
CONST	SEGMENT
??_C@_09FGKIHOPL@?$CDTITLEBAR@ DB '#TITLEBAR', 00H	; `string'
CONST	ENDS
;	COMDAT ??_C@_07HPOFFKIA@?$CDTabBar@
CONST	SEGMENT
??_C@_07HPOFFKIA@?$CDTabBar@ DB '#TabBar', 00H		; `string'
CONST	ENDS
;	COMDAT ??_C@_0DN@KDEPEANI@?$FLdocking?$FN?5SelectedTabId?5?$DN?50x?$CF08@
CONST	SEGMENT
??_C@_0DN@KDEPEANI@?$FLdocking?$FN?5SelectedTabId?5?$DN?50x?$CF08@ DB '[d'
	DB	'ocking] SelectedTabId = 0x%08X, NavWindow->TabId = 0x%08X', 0aH
	DB	00H						; `string'
CONST	ENDS
;	COMDAT ??_C@_0CG@OGIFOOH@?$FLdocking?$FN?5?9?5Tab?50x?$CF08X?5?8?$CFs?8?5Ord@
CONST	SEGMENT
??_C@_0CG@OGIFOOH@?$FLdocking?$FN?5?9?5Tab?50x?$CF08X?5?8?$CFs?8?5Ord@ DB '['
	DB	'docking] - Tab 0x%08X ''%s'' Order %d', 0aH, 00H ; `string'
CONST	ENDS
;	COMDAT ??_C@_0DE@DDFDIKCC@?$FLdocking?$FN?5In?5node?50x?$CF08X?3?5?$CFd?5ne@
CONST	SEGMENT
??_C@_0DE@DDFDIKCC@?$FLdocking?$FN?5In?5node?50x?$CF08X?3?5?$CFd?5ne@ DB '['
	DB	'docking] In node 0x%08X: %d new appearing tabs:%s', 0aH, 00H ; `string'
CONST	ENDS
;	COMDAT ??_C@_0N@BFNBGBBP@?5?$CIwill?5sort?$CJ@
CONST	SEGMENT
??_C@_0N@BFNBGBBP@?5?$CIwill?5sort?$CJ@ DB ' (will sort)', 00H ; `string'
CONST	ENDS
;	COMDAT ??_C@_02DKCKIIND@?$CFs@
CONST	SEGMENT
??_C@_02DKCKIIND@?$CFs@ DB '%s', 00H			; `string'
CONST	ENDS
;	COMDAT ??_C@_0M@IALBNCNH@?$CDWindowMenu@
CONST	SEGMENT
??_C@_0M@IALBNCNH@?$CDWindowMenu@ DB '#WindowMenu', 00H	; `string'
CONST	ENDS
;	COMDAT ??_C@_03NDEAONJP@?5?5?5@
CONST	SEGMENT
??_C@_03NDEAONJP@?5?5?5@ DB '   ', 00H			; `string'
CONST	ENDS
;	COMDAT ??_C@_0EC@OJPOEPNF@?$FLviewport?$FN?5Node?5?$CF08X?5transfer?5V@
CONST	SEGMENT
??_C@_0EC@OJPOEPNF@?$FLviewport?$FN?5Node?5?$CF08X?5transfer?5V@ DB '[vie'
	DB	'wport] Node %08X transfer Viewport %08X->%08X to Window ''%s'''
	DB	0aH, 00H					; `string'
CONST	ENDS
;	COMDAT ??_C@_0DI@OLLMNIML@?$FLdocking?$FN?5DockNodeRemoveWindow?5@
CONST	SEGMENT
??_C@_0DI@OLLMNIML@?$FLdocking?$FN?5DockNodeRemoveWindow?5@ DB '[docking]'
	DB	' DockNodeRemoveWindow node 0x%08X window ''%s''', 0aH, 00H ; `string'
CONST	ENDS
;	COMDAT ??_C@_0DF@JBNCMFGI@?$FLdocking?$FN?5DockNodeAddWindow?5nod@
CONST	SEGMENT
??_C@_0DF@JBNCMFGI@?$FLdocking?$FN?5DockNodeAddWindow?5nod@ DB '[docking]'
	DB	' DockNodeAddWindow node 0x%08X window ''%s''', 0aH, 00H ; `string'
CONST	ENDS
;	COMDAT ??_C@_0DC@MKBFJKJL@?$FLdocking?$FN?5DockContextProcessUnd@
CONST	SEGMENT
??_C@_0DC@MKBFJKJL@?$FLdocking?$FN?5DockContextProcessUnd@ DB '[docking] '
	DB	'DockContextProcessUndockNode node %08X', 0aH, 00H ; `string'
CONST	ENDS
;	COMDAT ??_C@_0FJ@HENHGIAD@?$FLdocking?$FN?5DockContextProcessUnd@
CONST	SEGMENT
??_C@_0FJ@HENHGIAD@?$FLdocking?$FN?5DockContextProcessUnd@ DB '[docking] '
	DB	'DockContextProcessUndockWindow window ''%s'', clear_persisten'
	DB	't_docking_ref = %d', 0aH, 00H		; `string'
CONST	ENDS
;	COMDAT ??_C@_0DM@DPIPCCIF@?$FLdocking?$FN?5DockContextProcessDoc@
CONST	SEGMENT
??_C@_0DM@DPIPCCIF@?$FLdocking?$FN?5DockContextProcessDoc@ DB '[docking] '
	DB	'DockContextProcessDock node 0x%08X, split_dir %d', 0aH, 00H ; `string'
CONST	ENDS
;	COMDAT ??_C@_0FJ@DDMKCBPE@?$FLdocking?$FN?5DockContextProcessDoc@
CONST	SEGMENT
??_C@_0FJ@DDMKCBPE@?$FLdocking?$FN?5DockContextProcessDoc@ DB '[docking] '
	DB	'DockContextProcessDock node 0x%08X target ''%s'' dock window '
	DB	'''%s'', split_dir %d', 0aH, 00H		; `string'
CONST	ENDS
;	COMDAT ??_C@_0DN@KHOOENI@?$FLdocking?$FN?5DockContextPruneUnuse@
CONST	SEGMENT
??_C@_0DN@KHOOENI@?$FLdocking?$FN?5DockContextPruneUnuse@ DB '[docking] D'
	DB	'ockContextPruneUnusedSettingsNodes: Prune 0x%08X', 0aH, 00H ; `string'
CONST	ENDS
;	COMDAT ??_C@_0CI@CLJCBFON@?$FLdocking?$FN?5DockContextRemoveNode@
CONST	SEGMENT
??_C@_0CI@CLJCBFON@?$FLdocking?$FN?5DockContextRemoveNode@ DB '[docking] '
	DB	'DockContextRemoveNode 0x%08X', 0aH, 00H	; `string'
CONST	ENDS
;	COMDAT ??_C@_0CF@FLIDOAKC@?$FLdocking?$FN?5DockContextAddNode?50x@
CONST	SEGMENT
??_C@_0CF@FLIDOAKC@?$FLdocking?$FN?5DockContextAddNode?50x@ DB '[docking]'
	DB	' DockContextAddNode 0x%08X', 0aH, 00H	; `string'
CONST	ENDS
;	COMDAT ??_C@_0CD@JNLCNHLB@?$FLdocking?$FN?5DockContextRebuildNod@
CONST	SEGMENT
??_C@_0CD@JNLCNHLB@?$FLdocking?$FN?5DockContextRebuildNod@ DB '[docking] '
	DB	'DockContextRebuildNodes', 0aH, 00H		; `string'
CONST	ENDS
;	COMDAT ??_C@_07EKNEIOG@Docking@
CONST	SEGMENT
??_C@_07EKNEIOG@Docking@ DB 'Docking', 00H		; `string'
CONST	ENDS
;	COMDAT ??_C@_0BA@DGHNEHPH@?$CD?$CDDockNode_?$CF02X@
CONST	SEGMENT
??_C@_0BA@DGHNEHPH@?$CD?$CDDockNode_?$CF02X@ DB '##DockNode_%02X', 00H ; `string'
CONST	ENDS
;	COMDAT ??_C@_0CO@JNHGPOLA@?$FLviewport?$FN?5Destroy?5Platform?5Win@
CONST	SEGMENT
??_C@_0CO@JNHGPOLA@?$FLviewport?$FN?5Destroy?5Platform?5Win@ DB '[viewpor'
	DB	't] Destroy Platform Window %08X ''%s''', 0aH, 00H ; `string'
CONST	ENDS
;	COMDAT ??_C@_0CN@KLCOHGLC@?$FLviewport?$FN?5Create?5Platform?5Wind@
CONST	SEGMENT
??_C@_0CN@KLCOHGLC@?$FLviewport?$FN?5Create?5Platform?5Wind@ DB '[viewpor'
	DB	't] Create Platform Window %08X ''%s''', 0aH, 00H ; `string'
CONST	ENDS
;	COMDAT ??_C@_0DN@BEKJGNBG@?$FLviewport?$FN?5Window?5?8?$CFs?8?5steal?5Vi@
CONST	SEGMENT
??_C@_0DN@BEKJGNBG@?$FLviewport?$FN?5Window?5?8?$CFs?8?5steal?5Vi@ DB '[v'
	DB	'iewport] Window ''%s'' steal Viewport %08X from Window ''%s'''
	DB	0aH, 00H					; `string'
CONST	ENDS
;	COMDAT ??_C@_0CG@FBJHJPNC@?$FLviewport?$FN?5Delete?5Viewport?5?$CF08X@
CONST	SEGMENT
??_C@_0CG@FBJHJPNC@?$FLviewport?$FN?5Delete?5Viewport?5?$CF08X@ DB '[view'
	DB	'port] Delete Viewport %08X ''%s''', 0aH, 00H ; `string'
CONST	ENDS
;	COMDAT ??_C@_03EKLFPLOI@n?1a@
CONST	SEGMENT
??_C@_03EKLFPLOI@n?1a@ DB 'n/a', 00H			; `string'
CONST	ENDS
;	COMDAT ??_C@_0CD@EIJBEOHE@?$FLviewport?$FN?5Add?5Viewport?5?$CF08X?5?8?$CF@
CONST	SEGMENT
??_C@_0CD@EIJBEOHE@?$FLviewport?$FN?5Add?5Viewport?5?$CF08X?5?8?$CF@ DB '['
	DB	'viewport] Add Viewport %08X ''%s''', 0aH, 00H ; `string'
CONST	ENDS
;	COMDAT ??_C@_0FC@KKNCGLEH@?$FLviewport?$FN?5Focused?5viewport?5cha@
CONST	SEGMENT
??_C@_0FC@KKNCGLEH@?$FLviewport?$FN?5Focused?5viewport?5cha@ DB '[viewpor'
	DB	't] Focused viewport changed %08X -> %08X, attempting to apply'
	DB	' our focus.', 0aH, 00H			; `string'
CONST	ENDS
;	COMDAT ??_C@_0BA@PNKDDFKP@ClassId?$DN0x?$CF08X?6@
CONST	SEGMENT
??_C@_0BA@PNKDDFKP@ClassId?$DN0x?$CF08X?6@ DB 'ClassId=0x%08X', 0aH, 00H ; `string'
CONST	ENDS
;	COMDAT ??_C@_0BC@GGCEMLMF@DockId?$DN0x?$CF08X?0?$CFd?6@
CONST	SEGMENT
??_C@_0BC@GGCEMLMF@DockId?$DN0x?$CF08X?0?$CFd?6@ DB 'DockId=0x%08X,%d', 0aH
	DB	00H						; `string'
CONST	ENDS
;	COMDAT ??_C@_0P@PDLJKFFE@DockId?$DN0x?$CF08X?6@
CONST	SEGMENT
??_C@_0P@PDLJKFFE@DockId?$DN0x?$CF08X?6@ DB 'DockId=0x%08X', 0aH, 00H ; `string'
CONST	ENDS
;	COMDAT ??_C@_0O@JAFHMCKE@Collapsed?$DN?$CFd?6@
CONST	SEGMENT
??_C@_0O@JAFHMCKE@Collapsed?$DN?$CFd?6@ DB 'Collapsed=%d', 0aH, 00H ; `string'
CONST	ENDS
;	COMDAT ??_C@_0L@DDMADIHO@Pos?$DN?$CFd?0?$CFd?6@
CONST	SEGMENT
??_C@_0L@DDMADIHO@Pos?$DN?$CFd?0?$CFd?6@ DB 'Pos=%d,%d', 0aH, 00H ; `string'
CONST	ENDS
;	COMDAT ??_C@_0BD@NGCOFKNO@ViewportId?$DN0x?$CF08X?6@
CONST	SEGMENT
??_C@_0BD@NGCOFKNO@ViewportId?$DN0x?$CF08X?6@ DB 'ViewportId=0x%08X', 0aH
	DB	00H						; `string'
CONST	ENDS
;	COMDAT ??_C@_0BD@NKDECOKI@ViewportPos?$DN?$CFd?0?$CFd?6@
CONST	SEGMENT
??_C@_0BD@NKDECOKI@ViewportPos?$DN?$CFd?0?$CFd?6@ DB 'ViewportPos=%d,%d', 0aH
	DB	00H						; `string'
CONST	ENDS
;	COMDAT ??_C@_0M@CFANMDMP@Size?$DN?$CFd?0?$CFd?6@
CONST	SEGMENT
??_C@_0M@CFANMDMP@Size?$DN?$CFd?0?$CFd?6@ DB 'Size=%d,%d', 0aH, 00H ; `string'
CONST	ENDS
;	COMDAT ??_C@_0L@BALPIDOF@IsChild?$DN1?6@
CONST	SEGMENT
??_C@_0L@BALPIDOF@IsChild?$DN1?6@ DB 'IsChild=1', 0aH, 00H ; `string'
CONST	ENDS
;	COMDAT ??_C@_09HNFDDBIF@?$FL?$CFs?$FN?$FL?$CFs?$FN?6@
CONST	SEGMENT
??_C@_09HNFDDBIF@?$FL?$CFs?$FN?$FL?$CFs?$FN?6@ DB '[%s][%s]', 0aH, 00H ; `string'
CONST	ENDS
;	COMDAT ??_C@_0N@CKBPCLAD@ClassId?$DN0x?$CFX@
CONST	SEGMENT
??_C@_0N@CKBPCLAD@ClassId?$DN0x?$CFX@ DB 'ClassId=0x%X', 00H ; `string'
CONST	ENDS
;	COMDAT ??_C@_0M@CCAELBAK@DockId?$DN0x?$CFX@
CONST	SEGMENT
??_C@_0M@CCAELBAK@DockId?$DN0x?$CFX@ DB 'DockId=0x%X', 00H ; `string'
CONST	ENDS
;	COMDAT ??_C@_0P@CCNHOEDK@DockId?$DN0x?$CFX?0?$CFd@
CONST	SEGMENT
??_C@_0P@CCNHOEDK@DockId?$DN0x?$CFX?0?$CFd@ DB 'DockId=0x%X,%d', 00H ; `string'
CONST	ENDS
;	COMDAT ??_C@_0L@PAOOMOGA@IsChild?$DN?$CFd@
CONST	SEGMENT
??_C@_0L@PAOOMOGA@IsChild?$DN?$CFd@ DB 'IsChild=%d', 00H ; `string'
CONST	ENDS
;	COMDAT ??_C@_0N@IAKNMBB@Collapsed?$DN?$CFd@
CONST	SEGMENT
??_C@_0N@IAKNMBB@Collapsed?$DN?$CFd@ DB 'Collapsed=%d', 00H ; `string'
CONST	ENDS
;	COMDAT ??_C@_0BC@PJHNCLIJ@ViewportPos?$DN?$CFi?0?$CFi@
CONST	SEGMENT
??_C@_0BC@PJHNCLIJ@ViewportPos?$DN?$CFi?0?$CFi@ DB 'ViewportPos=%i,%i', 00H ; `string'
CONST	ENDS
;	COMDAT ??_C@_0BC@BICMNPLO@ViewportId?$DN0x?$CF08X@
CONST	SEGMENT
??_C@_0BC@BICMNPLO@ViewportId?$DN0x?$CF08X@ DB 'ViewportId=0x%08X', 00H ; `string'
CONST	ENDS
;	COMDAT ??_C@_0L@MPPKDMFA@Size?$DN?$CFi?0?$CFi@
CONST	SEGMENT
??_C@_0L@MPPKDMFA@Size?$DN?$CFi?0?$CFi@ DB 'Size=%i,%i', 00H ; `string'
CONST	ENDS
;	COMDAT ??_C@_09GOMOMIIP@Pos?$DN?$CFi?0?$CFi@
CONST	SEGMENT
??_C@_09GOMOMIIP@Pos?$DN?$CFi?0?$CFi@ DB 'Pos=%i,%i', 00H ; `string'
CONST	ENDS
;	COMDAT ??_C@_03OIJOKPOL@?$CD?$CD?$CD@
CONST	SEGMENT
??_C@_03OIJOKPOL@?$CD?$CD?$CD@ DB '###', 00H		; `string'
CONST	ENDS
;	COMDAT ??_C@_02BKFDOEMK@wt@
CONST	SEGMENT
??_C@_02BKFDOEMK@wt@ DB 'wt', 00H			; `string'
CONST	ENDS
;	COMDAT ??_C@_02JDPG@rb@
CONST	SEGMENT
??_C@_02JDPG@rb@ DB 'rb', 00H				; `string'
CONST	ENDS
;	COMDAT ??_C@_0O@CONALMON@Default?5Depth@
CONST	SEGMENT
??_C@_0O@CONALMON@Default?5Depth@ DB 'Default Depth', 00H ; `string'
CONST	ENDS
;	COMDAT ??_C@_0BB@CPOBJDKM@Log?5To?5Clipboard@
CONST	SEGMENT
??_C@_0BB@CPOBJDKM@Log?5To?5Clipboard@ DB 'Log To Clipboard', 00H ; `string'
CONST	ENDS
;	COMDAT ??_C@_0M@KAEBEAHF@Log?5To?5File@
CONST	SEGMENT
??_C@_0M@KAEBEAHF@Log?5To?5File@ DB 'Log To File', 00H	; `string'
CONST	ENDS
;	COMDAT ??_C@_0L@COILDFG@Log?5To?5TTY@
CONST	SEGMENT
??_C@_0L@COILDFG@Log?5To?5TTY@ DB 'Log To TTY', 00H	; `string'
CONST	ENDS
;	COMDAT ??_C@_0L@DMNDGOCF@LogButtons@
CONST	SEGMENT
??_C@_0L@DMNDGOCF@LogButtons@ DB 'LogButtons', 00H	; `string'
CONST	ENDS
;	COMDAT ??_C@_02BOGAIONP@ab@
CONST	SEGMENT
??_C@_02BOGAIONP@ab@ DB 'ab', 00H			; `string'
CONST	ENDS
;	COMDAT ??_C@_07LFDEMEGD@?$CF?$CKs?$CF?4?$CKs@
CONST	SEGMENT
??_C@_07LFDEMEGD@?$CF?$CKs?$CF?4?$CKs@ DB '%*s%.*s', 00H ; `string'
CONST	ENDS
;	COMDAT ??_C@_02PCIJFNDE@?$AN?6@
CONST	SEGMENT
??_C@_02PCIJFNDE@?$AN?6@ DB 0dH, 0aH, 00H		; `string'
CONST	ENDS
;	COMDAT ??_C@_0O@KMAIKFAM@?$CDSourceExtern@
CONST	SEGMENT
??_C@_0O@KMAIKFAM@?$CDSourceExtern@ DB '#SourceExtern', 00H ; `string'
CONST	ENDS
;	COMDAT ??_C@_0BB@IFIOILBM@?$CD?$CDTooltip_Hidden@
CONST	SEGMENT
??_C@_0BB@IFIOILBM@?$CD?$CDTooltip_Hidden@ DB '##Tooltip_Hidden', 00H ; `string'
CONST	ENDS
;	COMDAT ??_C@_0BE@EBHFKNCA@?$CD?$CD?$CDNavWindowingList@
CONST	SEGMENT
??_C@_0BE@EBHFKNCA@?$CD?$CD?$CDNavWindowingList@ DB '###NavWindowingList', 00H ; `string'
CONST	ENDS
;	COMDAT ??_C@_0M@GMDKOBNE@?$CIDock?5node?$CJ@
CONST	SEGMENT
??_C@_0M@GMDKOBNE@?$CIDock?5node?$CJ@ DB '(Dock node)', 00H ; `string'
CONST	ENDS
;	COMDAT ??_C@_0O@BKOLOJFE@?$CD?$CDMainMenuBar@
CONST	SEGMENT
??_C@_0O@BKOLOJFE@?$CD?$CDMainMenuBar@ DB '##MainMenuBar', 00H ; `string'
CONST	ENDS
;	COMDAT ??_C@_0BG@NEECCIPG@?$CD?$CD?$CDNavUpdateWindowing@
CONST	SEGMENT
??_C@_0BG@NEECCIPG@?$CD?$CD?$CDNavUpdateWindowing@ DB '###NavUpdateWindow'
	DB	'ing', 00H					; `string'
CONST	ENDS
;	COMDAT ??_C@_0CA@JJLLCANH@?$FLnav?$FN?5NavUpdateCancelRequest?$CI?$CJ?6@
CONST	SEGMENT
??_C@_0CA@JJLLCANH@?$FLnav?$FN?5NavUpdateCancelRequest?$CI?$CJ?6@ DB '[na'
	DB	'v] NavUpdateCancelRequest()', 0aH, 00H	; `string'
CONST	ENDS
;	COMDAT ??_C@_0ED@JMNIALPC@?$FLnav?$FN?5NavMoveRequest?3?5result?5Na@
CONST	SEGMENT
??_C@_0ED@JMNIALPC@?$FLnav?$FN?5NavMoveRequest?3?5result?5Na@ DB '[nav] N'
	DB	'avMoveRequest: result NavID 0x%08X in Layer %d Window "%s"', 0aH
	DB	00H						; `string'
CONST	ENDS
;	COMDAT ??_C@_0CM@KMMAIAOD@?$FLfocus?$FN?5NavMoveRequest?3?5SetNavW@
CONST	SEGMENT
??_C@_0CM@KMMAIAOD@?$FLfocus?$FN?5NavMoveRequest?3?5SetNavW@ DB '[focus] '
	DB	'NavMoveRequest: SetNavWindow("%s")', 0aH, 00H ; `string'
CONST	ENDS
;	COMDAT ??_C@_0DB@EPMLAAL@?$FLnav?$FN?5NavMoveSubmitted?5but?5not?5@
CONST	SEGMENT
??_C@_0DB@EPMLAAL@?$FLnav?$FN?5NavMoveSubmitted?5but?5not?5@ DB '[nav] Na'
	DB	'vMoveSubmitted but not led to a result!', 0aH, 00H ; `string'
CONST	ENDS
;	COMDAT ??_C@_0DJ@MAGJKKCG@?$FLnav?$FN?5NavMoveRequest?3?5clamp?5Nav@
CONST	SEGMENT
??_C@_0DJ@MAGJKKCG@?$FLnav?$FN?5NavMoveRequest?3?5clamp?5Nav@ DB '[nav] N'
	DB	'avMoveRequest: clamp NavRectRel for gamepad move', 0aH, 00H ; `string'
CONST	ENDS
;	COMDAT ??_C@_0DI@DAIPCILO@?$FLnav?$FN?5NavInitRequest?3?5from?5move@
CONST	SEGMENT
??_C@_0DI@DAIPCILO@?$FLnav?$FN?5NavInitRequest?3?5from?5move@ DB '[nav] N'
	DB	'avInitRequest: from move, window "%s", layer=%d', 0aH, 00H ; `string'
CONST	ENDS
;	COMDAT ??_C@_0CA@BNPHEIIJ@?$FLnav?$FN?5NavMoveRequestForward?5?$CFd?6@
CONST	SEGMENT
??_C@_0CA@BNPHEIIJ@?$FLnav?$FN?5NavMoveRequestForward?5?$CFd?6@ DB '[nav]'
	DB	' NavMoveRequestForward %d', 0aH, 00H	; `string'
CONST	ENDS
;	COMDAT ??_C@_0EJ@EKHMMIGJ@?$FLnav?$FN?5NavInitRequest?3?5ApplyResu@
CONST	SEGMENT
??_C@_0EJ@EKHMMIGJ@?$FLnav?$FN?5NavInitRequest?3?5ApplyResu@ DB '[nav] Na'
	DB	'vInitRequest: ApplyResult: NavID 0x%08X in Layer %d Window "%'
	DB	's"', 0aH, 00H				; `string'
CONST	ENDS
;	COMDAT ??_C@_0FE@LKAOFKOF@?$FLnav?$FN?5NavInitRequest?3?5from?5NavI@
CONST	SEGMENT
??_C@_0FE@LKAOFKOF@?$FLnav?$FN?5NavInitRequest?3?5from?5NavI@ DB '[nav] N'
	DB	'avInitRequest: from NavInitWindow(), init_for_nav=%d, window='
	DB	'"%s", layer=%d', 0aH, 00H			; `string'
CONST	ENDS
;	COMDAT ??_C@_0DK@NLPDJHKG@?$FLfocus?$FN?5NavRestoreLayer?3?5from?5?$CC@
CONST	SEGMENT
??_C@_0DK@NLPDJHKG@?$FLfocus?$FN?5NavRestoreLayer?3?5from?5?$CC@ DB '[foc'
	DB	'us] NavRestoreLayer: from "%s" to SetNavWindow("%s")', 0aH, 00H ; `string'
CONST	ENDS
;	COMDAT ??_C@_0BM@CFDBCOKD@?$FLfocus?$FN?5SetNavWindow?$CI?$CC?$CFs?$CC?$CJ?6@
CONST	SEGMENT
??_C@_0BM@CFDBCOKD@?$FLfocus?$FN?5SetNavWindow?$CI?$CC?$CFs?$CC?$CJ?6@ DB '['
	DB	'focus] SetNavWindow("%s")', 0aH, 00H	; `string'
CONST	ENDS
;	COMDAT ??_C@_0N@OOFNFKBH@void_context@
CONST	SEGMENT
??_C@_0N@OOFNFKBH@void_context@ DB 'void_context', 00H	; `string'
CONST	ENDS
;	COMDAT ??_C@_0P@DCJGJLLM@window_context@
CONST	SEGMENT
??_C@_0P@DCJGJLLM@window_context@ DB 'window_context', 00H ; `string'
CONST	ENDS
;	COMDAT ??_C@_0N@PIPFDMLM@?$CD?$CDPopup_?$CF08x@
CONST	SEGMENT
??_C@_0N@PIPFDMLM@?$CD?$CDPopup_?$CF08x@ DB '##Popup_%08x', 00H ; `string'
CONST	ENDS
;	COMDAT ??_C@_0M@NANGKBBK@?$CD?$CDMenu_?$CF02d@
CONST	SEGMENT
??_C@_0M@NANGKBBK@?$CD?$CDMenu_?$CF02d@ DB '##Menu_%02d', 00H ; `string'
CONST	ENDS
;	COMDAT ??_C@_0CE@FCCNCIKM@?$FLpopup?$FN?5CloseCurrentPopup?5?$CFd?5?9?$DO@
CONST	SEGMENT
??_C@_0CE@FCCNCIKM@?$FLpopup?$FN?5CloseCurrentPopup?5?$CFd?5?9?$DO@ DB '['
	DB	'popup] CloseCurrentPopup %d -> %d', 0aH, 00H ; `string'
CONST	ENDS
;	COMDAT ??_C@_0DB@MJNKEABH@?$FLpopup?$FN?5ClosePopupToLevel?$CI?$CFd?$CJ?0?5@
CONST	SEGMENT
??_C@_0DB@MJNKEABH@?$FLpopup?$FN?5ClosePopupToLevel?$CI?$CFd?$CJ?0?5@ DB '['
	DB	'popup] ClosePopupToLevel(%d), restore_under=%d', 0aH, 00H ; `string'
CONST	ENDS
;	COMDAT ??_C@_0CF@KJFMKFLJ@?$FLpopup?$FN?5ClosePopupsOverWindow?$CI?$CC@
CONST	SEGMENT
??_C@_0CF@KJFMKFLJ@?$FLpopup?$FN?5ClosePopupsOverWindow?$CI?$CC@ DB '[pop'
	DB	'up] ClosePopupsOverWindow("%s")', 0aH, 00H	; `string'
CONST	ENDS
;	COMDAT ??_C@_0BN@MEGOLGEO@?$FLpopup?$FN?5OpenPopupEx?$CI0x?$CF08X?$CJ?6@
CONST	SEGMENT
??_C@_0BN@MEGOLGEO@?$FLpopup?$FN?5OpenPopupEx?$CI0x?$CF08X?$CJ?6@ DB '[po'
	DB	'pup] OpenPopupEx(0x%08X)', 0aH, 00H		; `string'
CONST	ENDS
;	COMDAT ??_C@_0CD@LOACMKE@?$FLpopup?$FN?5OpenPopup?$CI?$CC?$CFs?$CC?5?9?$DO?50x?$CF08@
CONST	SEGMENT
??_C@_0CD@LOACMKE@?$FLpopup?$FN?5OpenPopup?$CI?$CC?$CFs?$CC?5?9?$DO?50x?$CF08@ DB '['
	DB	'popup] OpenPopup("%s" -> 0x%08X)', 0aH, 00H	; `string'
CONST	ENDS
;	COMDAT ??_C@_0P@DHLMFJKK@?$CD?$CDTooltip_?$CF02d@
CONST	SEGMENT
??_C@_0P@DHLMFJKK@?$CD?$CDTooltip_?$CF02d@ DB '##Tooltip_%02d', 00H ; `string'
CONST	ENDS
;	COMDAT ??_C@_0CP@NEGGJCEB@Recovered?5from?5missing?5PopFocus@
CONST	SEGMENT
??_C@_0CP@NEGGJCEB@Recovered?5from?5missing?5PopFocus@ DB 'Recovered from'
	DB	' missing PopFocusScope() in ''%s''', 00H	; `string'
CONST	ENDS
;	COMDAT ??_C@_0CJ@MABIEKMF@Recovered?5from?5missing?5PopFont?$CI@
CONST	SEGMENT
??_C@_0CJ@MABIEKMF@Recovered?5from?5missing?5PopFont?$CI@ DB 'Recovered f'
	DB	'rom missing PopFont() in ''%s''', 00H	; `string'
CONST	ENDS
;	COMDAT ??_C@_0CN@EFPNNJDL@Recovered?5from?5missing?5PopStyle@
CONST	SEGMENT
??_C@_0CN@EFPNNJDL@Recovered?5from?5missing?5PopStyle@ DB 'Recovered from'
	DB	' missing PopStyleVar() in ''%s''', 00H	; `string'
CONST	ENDS
;	COMDAT ??_C@_0CN@HDGJMJNM@Recovered?5from?5missing?5PopItemF@
CONST	SEGMENT
??_C@_0CN@HDGJMJNM@Recovered?5from?5missing?5PopItemF@ DB 'Recovered from'
	DB	' missing PopItemFlag() in ''%s''', 00H	; `string'
CONST	ENDS
;	COMDAT ??_C@_0DP@GKCPPFKN@Recovered?5from?5missing?5PopStyle@
CONST	SEGMENT
??_C@_0DP@GKCPPFKN@Recovered?5from?5missing?5PopStyle@ DB 'Recovered from'
	DB	' missing PopStyleColor() in ''%s'' for ImGuiCol_%s', 00H ; `string'
CONST	ENDS
;	COMDAT ??_C@_0CN@OIBMKKFF@Recovered?5from?5missing?5EndDisab@
CONST	SEGMENT
??_C@_0CN@OIBMKKFF@Recovered?5from?5missing?5EndDisab@ DB 'Recovered from'
	DB	' missing EndDisabled() in ''%s''', 00H	; `string'
CONST	ENDS
;	COMDAT ??_C@_0CH@CBEJECIE@Recovered?5from?5missing?5PopID?$CI?$CJ?5@
CONST	SEGMENT
??_C@_0CH@CBEJECIE@Recovered?5from?5missing?5PopID?$CI?$CJ?5@ DB 'Recover'
	DB	'ed from missing PopID() in ''%s''', 00H	; `string'
CONST	ENDS
;	COMDAT ??_C@_0CK@EIGPLJIB@Recovered?5from?5missing?5EndGroup@
CONST	SEGMENT
??_C@_0CK@EIGPLJIB@Recovered?5from?5missing?5EndGroup@ DB 'Recovered from'
	DB	' missing EndGroup() in ''%s''', 00H		; `string'
CONST	ENDS
;	COMDAT ??_C@_0CJ@OIELACHL@Recovered?5from?5missing?5TreePop?$CI@
CONST	SEGMENT
??_C@_0CJ@OIELACHL@Recovered?5from?5missing?5TreePop?$CI@ DB 'Recovered f'
	DB	'rom missing TreePop() in ''%s''', 00H	; `string'
CONST	ENDS
;	COMDAT ??_C@_0CL@PFJDIEBE@Recovered?5from?5missing?5EndTabBa@
CONST	SEGMENT
??_C@_0CL@PFJDIEBE@Recovered?5from?5missing?5EndTabBa@ DB 'Recovered from'
	DB	' missing EndTabBar() in ''%s''', 00H	; `string'
CONST	ENDS
;	COMDAT ??_C@_0CK@MCEMIAFO@Recovered?5from?5missing?5EndTable@
CONST	SEGMENT
??_C@_0CK@MCEMIAFO@Recovered?5from?5missing?5EndTable@ DB 'Recovered from'
	DB	' missing EndTable() in ''%s''', 00H		; `string'
CONST	ENDS
;	COMDAT ??_C@_0CG@PCFKFCHL@Recovered?5from?5missing?5End?$CI?$CJ?5fo@
CONST	SEGMENT
??_C@_0CG@PCFKFCHL@Recovered?5from?5missing?5End?$CI?$CJ?5fo@ DB 'Recover'
	DB	'ed from missing End() for ''%s''', 00H	; `string'
CONST	ENDS
;	COMDAT ??_C@_0CL@PKEBJEJO@Recovered?5from?5missing?5EndChild@
CONST	SEGMENT
??_C@_0CL@PKEBJEJO@Recovered?5from?5missing?5EndChild@ DB 'Recovered from'
	DB	' missing EndChild() for ''%s''', 00H	; `string'
CONST	ENDS
;	COMDAT ??_C@_09PGGNMDFB@Remaining@
CONST	SEGMENT
??_C@_09PGGNMDFB@Remaining@ DB 'Remaining', 00H		; `string'
CONST	ENDS
;	COMDAT ??_C@_09BIONLCBB@Processed@
CONST	SEGMENT
??_C@_09BIONLCBB@Processed@ DB 'Processed', 00H		; `string'
CONST	ENDS
;	COMDAT ??_C@_0BI@JDDIGJON@?$FLio?$FN?5?$CFs?3?5AppFocused?5?$CFd?6@
CONST	SEGMENT
??_C@_0BI@JDDIGJON@?$FLio?$FN?5?$CFs?3?5AppFocused?5?$CFd?6@ DB '[io] %s:'
	DB	' AppFocused %d', 0aH, 00H			; `string'
CONST	ENDS
;	COMDAT ??_C@_0BM@HGMGDMMC@?$FLio?$FN?5?$CFs?3?5Text?3?5?$CFc?5?$CIU?$CL?$CF08X?$CJ?6@
CONST	SEGMENT
??_C@_0BM@HGMGDMMC@?$FLio?$FN?5?$CFs?3?5Text?3?5?$CFc?5?$CIU?$CL?$CF08X?$CJ?6@ DB '['
	DB	'io] %s: Text: %c (U+%08X)', 0aH, 00H	; `string'
CONST	ENDS
;	COMDAT ??_C@_0BG@BAABPACK@?$FLio?$FN?5?$CFs?3?5Key?5?$CC?$CFs?$CC?5?$CFs?6@
CONST	SEGMENT
??_C@_0BG@BAABPACK@?$FLio?$FN?5?$CFs?3?5Key?5?$CC?$CFs?$CC?5?$CFs?6@ DB '['
	DB	'io] %s: Key "%s" %s', 0aH, 00H		; `string'
CONST	ENDS
;	COMDAT ??_C@_0CB@GODGHBAH@?$FLio?$FN?5?$CFs?3?5MouseViewport?5?$CI0x?$CF08X?$CJ@
CONST	SEGMENT
??_C@_0CB@GODGHBAH@?$FLio?$FN?5?$CFs?3?5MouseViewport?5?$CI0x?$CF08X?$CJ@ DB '['
	DB	'io] %s: MouseViewport (0x%08X)', 0aH, 00H	; `string'
CONST	ENDS
;	COMDAT ??_C@_0CH@OGJIDLOF@?$FLio?$FN?5?$CFs?3?5MouseWheel?5?$CI?$CF?43f?0?5?$CF?43f@
CONST	SEGMENT
??_C@_0CH@OGJIDLOF@?$FLio?$FN?5?$CFs?3?5MouseWheel?5?$CI?$CF?43f?0?5?$CF?43f@ DB '['
	DB	'io] %s: MouseWheel (%.3f, %.3f) (%s)', 0aH, 00H ; `string'
CONST	ENDS
;	COMDAT ??_C@_0CB@MABBEIGA@?$FLio?$FN?5?$CFs?3?5MouseButton?5?$CFd?5?$CFs?5?$CI?$CFs?$CJ@
CONST	SEGMENT
??_C@_0CB@MABBEIGA@?$FLio?$FN?5?$CFs?3?5MouseButton?5?$CFd?5?$CFs?5?$CI?$CFs?$CJ@ DB '['
	DB	'io] %s: MouseButton %d %s (%s)', 0aH, 00H	; `string'
CONST	ENDS
;	COMDAT ??_C@_02EFPGLDEA@Up@
CONST	SEGMENT
??_C@_02EFPGLDEA@Up@ DB 'Up', 00H			; `string'
CONST	ENDS
;	COMDAT ??_C@_04FNCLCJMC@Down@
CONST	SEGMENT
??_C@_04FNCLCJMC@Down@ DB 'Down', 00H			; `string'
CONST	ENDS
;	COMDAT ??_C@_0CF@BKHCFEMJ@?$FLio?$FN?5?$CFs?3?5MousePos?5?$CI?$CF?41f?0?5?$CF?41f?$CJ?5@
CONST	SEGMENT
??_C@_0CF@BKHCFEMJ@?$FLio?$FN?5?$CFs?3?5MousePos?5?$CI?$CF?41f?0?5?$CF?41f?$CJ?5@ DB '['
	DB	'io] %s: MousePos (%.1f, %.1f) (%s)', 0aH, 00H ; `string'
CONST	ENDS
;	COMDAT ??_C@_0CI@NLCAGBEH@?$FLio?$FN?5?$CFs?3?5MousePos?5?$CI?9FLT_MAX?0?5?9F@
CONST	SEGMENT
??_C@_0CI@NLCAGBEH@?$FLio?$FN?5?$CFs?3?5MousePos?5?$CI?9FLT_MAX?0?5?9F@ DB '['
	DB	'io] %s: MousePos (-FLT_MAX, -FLT_MAX)', 0aH, 00H ; `string'
CONST	ENDS
;	COMDAT ??_C@_03KANEGAKD@Pen@
CONST	SEGMENT
??_C@_03KANEGAKD@Pen@ DB 'Pen', 00H			; `string'
CONST	ENDS
;	COMDAT ??_C@_0M@KICOAHAM@TouchScreen@
CONST	SEGMENT
??_C@_0M@KICOAHAM@TouchScreen@ DB 'TouchScreen', 00H	; `string'
CONST	ENDS
;	COMDAT ??_C@_07FCEHOHKC@Gamepad@
CONST	SEGMENT
??_C@_07FCEHOHKC@Gamepad@ DB 'Gamepad', 00H		; `string'
CONST	ENDS
;	COMDAT ??_C@_08CPOKIBJK@Keyboard@
CONST	SEGMENT
??_C@_08CPOKIBJK@Keyboard@ DB 'Keyboard', 00H		; `string'
CONST	ENDS
;	COMDAT ??_C@_05PEEFLODH@Mouse@
CONST	SEGMENT
??_C@_05PEEFLODH@Mouse@ DB 'Mouse', 00H			; `string'
CONST	ENDS
;	COMDAT ??_C@_0CA@IDIONDFE@?$FLio?$FN?5LockWheelingWindow?$CI?$CJ?5?$CC?$CFs?$CC?6@
CONST	SEGMENT
??_C@_0CA@IDIONDFE@?$FLio?$FN?5LockWheelingWindow?$CI?$CJ?5?$CC?$CFs?$CC?6@ DB '['
	DB	'io] LockWheelingWindow() "%s"', 0aH, 00H	; `string'
CONST	ENDS
;	COMDAT ??_C@_04HIBGFPH@NULL@
CONST	SEGMENT
??_C@_04HIBGFPH@NULL@ DB 'NULL', 00H			; `string'
CONST	ENDS
;	COMDAT ??_C@_0BM@NCIGIPBK@?9?9?$DO?5granting?5current?5route?6@
CONST	SEGMENT
??_C@_0BM@NCIGIPBK@?9?9?$DO?5granting?5current?5route?6@ DB '--> granting'
	DB	' current route', 0aH, 00H			; `string'
CONST	ENDS
;	COMDAT ??_C@_0EB@CKACFPBK@SetShortcutRouting?$CI?$CFs?0?5owner_id@
CONST	SEGMENT
??_C@_0EB@CKACFPBK@SetShortcutRouting?$CI?$CFs?0?5owner_id@ DB 'SetShortc'
	DB	'utRouting(%s, owner_id=0x%08X, flags=%04X) -> score %d', 0aH, 00H ; `string'
CONST	ENDS
;	COMDAT ??_C@_0FJ@LLHNOCAH@SetShortcutRouting?$CI?$CFs?0?5owner_id@
CONST	SEGMENT
??_C@_0FJ@LLHNOCAH@SetShortcutRouting?$CI?$CFs?0?5owner_id@ DB 'SetShortc'
	DB	'utRouting(%s, owner_id=0x%08X, flags=%04X) -> filtered as pot'
	DB	'ential char input', 0aH, 00H		; `string'
CONST	ENDS
;	COMDAT ??_C@_0DP@IFIPNOOG@SetShortcutRouting?$CI?$CFs?0?5owner_id@
CONST	SEGMENT
??_C@_0DP@IFIPNOOG@SetShortcutRouting?$CI?$CFs?0?5owner_id@ DB 'SetShortc'
	DB	'utRouting(%s, owner_id=0x%08X, flags=%04X) -> always', 0aH, 00H ; `string'
CONST	ENDS
;	COMDAT ??_C@_0L@MOHIGKOO@?$CFs?$CFs?$CFs?$CFs?$CFs@
CONST	SEGMENT
??_C@_0L@MOHIGKOO@?$CFs?$CFs?$CFs?$CFs?$CFs@ DB '%s%s%s%s%s', 00H ; `string'
CONST	ENDS
;	COMDAT ??_C@_05DNCIMHKL@Ctrl?$CL@
CONST	SEGMENT
??_C@_05DNCIMHKL@Ctrl?$CL@ DB 'Ctrl+', 00H		; `string'
CONST	ENDS
;	COMDAT ??_C@_06DLOONOJK@Shift?$CL@
CONST	SEGMENT
??_C@_06DLOONOJK@Shift?$CL@ DB 'Shift+', 00H		; `string'
CONST	ENDS
;	COMDAT ??_C@_04IDGAMEF@Alt?$CL@
CONST	SEGMENT
??_C@_04IDGAMEF@Alt?$CL@ DB 'Alt+', 00H			; `string'
CONST	ENDS
;	COMDAT ??_C@_06PPGOOJHA@Super?$CL@
CONST	SEGMENT
??_C@_06PPGOOJHA@Super?$CL@ DB 'Super+', 00H		; `string'
CONST	ENDS
;	COMDAT ??_C@_04NGGMJLDA@Cmd?$CL@
CONST	SEGMENT
??_C@_04NGGMJLDA@Cmd?$CL@ DB 'Cmd+', 00H		; `string'
CONST	ENDS
;	COMDAT ??_C@_04OHJIHAFH@None@
CONST	SEGMENT
??_C@_04OHJIHAFH@None@ DB 'None', 00H			; `string'
CONST	ENDS
;	COMDAT ??_C@_03HPADHAHE@N?1A@
CONST	SEGMENT
??_C@_03HPADHAHE@N?1A@ DB 'N/A', 00H			; `string'
CONST	ENDS
;	COMDAT ??_C@_08MDBLHCCF@ModSuper@
CONST	SEGMENT
??_C@_08MDBLHCCF@ModSuper@ DB 'ModSuper', 00H		; `string'
CONST	ENDS
;	COMDAT ??_C@_06PLGJOJNE@ModAlt@
CONST	SEGMENT
??_C@_06PLGJOJNE@ModAlt@ DB 'ModAlt', 00H		; `string'
CONST	ENDS
;	COMDAT ??_C@_08CCGGCANM@ModShift@
CONST	SEGMENT
??_C@_08CCGGCANM@ModShift@ DB 'ModShift', 00H		; `string'
CONST	ENDS
;	COMDAT ??_C@_07KDONALCN@ModCtrl@
CONST	SEGMENT
??_C@_07KDONALCN@ModCtrl@ DB 'ModCtrl', 00H		; `string'
CONST	ENDS
;	COMDAT ??_C@_0M@NNMEIDDI@MouseWheelY@
CONST	SEGMENT
??_C@_0M@NNMEIDDI@MouseWheelY@ DB 'MouseWheelY', 00H	; `string'
CONST	ENDS
;	COMDAT ??_C@_0M@MENPLCHJ@MouseWheelX@
CONST	SEGMENT
??_C@_0M@MENPLCHJ@MouseWheelX@ DB 'MouseWheelX', 00H	; `string'
CONST	ENDS
;	COMDAT ??_C@_07DDABOBID@MouseX2@
CONST	SEGMENT
??_C@_07DDABOBID@MouseX2@ DB 'MouseX2', 00H		; `string'
CONST	ENDS
;	COMDAT ??_C@_07BICMLCEA@MouseX1@
CONST	SEGMENT
??_C@_07BICMLCEA@MouseX1@ DB 'MouseX1', 00H		; `string'
CONST	ENDS
;	COMDAT ??_C@_0M@CDBJKEDH@MouseMiddle@
CONST	SEGMENT
??_C@_0M@CDBJKEDH@MouseMiddle@ DB 'MouseMiddle', 00H	; `string'
CONST	ENDS
;	COMDAT ??_C@_0L@JGCPGDLN@MouseRight@
CONST	SEGMENT
??_C@_0L@JGCPGDLN@MouseRight@ DB 'MouseRight', 00H	; `string'
CONST	ENDS
;	COMDAT ??_C@_09DBACHFO@MouseLeft@
CONST	SEGMENT
??_C@_09DBACHFO@MouseLeft@ DB 'MouseLeft', 00H		; `string'
CONST	ENDS
;	COMDAT ??_C@_0BC@MIGJPNIC@GamepadRStickDown@
CONST	SEGMENT
??_C@_0BC@MIGJPNIC@GamepadRStickDown@ DB 'GamepadRStickDown', 00H ; `string'
CONST	ENDS
;	COMDAT ??_C@_0BA@LJMNABFK@GamepadRStickUp@
CONST	SEGMENT
??_C@_0BA@LJMNABFK@GamepadRStickUp@ DB 'GamepadRStickUp', 00H ; `string'
CONST	ENDS
;	COMDAT ??_C@_0BD@EGHGAIAI@GamepadRStickRight@
CONST	SEGMENT
??_C@_0BD@EGHGAIAI@GamepadRStickRight@ DB 'GamepadRStickRight', 00H ; `string'
CONST	ENDS
;	COMDAT ??_C@_0BC@DKGNGFLL@GamepadRStickLeft@
CONST	SEGMENT
??_C@_0BC@DKGNGFLL@GamepadRStickLeft@ DB 'GamepadRStickLeft', 00H ; `string'
CONST	ENDS
;	COMDAT ??_C@_0BC@DEOJBCEP@GamepadLStickDown@
CONST	SEGMENT
??_C@_0BC@DEOJBCEP@GamepadLStickDown@ DB 'GamepadLStickDown', 00H ; `string'
CONST	ENDS
;	COMDAT ??_C@_0BA@NNMPJILJ@GamepadLStickUp@
CONST	SEGMENT
??_C@_0BA@NNMPJILJ@GamepadLStickUp@ DB 'GamepadLStickUp', 00H ; `string'
CONST	ENDS
;	COMDAT ??_C@_0BD@KDFPDGOK@GamepadLStickRight@
CONST	SEGMENT
??_C@_0BD@KDFPDGOK@GamepadLStickRight@ DB 'GamepadLStickRight', 00H ; `string'
CONST	ENDS
;	COMDAT ??_C@_0BC@MGONIKHG@GamepadLStickLeft@
CONST	SEGMENT
??_C@_0BC@MGONIKHG@GamepadLStickLeft@ DB 'GamepadLStickLeft', 00H ; `string'
CONST	ENDS
;	COMDAT ??_C@_09DJAMGEBJ@GamepadR3@
CONST	SEGMENT
??_C@_09DJAMGEBJ@GamepadR3@ DB 'GamepadR3', 00H		; `string'
CONST	ENDS
;	COMDAT ??_C@_09CPLEOKGD@GamepadL3@
CONST	SEGMENT
??_C@_09CPLEOKGD@GamepadL3@ DB 'GamepadL3', 00H		; `string'
CONST	ENDS
;	COMDAT ??_C@_09CABHFFFI@GamepadR2@
CONST	SEGMENT
??_C@_09CABHFFFI@GamepadR2@ DB 'GamepadR2', 00H		; `string'
CONST	ENDS
;	COMDAT ??_C@_09DGKPNLCC@GamepadL2@
CONST	SEGMENT
??_C@_09DGKPNLCC@GamepadL2@ DB 'GamepadL2', 00H		; `string'
CONST	ENDS
;	COMDAT ??_C@_09LDKAGJL@GamepadR1@
CONST	SEGMENT
??_C@_09LDKAGJL@GamepadR1@ DB 'GamepadR1', 00H		; `string'
CONST	ENDS
;	COMDAT ??_C@_09BNICIIOB@GamepadL1@
CONST	SEGMENT
??_C@_09BNICIIOB@GamepadL1@ DB 'GamepadL1', 00H		; `string'
CONST	ENDS
;	COMDAT ??_C@_0BA@ILJNDGLB@GamepadDpadDown@
CONST	SEGMENT
??_C@_0BA@ILJNDGLB@GamepadDpadDown@ DB 'GamepadDpadDown', 00H ; `string'
CONST	ENDS
;	COMDAT ??_C@_0O@EJODMGNP@GamepadDpadUp@
CONST	SEGMENT
??_C@_0O@EJODMGNP@GamepadDpadUp@ DB 'GamepadDpadUp', 00H ; `string'
CONST	ENDS
;	COMDAT ??_C@_0BB@PJOFJNNF@GamepadDpadRight@
CONST	SEGMENT
??_C@_0BB@PJOFJNNF@GamepadDpadRight@ DB 'GamepadDpadRight', 00H ; `string'
CONST	ENDS
;	COMDAT ??_C@_0BA@HJJJKOII@GamepadDpadLeft@
CONST	SEGMENT
??_C@_0BA@HJJJKOII@GamepadDpadLeft@ DB 'GamepadDpadLeft', 00H ; `string'
CONST	ENDS
;	COMDAT ??_C@_0BA@EJLJONAO@GamepadFaceDown@
CONST	SEGMENT
??_C@_0BA@EJLJONAO@GamepadFaceDown@ DB 'GamepadFaceDown', 00H ; `string'
CONST	ENDS
;	COMDAT ??_C@_0O@NEIKDCMN@GamepadFaceUp@
CONST	SEGMENT
??_C@_0O@NEIKDCMN@GamepadFaceUp@ DB 'GamepadFaceUp', 00H ; `string'
CONST	ENDS
;	COMDAT ??_C@_0BB@KCPJBHBD@GamepadFaceRight@
CONST	SEGMENT
??_C@_0BB@KCPJBHBD@GamepadFaceRight@ DB 'GamepadFaceRight', 00H ; `string'
CONST	ENDS
;	COMDAT ??_C@_0BA@LLLNHFDH@GamepadFaceLeft@
CONST	SEGMENT
??_C@_0BA@LLLNHFDH@GamepadFaceLeft@ DB 'GamepadFaceLeft', 00H ; `string'
CONST	ENDS
;	COMDAT ??_C@_0M@BMKDKCOL@GamepadBack@
CONST	SEGMENT
??_C@_0M@BMKDKCOL@GamepadBack@ DB 'GamepadBack', 00H	; `string'
CONST	ENDS
;	COMDAT ??_C@_0N@KFODLNBI@GamepadStart@
CONST	SEGMENT
??_C@_0N@KFODLNBI@GamepadStart@ DB 'GamepadStart', 00H	; `string'
CONST	ENDS
;	COMDAT ??_C@_0L@MPDOCLPJ@AppForward@
CONST	SEGMENT
??_C@_0L@MPDOCLPJ@AppForward@ DB 'AppForward', 00H	; `string'
CONST	ENDS
;	COMDAT ??_C@_07PFJBGDFF@AppBack@
CONST	SEGMENT
??_C@_07PFJBGDFF@AppBack@ DB 'AppBack', 00H		; `string'
CONST	ENDS
;	COMDAT ??_C@_0M@DKIEDCPC@KeypadEqual@
CONST	SEGMENT
??_C@_0M@DKIEDCPC@KeypadEqual@ DB 'KeypadEqual', 00H	; `string'
CONST	ENDS
;	COMDAT ??_C@_0M@LDMAMCMH@KeypadEnter@
CONST	SEGMENT
??_C@_0M@LDMAMCMH@KeypadEnter@ DB 'KeypadEnter', 00H	; `string'
CONST	ENDS
;	COMDAT ??_C@_09PBFBAKNA@KeypadAdd@
CONST	SEGMENT
??_C@_09PBFBAKNA@KeypadAdd@ DB 'KeypadAdd', 00H		; `string'
CONST	ENDS
;	COMDAT ??_C@_0P@EGJPMAKL@KeypadSubtract@
CONST	SEGMENT
??_C@_0P@EGJPMAKL@KeypadSubtract@ DB 'KeypadSubtract', 00H ; `string'
CONST	ENDS
;	COMDAT ??_C@_0P@DDMFINAM@KeypadMultiply@
CONST	SEGMENT
??_C@_0P@DDMFINAM@KeypadMultiply@ DB 'KeypadMultiply', 00H ; `string'
CONST	ENDS
;	COMDAT ??_C@_0N@IOPGAACF@KeypadDivide@
CONST	SEGMENT
??_C@_0N@IOPGAACF@KeypadDivide@ DB 'KeypadDivide', 00H	; `string'
CONST	ENDS
;	COMDAT ??_C@_0O@GMHIBIOG@KeypadDecimal@
CONST	SEGMENT
??_C@_0O@GMHIBIOG@KeypadDecimal@ DB 'KeypadDecimal', 00H ; `string'
CONST	ENDS
;	COMDAT ??_C@_07CAJLFPIJ@Keypad9@
CONST	SEGMENT
??_C@_07CAJLFPIJ@Keypad9@ DB 'Keypad9', 00H		; `string'
CONST	ENDS
;	COMDAT ??_C@_07DJIAGOMI@Keypad8@
CONST	SEGMENT
??_C@_07DJIAGOMI@Keypad8@ DB 'Keypad8', 00H		; `string'
CONST	ENDS
;	COMDAT ??_C@_07LOBIHCAH@Keypad7@
CONST	SEGMENT
??_C@_07LOBIHCAH@Keypad7@ DB 'Keypad7', 00H		; `string'
CONST	ENDS
;	COMDAT ??_C@_07KHADEDEG@Keypad6@
CONST	SEGMENT
??_C@_07KHADEDEG@Keypad6@ DB 'Keypad6', 00H		; `string'
CONST	ENDS
;	COMDAT ??_C@_07IMCOBAIF@Keypad5@
CONST	SEGMENT
??_C@_07IMCOBAIF@Keypad5@ DB 'Keypad5', 00H		; `string'
CONST	ENDS
;	COMDAT ??_C@_07JFDFCBME@Keypad4@
CONST	SEGMENT
??_C@_07JFDFCBME@Keypad4@ DB 'Keypad4', 00H		; `string'
CONST	ENDS
;	COMDAT ??_C@_07NKHELHAD@Keypad3@
CONST	SEGMENT
??_C@_07NKHELHAD@Keypad3@ DB 'Keypad3', 00H		; `string'
CONST	ENDS
;	COMDAT ??_C@_07MDGPIGEC@Keypad2@
CONST	SEGMENT
??_C@_07MDGPIGEC@Keypad2@ DB 'Keypad2', 00H		; `string'
CONST	ENDS
;	COMDAT ??_C@_07OIECNFIB@Keypad1@
CONST	SEGMENT
??_C@_07OIECNFIB@Keypad1@ DB 'Keypad1', 00H		; `string'
CONST	ENDS
;	COMDAT ??_C@_07PBFJOEMA@Keypad0@
CONST	SEGMENT
??_C@_07PBFJOEMA@Keypad0@ DB 'Keypad0', 00H		; `string'
CONST	ENDS
;	COMDAT ??_C@_05PEDNBBBD@Pause@
CONST	SEGMENT
??_C@_05PEDNBBBD@Pause@ DB 'Pause', 00H			; `string'
CONST	ENDS
;	COMDAT ??_C@_0M@CJIDBHOK@PrintScreen@
CONST	SEGMENT
??_C@_0M@CJIDBHOK@PrintScreen@ DB 'PrintScreen', 00H	; `string'
CONST	ENDS
;	COMDAT ??_C@_07JOCOIGEJ@NumLock@
CONST	SEGMENT
??_C@_07JOCOIGEJ@NumLock@ DB 'NumLock', 00H		; `string'
CONST	ENDS
;	COMDAT ??_C@_0L@JJJEGPLJ@ScrollLock@
CONST	SEGMENT
??_C@_0L@JJJEGPLJ@ScrollLock@ DB 'ScrollLock', 00H	; `string'
CONST	ENDS
;	COMDAT ??_C@_08LBKIEOPK@CapsLock@
CONST	SEGMENT
??_C@_08LBKIEOPK@CapsLock@ DB 'CapsLock', 00H		; `string'
CONST	ENDS
;	COMDAT ??_C@_0M@PEGEKEFO@GraveAccent@
CONST	SEGMENT
??_C@_0M@PEGEKEFO@GraveAccent@ DB 'GraveAccent', 00H	; `string'
CONST	ENDS
;	COMDAT ??_C@_0N@NOCLCIPD@RightBracket@
CONST	SEGMENT
??_C@_0N@NOCLCIPD@RightBracket@ DB 'RightBracket', 00H	; `string'
CONST	ENDS
;	COMDAT ??_C@_09LDIKCIFH@Backslash@
CONST	SEGMENT
??_C@_09LDIKCIFH@Backslash@ DB 'Backslash', 00H		; `string'
CONST	ENDS
;	COMDAT ??_C@_0M@FGLAPLO@LeftBracket@
CONST	SEGMENT
??_C@_0M@FGLAPLO@LeftBracket@ DB 'LeftBracket', 00H	; `string'
CONST	ENDS
;	COMDAT ??_C@_05JKGNJOO@Equal@
CONST	SEGMENT
??_C@_05JKGNJOO@Equal@ DB 'Equal', 00H			; `string'
CONST	ENDS
;	COMDAT ??_C@_09FBGFMNJC@Semicolon@
CONST	SEGMENT
??_C@_09FBGFMNJC@Semicolon@ DB 'Semicolon', 00H		; `string'
CONST	ENDS
;	COMDAT ??_C@_05OAOMBJIJ@Slash@
CONST	SEGMENT
??_C@_05OAOMBJIJ@Slash@ DB 'Slash', 00H			; `string'
CONST	ENDS
;	COMDAT ??_C@_06JOFJHOEH@Period@
CONST	SEGMENT
??_C@_06JOFJHOEH@Period@ DB 'Period', 00H		; `string'
CONST	ENDS
;	COMDAT ??_C@_05OEAIFCGM@Minus@
CONST	SEGMENT
??_C@_05OEAIFCGM@Minus@ DB 'Minus', 00H			; `string'
CONST	ENDS
;	COMDAT ??_C@_05CJDGOLEJ@Comma@
CONST	SEGMENT
??_C@_05CJDGOLEJ@Comma@ DB 'Comma', 00H			; `string'
CONST	ENDS
;	COMDAT ??_C@_0L@KECMMICK@Apostrophe@
CONST	SEGMENT
??_C@_0L@KECMMICK@Apostrophe@ DB 'Apostrophe', 00H	; `string'
CONST	ENDS
;	COMDAT ??_C@_03PMABOFAL@F24@
CONST	SEGMENT
??_C@_03PMABOFAL@F24@ DB 'F24', 00H			; `string'
CONST	ENDS
;	COMDAT ??_C@_03LDEAHDMM@F23@
CONST	SEGMENT
??_C@_03LDEAHDMM@F23@ DB 'F23', 00H			; `string'
CONST	ENDS
;	COMDAT ??_C@_03KKFLECIN@F22@
CONST	SEGMENT
??_C@_03KKFLECIN@F22@ DB 'F22', 00H			; `string'
CONST	ENDS
;	COMDAT ??_C@_03IBHGBBEO@F21@
CONST	SEGMENT
??_C@_03IBHGBBEO@F21@ DB 'F21', 00H			; `string'
CONST	ENDS
;	COMDAT ??_C@_03JIGNCAAP@F20@
CONST	SEGMENT
??_C@_03JIGNCAAP@F20@ DB 'F20', 00H			; `string'
CONST	ENDS
;	COMDAT ??_C@_03ELOJCFBP@F19@
CONST	SEGMENT
??_C@_03ELOJCFBP@F19@ DB 'F19', 00H			; `string'
CONST	ENDS
;	COMDAT ??_C@_03FCPCBEFO@F18@
CONST	SEGMENT
??_C@_03FCPCBEFO@F18@ DB 'F18', 00H			; `string'
CONST	ENDS
;	COMDAT ??_C@_03NFGKAIJB@F17@
CONST	SEGMENT
??_C@_03NFGKAIJB@F17@ DB 'F17', 00H			; `string'
CONST	ENDS
;	COMDAT ??_C@_03MMHBDJNA@F16@
CONST	SEGMENT
??_C@_03MMHBDJNA@F16@ DB 'F16', 00H			; `string'
CONST	ENDS
;	COMDAT ??_C@_03OHFMGKBD@F15@
CONST	SEGMENT
??_C@_03OHFMGKBD@F15@ DB 'F15', 00H			; `string'
CONST	ENDS
;	COMDAT ??_C@_03POEHFLFC@F14@
CONST	SEGMENT
??_C@_03POEHFLFC@F14@ DB 'F14', 00H			; `string'
CONST	ENDS
;	COMDAT ??_C@_03LBAGMNJF@F13@
CONST	SEGMENT
??_C@_03LBAGMNJF@F13@ DB 'F13', 00H			; `string'
CONST	ENDS
;	COMDAT ??_C@_03KIBNPMNE@F12@
CONST	SEGMENT
??_C@_03KIBNPMNE@F12@ DB 'F12', 00H			; `string'
CONST	ENDS
;	COMDAT ??_C@_03IDDAKPBH@F11@
CONST	SEGMENT
??_C@_03IDDAKPBH@F11@ DB 'F11', 00H			; `string'
CONST	ENDS
;	COMDAT ??_C@_03JKCLJOFG@F10@
CONST	SEGMENT
??_C@_03JKCLJOFG@F10@ DB 'F10', 00H			; `string'
CONST	ENDS
;	COMDAT ??_C@_02HKCNFKCF@F9@
CONST	SEGMENT
??_C@_02HKCNFKCF@F9@ DB 'F9', 00H			; `string'
CONST	ENDS
;	COMDAT ??_C@_02GDDGGLGE@F8@
CONST	SEGMENT
??_C@_02GDDGGLGE@F8@ DB 'F8', 00H			; `string'
CONST	ENDS
;	COMDAT ??_C@_02OEKOHHKL@F7@
CONST	SEGMENT
??_C@_02OEKOHHKL@F7@ DB 'F7', 00H			; `string'
CONST	ENDS
;	COMDAT ??_C@_02PNLFEGOK@F6@
CONST	SEGMENT
??_C@_02PNLFEGOK@F6@ DB 'F6', 00H			; `string'
CONST	ENDS
;	COMDAT ??_C@_02NGJIBFCJ@F5@
CONST	SEGMENT
??_C@_02NGJIBFCJ@F5@ DB 'F5', 00H			; `string'
CONST	ENDS
;	COMDAT ??_C@_02MPIDCEGI@F4@
CONST	SEGMENT
??_C@_02MPIDCEGI@F4@ DB 'F4', 00H			; `string'
CONST	ENDS
;	COMDAT ??_C@_02IAMCLCKP@F3@
CONST	SEGMENT
??_C@_02IAMCLCKP@F3@ DB 'F3', 00H			; `string'
CONST	ENDS
;	COMDAT ??_C@_02JJNJIDOO@F2@
CONST	SEGMENT
??_C@_02JJNJIDOO@F2@ DB 'F2', 00H			; `string'
CONST	ENDS
;	COMDAT ??_C@_02LCPENACN@F1@
CONST	SEGMENT
??_C@_02LCPENACN@F1@ DB 'F1', 00H			; `string'
CONST	ENDS
;	COMDAT ??_C@_01POHCFINO@Z@
CONST	SEGMENT
??_C@_01POHCFINO@Z@ DB 'Z', 00H				; `string'
CONST	ENDS
;	COMDAT ??_C@_01NFFPALBN@Y@
CONST	SEGMENT
??_C@_01NFFPALBN@Y@ DB 'Y', 00H				; `string'
CONST	ENDS
;	COMDAT ??_C@_01MMEEDKFM@X@
CONST	SEGMENT
??_C@_01MMEEDKFM@X@ DB 'X', 00H				; `string'
CONST	ENDS
;	COMDAT ??_C@_01ELNMCGJD@W@
CONST	SEGMENT
??_C@_01ELNMCGJD@W@ DB 'W', 00H				; `string'
CONST	ENDS
;	COMDAT ??_C@_01FCMHBHNC@V@
CONST	SEGMENT
??_C@_01FCMHBHNC@V@ DB 'V', 00H				; `string'
CONST	ENDS
;	COMDAT ??_C@_01HJOKEEBB@U@
CONST	SEGMENT
??_C@_01HJOKEEBB@U@ DB 'U', 00H				; `string'
CONST	ENDS
;	COMDAT ??_C@_01GAPBHFFA@T@
CONST	SEGMENT
??_C@_01GAPBHFFA@T@ DB 'T', 00H				; `string'
CONST	ENDS
;	COMDAT ??_C@_01CPLAODJH@S@
CONST	SEGMENT
??_C@_01CPLAODJH@S@ DB 'S', 00H				; `string'
CONST	ENDS
;	COMDAT ??_C@_01DGKLNCNG@R@
CONST	SEGMENT
??_C@_01DGKLNCNG@R@ DB 'R', 00H				; `string'
CONST	ENDS
;	COMDAT ??_C@_01BNIGIBBF@Q@
CONST	SEGMENT
??_C@_01BNIGIBBF@Q@ DB 'Q', 00H				; `string'
CONST	ENDS
;	COMDAT ??_C@_01EJNLAFE@P@
CONST	SEGMENT
??_C@_01EJNLAFE@P@ DB 'P', 00H				; `string'
CONST	ENDS
;	COMDAT ??_C@_01MJMHLOMK@O@
CONST	SEGMENT
??_C@_01MJMHLOMK@O@ DB 'O', 00H				; `string'
CONST	ENDS
;	COMDAT ??_C@_01NANMIPIL@N@
CONST	SEGMENT
??_C@_01NANMIPIL@N@ DB 'N', 00H				; `string'
CONST	ENDS
;	COMDAT ??_C@_01PLPBNMEI@M@
CONST	SEGMENT
??_C@_01PLPBNMEI@M@ DB 'M', 00H				; `string'
CONST	ENDS
;	COMDAT ??_C@_01OCOKONAJ@L@
CONST	SEGMENT
??_C@_01OCOKONAJ@L@ DB 'L', 00H				; `string'
CONST	ENDS
;	COMDAT ??_C@_01KNKLHLMO@K@
CONST	SEGMENT
??_C@_01KNKLHLMO@K@ DB 'K', 00H				; `string'
CONST	ENDS
;	COMDAT ??_C@_01LELAEKIP@J@
CONST	SEGMENT
??_C@_01LELAEKIP@J@ DB 'J', 00H				; `string'
CONST	ENDS
;	COMDAT ??_C@_01JPJNBJEM@I@
CONST	SEGMENT
??_C@_01JPJNBJEM@I@ DB 'I', 00H				; `string'
CONST	ENDS
;	COMDAT ??_C@_01IGIGCIAN@H@
CONST	SEGMENT
??_C@_01IGIGCIAN@H@ DB 'H', 00H				; `string'
CONST	ENDS
;	COMDAT ??_C@_01BBODEMC@G@
CONST	SEGMENT
??_C@_01BBODEMC@G@ DB 'G', 00H				; `string'
CONST	ENDS
;	COMDAT ??_C@_01BIAFAFID@F@
CONST	SEGMENT
??_C@_01BIAFAFID@F@ DB 'F', 00H				; `string'
CONST	ENDS
;	COMDAT ??_C@_01DDCIFGEA@E@
CONST	SEGMENT
??_C@_01DDCIFGEA@E@ DB 'E', 00H				; `string'
CONST	ENDS
;	COMDAT ??_C@_01CKDDGHAB@D@
CONST	SEGMENT
??_C@_01CKDDGHAB@D@ DB 'D', 00H				; `string'
CONST	ENDS
;	COMDAT ??_C@_01GFHCPBMG@C@
CONST	SEGMENT
??_C@_01GFHCPBMG@C@ DB 'C', 00H				; `string'
CONST	ENDS
;	COMDAT ??_C@_01HMGJMAIH@B@
CONST	SEGMENT
??_C@_01HMGJMAIH@B@ DB 'B', 00H				; `string'
CONST	ENDS
;	COMDAT ??_C@_01FHEEJDEE@A@
CONST	SEGMENT
??_C@_01FHEEJDEE@A@ DB 'A', 00H				; `string'
CONST	ENDS
;	COMDAT ??_C@_01LAKCGALK@9@
CONST	SEGMENT
??_C@_01LAKCGALK@9@ DB '9', 00H				; `string'
CONST	ENDS
;	COMDAT ??_C@_01KJLJFBPL@8@
CONST	SEGMENT
??_C@_01KJLJFBPL@8@ DB '8', 00H				; `string'
CONST	ENDS
;	COMDAT ??_C@_01COCBENDE@7@
CONST	SEGMENT
??_C@_01COCBENDE@7@ DB '7', 00H				; `string'
CONST	ENDS
;	COMDAT ??_C@_01DHDKHMHF@6@
CONST	SEGMENT
??_C@_01DHDKHMHF@6@ DB '6', 00H				; `string'
CONST	ENDS
;	COMDAT ??_C@_01BMBHCPLG@5@
CONST	SEGMENT
??_C@_01BMBHCPLG@5@ DB '5', 00H				; `string'
CONST	ENDS
;	COMDAT ??_C@_01FAMBOPH@4@
CONST	SEGMENT
??_C@_01FAMBOPH@4@ DB '4', 00H				; `string'
CONST	ENDS
;	COMDAT ??_C@_01EKENIIDA@3@
CONST	SEGMENT
??_C@_01EKENIIDA@3@ DB '3', 00H				; `string'
CONST	ENDS
;	COMDAT ??_C@_01FDFGLJHB@2@
CONST	SEGMENT
??_C@_01FDFGLJHB@2@ DB '2', 00H				; `string'
CONST	ENDS
;	COMDAT ??_C@_04IFEHPILC@Menu@
CONST	SEGMENT
??_C@_04IFEHPILC@Menu@ DB 'Menu', 00H			; `string'
CONST	ENDS
;	COMDAT ??_C@_0L@DJHBABNC@RightSuper@
CONST	SEGMENT
??_C@_0L@DJHBABNC@RightSuper@ DB 'RightSuper', 00H	; `string'
CONST	ENDS
;	COMDAT ??_C@_08FCEDBIM@RightAlt@
CONST	SEGMENT
??_C@_08FCEDBIM@RightAlt@ DB 'RightAlt', 00H		; `string'
CONST	ENDS
;	COMDAT ??_C@_0L@NIAMFDCL@RightShift@
CONST	SEGMENT
??_C@_0L@NIAMFDCL@RightShift@ DB 'RightShift', 00H	; `string'
CONST	ENDS
;	COMDAT ??_C@_09MGKDJPDD@RightCtrl@
CONST	SEGMENT
??_C@_09MGKDJPDD@RightCtrl@ DB 'RightCtrl', 00H		; `string'
CONST	ENDS
;	COMDAT ??_C@_09DKGEOIN@LeftSuper@
CONST	SEGMENT
??_C@_09DKGEOIN@LeftSuper@ DB 'LeftSuper', 00H		; `string'
CONST	ENDS
;	COMDAT ??_C@_07MGKIIPNA@LeftAlt@
CONST	SEGMENT
??_C@_07MGKIIPNA@LeftAlt@ DB 'LeftAlt', 00H		; `string'
CONST	ENDS
;	COMDAT ??_C@_09OCNLBMHE@LeftShift@
CONST	SEGMENT
??_C@_09OCNLBMHE@LeftShift@ DB 'LeftShift', 00H		; `string'
CONST	ENDS
;	COMDAT ??_C@_08KELNAOFC@LeftCtrl@
CONST	SEGMENT
??_C@_08KELNAOFC@LeftCtrl@ DB 'LeftCtrl', 00H		; `string'
CONST	ENDS
;	COMDAT ??_C@_06OIGFGPHJ@Escape@
CONST	SEGMENT
??_C@_06OIGFGPHJ@Escape@ DB 'Escape', 00H		; `string'
CONST	ENDS
;	COMDAT ??_C@_05IAOCCJNL@Enter@
CONST	SEGMENT
??_C@_05IAOCCJNL@Enter@ DB 'Enter', 00H			; `string'
CONST	ENDS
;	COMDAT ??_C@_05OMHELODH@Space@
CONST	SEGMENT
??_C@_05OMHELODH@Space@ DB 'Space', 00H			; `string'
CONST	ENDS
;	COMDAT ??_C@_09LPBCIPOJ@Backspace@
CONST	SEGMENT
??_C@_09LPBCIPOJ@Backspace@ DB 'Backspace', 00H		; `string'
CONST	ENDS
;	COMDAT ??_C@_06JBKGCNBB@Delete@
CONST	SEGMENT
??_C@_06JBKGCNBB@Delete@ DB 'Delete', 00H		; `string'
CONST	ENDS
;	COMDAT ??_C@_06CPFCODOD@Insert@
CONST	SEGMENT
??_C@_06CPFCODOD@Insert@ DB 'Insert', 00H		; `string'
CONST	ENDS
;	COMDAT ??_C@_03DBKJMAGF@End@
CONST	SEGMENT
??_C@_03DBKJMAGF@End@ DB 'End', 00H			; `string'
CONST	ENDS
;	COMDAT ??_C@_04GKJODLKO@Home@
CONST	SEGMENT
??_C@_04GKJODLKO@Home@ DB 'Home', 00H			; `string'
CONST	ENDS
;	COMDAT ??_C@_08FDLMHKA@PageDown@
CONST	SEGMENT
??_C@_08FDLMHKA@PageDown@ DB 'PageDown', 00H		; `string'
CONST	ENDS
;	COMDAT ??_C@_06OAEMCMAI@PageUp@
CONST	SEGMENT
??_C@_06OAEMCMAI@PageUp@ DB 'PageUp', 00H		; `string'
CONST	ENDS
;	COMDAT ??_C@_09NADHLAEK@DownArrow@
CONST	SEGMENT
??_C@_09NADHLAEK@DownArrow@ DB 'DownArrow', 00H		; `string'
CONST	ENDS
;	COMDAT ??_C@_07MOKGGMEC@UpArrow@
CONST	SEGMENT
??_C@_07MOKGGMEC@UpArrow@ DB 'UpArrow', 00H		; `string'
CONST	ENDS
;	COMDAT ??_C@_0L@BPKGMHEK@RightArrow@
CONST	SEGMENT
??_C@_0L@BPKGMHEK@RightArrow@ DB 'RightArrow', 00H	; `string'
CONST	ENDS
;	COMDAT ??_C@_09CFHBIIBF@LeftArrow@
CONST	SEGMENT
??_C@_09CFHBIIBF@LeftArrow@ DB 'LeftArrow', 00H		; `string'
CONST	ENDS
;	COMDAT ??_C@_0DG@HEGBDNMN@SetKeyboardFocusHere?$CI?$CJ?5ignored?5@
CONST	SEGMENT
??_C@_0DG@HEGBDNMN@SetKeyboardFocusHere?$CI?$CJ?5ignored?5@ DB 'SetKeyboa'
	DB	'rdFocusHere() ignored while DragDropActive!', 0aH, 00H ; `string'
CONST	ENDS
;	COMDAT ??_C@_0CJ@HBEFDIPK@SetKeyboardFocusHere?$CI?$CFd?$CJ?5in?5win@
CONST	SEGMENT
??_C@_0CJ@HBEFDIPK@SetKeyboardFocusHere?$CI?$CFd?$CJ?5in?5win@ DB 'SetKey'
	DB	'boardFocusHere(%d) in window "%s"', 0aH, 00H ; `string'
CONST	ENDS
;	COMDAT ??_C@_0CL@CDPKAPGK@FocusItem?$CI?$CJ?5ignored?5while?5DragD@
CONST	SEGMENT
??_C@_0CL@CDPKAPGK@FocusItem?$CI?$CJ?5ignored?5while?5DragD@ DB 'FocusIte'
	DB	'm() ignored while DragDropActive!', 0aH, 00H ; `string'
CONST	ENDS
;	COMDAT ??_C@_0CC@KHLKAMBL@FocusItem?$CI0x?$CF08x?$CJ?5in?5window?5?$CC?$CFs@
CONST	SEGMENT
??_C@_0CC@KHLKAMBL@FocusItem?$CI0x?$CF08x?$CJ?5in?5window?5?$CC?$CFs@ DB 'F'
	DB	'ocusItem(0x%08x) in window "%s"', 0aH, 00H	; `string'
CONST	ENDS
;	COMDAT ??_C@_0EB@KDILIEDM@?$FLfocus?$FN?5FocusWindow?$CI?$CC?$CFs?$CC?0?5Unles@
CONST	SEGMENT
??_C@_0EB@KDILIEDM@?$FLfocus?$FN?5FocusWindow?$CI?$CC?$CFs?$CC?0?5Unles@ DB '['
	DB	'focus] FocusWindow("%s", UnlessBelowModal): prevented by "%s"'
	DB	'.', 0aH, 00H				; `string'
CONST	ENDS
;	COMDAT ??_C@_06CBHGEMFM@?$DMNULL?$DO@
CONST	SEGMENT
??_C@_06CBHGEMFM@?$DMNULL?$DO@ DB '<NULL>', 00H		; `string'
CONST	ENDS
;	COMDAT ??_C@_0DH@KJPDDGDH@?$FLviewport?$FN?5Window?5?8?$CFs?8?5closed?5b@
CONST	SEGMENT
??_C@_0DH@KJPDDGDH@?$FLviewport?$FN?5Window?5?8?$CFs?8?5closed?5b@ DB '[v'
	DB	'iewport] Window ''%s'' closed by PlatformRequestClose', 0aH, 00H ; `string'
CONST	ENDS
;	COMDAT ??_C@_06KIIKKNMI@?$CDCLOSE@
CONST	SEGMENT
??_C@_06KIIKKNMI@?$CDCLOSE@ DB '#CLOSE', 00H		; `string'
CONST	ENDS
;	COMDAT ??_C@_07NNJJHCEM@?$CDUNHIDE@
CONST	SEGMENT
??_C@_07NNJJHCEM@?$CDUNHIDE@ DB '#UNHIDE', 00H		; `string'
CONST	ENDS
;	COMDAT ??_C@_09CHGPIMJN@_IMWINDOW@
CONST	SEGMENT
??_C@_09CHGPIMJN@_IMWINDOW@ DB '_IMWINDOW', 00H		; `string'
CONST	ENDS
;	COMDAT ??_C@_07HDHBJEOI@?$CDRESIZE@
CONST	SEGMENT
??_C@_07HDHBJEOI@?$CDRESIZE@ DB '#RESIZE', 00H		; `string'
CONST	ENDS
;	COMDAT ??_C@_07DFINAGAC@?$CD?$CDChild@
CONST	SEGMENT
??_C@_07DFINAGAC@?$CD?$CDChild@ DB '##Child', 00H	; `string'
CONST	ENDS
;	COMDAT ??_C@_07KBCBAKFA@?$CFs?1?$CF08X@
CONST	SEGMENT
??_C@_07KBCBAKFA@?$CFs?1?$CF08X@ DB '%s/%08X', 00H	; `string'
CONST	ENDS
;	COMDAT ??_C@_0L@BDFLDJGI@?$CFs?1?$CFs_?$CF08X@
CONST	SEGMENT
??_C@_0L@BDFLDJGI@?$CFs?1?$CFs_?$CF08X@ DB '%s/%s_%08X', 00H ; `string'
CONST	ENDS
;	COMDAT ??_C@_03KHICJKCI@?4?4?4@
CONST	SEGMENT
??_C@_03KHICJKCI@?4?4?4@ DB '...', 00H			; `string'
CONST	ENDS
;	COMDAT ??_C@_0EP@CMIOMJGE@?$FLio?$FN?5Calling?5io?4SetPlatformImeD@
CONST	SEGMENT
??_C@_0EP@CMIOMJGE@?$FLio?$FN?5Calling?5io?4SetPlatformImeD@ DB '[io] Cal'
	DB	'ling io.SetPlatformImeDataFn(): WantVisible: %d, InputPos (%.'
	DB	'2f,%.2f)', 0aH, 00H				; `string'
CONST	ENDS
;	COMDAT ??_C@_0P@IMLDNMEK@Debug?$CD?$CDDefault@
CONST	SEGMENT
??_C@_0P@IMLDNMEK@Debug?$CD?$CDDefault@ DB 'Debug##Default', 00H ; `string'
CONST	ENDS
;	COMDAT ??_C@_0ED@GDNFFPHD@?$CIDebug?5Log?3?5Auto?9disabled?5some?5@
CONST	SEGMENT
??_C@_0ED@GDNFFPHD@?$CIDebug?5Log?3?5Auto?9disabled?5some?5@ DB '(Debug L'
	DB	'og: Auto-disabled some ImGuiDebugLogFlags after 2 frames)', 0aH
	DB	00H						; `string'
CONST	ENDS
;	COMDAT ??_C@_0EE@CAHEIKBO@NewFrame?$CI?$CJ?3?5ClearActiveID?$CI?$CJ?5bec@
CONST	SEGMENT
??_C@_0EE@CAHEIKBO@NewFrame?$CI?$CJ?3?5ClearActiveID?$CI?$CJ?5bec@ DB 'Ne'
	DB	'wFrame(): ClearActiveID() because it isn''t marked alive anym'
	DB	'ore!', 0aH, 00H				; `string'
CONST	ENDS
;	COMDAT ??_C@_0N@MFHPHIIJ@?$CD?$CDForeground@
CONST	SEGMENT
??_C@_0N@MFHPHIIJ@?$CD?$CDForeground@ DB '##Foreground', 00H ; `string'
CONST	ENDS
;	COMDAT ??_C@_0N@MFFOHPLI@?$CD?$CDBackground@
CONST	SEGMENT
??_C@_0N@MFFOHPLI@?$CD?$CDBackground@ DB '##Background', 00H ; `string'
CONST	ENDS
;	COMDAT ??_C@_0EE@BGNDHHFI@SetActiveID?$CI?$CJ?5old?30x?$CF08X?5?$CIwindo@
CONST	SEGMENT
??_C@_0EE@BGNDHHFI@SetActiveID?$CI?$CJ?5old?30x?$CF08X?5?$CIwindo@ DB 'Se'
	DB	'tActiveID() old:0x%08X (window "%s") -> new:0x%08X (window "%'
	DB	's")', 0aH, 00H				; `string'
CONST	ENDS
;	COMDAT ??_C@_0CD@PNHNJJBD@SetActiveID?$CI?$CJ?5cancel?5MovingWind@
CONST	SEGMENT
??_C@_0CD@PNHNJJBD@SetActiveID?$CI?$CJ?5cancel?5MovingWind@ DB 'SetActive'
	DB	'ID() cancel MovingWindow', 0aH, 00H		; `string'
CONST	ENDS
;	COMDAT ??_C@_04EIMEAPLD@?$CDTAB@
CONST	SEGMENT
??_C@_04EIMEAPLD@?$CDTAB@ DB '#TAB', 00H		; `string'
CONST	ENDS
;	COMDAT ??_C@_05EJCOBEBF@?$CDMOVE@
CONST	SEGMENT
??_C@_05EJCOBEBF@?$CDMOVE@ DB '#MOVE', 00H		; `string'
CONST	ENDS
;	COMDAT ??_C@_0CN@IECNIBAI@Click?5and?5drag?5to?5move?5or?5undoc@
CONST	SEGMENT
??_C@_0CN@IECNIBAI@Click?5and?5drag?5to?5move?5or?5undoc@ DB 'Click and d'
	DB	'rag to move or undock whole node.', 00H	; `string'
CONST	ENDS
;	COMDAT ??_C@_0CF@PINFAJBF@Hold?5SHIFT?5to?5enable?5Docking?5wi@
CONST	SEGMENT
??_C@_0CF@PINFAJBF@Hold?5SHIFT?5to?5enable?5Docking?5wi@ DB 'Hold SHIFT t'
	DB	'o enable Docking window.', 00H		; `string'
CONST	ENDS
;	COMDAT ??_C@_0BK@NANBGPLM@Hide?5tab?5bar?$CD?$CD?$CDHideTabBar@
CONST	SEGMENT
??_C@_0BK@NANBGPLM@Hide?5tab?5bar?$CD?$CD?$CDHideTabBar@ DB 'Hide tab bar'
	DB	'###HideTabBar', 00H				; `string'
CONST	ENDS
;	COMDAT ??_C@_0L@JOJOIPFK@?$CIUntitled?$CJ@
CONST	SEGMENT
??_C@_0L@JOJOIPFK@?$CIUntitled?$CJ@ DB '(Untitled)', 00H ; `string'
CONST	ENDS
;	COMDAT ??_C@_07NPLNEKJH@?$CIPopup?$CJ@
CONST	SEGMENT
??_C@_07NPLNEKJH@?$CIPopup?$CJ@ DB '(Popup)', 00H	; `string'
CONST	ENDS
;	COMDAT ??_C@_0BA@KDPNEDEH@?$CIMain?5menu?5bar?$CJ@
CONST	SEGMENT
??_C@_0BA@KDPNEDEH@?$CIMain?5menu?5bar?$CJ@ DB '(Main menu bar)', 00H ; `string'
CONST	ENDS
;	COMDAT ??_C@_0BJ@BBKAOKNK@Reset?5order?$CD?$CD?$CDResetOrder@
CONST	SEGMENT
??_C@_0BJ@BBKAOKNK@Reset?5order?$CD?$CD?$CDResetOrder@ DB 'Reset order###'
	DB	'ResetOrder', 00H				; `string'
CONST	ENDS
;	COMDAT ??_C@_0CG@CFICKNDA@Size?5all?5columns?5to?5default?$CD?$CD?$CDS@
CONST	SEGMENT
??_C@_0CG@CFICKNDA@Size?5all?5columns?5to?5default?$CD?$CD?$CDS@ DB 'Size'
	DB	' all columns to default###SizeAll', 00H	; `string'
CONST	ENDS
;	COMDAT ??_C@_0CC@MJIBPDCL@Size?5all?5columns?5to?5fit?$CD?$CD?$CDSizeA@
CONST	SEGMENT
??_C@_0CC@MJIBPDCL@Size?5all?5columns?5to?5fit?$CD?$CD?$CDSizeA@ DB 'Size'
	DB	' all columns to fit###SizeAll', 00H		; `string'
CONST	ENDS
;	COMDAT ??_C@_0BN@CNPDCOK@Size?5column?5to?5fit?$CD?$CD?$CDSizeOne@
CONST	SEGMENT
??_C@_0BN@CNPDCOK@Size?5column?5to?5fit?$CD?$CD?$CDSizeOne@ DB 'Size colu'
	DB	'mn to fit###SizeOne', 00H			; `string'
CONST	ENDS
;	COMDAT ??_C@_0BK@BHOLKFKP@Dear?5ImGui?51?490?45?5?$CI19050?$CJ@
CONST	SEGMENT
??_C@_0BK@BHOLKFKP@Dear?5ImGui?51?490?45?5?$CI19050?$CJ@ DB 'Dear ImGui 1'
	DB	'.90.5 (19050)', 00H				; `string'
CONST	ENDS
;	COMDAT ??_C@_07NBCGADJA@Unknown@
CONST	SEGMENT
??_C@_07NBCGADJA@Unknown@ DB 'Unknown', 00H		; `string'
CONST	ENDS
;	COMDAT ??_C@_0BB@JOEAHKNC@ModalWindowDimBg@
CONST	SEGMENT
??_C@_0BB@JOEAHKNC@ModalWindowDimBg@ DB 'ModalWindowDimBg', 00H ; `string'
CONST	ENDS
;	COMDAT ??_C@_0BC@JHKONDGH@NavWindowingDimBg@
CONST	SEGMENT
??_C@_0BC@JHKONDGH@NavWindowingDimBg@ DB 'NavWindowingDimBg', 00H ; `string'
CONST	ENDS
;	COMDAT ??_C@_0BG@MCGDEFOI@NavWindowingHighlight@
CONST	SEGMENT
??_C@_0BG@MCGDEFOI@NavWindowingHighlight@ DB 'NavWindowingHighlight', 00H ; `string'
CONST	ENDS
;	COMDAT ??_C@_0N@ENCIHEPH@NavHighlight@
CONST	SEGMENT
??_C@_0N@ENCIHEPH@NavHighlight@ DB 'NavHighlight', 00H	; `string'
CONST	ENDS
;	COMDAT ??_C@_0P@GDDMCLOI@DragDropTarget@
CONST	SEGMENT
??_C@_0P@GDDMCLOI@DragDropTarget@ DB 'DragDropTarget', 00H ; `string'
CONST	ENDS
;	COMDAT ??_C@_0P@IBBLAEBJ@TextSelectedBg@
CONST	SEGMENT
??_C@_0P@IBBLAEBJ@TextSelectedBg@ DB 'TextSelectedBg', 00H ; `string'
CONST	ENDS
;	COMDAT ??_C@_0O@FGPLHMKP@TableRowBgAlt@
CONST	SEGMENT
??_C@_0O@FGPLHMKP@TableRowBgAlt@ DB 'TableRowBgAlt', 00H ; `string'
CONST	ENDS
;	COMDAT ??_C@_0L@LLALIFOE@TableRowBg@
CONST	SEGMENT
??_C@_0L@LLALIFOE@TableRowBg@ DB 'TableRowBg', 00H	; `string'
CONST	ENDS
;	COMDAT ??_C@_0BB@IPAPNNJD@TableBorderLight@
CONST	SEGMENT
??_C@_0BB@IPAPNNJD@TableBorderLight@ DB 'TableBorderLight', 00H ; `string'
CONST	ENDS
;	COMDAT ??_C@_0BC@EJINMLMM@TableBorderStrong@
CONST	SEGMENT
??_C@_0BC@EJINMLMM@TableBorderStrong@ DB 'TableBorderStrong', 00H ; `string'
CONST	ENDS
;	COMDAT ??_C@_0O@OAEMMJAA@TableHeaderBg@
CONST	SEGMENT
??_C@_0O@OAEMMJAA@TableHeaderBg@ DB 'TableHeaderBg', 00H ; `string'
CONST	ENDS
;	COMDAT ??_C@_0BF@GJALJGDC@PlotHistogramHovered@
CONST	SEGMENT
??_C@_0BF@GJALJGDC@PlotHistogramHovered@ DB 'PlotHistogramHovered', 00H ; `string'
CONST	ENDS
;	COMDAT ??_C@_0O@EEKOCENA@PlotHistogram@
CONST	SEGMENT
??_C@_0O@EEKOCENA@PlotHistogram@ DB 'PlotHistogram', 00H ; `string'
CONST	ENDS
;	COMDAT ??_C@_0BB@OMALNJLN@PlotLinesHovered@
CONST	SEGMENT
??_C@_0BB@OMALNJLN@PlotLinesHovered@ DB 'PlotLinesHovered', 00H ; `string'
CONST	ENDS
;	COMDAT ??_C@_09HDJFFJLL@PlotLines@
CONST	SEGMENT
??_C@_09HDJFFJLL@PlotLines@ DB 'PlotLines', 00H		; `string'
CONST	ENDS
;	COMDAT ??_C@_0P@EHFHDGOG@DockingEmptyBg@
CONST	SEGMENT
??_C@_0P@EHFHDGOG@DockingEmptyBg@ DB 'DockingEmptyBg', 00H ; `string'
CONST	ENDS
;	COMDAT ??_C@_0P@OMJIDAGN@DockingPreview@
CONST	SEGMENT
??_C@_0P@OMJIDAGN@DockingPreview@ DB 'DockingPreview', 00H ; `string'
CONST	ENDS
;	COMDAT ??_C@_0BD@JMEALEPP@TabUnfocusedActive@
CONST	SEGMENT
??_C@_0BD@JMEALEPP@TabUnfocusedActive@ DB 'TabUnfocusedActive', 00H ; `string'
CONST	ENDS
;	COMDAT ??_C@_0N@KLEENDFP@TabUnfocused@
CONST	SEGMENT
??_C@_0N@KLEENDFP@TabUnfocused@ DB 'TabUnfocused', 00H	; `string'
CONST	ENDS
;	COMDAT ??_C@_09BLMKPFCF@TabActive@
CONST	SEGMENT
??_C@_09BLMKPFCF@TabActive@ DB 'TabActive', 00H		; `string'
CONST	ENDS
;	COMDAT ??_C@_0L@JFDLBKBD@TabHovered@
CONST	SEGMENT
??_C@_0L@JFDLBKBD@TabHovered@ DB 'TabHovered', 00H	; `string'
CONST	ENDS
;	COMDAT ??_C@_03IEAKBACE@Tab@
CONST	SEGMENT
??_C@_03IEAKBACE@Tab@ DB 'Tab', 00H			; `string'
CONST	ENDS
;	COMDAT ??_C@_0BB@NBBKHKIC@ResizeGripActive@
CONST	SEGMENT
??_C@_0BB@NBBKHKIC@ResizeGripActive@ DB 'ResizeGripActive', 00H ; `string'
CONST	ENDS
;	COMDAT ??_C@_0BC@NNEDPMNH@ResizeGripHovered@
CONST	SEGMENT
??_C@_0BC@NNEDPMNH@ResizeGripHovered@ DB 'ResizeGripHovered', 00H ; `string'
CONST	ENDS
;	COMDAT ??_C@_0L@NGBDNFNJ@ResizeGrip@
CONST	SEGMENT
??_C@_0L@NGBDNFNJ@ResizeGrip@ DB 'ResizeGrip', 00H	; `string'
CONST	ENDS
;	COMDAT ??_C@_0BA@BPNGFOJM@SeparatorActive@
CONST	SEGMENT
??_C@_0BA@BPNGFOJM@SeparatorActive@ DB 'SeparatorActive', 00H ; `string'
CONST	ENDS
;	COMDAT ??_C@_0BB@CHICANJA@SeparatorHovered@
CONST	SEGMENT
??_C@_0BB@CHICANJA@SeparatorHovered@ DB 'SeparatorHovered', 00H ; `string'
CONST	ENDS
;	COMDAT ??_C@_09IBFEOKHN@Separator@
CONST	SEGMENT
??_C@_09IBFEOKHN@Separator@ DB 'Separator', 00H		; `string'
CONST	ENDS
;	COMDAT ??_C@_0N@HILFCJOI@HeaderActive@
CONST	SEGMENT
??_C@_0N@HILFCJOI@HeaderActive@ DB 'HeaderActive', 00H	; `string'
CONST	ENDS
;	COMDAT ??_C@_0O@HAINNLMC@HeaderHovered@
CONST	SEGMENT
??_C@_0O@HAINNLMC@HeaderHovered@ DB 'HeaderHovered', 00H ; `string'
CONST	ENDS
;	COMDAT ??_C@_06OENKJGA@Header@
CONST	SEGMENT
??_C@_06OENKJGA@Header@ DB 'Header', 00H		; `string'
CONST	ENDS
;	COMDAT ??_C@_0N@IMHOFKJ@ButtonActive@
CONST	SEGMENT
??_C@_0N@IMHOFKJ@ButtonActive@ DB 'ButtonActive', 00H	; `string'
CONST	ENDS
;	COMDAT ??_C@_0O@HBCGNIAI@ButtonHovered@
CONST	SEGMENT
??_C@_0O@HBCGNIAI@ButtonHovered@ DB 'ButtonHovered', 00H ; `string'
CONST	ENDS
;	COMDAT ??_C@_06LKBCGDFD@Button@
CONST	SEGMENT
??_C@_06LKBCGDFD@Button@ DB 'Button', 00H		; `string'
CONST	ENDS
;	COMDAT ??_C@_0BB@HBOBMOMP@SliderGrabActive@
CONST	SEGMENT
??_C@_0BB@HBOBMOMP@SliderGrabActive@ DB 'SliderGrabActive', 00H ; `string'
CONST	ENDS
;	COMDAT ??_C@_0L@LAMBADIC@SliderGrab@
CONST	SEGMENT
??_C@_0L@LAMBADIC@SliderGrab@ DB 'SliderGrab', 00H	; `string'
CONST	ENDS
;	COMDAT ??_C@_09DMKAANGE@CheckMark@
CONST	SEGMENT
??_C@_09DMKAANGE@CheckMark@ DB 'CheckMark', 00H		; `string'
CONST	ENDS
;	COMDAT ??_C@_0BE@GODMFNCF@ScrollbarGrabActive@
CONST	SEGMENT
??_C@_0BE@GODMFNCF@ScrollbarGrabActive@ DB 'ScrollbarGrabActive', 00H ; `string'
CONST	ENDS
;	COMDAT ??_C@_0BF@JFEOOMLL@ScrollbarGrabHovered@
CONST	SEGMENT
??_C@_0BF@JFEOOMLL@ScrollbarGrabHovered@ DB 'ScrollbarGrabHovered', 00H ; `string'
CONST	ENDS
;	COMDAT ??_C@_0O@HABIDNBE@ScrollbarGrab@
CONST	SEGMENT
??_C@_0O@HABIDNBE@ScrollbarGrab@ DB 'ScrollbarGrab', 00H ; `string'
CONST	ENDS
;	COMDAT ??_C@_0M@MFDHPFJF@ScrollbarBg@
CONST	SEGMENT
??_C@_0M@MFDHPFJF@ScrollbarBg@ DB 'ScrollbarBg', 00H	; `string'
CONST	ENDS
;	COMDAT ??_C@_09GEKCKLDE@MenuBarBg@
CONST	SEGMENT
??_C@_09GEKCKLDE@MenuBarBg@ DB 'MenuBarBg', 00H		; `string'
CONST	ENDS
;	COMDAT ??_C@_0BB@EGCOMBJG@TitleBgCollapsed@
CONST	SEGMENT
??_C@_0BB@EGCOMBJG@TitleBgCollapsed@ DB 'TitleBgCollapsed', 00H ; `string'
CONST	ENDS
;	COMDAT ??_C@_0O@JHBFJHNE@TitleBgActive@
CONST	SEGMENT
??_C@_0O@JHBFJHNE@TitleBgActive@ DB 'TitleBgActive', 00H ; `string'
CONST	ENDS
;	COMDAT ??_C@_07MMLEKCPI@TitleBg@
CONST	SEGMENT
??_C@_07MMLEKCPI@TitleBg@ DB 'TitleBg', 00H		; `string'
CONST	ENDS
;	COMDAT ??_C@_0O@BGDCDDEA@FrameBgActive@
CONST	SEGMENT
??_C@_0O@BGDCDDEA@FrameBgActive@ DB 'FrameBgActive', 00H ; `string'
CONST	ENDS
;	COMDAT ??_C@_0P@KIOOHHAC@FrameBgHovered@
CONST	SEGMENT
??_C@_0P@KIOOHHAC@FrameBgHovered@ DB 'FrameBgHovered', 00H ; `string'
CONST	ENDS
;	COMDAT ??_C@_07PJIIOGAC@FrameBg@
CONST	SEGMENT
??_C@_07PJIIOGAC@FrameBg@ DB 'FrameBg', 00H		; `string'
CONST	ENDS
;	COMDAT ??_C@_0N@DECGFAEC@BorderShadow@
CONST	SEGMENT
??_C@_0N@DECGFAEC@BorderShadow@ DB 'BorderShadow', 00H	; `string'
CONST	ENDS
;	COMDAT ??_C@_06CMOGDIBK@Border@
CONST	SEGMENT
??_C@_06CMOGDIBK@Border@ DB 'Border', 00H		; `string'
CONST	ENDS
;	COMDAT ??_C@_07LKIIIJHA@PopupBg@
CONST	SEGMENT
??_C@_07LKIIIJHA@PopupBg@ DB 'PopupBg', 00H		; `string'
CONST	ENDS
;	COMDAT ??_C@_07BLEJOHFO@ChildBg@
CONST	SEGMENT
??_C@_07BLEJOHFO@ChildBg@ DB 'ChildBg', 00H		; `string'
CONST	ENDS
;	COMDAT ??_C@_08DMKFNKPN@WindowBg@
CONST	SEGMENT
??_C@_08DMKFNKPN@WindowBg@ DB 'WindowBg', 00H		; `string'
CONST	ENDS
;	COMDAT ??_C@_0N@LNHHFNPK@TextDisabled@
CONST	SEGMENT
??_C@_0N@LNHHFNPK@TextDisabled@ DB 'TextDisabled', 00H	; `string'
CONST	ENDS
;	COMDAT ??_C@_04OJAHODMC@Text@
CONST	SEGMENT
??_C@_04OJAHODMC@Text@ DB 'Text', 00H			; `string'
CONST	ENDS
;	COMDAT ??_C@_0BH@MKOKNAKC@Clipper?3?5Step?$CI?$CJ?3?5End?4?6@
CONST	SEGMENT
??_C@_0BH@MKOKNAKC@Clipper?3?5Step?$CI?$CJ?3?5End?4?6@ DB 'Clipper: Step('
	DB	'): End.', 0aH, 00H				; `string'
CONST	ENDS
;	COMDAT ??_C@_0CE@JEMCBOCJ@Clipper?3?5Step?$CI?$CJ?3?5display?5?$CFd?5to?5@
CONST	SEGMENT
??_C@_0CE@JEMCBOCJ@Clipper?3?5Step?$CI?$CJ?3?5display?5?$CFd?5to?5@ DB 'C'
	DB	'lipper: Step(): display %d to %d.', 0aH, 00H ; `string'
CONST	ENDS
;	COMDAT ??_C@_0CO@DPDPBJBN@Clipper?3?5Step?$CI?$CJ?3?5computed?5Items@
CONST	SEGMENT
??_C@_0CO@DPDPBJBN@Clipper?3?5Step?$CI?$CJ?3?5computed?5Items@ DB 'Clippe'
	DB	'r: Step(): computed ItemsHeight: %.2f.', 0aH, 00H ; `string'
CONST	ENDS
;	COMDAT ??_C@_0CL@INMALPKG@Clipper?3?5Step?$CI?$CJ?3?5inside?5frozen?5@
CONST	SEGMENT
??_C@_0CL@INMALPKG@Clipper?3?5Step?$CI?$CJ?3?5inside?5frozen?5@ DB 'Clipp'
	DB	'er: Step(): inside frozen table row.', 0aH, 00H ; `string'
CONST	ENDS
;	COMDAT ??_C@_0BI@CAOKIKBG@Clipper?3?5End?$CI?$CJ?5in?5?8?$CFs?8?6@
CONST	SEGMENT
??_C@_0BI@CAOKIKBG@Clipper?3?5End?$CI?$CJ?5in?5?8?$CFs?8?6@ DB 'Clipper: '
	DB	'End() in ''%s''', 0aH, 00H			; `string'
CONST	ENDS
;	COMDAT ??_C@_0CB@GNIOCDHI@Clipper?3?5Begin?$CI?$CFd?0?$CF?42f?$CJ?5in?5?8?$CFs?8@
CONST	SEGMENT
??_C@_0CB@GNIOCDHI@Clipper?3?5Begin?$CI?$CFd?0?$CF?42f?$CJ?5in?5?8?$CFs?8@ DB 'C'
	DB	'lipper: Begin(%d,%.2f) in ''%s''', 0aH, 00H	; `string'
CONST	ENDS
;	COMDAT ??_C@_00CNPNBAHC@@
CONST	SEGMENT
??_C@_00CNPNBAHC@@ DB 00H				; `string'
CONST	ENDS
;	COMDAT ??_C@_06OJHGLDPL@?$CInull?$CJ@
CONST	SEGMENT
??_C@_06OJHGLDPL@?$CInull?$CJ@ DB '(null)', 00H		; `string'
CONST	ENDS
;	COMDAT ??_C@_0O@HCOAADPE@imgui_log?4txt@
CONST	SEGMENT
??_C@_0O@HCOAADPE@imgui_log?4txt@ DB 'imgui_log.txt', 00H ; `string'
CONST	ENDS
;	COMDAT ??_C@_09BJIHMJFE@imgui?4ini@
CONST	SEGMENT
??_C@_09BJIHMJFE@imgui?4ini@ DB 'imgui.ini', 00H	; `string'
CONST	ENDS
;	COMDAT ??_C@_09BJOGEADB@?$CDCOLLAPSE@
CONST	SEGMENT
??_C@_09BJOGEADB@?$CDCOLLAPSE@ DB '#COLLAPSE', 00H	; `string'
CONST	ENDS
;	COMDAT ??_C@_0P@HEMCFMMD@?$CKMissing?5Text?$CK@
CONST	SEGMENT
??_C@_0P@HEMCFMMD@?$CKMissing?5Text?$CK@ DB '*Missing Text*', 00H ; `string'
?GLocalizationEntriesEnUS@@3QBUImGuiLocEntry@@B DD 00H	; GLocalizationEntriesEnUS
	ORG $+4
	DQ	FLAT:??_C@_0BK@BHOLKFKP@Dear?5ImGui?51?490?45?5?$CI19050?$CJ@
	DD	01H
	ORG $+4
	DQ	FLAT:??_C@_0BN@CNPDCOK@Size?5column?5to?5fit?$CD?$CD?$CDSizeOne@
	DD	02H
	ORG $+4
	DQ	FLAT:??_C@_0CC@MJIBPDCL@Size?5all?5columns?5to?5fit?$CD?$CD?$CDSizeA@
	DD	03H
	ORG $+4
	DQ	FLAT:??_C@_0CG@CFICKNDA@Size?5all?5columns?5to?5default?$CD?$CD?$CDS@
	DD	04H
	ORG $+4
	DQ	FLAT:??_C@_0BJ@BBKAOKNK@Reset?5order?$CD?$CD?$CDResetOrder@
	DD	05H
	ORG $+4
	DQ	FLAT:??_C@_0BA@KDPNEDEH@?$CIMain?5menu?5bar?$CJ@
	DD	06H
	ORG $+4
	DQ	FLAT:??_C@_07NPLNEKJH@?$CIPopup?$CJ@
	DD	07H
	ORG $+4
	DQ	FLAT:??_C@_0L@JOJOIPFK@?$CIUntitled?$CJ@
	DD	08H
	ORG $+4
	DQ	FLAT:??_C@_0BK@NANBGPLM@Hide?5tab?5bar?$CD?$CD?$CDHideTabBar@
	DD	09H
	ORG $+4
	DQ	FLAT:??_C@_0CF@PINFAJBF@Hold?5SHIFT?5to?5enable?5Docking?5wi@
	DD	0aH
	ORG $+4
	DQ	FLAT:??_C@_0CN@IECNIBAI@Click?5and?5drag?5to?5move?5or?5undoc@
?resize_border_def@@3QBUImGuiResizeBorderDef@@B DD 03f800000r ; 1 ; resize_border_def
	DD	000000000r			; 0
	DD	000000000r			; 0
	DD	03f800000r			; 1
	DD	000000000r			; 0
	DD	000000000r			; 0
	DD	040490fdbr			; 3.14159
	DD	0bf800000r			; -1
	DD	000000000r			; 0
	DD	03f800000r			; 1
	DD	000000000r			; 0
	DD	03f800000r			; 1
	DD	03f800000r			; 1
	DD	000000000r			; 0
	DD	000000000r			; 0
	DD	03f800000r			; 1
	DD	000000000r			; 0
	DD	000000000r			; 0
	DD	03f800000r			; 1
	DD	000000000r			; 0
	DD	04096cbe4r			; 4.71239
	DD	000000000r			; 0
	DD	0bf800000r			; -1
	DD	03f800000r			; 1
	DD	03f800000r			; 1
	DD	000000000r			; 0
	DD	03f800000r			; 1
	DD	03fc90fdbr			; 1.5708
?GStyleVarInfo@@3QBUImGuiDataVarInfo@@B DD 08H		; GStyleVarInfo
	DD	01H
	DD	00H
	DD	08H
	DD	01H
	DD	04H
	DD	08H
	DD	02H
	DD	08H
	DD	08H
	DD	01H
	DD	010H
	DD	08H
	DD	01H
	DD	014H
	DD	08H
	DD	02H
	DD	018H
	DD	08H
	DD	02H
	DD	020H
	DD	08H
	DD	01H
	DD	02cH
	DD	08H
	DD	01H
	DD	030H
	DD	08H
	DD	01H
	DD	034H
	DD	08H
	DD	01H
	DD	038H
	DD	08H
	DD	02H
	DD	03cH
	DD	08H
	DD	01H
	DD	044H
	DD	08H
	DD	01H
	DD	048H
	DD	08H
	DD	02H
	DD	04cH
	DD	08H
	DD	02H
	DD	054H
	DD	08H
	DD	01H
	DD	06cH
	DD	08H
	DD	02H
	DD	05cH
	DD	08H
	DD	01H
	DD	074H
	DD	08H
	DD	01H
	DD	078H
	DD	08H
	DD	01H
	DD	07cH
	DD	08H
	DD	01H
	DD	080H
	DD	08H
	DD	01H
	DD	088H
	DD	08H
	DD	01H
	DD	08cH
	DD	08H
	DD	01H
	DD	094H
	DD	08H
	DD	01H
	DD	098H
	DD	08H
	DD	02H
	DD	0a0H
	DD	08H
	DD	02H
	DD	0a8H
	DD	08H
	DD	01H
	DD	0b0H
	DD	08H
	DD	02H
	DD	0b4H
	DD	08H
	DD	02H
	DD	0bcH
	DD	08H
	DD	01H
	DD	0d4H
?GImAllocatorFreeFunc@@3P6AXPEAX0@ZEA DQ FLAT:?FreeWrapper@@YAXPEAX0@Z ; GImAllocatorFreeFunc
?TOOLTIP_DEFAULT_OFFSET@@3UImVec2@@B DD 041800000r ; 16	; TOOLTIP_DEFAULT_OFFSET
	DD	041200000r			; 10
?resize_grip_def@@3QBUImGuiResizeGripDef@@B DD 03f800000r ; 1 ; resize_grip_def
	DD	03f800000r			; 1
	DD	0bf800000r			; -1
	DD	0bf800000r			; -1
	DD	00H
	DD	03H
	DD	000000000r			; 0
	DD	03f800000r			; 1
	DD	03f800000r			; 1
	DD	0bf800000r			; -1
	DD	03H
	DD	06H
	DD	000000000r			; 0
	DD	000000000r			; 0
	DD	03f800000r			; 1
	DD	03f800000r			; 1
	DD	06H
	DD	09H
	DD	03f800000r			; 1
	DD	000000000r			; 0
	DD	0bf800000r			; -1
	DD	03f800000r			; 1
	DD	09H
	DD	0cH
?GCrc32LookupTable@@3QBIB DD 00H			; GCrc32LookupTable
	DD	077073096H
	DD	0ee0e612cH
	DD	0990951baH
	DD	076dc419H
	DD	0706af48fH
	DD	0e963a535H
	DD	09e6495a3H
	DD	0edb8832H
	DD	079dcb8a4H
	DD	0e0d5e91eH
	DD	097d2d988H
	DD	09b64c2bH
	DD	07eb17cbdH
	DD	0e7b82d07H
	DD	090bf1d91H
	DD	01db71064H
	DD	06ab020f2H
	DD	0f3b97148H
	DD	084be41deH
	DD	01adad47dH
	DD	06ddde4ebH
	DD	0f4d4b551H
	DD	083d385c7H
	DD	0136c9856H
	DD	0646ba8c0H
	DD	0fd62f97aH
	DD	08a65c9ecH
	DD	014015c4fH
	DD	063066cd9H
	DD	0fa0f3d63H
	DD	08d080df5H
	DD	03b6e20c8H
	DD	04c69105eH
	DD	0d56041e4H
	DD	0a2677172H
	DD	03c03e4d1H
	DD	04b04d447H
	DD	0d20d85fdH
	DD	0a50ab56bH
	DD	035b5a8faH
	DD	042b2986cH
	DD	0dbbbc9d6H
	DD	0acbcf940H
	DD	032d86ce3H
	DD	045df5c75H
	DD	0dcd60dcfH
	DD	0abd13d59H
	DD	026d930acH
	DD	051de003aH
	DD	0c8d75180H
	DD	0bfd06116H
	DD	021b4f4b5H
	DD	056b3c423H
	DD	0cfba9599H
	DD	0b8bda50fH
	DD	02802b89eH
	DD	05f058808H
	DD	0c60cd9b2H
	DD	0b10be924H
	DD	02f6f7c87H
	DD	058684c11H
	DD	0c1611dabH
	DD	0b6662d3dH
	DD	076dc4190H
	DD	01db7106H
	DD	098d220bcH
	DD	0efd5102aH
	DD	071b18589H
	DD	06b6b51fH
	DD	09fbfe4a5H
	DD	0e8b8d433H
	DD	07807c9a2H
	DD	0f00f934H
	DD	09609a88eH
	DD	0e10e9818H
	DD	07f6a0dbbH
	DD	086d3d2dH
	DD	091646c97H
	DD	0e6635c01H
	DD	06b6b51f4H
	DD	01c6c6162H
	DD	0856530d8H
	DD	0f262004eH
	DD	06c0695edH
	DD	01b01a57bH
	DD	08208f4c1H
	DD	0f50fc457H
	DD	065b0d9c6H
	DD	012b7e950H
	DD	08bbeb8eaH
	DD	0fcb9887cH
	DD	062dd1ddfH
	DD	015da2d49H
	DD	08cd37cf3H
	DD	0fbd44c65H
	DD	04db26158H
	DD	03ab551ceH
	DD	0a3bc0074H
	DD	0d4bb30e2H
	DD	04adfa541H
	DD	03dd895d7H
	DD	0a4d1c46dH
	DD	0d3d6f4fbH
	DD	04369e96aH
	DD	0346ed9fcH
	DD	0ad678846H
	DD	0da60b8d0H
	DD	044042d73H
	DD	033031de5H
	DD	0aa0a4c5fH
	DD	0dd0d7cc9H
	DD	05005713cH
	DD	0270241aaH
	DD	0be0b1010H
	DD	0c90c2086H
	DD	05768b525H
	DD	0206f85b3H
	DD	0b966d409H
	DD	0ce61e49fH
	DD	05edef90eH
	DD	029d9c998H
	DD	0b0d09822H
	DD	0c7d7a8b4H
	DD	059b33d17H
	DD	02eb40d81H
	DD	0b7bd5c3bH
	DD	0c0ba6cadH
	DD	0edb88320H
	DD	09abfb3b6H
	DD	03b6e20cH
	DD	074b1d29aH
	DD	0ead54739H
	DD	09dd277afH
	DD	04db2615H
	DD	073dc1683H
	DD	0e3630b12H
	DD	094643b84H
	DD	0d6d6a3eH
	DD	07a6a5aa8H
	DD	0e40ecf0bH
	DD	09309ff9dH
	DD	0a00ae27H
	DD	07d079eb1H
	DD	0f00f9344H
	DD	08708a3d2H
	DD	01e01f268H
	DD	06906c2feH
	DD	0f762575dH
	DD	0806567cbH
	DD	0196c3671H
	DD	06e6b06e7H
	DD	0fed41b76H
	DD	089d32be0H
	DD	010da7a5aH
	DD	067dd4accH
	DD	0f9b9df6fH
	DD	08ebeeff9H
	DD	017b7be43H
	DD	060b08ed5H
	DD	0d6d6a3e8H
	DD	0a1d1937eH
	DD	038d8c2c4H
	DD	04fdff252H
	DD	0d1bb67f1H
	DD	0a6bc5767H
	DD	03fb506ddH
	DD	048b2364bH
	DD	0d80d2bdaH
	DD	0af0a1b4cH
	DD	036034af6H
	DD	041047a60H
	DD	0df60efc3H
	DD	0a867df55H
	DD	0316e8eefH
	DD	04669be79H
	DD	0cb61b38cH
	DD	0bc66831aH
	DD	0256fd2a0H
	DD	05268e236H
	DD	0cc0c7795H
	DD	0bb0b4703H
	DD	0220216b9H
	DD	05505262fH
	DD	0c5ba3bbeH
	DD	0b2bd0b28H
	DD	02bb45a92H
	DD	05cb36a04H
	DD	0c2d7ffa7H
	DD	0b5d0cf31H
	DD	02cd99e8bH
	DD	05bdeae1dH
	DD	09b64c2b0H
	DD	0ec63f226H
	DD	0756aa39cH
	DD	026d930aH
	DD	09c0906a9H
	DD	0eb0e363fH
	DD	072076785H
	DD	05005713H
	DD	095bf4a82H
	DD	0e2b87a14H
	DD	07bb12baeH
	DD	0cb61b38H
	DD	092d28e9bH
	DD	0e5d5be0dH
	DD	07cdcefb7H
	DD	0bdbdf21H
	DD	086d3d2d4H
	DD	0f1d4e242H
	DD	068ddb3f8H
	DD	01fda836eH
	DD	081be16cdH
	DD	0f6b9265bH
	DD	06fb077e1H
	DD	018b74777H
	DD	088085ae6H
	DD	0ff0f6a70H
	DD	066063bcaH
	DD	011010b5cH
	DD	08f659effH
	DD	0f862ae69H
	DD	0616bffd3H
	DD	0166ccf45H
	DD	0a00ae278H
	DD	0d70dd2eeH
	DD	04e048354H
	DD	03903b3c2H
	DD	0a7672661H
	DD	0d06016f7H
	DD	04969474dH
	DD	03e6e77dbH
	DD	0aed16a4aH
	DD	0d9d65adcH
	DD	040df0b66H
	DD	037d83bf0H
	DD	0a9bcae53H
	DD	0debb9ec5H
	DD	047b2cf7fH
	DD	030b5ffe9H
	DD	0bdbdf21cH
	DD	0cabac28aH
	DD	053b39330H
	DD	024b4a3a6H
	DD	0bad03605H
	DD	0cdd70693H
	DD	054de5729H
	DD	023d967bfH
	DD	0b3667a2eH
	DD	0c4614ab8H
	DD	05d681b02H
	DD	02a6f2b94H
	DD	0b40bbe37H
	DD	0c30c8ea1H
	DD	05a05df1bH
	DD	02d02ef8dH
?GWindowDockStyleColors@@3QBHB DD 00H			; GWindowDockStyleColors
	DD	021H
	DD	022H
	DD	023H
	DD	024H
	DD	025H
?GImAllocatorAllocFunc@@3P6APEAX_KPEAX@ZEA DQ FLAT:?MallocWrapper@@YAPEAX_KPEAX@Z ; GImAllocatorAllocFunc
?GKeyNames@@3QBQEBDB DQ FLAT:??_C@_03IEAKBACE@Tab@	; GKeyNames
	DQ	FLAT:??_C@_09CFHBIIBF@LeftArrow@
	DQ	FLAT:??_C@_0L@BPKGMHEK@RightArrow@
	DQ	FLAT:??_C@_07MOKGGMEC@UpArrow@
	DQ	FLAT:??_C@_09NADHLAEK@DownArrow@
	DQ	FLAT:??_C@_06OAEMCMAI@PageUp@
	DQ	FLAT:??_C@_08FDLMHKA@PageDown@
	DQ	FLAT:??_C@_04GKJODLKO@Home@
	DQ	FLAT:??_C@_03DBKJMAGF@End@
	DQ	FLAT:??_C@_06CPFCODOD@Insert@
	DQ	FLAT:??_C@_06JBKGCNBB@Delete@
	DQ	FLAT:??_C@_09LPBCIPOJ@Backspace@
	DQ	FLAT:??_C@_05OMHELODH@Space@
	DQ	FLAT:??_C@_05IAOCCJNL@Enter@
	DQ	FLAT:??_C@_06OIGFGPHJ@Escape@
	DQ	FLAT:??_C@_08KELNAOFC@LeftCtrl@
	DQ	FLAT:??_C@_09OCNLBMHE@LeftShift@
	DQ	FLAT:??_C@_07MGKIIPNA@LeftAlt@
	DQ	FLAT:??_C@_09DKGEOIN@LeftSuper@
	DQ	FLAT:??_C@_09MGKDJPDD@RightCtrl@
	DQ	FLAT:??_C@_0L@NIAMFDCL@RightShift@
	DQ	FLAT:??_C@_08FCEDBIM@RightAlt@
	DQ	FLAT:??_C@_0L@DJHBABNC@RightSuper@
	DQ	FLAT:??_C@_04IFEHPILC@Menu@
	DQ	FLAT:??_C@_01GBGANLPD@0@
	DQ	FLAT:??_C@_01HIHLOKLC@1@
	DQ	FLAT:??_C@_01FDFGLJHB@2@
	DQ	FLAT:??_C@_01EKENIIDA@3@
	DQ	FLAT:??_C@_01FAMBOPH@4@
	DQ	FLAT:??_C@_01BMBHCPLG@5@
	DQ	FLAT:??_C@_01DHDKHMHF@6@
	DQ	FLAT:??_C@_01COCBENDE@7@
	DQ	FLAT:??_C@_01KJLJFBPL@8@
	DQ	FLAT:??_C@_01LAKCGALK@9@
	DQ	FLAT:??_C@_01FHEEJDEE@A@
	DQ	FLAT:??_C@_01HMGJMAIH@B@
	DQ	FLAT:??_C@_01GFHCPBMG@C@
	DQ	FLAT:??_C@_01CKDDGHAB@D@
	DQ	FLAT:??_C@_01DDCIFGEA@E@
	DQ	FLAT:??_C@_01BIAFAFID@F@
	DQ	FLAT:??_C@_01BBODEMC@G@
	DQ	FLAT:??_C@_01IGIGCIAN@H@
	DQ	FLAT:??_C@_01JPJNBJEM@I@
	DQ	FLAT:??_C@_01LELAEKIP@J@
	DQ	FLAT:??_C@_01KNKLHLMO@K@
	DQ	FLAT:??_C@_01OCOKONAJ@L@
	DQ	FLAT:??_C@_01PLPBNMEI@M@
	DQ	FLAT:??_C@_01NANMIPIL@N@
	DQ	FLAT:??_C@_01MJMHLOMK@O@
	DQ	FLAT:??_C@_01EJNLAFE@P@
	DQ	FLAT:??_C@_01BNIGIBBF@Q@
	DQ	FLAT:??_C@_01DGKLNCNG@R@
	DQ	FLAT:??_C@_01CPLAODJH@S@
	DQ	FLAT:??_C@_01GAPBHFFA@T@
	DQ	FLAT:??_C@_01HJOKEEBB@U@
	DQ	FLAT:??_C@_01FCMHBHNC@V@
	DQ	FLAT:??_C@_01ELNMCGJD@W@
	DQ	FLAT:??_C@_01MMEEDKFM@X@
	DQ	FLAT:??_C@_01NFFPALBN@Y@
	DQ	FLAT:??_C@_01POHCFINO@Z@
	DQ	FLAT:??_C@_02LCPENACN@F1@
	DQ	FLAT:??_C@_02JJNJIDOO@F2@
	DQ	FLAT:??_C@_02IAMCLCKP@F3@
	DQ	FLAT:??_C@_02MPIDCEGI@F4@
	DQ	FLAT:??_C@_02NGJIBFCJ@F5@
	DQ	FLAT:??_C@_02PNLFEGOK@F6@
	DQ	FLAT:??_C@_02OEKOHHKL@F7@
	DQ	FLAT:??_C@_02GDDGGLGE@F8@
	DQ	FLAT:??_C@_02HKCNFKCF@F9@
	DQ	FLAT:??_C@_03JKCLJOFG@F10@
	DQ	FLAT:??_C@_03IDDAKPBH@F11@
	DQ	FLAT:??_C@_03KIBNPMNE@F12@
	DQ	FLAT:??_C@_03LBAGMNJF@F13@
	DQ	FLAT:??_C@_03POEHFLFC@F14@
	DQ	FLAT:??_C@_03OHFMGKBD@F15@
	DQ	FLAT:??_C@_03MMHBDJNA@F16@
	DQ	FLAT:??_C@_03NFGKAIJB@F17@
	DQ	FLAT:??_C@_03FCPCBEFO@F18@
	DQ	FLAT:??_C@_03ELOJCFBP@F19@
	DQ	FLAT:??_C@_03JIGNCAAP@F20@
	DQ	FLAT:??_C@_03IBHGBBEO@F21@
	DQ	FLAT:??_C@_03KKFLECIN@F22@
	DQ	FLAT:??_C@_03LDEAHDMM@F23@
	DQ	FLAT:??_C@_03PMABOFAL@F24@
	DQ	FLAT:??_C@_0L@KECMMICK@Apostrophe@
	DQ	FLAT:??_C@_05CJDGOLEJ@Comma@
	DQ	FLAT:??_C@_05OEAIFCGM@Minus@
	DQ	FLAT:??_C@_06JOFJHOEH@Period@
	DQ	FLAT:??_C@_05OAOMBJIJ@Slash@
	DQ	FLAT:??_C@_09FBGFMNJC@Semicolon@
	DQ	FLAT:??_C@_05JKGNJOO@Equal@
	DQ	FLAT:??_C@_0M@FGLAPLO@LeftBracket@
	DQ	FLAT:??_C@_09LDIKCIFH@Backslash@
	DQ	FLAT:??_C@_0N@NOCLCIPD@RightBracket@
	DQ	FLAT:??_C@_0M@PEGEKEFO@GraveAccent@
	DQ	FLAT:??_C@_08LBKIEOPK@CapsLock@
	DQ	FLAT:??_C@_0L@JJJEGPLJ@ScrollLock@
	DQ	FLAT:??_C@_07JOCOIGEJ@NumLock@
	DQ	FLAT:??_C@_0M@CJIDBHOK@PrintScreen@
	DQ	FLAT:??_C@_05PEDNBBBD@Pause@
	DQ	FLAT:??_C@_07PBFJOEMA@Keypad0@
	DQ	FLAT:??_C@_07OIECNFIB@Keypad1@
	DQ	FLAT:??_C@_07MDGPIGEC@Keypad2@
	DQ	FLAT:??_C@_07NKHELHAD@Keypad3@
	DQ	FLAT:??_C@_07JFDFCBME@Keypad4@
	DQ	FLAT:??_C@_07IMCOBAIF@Keypad5@
	DQ	FLAT:??_C@_07KHADEDEG@Keypad6@
	DQ	FLAT:??_C@_07LOBIHCAH@Keypad7@
	DQ	FLAT:??_C@_07DJIAGOMI@Keypad8@
	DQ	FLAT:??_C@_07CAJLFPIJ@Keypad9@
	DQ	FLAT:??_C@_0O@GMHIBIOG@KeypadDecimal@
	DQ	FLAT:??_C@_0N@IOPGAACF@KeypadDivide@
	DQ	FLAT:??_C@_0P@DDMFINAM@KeypadMultiply@
	DQ	FLAT:??_C@_0P@EGJPMAKL@KeypadSubtract@
	DQ	FLAT:??_C@_09PBFBAKNA@KeypadAdd@
	DQ	FLAT:??_C@_0M@LDMAMCMH@KeypadEnter@
	DQ	FLAT:??_C@_0M@DKIEDCPC@KeypadEqual@
	DQ	FLAT:??_C@_07PFJBGDFF@AppBack@
	DQ	FLAT:??_C@_0L@MPDOCLPJ@AppForward@
	DQ	FLAT:??_C@_0N@KFODLNBI@GamepadStart@
	DQ	FLAT:??_C@_0M@BMKDKCOL@GamepadBack@
	DQ	FLAT:??_C@_0BA@LLLNHFDH@GamepadFaceLeft@
	DQ	FLAT:??_C@_0BB@KCPJBHBD@GamepadFaceRight@
	DQ	FLAT:??_C@_0O@NEIKDCMN@GamepadFaceUp@
	DQ	FLAT:??_C@_0BA@EJLJONAO@GamepadFaceDown@
	DQ	FLAT:??_C@_0BA@HJJJKOII@GamepadDpadLeft@
	DQ	FLAT:??_C@_0BB@PJOFJNNF@GamepadDpadRight@
	DQ	FLAT:??_C@_0O@EJODMGNP@GamepadDpadUp@
	DQ	FLAT:??_C@_0BA@ILJNDGLB@GamepadDpadDown@
	DQ	FLAT:??_C@_09BNICIIOB@GamepadL1@
	DQ	FLAT:??_C@_09LDKAGJL@GamepadR1@
	DQ	FLAT:??_C@_09DGKPNLCC@GamepadL2@
	DQ	FLAT:??_C@_09CABHFFFI@GamepadR2@
	DQ	FLAT:??_C@_09CPLEOKGD@GamepadL3@
	DQ	FLAT:??_C@_09DJAMGEBJ@GamepadR3@
	DQ	FLAT:??_C@_0BC@MGONIKHG@GamepadLStickLeft@
	DQ	FLAT:??_C@_0BD@KDFPDGOK@GamepadLStickRight@
	DQ	FLAT:??_C@_0BA@NNMPJILJ@GamepadLStickUp@
	DQ	FLAT:??_C@_0BC@DEOJBCEP@GamepadLStickDown@
	DQ	FLAT:??_C@_0BC@DKGNGFLL@GamepadRStickLeft@
	DQ	FLAT:??_C@_0BD@EGHGAIAI@GamepadRStickRight@
	DQ	FLAT:??_C@_0BA@LJMNABFK@GamepadRStickUp@
	DQ	FLAT:??_C@_0BC@MIGJPNIC@GamepadRStickDown@
	DQ	FLAT:??_C@_09DBACHFO@MouseLeft@
	DQ	FLAT:??_C@_0L@JGCPGDLN@MouseRight@
	DQ	FLAT:??_C@_0M@CDBJKEDH@MouseMiddle@
	DQ	FLAT:??_C@_07BICMLCEA@MouseX1@
	DQ	FLAT:??_C@_07DDABOBID@MouseX2@
	DQ	FLAT:??_C@_0M@MENPLCHJ@MouseWheelX@
	DQ	FLAT:??_C@_0M@NNMEIDDI@MouseWheelY@
	DQ	FLAT:??_C@_07KDONALCN@ModCtrl@
	DQ	FLAT:??_C@_08CCGGCANM@ModShift@
	DQ	FLAT:??_C@_06PLGJOJNE@ModAlt@
	DQ	FLAT:??_C@_08MDBLHCCF@ModSuper@
