; Listing generated by Microsoft (R) Optimizing Compiler Version 19.36.32535.0 

include listing.inc

INCLUDELIB OLDNAMES

PUBLIC	??_C@_01LBDDMOBJ@?$FN@				; `string'
PUBLIC	??_C@_01OHGJGJJP@?$FL@				; `string'
PUBLIC	??_C@_08ENAFOMOP@?$CDSCROLLX@			; `string'
PUBLIC	??_C@_08FEBONNKO@?$CDSCROLLY@			; `string'
PUBLIC	??_C@_06EBHDMMP@?$CDimage@			; `string'
PUBLIC	??_C@_03JDMNMOAD@?$FL?$HO?$FN@			; `string'
PUBLIC	??_C@_03JHEALCLB@?$FLx?$FN@			; `string'
PUBLIC	??_C@_03PFOPMNLJ@?$FL?5?$FN@			; `string'
PUBLIC	??_C@_03KFJJABDB@?$CIx?$CJ@			; `string'
PUBLIC	??_C@_03MHDGHODJ@?$CI?5?$CJ@			; `string'
PUBLIC	??_C@_06KLKJBGEJ@?$CF?40f?$CF?$CF@		; `string'
PUBLIC	??_C@_02LLHJFGPH@?5?$HM@			; `string'
PUBLIC	??_C@_0CC@IODDEFBI@?9?9?9?9?9?9?9?9?9?9?9?9?9?9?9?9?9?9?9?9?9?9?9?9?9?9?9?9?9?9?9@ ; `string'
PUBLIC	??_C@_0N@LNBMNBNO@?$CD?$CDComboPopup@		; `string'
PUBLIC	??_C@_01CELHOKLL@?$HN@				; `string'
PUBLIC	??_C@_01HCONENDN@?$HL@				; `string'
PUBLIC	??_C@_0N@JOGGDHMO@?$CD?$CDCombo_?$CF02d@	; `string'
PUBLIC	??_C@_0P@HFPOEILF@?$CKUnknown?5item?$CK@	; `string'
PUBLIC	??_C@_02HJNLAKPP@S8@				; `string'
PUBLIC	??_C@_02HNFGHGEN@U8@				; `string'
PUBLIC	??_C@_03KLLGJOHN@S16@				; `string'
PUBLIC	??_C@_03IONNMBKB@U16@				; `string'
PUBLIC	??_C@_03MMFOIPBH@S32@				; `string'
PUBLIC	??_C@_03OJDFNAML@U32@				; `string'
PUBLIC	??_C@_03JMMPOKHK@S64@				; `string'
PUBLIC	??_C@_05LLAMLEHD@?$CFI64d@			; `string'
PUBLIC	??_C@_03LJKELFKG@U64@				; `string'
PUBLIC	??_C@_05OINFJHGD@?$CFI64u@			; `string'
PUBLIC	??_C@_05KNFBNCOH@float@				; `string'
PUBLIC	??_C@_06BNJCAIGJ@double@			; `string'
PUBLIC	??_C@_03DLDNIBIK@?$CFlf@			; `string'
PUBLIC	??_C@_05DMFAOFEI@?$CD?$CDmin@			; `string'
PUBLIC	??_C@_05CONLABCH@?$CD?$CDmax@			; `string'
PUBLIC	??_C@_01JOAMLHOP@?9@				; `string'
PUBLIC	??_C@_0BN@BGBNDAJ@ID?3?50x?$CF08X?0?5ActiveID?3?50x?$CF08X@ ; `string'
PUBLIC	??_C@_0DI@KFHJPBJM@CurLenW?3?5?$CFd?0?5CurLenA?3?5?$CFd?0?5Curso@ ; `string'
PUBLIC	??_C@_0BL@FCPBEJDK@has_preferred_x?3?5?$CFd?5?$CI?$CF?42f?$CJ@ ; `string'
PUBLIC	??_C@_0EJ@KOMDKONB@undo_point?3?5?$CFd?0?5redo_point?3?5?$CFd?0@ ; `string'
PUBLIC	??_C@_0L@NBJMPEMP@undopoints@			; `string'
PUBLIC	??_C@_0EH@KMDCELMD@?$CFc?5?$FL?$CF02d?$FN?5where?5?$CF03d?0?5insert?5?$CF0@ ; `string'
PUBLIC	??_C@_03CEFFAPNG@?$CD?$CDX@			; `string'
PUBLIC	??_C@_03DNEODOJH@?$CD?$CDY@			; `string'
PUBLIC	??_C@_03BGGDGNFE@?$CD?$CDZ@			; `string'
PUBLIC	??_C@_03KDMNBDBJ@?$CD?$CDW@			; `string'
PUBLIC	??_C@_03GOOLIKIF@?$CF3d@			; `string'
PUBLIC	??_C@_05FELKPNOB@R?3?$CF3d@			; `string'
PUBLIC	??_C@_05HKBGOMJ@G?3?$CF3d@			; `string'
PUBLIC	??_C@_05FHGMPPHK@B?3?$CF3d@			; `string'
PUBLIC	??_C@_05NBPIINNE@A?3?$CF3d@			; `string'
PUBLIC	??_C@_05PGPHNMBM@H?3?$CF3d@			; `string'
PUBLIC	??_C@_05JPOGCOEE@S?3?$CF3d@			; `string'
PUBLIC	??_C@_05MPCLLPPH@V?3?$CF3d@			; `string'
PUBLIC	??_C@_05ONBKDNLK@?$CF0?43f@			; `string'
PUBLIC	??_C@_07CCOKENNH@R?3?$CF0?43f@			; `string'
PUBLIC	??_C@_07BGLBHCJI@G?3?$CF0?43f@			; `string'
PUBLIC	??_C@_07FOFBHMPM@B?3?$CF0?43f@			; `string'
PUBLIC	??_C@_07NANOHLBP@A?3?$CF0?43f@			; `string'
PUBLIC	??_C@_07MPJBGADE@H?3?$CF0?43f@			; `string'
PUBLIC	??_C@_07OOEAENEJ@S?3?$CF0?43f@			; `string'
PUBLIC	??_C@_07KGKAEDCN@V?3?$CF0?43f@			; `string'
PUBLIC	??_C@_07FFNLLALM@M?30?4000@			; `string'
PUBLIC	??_C@_05BNGMMMAL@M?3000@			; `string'
PUBLIC	??_C@_0BC@CKPCOFBK@?$CD?$CF02X?$CF02X?$CF02X?$CF02X@ ; `string'
PUBLIC	??_C@_0O@MBPBDFLP@?$CD?$CF02X?$CF02X?$CF02X@	; `string'
PUBLIC	??_C@_06MNCEJPDI@?$CD?$CDText@			; `string'
PUBLIC	??_C@_0BB@DDMGLOLI@?$CF02X?$CF02X?$CF02X?$CF02X@ ; `string'
PUBLIC	??_C@_0N@KODLFHPJ@?$CF02X?$CF02X?$CF02X@	; `string'
PUBLIC	??_C@_0O@GLNBIEEK@?$CD?$CDColorButton@		; `string'
PUBLIC	??_C@_06MAKAMBBI@picker@			; `string'
PUBLIC	??_C@_03PPLPHHG@hsv@				; `string'
PUBLIC	??_C@_02CPGMCOJE@sv@				; `string'
PUBLIC	??_C@_03GKJJMKFG@hue@				; `string'
PUBLIC	??_C@_05IAEKHIAN@alpha@				; `string'
PUBLIC	??_C@_08DCPBJHAO@Original@			; `string'
PUBLIC	??_C@_0L@IGJKOBOK@?$CD?$CDoriginal@		; `string'
PUBLIC	??_C@_05JCABMAIH@?$CD?$CDrgb@			; `string'
PUBLIC	??_C@_05JICEKLIF@?$CD?$CDhsv@			; `string'
PUBLIC	??_C@_05BOAMFJMJ@?$CD?$CDhex@			; `string'
PUBLIC	??_C@_09JCCDBEFL@?$CD?$CDpreview@		; `string'
PUBLIC	??_C@_0DF@FAPNKOHO@?$CD?$CF02X?$CF02X?$CF02X?6R?3?5?$CFd?0?5G?3?5?$CFd?0?5B?3?5@ ; `string'
PUBLIC	??_C@_0EC@EBPMGCGK@?$CD?$CF02X?$CF02X?$CF02X?$CF02X?6R?3?$CFd?0?5G?3?$CFd?0?5B@ ; `string'
PUBLIC	??_C@_0BK@HKNBICJE@H?3?5?$CF?43f?0?5S?3?5?$CF?43f?0?5V?3?5?$CF?43f@ ; `string'
PUBLIC	??_C@_0CD@EEDEAEPG@H?3?5?$CF?43f?0?5S?3?5?$CF?43f?0?5V?3?5?$CF?43f?0?5A?3?5?$CF@ ; `string'
PUBLIC	??_C@_03ICFFBAI@RGB@				; `string'
PUBLIC	??_C@_03CAADKAK@HSV@				; `string'
PUBLIC	??_C@_03CJOBKKAE@Hex@				; `string'
PUBLIC	??_C@_06FDBEKFBH@0?4?4255@			; `string'
PUBLIC	??_C@_0L@MDNPBJBM@0?400?4?41?400@		; `string'
PUBLIC	??_C@_09NMCCFHEI@Copy?5as?4?4@			; `string'
PUBLIC	??_C@_0BN@GKCJMPCH@?$CI?$CF?43ff?0?5?$CF?43ff?0?5?$CF?43ff?0?5?$CF?43ff?$CJ@ ; `string'
PUBLIC	??_C@_0O@EJHNAHBL@?$CI?$CFd?0?$CFd?0?$CFd?0?$CFd?$CJ@ ; `string'
PUBLIC	??_C@_0N@KFBFGFJL@?$CD?$CDselectable@		; `string'
PUBLIC	??_C@_0BE@ENPGBMIC@?$CD?$CDpreviewing_picker@	; `string'
PUBLIC	??_C@_09KEDLMDJL@Alpha?5Bar@			; `string'
PUBLIC	??_C@_0BE@IBILPIJF@SearchBuffer?5?$DN?5?$CC?$CFs?$CC@ ; `string'
PUBLIC	??_C@_0CK@LFNDDAP@SingleCharMode?5?$DN?5?$CFd?0?5Size?5?$DN?5?$CFd?0@ ; `string'
PUBLIC	??_C@_0CE@JBCHOCAD@LastRequest?5?$DN?5time?3?5?$CF?42f?0?5frame@ ; `string'
PUBLIC	??_C@_0BE@OBCBLNMM@?$CFd?3?5?$CF8?44g?6?$CFd?3?5?$CF8?44g@ ; `string'
PUBLIC	??_C@_09OADNPGHP@?$CFd?3?5?$CF8?44g@		; `string'
PUBLIC	??_C@_05LAPONLG@false@				; `string'
PUBLIC	??_C@_06DJHOIPC@?$CFs?3?5?$CFs@			; `string'
PUBLIC	??_C@_06GBEGMGE@?$CFs?3?5?$CFd@			; `string'
PUBLIC	??_C@_07EKEPIENH@?$CF?$CFs?3?5?$CFs@		; `string'
PUBLIC	??_C@_08KELGKKHF@?$CFs?3?5?$CF?43f@		; `string'
PUBLIC	??_C@_09FHPMMDGK@?$CD?$CDmenubar@		; `string'
PUBLIC	??_C@_03CFMEKBHF@?$CD?$CD?$DM@			; `string'
PUBLIC	??_C@_03BHPCMDPH@?$CD?$CD?$DO@			; `string'
EXTRN	__imp_atof:PROC
;	COMDAT ?min_steps@?1??GetMinimumStepAtDecimalPrecision@@YAMH@Z@4QBMB
CONST	SEGMENT
?min_steps@?1??GetMinimumStepAtDecimalPrecision@@YAMH@Z@4QBMB DD 03f800000r ; 1 ; `GetMinimumStepAtDecimalPrecision'::`2'::min_steps
	DD	03dcccccdr			; 0.1
	DD	03c23d70ar			; 0.01
	DD	03a83126fr			; 0.001
	DD	038d1b717r			; 0.0001
	DD	03727c5acr			; 1e-05
	DD	0358637bdr			; 1e-06
	DD	033d6bf95r			; 1e-07
	DD	0322bcc77r			; 1e-08
	DD	03089705fr			; 1e-09
CONST	ENDS
;	COMDAT ?fmt_table_float@?BL@??ColorEdit4@ImGui@@YA_NPEBDQEAMH@Z@4PAY03PEBDA
CONST	SEGMENT
?fmt_table_float@?BL@??ColorEdit4@ImGui@@YA_NPEBDQEAMH@Z@4PAY03PEBDA DQ FLAT:??_C@_05ONBKDNLK@?$CF0?43f@ ; `ImGui::ColorEdit4'::`27'::fmt_table_float
	DQ	FLAT:??_C@_05ONBKDNLK@?$CF0?43f@
	DQ	FLAT:??_C@_05ONBKDNLK@?$CF0?43f@
	DQ	FLAT:??_C@_05ONBKDNLK@?$CF0?43f@
	DQ	FLAT:??_C@_07CCOKENNH@R?3?$CF0?43f@
	DQ	FLAT:??_C@_07BGLBHCJI@G?3?$CF0?43f@
	DQ	FLAT:??_C@_07FOFBHMPM@B?3?$CF0?43f@
	DQ	FLAT:??_C@_07NANOHLBP@A?3?$CF0?43f@
	DQ	FLAT:??_C@_07MPJBGADE@H?3?$CF0?43f@
	DQ	FLAT:??_C@_07OOEAENEJ@S?3?$CF0?43f@
	DQ	FLAT:??_C@_07KGKAEDCN@V?3?$CF0?43f@
	DQ	FLAT:??_C@_07NANOHLBP@A?3?$CF0?43f@
CONST	ENDS
;	COMDAT ?fmt_table_int@?BL@??ColorEdit4@ImGui@@YA_NPEBDQEAMH@Z@4PAY03PEBDA
CONST	SEGMENT
?fmt_table_int@?BL@??ColorEdit4@ImGui@@YA_NPEBDQEAMH@Z@4PAY03PEBDA DQ FLAT:??_C@_03GOOLIKIF@?$CF3d@ ; `ImGui::ColorEdit4'::`27'::fmt_table_int
	DQ	FLAT:??_C@_03GOOLIKIF@?$CF3d@
	DQ	FLAT:??_C@_03GOOLIKIF@?$CF3d@
	DQ	FLAT:??_C@_03GOOLIKIF@?$CF3d@
	DQ	FLAT:??_C@_05FELKPNOB@R?3?$CF3d@
	DQ	FLAT:??_C@_05HKBGOMJ@G?3?$CF3d@
	DQ	FLAT:??_C@_05FHGMPPHK@B?3?$CF3d@
	DQ	FLAT:??_C@_05NBPIINNE@A?3?$CF3d@
	DQ	FLAT:??_C@_05PGPHNMBM@H?3?$CF3d@
	DQ	FLAT:??_C@_05JPOGCOEE@S?3?$CF3d@
	DQ	FLAT:??_C@_05MPCLLPPH@V?3?$CF3d@
	DQ	FLAT:??_C@_05NBPIINNE@A?3?$CF3d@
CONST	ENDS
;	COMDAT ?ids@?BL@??ColorEdit4@ImGui@@YA_NPEBDQEAMH@Z@4PAPEBDA
CONST	SEGMENT
?ids@?BL@??ColorEdit4@ImGui@@YA_NPEBDQEAMH@Z@4PAPEBDA DQ FLAT:??_C@_03CEFFAPNG@?$CD?$CDX@ ; `ImGui::ColorEdit4'::`27'::ids
	DQ	FLAT:??_C@_03DNEODOJH@?$CD?$CDY@
	DQ	FLAT:??_C@_03BGGDGNFE@?$CD?$CDZ@
	DQ	FLAT:??_C@_03KDMNBDBJ@?$CD?$CDW@
CONST	ENDS
;	COMDAT ??_C@_03BHPCMDPH@?$CD?$CD?$DO@
CONST	SEGMENT
??_C@_03BHPCMDPH@?$CD?$CD?$DO@ DB '##>', 00H		; `string'
CONST	ENDS
;	COMDAT ??_C@_03CFMEKBHF@?$CD?$CD?$DM@
CONST	SEGMENT
??_C@_03CFMEKBHF@?$CD?$CD?$DM@ DB '##<', 00H		; `string'
CONST	ENDS
;	COMDAT ??_C@_09FHPMMDGK@?$CD?$CDmenubar@
CONST	SEGMENT
??_C@_09FHPMMDGK@?$CD?$CDmenubar@ DB '##menubar', 00H	; `string'
CONST	ENDS
;	COMDAT ??_C@_08KELGKKHF@?$CFs?3?5?$CF?43f@
CONST	SEGMENT
??_C@_08KELGKKHF@?$CFs?3?5?$CF?43f@ DB '%s: %.3f', 00H	; `string'
CONST	ENDS
;	COMDAT ??_C@_07EKEPIENH@?$CF?$CFs?3?5?$CFs@
CONST	SEGMENT
??_C@_07EKEPIENH@?$CF?$CFs?3?5?$CFs@ DB '%%s: %s', 00H	; `string'
CONST	ENDS
;	COMDAT ??_C@_06GBEGMGE@?$CFs?3?5?$CFd@
CONST	SEGMENT
??_C@_06GBEGMGE@?$CFs?3?5?$CFd@ DB '%s: %d', 00H	; `string'
CONST	ENDS
;	COMDAT ??_C@_06DJHOIPC@?$CFs?3?5?$CFs@
CONST	SEGMENT
??_C@_06DJHOIPC@?$CFs?3?5?$CFs@ DB '%s: %s', 00H	; `string'
CONST	ENDS
;	COMDAT ??_C@_05LAPONLG@false@
CONST	SEGMENT
??_C@_05LAPONLG@false@ DB 'false', 00H			; `string'
CONST	ENDS
;	COMDAT ??_C@_09OADNPGHP@?$CFd?3?5?$CF8?44g@
CONST	SEGMENT
??_C@_09OADNPGHP@?$CFd?3?5?$CF8?44g@ DB '%d: %8.4g', 00H ; `string'
CONST	ENDS
;	COMDAT ??_C@_0BE@OBCBLNMM@?$CFd?3?5?$CF8?44g?6?$CFd?3?5?$CF8?44g@
CONST	SEGMENT
??_C@_0BE@OBCBLNMM@?$CFd?3?5?$CF8?44g?6?$CFd?3?5?$CF8?44g@ DB '%d: %8.4g', 0aH
	DB	'%d: %8.4g', 00H				; `string'
CONST	ENDS
;	COMDAT ??_C@_0CE@JBCHOCAD@LastRequest?5?$DN?5time?3?5?$CF?42f?0?5frame@
CONST	SEGMENT
??_C@_0CE@JBCHOCAD@LastRequest?5?$DN?5time?3?5?$CF?42f?0?5frame@ DB 'Last'
	DB	'Request = time: %.2f, frame: %d', 00H	; `string'
CONST	ENDS
;	COMDAT ??_C@_0CK@LFNDDAP@SingleCharMode?5?$DN?5?$CFd?0?5Size?5?$DN?5?$CFd?0@
CONST	SEGMENT
??_C@_0CK@LFNDDAP@SingleCharMode?5?$DN?5?$CFd?0?5Size?5?$DN?5?$CFd?0@ DB 'S'
	DB	'ingleCharMode = %d, Size = %d, Lock = %d', 00H ; `string'
CONST	ENDS
;	COMDAT ??_C@_0BE@IBILPIJF@SearchBuffer?5?$DN?5?$CC?$CFs?$CC@
CONST	SEGMENT
??_C@_0BE@IBILPIJF@SearchBuffer?5?$DN?5?$CC?$CFs?$CC@ DB 'SearchBuffer = '
	DB	'"%s"', 00H					; `string'
CONST	ENDS
;	COMDAT ??_C@_09KEDLMDJL@Alpha?5Bar@
CONST	SEGMENT
??_C@_09KEDLMDJL@Alpha?5Bar@ DB 'Alpha Bar', 00H	; `string'
CONST	ENDS
;	COMDAT ??_C@_0BE@ENPGBMIC@?$CD?$CDpreviewing_picker@
CONST	SEGMENT
??_C@_0BE@ENPGBMIC@?$CD?$CDpreviewing_picker@ DB '##previewing_picker', 00H ; `string'
CONST	ENDS
;	COMDAT ??_C@_0N@KFBFGFJL@?$CD?$CDselectable@
CONST	SEGMENT
??_C@_0N@KFBFGFJL@?$CD?$CDselectable@ DB '##selectable', 00H ; `string'
CONST	ENDS
;	COMDAT ??_C@_0O@EJHNAHBL@?$CI?$CFd?0?$CFd?0?$CFd?0?$CFd?$CJ@
CONST	SEGMENT
??_C@_0O@EJHNAHBL@?$CI?$CFd?0?$CFd?0?$CFd?0?$CFd?$CJ@ DB '(%d,%d,%d,%d)', 00H ; `string'
CONST	ENDS
;	COMDAT ??_C@_0BN@GKCJMPCH@?$CI?$CF?43ff?0?5?$CF?43ff?0?5?$CF?43ff?0?5?$CF?43ff?$CJ@
CONST	SEGMENT
??_C@_0BN@GKCJMPCH@?$CI?$CF?43ff?0?5?$CF?43ff?0?5?$CF?43ff?0?5?$CF?43ff?$CJ@ DB '('
	DB	'%.3ff, %.3ff, %.3ff, %.3ff)', 00H		; `string'
CONST	ENDS
;	COMDAT ??_C@_09NMCCFHEI@Copy?5as?4?4@
CONST	SEGMENT
??_C@_09NMCCFHEI@Copy?5as?4?4@ DB 'Copy as..', 00H	; `string'
CONST	ENDS
;	COMDAT ??_C@_0L@MDNPBJBM@0?400?4?41?400@
CONST	SEGMENT
??_C@_0L@MDNPBJBM@0?400?4?41?400@ DB '0.00..1.00', 00H	; `string'
CONST	ENDS
;	COMDAT ??_C@_06FDBEKFBH@0?4?4255@
CONST	SEGMENT
??_C@_06FDBEKFBH@0?4?4255@ DB '0..255', 00H		; `string'
CONST	ENDS
;	COMDAT ??_C@_03CJOBKKAE@Hex@
CONST	SEGMENT
??_C@_03CJOBKKAE@Hex@ DB 'Hex', 00H			; `string'
CONST	ENDS
;	COMDAT ??_C@_03CAADKAK@HSV@
CONST	SEGMENT
??_C@_03CAADKAK@HSV@ DB 'HSV', 00H			; `string'
CONST	ENDS
;	COMDAT ??_C@_03ICFFBAI@RGB@
CONST	SEGMENT
??_C@_03ICFFBAI@RGB@ DB 'RGB', 00H			; `string'
CONST	ENDS
;	COMDAT ??_C@_0CD@EEDEAEPG@H?3?5?$CF?43f?0?5S?3?5?$CF?43f?0?5V?3?5?$CF?43f?0?5A?3?5?$CF@
CONST	SEGMENT
??_C@_0CD@EEDEAEPG@H?3?5?$CF?43f?0?5S?3?5?$CF?43f?0?5V?3?5?$CF?43f?0?5A?3?5?$CF@ DB 'H'
	DB	': %.3f, S: %.3f, V: %.3f, A: %.3f', 00H	; `string'
CONST	ENDS
;	COMDAT ??_C@_0BK@HKNBICJE@H?3?5?$CF?43f?0?5S?3?5?$CF?43f?0?5V?3?5?$CF?43f@
CONST	SEGMENT
??_C@_0BK@HKNBICJE@H?3?5?$CF?43f?0?5S?3?5?$CF?43f?0?5V?3?5?$CF?43f@ DB 'H'
	DB	': %.3f, S: %.3f, V: %.3f', 00H		; `string'
CONST	ENDS
;	COMDAT ??_C@_0EC@EBPMGCGK@?$CD?$CF02X?$CF02X?$CF02X?$CF02X?6R?3?$CFd?0?5G?3?$CFd?0?5B@
CONST	SEGMENT
??_C@_0EC@EBPMGCGK@?$CD?$CF02X?$CF02X?$CF02X?$CF02X?6R?3?$CFd?0?5G?3?$CFd?0?5B@ DB '#'
	DB	'%02X%02X%02X%02X', 0aH, 'R:%d, G:%d, B:%d, A:%d', 0aH, '(%.3f'
	DB	', %.3f, %.3f, %.3f)', 00H			; `string'
CONST	ENDS
;	COMDAT ??_C@_0DF@FAPNKOHO@?$CD?$CF02X?$CF02X?$CF02X?6R?3?5?$CFd?0?5G?3?5?$CFd?0?5B?3?5@
CONST	SEGMENT
??_C@_0DF@FAPNKOHO@?$CD?$CF02X?$CF02X?$CF02X?6R?3?5?$CFd?0?5G?3?5?$CFd?0?5B?3?5@ DB '#'
	DB	'%02X%02X%02X', 0aH, 'R: %d, G: %d, B: %d', 0aH, '(%.3f, %.3f,'
	DB	' %.3f)', 00H				; `string'
CONST	ENDS
;	COMDAT ??_C@_09JCCDBEFL@?$CD?$CDpreview@
CONST	SEGMENT
??_C@_09JCCDBEFL@?$CD?$CDpreview@ DB '##preview', 00H	; `string'
CONST	ENDS
;	COMDAT ??_C@_05BOAMFJMJ@?$CD?$CDhex@
CONST	SEGMENT
??_C@_05BOAMFJMJ@?$CD?$CDhex@ DB '##hex', 00H		; `string'
CONST	ENDS
;	COMDAT ??_C@_05JICEKLIF@?$CD?$CDhsv@
CONST	SEGMENT
??_C@_05JICEKLIF@?$CD?$CDhsv@ DB '##hsv', 00H		; `string'
CONST	ENDS
;	COMDAT ??_C@_05JCABMAIH@?$CD?$CDrgb@
CONST	SEGMENT
??_C@_05JCABMAIH@?$CD?$CDrgb@ DB '##rgb', 00H		; `string'
CONST	ENDS
;	COMDAT ??_C@_0L@IGJKOBOK@?$CD?$CDoriginal@
CONST	SEGMENT
??_C@_0L@IGJKOBOK@?$CD?$CDoriginal@ DB '##original', 00H ; `string'
CONST	ENDS
;	COMDAT ??_C@_08DCPBJHAO@Original@
CONST	SEGMENT
??_C@_08DCPBJHAO@Original@ DB 'Original', 00H		; `string'
CONST	ENDS
;	COMDAT ??_C@_05IAEKHIAN@alpha@
CONST	SEGMENT
??_C@_05IAEKHIAN@alpha@ DB 'alpha', 00H			; `string'
CONST	ENDS
;	COMDAT ??_C@_03GKJJMKFG@hue@
CONST	SEGMENT
??_C@_03GKJJMKFG@hue@ DB 'hue', 00H			; `string'
CONST	ENDS
;	COMDAT ??_C@_02CPGMCOJE@sv@
CONST	SEGMENT
??_C@_02CPGMCOJE@sv@ DB 'sv', 00H			; `string'
CONST	ENDS
;	COMDAT ??_C@_03PPLPHHG@hsv@
CONST	SEGMENT
??_C@_03PPLPHHG@hsv@ DB 'hsv', 00H			; `string'
CONST	ENDS
;	COMDAT ??_C@_06MAKAMBBI@picker@
CONST	SEGMENT
??_C@_06MAKAMBBI@picker@ DB 'picker', 00H		; `string'
CONST	ENDS
;	COMDAT ??_C@_0O@GLNBIEEK@?$CD?$CDColorButton@
CONST	SEGMENT
??_C@_0O@GLNBIEEK@?$CD?$CDColorButton@ DB '##ColorButton', 00H ; `string'
CONST	ENDS
;	COMDAT ??_C@_0N@KODLFHPJ@?$CF02X?$CF02X?$CF02X@
CONST	SEGMENT
??_C@_0N@KODLFHPJ@?$CF02X?$CF02X?$CF02X@ DB '%02X%02X%02X', 00H ; `string'
CONST	ENDS
;	COMDAT ??_C@_0BB@DDMGLOLI@?$CF02X?$CF02X?$CF02X?$CF02X@
CONST	SEGMENT
??_C@_0BB@DDMGLOLI@?$CF02X?$CF02X?$CF02X?$CF02X@ DB '%02X%02X%02X%02X', 00H ; `string'
CONST	ENDS
;	COMDAT ??_C@_06MNCEJPDI@?$CD?$CDText@
CONST	SEGMENT
??_C@_06MNCEJPDI@?$CD?$CDText@ DB '##Text', 00H		; `string'
CONST	ENDS
;	COMDAT ??_C@_0O@MBPBDFLP@?$CD?$CF02X?$CF02X?$CF02X@
CONST	SEGMENT
??_C@_0O@MBPBDFLP@?$CD?$CF02X?$CF02X?$CF02X@ DB '#%02X%02X%02X', 00H ; `string'
CONST	ENDS
;	COMDAT ??_C@_0BC@CKPCOFBK@?$CD?$CF02X?$CF02X?$CF02X?$CF02X@
CONST	SEGMENT
??_C@_0BC@CKPCOFBK@?$CD?$CF02X?$CF02X?$CF02X?$CF02X@ DB '#%02X%02X%02X%02'
	DB	'X', 00H					; `string'
CONST	ENDS
;	COMDAT ??_C@_05BNGMMMAL@M?3000@
CONST	SEGMENT
??_C@_05BNGMMMAL@M?3000@ DB 'M:000', 00H		; `string'
CONST	ENDS
;	COMDAT ??_C@_07FFNLLALM@M?30?4000@
CONST	SEGMENT
??_C@_07FFNLLALM@M?30?4000@ DB 'M:0.000', 00H		; `string'
CONST	ENDS
;	COMDAT ??_C@_07KGKAEDCN@V?3?$CF0?43f@
CONST	SEGMENT
??_C@_07KGKAEDCN@V?3?$CF0?43f@ DB 'V:%0.3f', 00H	; `string'
CONST	ENDS
;	COMDAT ??_C@_07OOEAENEJ@S?3?$CF0?43f@
CONST	SEGMENT
??_C@_07OOEAENEJ@S?3?$CF0?43f@ DB 'S:%0.3f', 00H	; `string'
CONST	ENDS
;	COMDAT ??_C@_07MPJBGADE@H?3?$CF0?43f@
CONST	SEGMENT
??_C@_07MPJBGADE@H?3?$CF0?43f@ DB 'H:%0.3f', 00H	; `string'
CONST	ENDS
;	COMDAT ??_C@_07NANOHLBP@A?3?$CF0?43f@
CONST	SEGMENT
??_C@_07NANOHLBP@A?3?$CF0?43f@ DB 'A:%0.3f', 00H	; `string'
CONST	ENDS
;	COMDAT ??_C@_07FOFBHMPM@B?3?$CF0?43f@
CONST	SEGMENT
??_C@_07FOFBHMPM@B?3?$CF0?43f@ DB 'B:%0.3f', 00H	; `string'
CONST	ENDS
;	COMDAT ??_C@_07BGLBHCJI@G?3?$CF0?43f@
CONST	SEGMENT
??_C@_07BGLBHCJI@G?3?$CF0?43f@ DB 'G:%0.3f', 00H	; `string'
CONST	ENDS
;	COMDAT ??_C@_07CCOKENNH@R?3?$CF0?43f@
CONST	SEGMENT
??_C@_07CCOKENNH@R?3?$CF0?43f@ DB 'R:%0.3f', 00H	; `string'
CONST	ENDS
;	COMDAT ??_C@_05ONBKDNLK@?$CF0?43f@
CONST	SEGMENT
??_C@_05ONBKDNLK@?$CF0?43f@ DB '%0.3f', 00H		; `string'
CONST	ENDS
;	COMDAT ??_C@_05MPCLLPPH@V?3?$CF3d@
CONST	SEGMENT
??_C@_05MPCLLPPH@V?3?$CF3d@ DB 'V:%3d', 00H		; `string'
CONST	ENDS
;	COMDAT ??_C@_05JPOGCOEE@S?3?$CF3d@
CONST	SEGMENT
??_C@_05JPOGCOEE@S?3?$CF3d@ DB 'S:%3d', 00H		; `string'
CONST	ENDS
;	COMDAT ??_C@_05PGPHNMBM@H?3?$CF3d@
CONST	SEGMENT
??_C@_05PGPHNMBM@H?3?$CF3d@ DB 'H:%3d', 00H		; `string'
CONST	ENDS
;	COMDAT ??_C@_05NBPIINNE@A?3?$CF3d@
CONST	SEGMENT
??_C@_05NBPIINNE@A?3?$CF3d@ DB 'A:%3d', 00H		; `string'
CONST	ENDS
;	COMDAT ??_C@_05FHGMPPHK@B?3?$CF3d@
CONST	SEGMENT
??_C@_05FHGMPPHK@B?3?$CF3d@ DB 'B:%3d', 00H		; `string'
CONST	ENDS
;	COMDAT ??_C@_05HKBGOMJ@G?3?$CF3d@
CONST	SEGMENT
??_C@_05HKBGOMJ@G?3?$CF3d@ DB 'G:%3d', 00H		; `string'
CONST	ENDS
;	COMDAT ??_C@_05FELKPNOB@R?3?$CF3d@
CONST	SEGMENT
??_C@_05FELKPNOB@R?3?$CF3d@ DB 'R:%3d', 00H		; `string'
CONST	ENDS
;	COMDAT ??_C@_03GOOLIKIF@?$CF3d@
CONST	SEGMENT
??_C@_03GOOLIKIF@?$CF3d@ DB '%3d', 00H			; `string'
CONST	ENDS
;	COMDAT ??_C@_03KDMNBDBJ@?$CD?$CDW@
CONST	SEGMENT
??_C@_03KDMNBDBJ@?$CD?$CDW@ DB '##W', 00H		; `string'
CONST	ENDS
;	COMDAT ??_C@_03BGGDGNFE@?$CD?$CDZ@
CONST	SEGMENT
??_C@_03BGGDGNFE@?$CD?$CDZ@ DB '##Z', 00H		; `string'
CONST	ENDS
;	COMDAT ??_C@_03DNEODOJH@?$CD?$CDY@
CONST	SEGMENT
??_C@_03DNEODOJH@?$CD?$CDY@ DB '##Y', 00H		; `string'
CONST	ENDS
;	COMDAT ??_C@_03CEFFAPNG@?$CD?$CDX@
CONST	SEGMENT
??_C@_03CEFFAPNG@?$CD?$CDX@ DB '##X', 00H		; `string'
CONST	ENDS
;	COMDAT ??_C@_0EH@KMDCELMD@?$CFc?5?$FL?$CF02d?$FN?5where?5?$CF03d?0?5insert?5?$CF0@
CONST	SEGMENT
??_C@_0EH@KMDCELMD@?$CFc?5?$FL?$CF02d?$FN?5where?5?$CF03d?0?5insert?5?$CF0@ DB '%'
	DB	'c [%02d] where %03d, insert %03d, delete %03d, char_storage %'
	DB	'03d "%s"', 00H				; `string'
CONST	ENDS
;	COMDAT ??_C@_0L@NBJMPEMP@undopoints@
CONST	SEGMENT
??_C@_0L@NBJMPEMP@undopoints@ DB 'undopoints', 00H	; `string'
CONST	ENDS
;	COMDAT ??_C@_0EJ@KOMDKONB@undo_point?3?5?$CFd?0?5redo_point?3?5?$CFd?0@
CONST	SEGMENT
??_C@_0EJ@KOMDKONB@undo_point?3?5?$CFd?0?5redo_point?3?5?$CFd?0@ DB 'undo'
	DB	'_point: %d, redo_point: %d, undo_char_point: %d, redo_char_po'
	DB	'int: %d', 00H				; `string'
CONST	ENDS
;	COMDAT ??_C@_0BL@FCPBEJDK@has_preferred_x?3?5?$CFd?5?$CI?$CF?42f?$CJ@
CONST	SEGMENT
??_C@_0BL@FCPBEJDK@has_preferred_x?3?5?$CFd?5?$CI?$CF?42f?$CJ@ DB 'has_pr'
	DB	'eferred_x: %d (%.2f)', 00H			; `string'
CONST	ENDS
;	COMDAT ??_C@_0DI@KFHJPBJM@CurLenW?3?5?$CFd?0?5CurLenA?3?5?$CFd?0?5Curso@
CONST	SEGMENT
??_C@_0DI@KFHJPBJM@CurLenW?3?5?$CFd?0?5CurLenA?3?5?$CFd?0?5Curso@ DB 'Cur'
	DB	'LenW: %d, CurLenA: %d, Cursor: %d, Selection: %d..%d', 00H ; `string'
CONST	ENDS
;	COMDAT ??_C@_0BN@BGBNDAJ@ID?3?50x?$CF08X?0?5ActiveID?3?50x?$CF08X@
CONST	SEGMENT
??_C@_0BN@BGBNDAJ@ID?3?50x?$CF08X?0?5ActiveID?3?50x?$CF08X@ DB 'ID: 0x%08'
	DB	'X, ActiveID: 0x%08X', 00H			; `string'
CONST	ENDS
;	COMDAT ??_C@_01JOAMLHOP@?9@
CONST	SEGMENT
??_C@_01JOAMLHOP@?9@ DB '-', 00H			; `string'
CONST	ENDS
;	COMDAT ??_C@_05CONLABCH@?$CD?$CDmax@
CONST	SEGMENT
??_C@_05CONLABCH@?$CD?$CDmax@ DB '##max', 00H		; `string'
CONST	ENDS
;	COMDAT ??_C@_05DMFAOFEI@?$CD?$CDmin@
CONST	SEGMENT
??_C@_05DMFAOFEI@?$CD?$CDmin@ DB '##min', 00H		; `string'
CONST	ENDS
;	COMDAT ??_C@_03DLDNIBIK@?$CFlf@
CONST	SEGMENT
??_C@_03DLDNIBIK@?$CFlf@ DB '%lf', 00H			; `string'
CONST	ENDS
;	COMDAT ??_C@_06BNJCAIGJ@double@
CONST	SEGMENT
??_C@_06BNJCAIGJ@double@ DB 'double', 00H		; `string'
CONST	ENDS
;	COMDAT ??_C@_05KNFBNCOH@float@
CONST	SEGMENT
??_C@_05KNFBNCOH@float@ DB 'float', 00H			; `string'
CONST	ENDS
;	COMDAT ??_C@_05OINFJHGD@?$CFI64u@
CONST	SEGMENT
??_C@_05OINFJHGD@?$CFI64u@ DB '%I64u', 00H		; `string'
CONST	ENDS
;	COMDAT ??_C@_03LJKELFKG@U64@
CONST	SEGMENT
??_C@_03LJKELFKG@U64@ DB 'U64', 00H			; `string'
CONST	ENDS
;	COMDAT ??_C@_05LLAMLEHD@?$CFI64d@
CONST	SEGMENT
??_C@_05LLAMLEHD@?$CFI64d@ DB '%I64d', 00H		; `string'
CONST	ENDS
;	COMDAT ??_C@_03JMMPOKHK@S64@
CONST	SEGMENT
??_C@_03JMMPOKHK@S64@ DB 'S64', 00H			; `string'
CONST	ENDS
;	COMDAT ??_C@_03OJDFNAML@U32@
CONST	SEGMENT
??_C@_03OJDFNAML@U32@ DB 'U32', 00H			; `string'
CONST	ENDS
;	COMDAT ??_C@_03MMFOIPBH@S32@
CONST	SEGMENT
??_C@_03MMFOIPBH@S32@ DB 'S32', 00H			; `string'
CONST	ENDS
;	COMDAT ??_C@_03IONNMBKB@U16@
CONST	SEGMENT
??_C@_03IONNMBKB@U16@ DB 'U16', 00H			; `string'
CONST	ENDS
;	COMDAT ??_C@_03KLLGJOHN@S16@
CONST	SEGMENT
??_C@_03KLLGJOHN@S16@ DB 'S16', 00H			; `string'
CONST	ENDS
;	COMDAT ??_C@_02HNFGHGEN@U8@
CONST	SEGMENT
??_C@_02HNFGHGEN@U8@ DB 'U8', 00H			; `string'
CONST	ENDS
;	COMDAT ??_C@_02HJNLAKPP@S8@
CONST	SEGMENT
??_C@_02HJNLAKPP@S8@ DB 'S8', 00H			; `string'
CONST	ENDS
;	COMDAT ??_C@_0P@HFPOEILF@?$CKUnknown?5item?$CK@
CONST	SEGMENT
??_C@_0P@HFPOEILF@?$CKUnknown?5item?$CK@ DB '*Unknown item*', 00H ; `string'
CONST	ENDS
;	COMDAT ??_C@_0N@JOGGDHMO@?$CD?$CDCombo_?$CF02d@
CONST	SEGMENT
??_C@_0N@JOGGDHMO@?$CD?$CDCombo_?$CF02d@ DB '##Combo_%02d', 00H ; `string'
CONST	ENDS
;	COMDAT ??_C@_01HCONENDN@?$HL@
CONST	SEGMENT
??_C@_01HCONENDN@?$HL@ DB '{', 00H			; `string'
CONST	ENDS
;	COMDAT ??_C@_01CELHOKLL@?$HN@
CONST	SEGMENT
??_C@_01CELHOKLL@?$HN@ DB '}', 00H			; `string'
CONST	ENDS
;	COMDAT ??_C@_0N@LNBMNBNO@?$CD?$CDComboPopup@
CONST	SEGMENT
??_C@_0N@LNBMNBNO@?$CD?$CDComboPopup@ DB '##ComboPopup', 00H ; `string'
CONST	ENDS
;	COMDAT ??_C@_0CC@IODDEFBI@?9?9?9?9?9?9?9?9?9?9?9?9?9?9?9?9?9?9?9?9?9?9?9?9?9?9?9?9?9?9?9@
CONST	SEGMENT
??_C@_0CC@IODDEFBI@?9?9?9?9?9?9?9?9?9?9?9?9?9?9?9?9?9?9?9?9?9?9?9?9?9?9?9?9?9?9?9@ DB '-'
	DB	'-------------------------------', 0aH, 00H	; `string'
CONST	ENDS
;	COMDAT ??_C@_02LLHJFGPH@?5?$HM@
CONST	SEGMENT
??_C@_02LLHJFGPH@?5?$HM@ DB ' |', 00H			; `string'
CONST	ENDS
;	COMDAT ??_C@_06KLKJBGEJ@?$CF?40f?$CF?$CF@
CONST	SEGMENT
??_C@_06KLKJBGEJ@?$CF?40f?$CF?$CF@ DB '%.0f%%', 00H	; `string'
CONST	ENDS
;	COMDAT ??_C@_03MHDGHODJ@?$CI?5?$CJ@
CONST	SEGMENT
??_C@_03MHDGHODJ@?$CI?5?$CJ@ DB '( )', 00H		; `string'
CONST	ENDS
;	COMDAT ??_C@_03KFJJABDB@?$CIx?$CJ@
CONST	SEGMENT
??_C@_03KFJJABDB@?$CIx?$CJ@ DB '(x)', 00H		; `string'
CONST	ENDS
;	COMDAT ??_C@_03PFOPMNLJ@?$FL?5?$FN@
CONST	SEGMENT
??_C@_03PFOPMNLJ@?$FL?5?$FN@ DB '[ ]', 00H		; `string'
CONST	ENDS
;	COMDAT ??_C@_03JHEALCLB@?$FLx?$FN@
CONST	SEGMENT
??_C@_03JHEALCLB@?$FLx?$FN@ DB '[x]', 00H		; `string'
CONST	ENDS
;	COMDAT ??_C@_03JDMNMOAD@?$FL?$HO?$FN@
CONST	SEGMENT
??_C@_03JDMNMOAD@?$FL?$HO?$FN@ DB '[~]', 00H		; `string'
CONST	ENDS
;	COMDAT ??_C@_06EBHDMMP@?$CDimage@
CONST	SEGMENT
??_C@_06EBHDMMP@?$CDimage@ DB '#image', 00H		; `string'
CONST	ENDS
;	COMDAT ??_C@_08FEBONNKO@?$CDSCROLLY@
CONST	SEGMENT
??_C@_08FEBONNKO@?$CDSCROLLY@ DB '#SCROLLY', 00H	; `string'
CONST	ENDS
;	COMDAT ??_C@_08ENAFOMOP@?$CDSCROLLX@
CONST	SEGMENT
??_C@_08ENAFOMOP@?$CDSCROLLX@ DB '#SCROLLX', 00H	; `string'
CONST	ENDS
;	COMDAT ??_C@_01OHGJGJJP@?$FL@
CONST	SEGMENT
??_C@_01OHGJGJJP@?$FL@ DB '[', 00H			; `string'
CONST	ENDS
;	COMDAT ??_C@_01LBDDMOBJ@?$FN@
CONST	SEGMENT
??_C@_01LBDDMOBJ@?$FN@ DB ']', 00H			; `string'
?STB_TEXTEDIT_NEWLINE@ImStb@@3GA DW 0aH			; ImStb::STB_TEXTEDIT_NEWLINE
	ORG $+1
?GDataTypeInfo@@3QBUImGuiDataTypeInfo@@B DQ 0000000000000001H ; GDataTypeInfo
	DQ	FLAT:??_C@_02HJNLAKPP@S8@
	DQ	FLAT:??_C@_02DPKJAMEF@?$CFd@
	DQ	FLAT:??_C@_02DPKJAMEF@?$CFd@
	DQ	0000000000000001H
	DQ	FLAT:??_C@_02HNFGHGEN@U8@
	DQ	FLAT:??_C@_02GMHACPFF@?$CFu@
	DQ	FLAT:??_C@_02GMHACPFF@?$CFu@
	DQ	0000000000000002H
	DQ	FLAT:??_C@_03KLLGJOHN@S16@
	DQ	FLAT:??_C@_02DPKJAMEF@?$CFd@
	DQ	FLAT:??_C@_02DPKJAMEF@?$CFd@
	DQ	0000000000000002H
	DQ	FLAT:??_C@_03IONNMBKB@U16@
	DQ	FLAT:??_C@_02GMHACPFF@?$CFu@
	DQ	FLAT:??_C@_02GMHACPFF@?$CFu@
	DQ	0000000000000004H
	DQ	FLAT:??_C@_03MMFOIPBH@S32@
	DQ	FLAT:??_C@_02DPKJAMEF@?$CFd@
	DQ	FLAT:??_C@_02DPKJAMEF@?$CFd@
	DQ	0000000000000004H
	DQ	FLAT:??_C@_03OJDFNAML@U32@
	DQ	FLAT:??_C@_02GMHACPFF@?$CFu@
	DQ	FLAT:??_C@_02GMHACPFF@?$CFu@
	DQ	0000000000000008H
	DQ	FLAT:??_C@_03JMMPOKHK@S64@
	DQ	FLAT:??_C@_05LLAMLEHD@?$CFI64d@
	DQ	FLAT:??_C@_05LLAMLEHD@?$CFI64d@
	DQ	0000000000000008H
	DQ	FLAT:??_C@_03LJKELFKG@U64@
	DQ	FLAT:??_C@_05OINFJHGD@?$CFI64u@
	DQ	FLAT:??_C@_05OINFJHGD@?$CFI64u@
	DQ	0000000000000004H
	DQ	FLAT:??_C@_05KNFBNCOH@float@
	DQ	FLAT:??_C@_04GFJLOHHD@?$CF?43f@
	DQ	FLAT:??_C@_02NJPGOMH@?$CFf@
	DQ	0000000000000008H
	DQ	FLAT:??_C@_06BNJCAIGJ@double@
	DQ	FLAT:??_C@_02NJPGOMH@?$CFf@
	DQ	FLAT:??_C@_03DLDNIBIK@?$CFlf@
PUBLIC	??$RoundScalarWithFormatT@N@ImGui@@YANPEBDHN@Z	; ImGui::RoundScalarWithFormatT<double>
PUBLIC	??$ScaleValueFromRatioT@NNN@ImGui@@YANHMNN_NMM@Z ; ImGui::ScaleValueFromRatioT<double,double,double>
PUBLIC	??$ScaleRatioFromValueT@NNN@ImGui@@YAMHNNN_NMM@Z ; ImGui::ScaleRatioFromValueT<double,double,double>
PUBLIC	??$RoundScalarWithFormatT@M@ImGui@@YAMPEBDHM@Z	; ImGui::RoundScalarWithFormatT<float>
PUBLIC	??$ScaleValueFromRatioT@MMM@ImGui@@YAMHMMM_NMM@Z ; ImGui::ScaleValueFromRatioT<float,float,float>
PUBLIC	??$ScaleRatioFromValueT@MMM@ImGui@@YAMHMMM_NMM@Z ; ImGui::ScaleRatioFromValueT<float,float,float>
PUBLIC	??$RoundScalarWithFormatT@_K@ImGui@@YA_KPEBDH_K@Z ; ImGui::RoundScalarWithFormatT<unsigned __int64>
PUBLIC	??$ScaleValueFromRatioT@_K_JN@ImGui@@YA_KHM_K0_NMM@Z ; ImGui::ScaleValueFromRatioT<unsigned __int64,__int64,double>
PUBLIC	??$ScaleRatioFromValueT@_K_JN@ImGui@@YAMH_K00_NMM@Z ; ImGui::ScaleRatioFromValueT<unsigned __int64,__int64,double>
PUBLIC	??$RoundScalarWithFormatT@_J@ImGui@@YA_JPEBDH_J@Z ; ImGui::RoundScalarWithFormatT<__int64>
PUBLIC	??$ScaleValueFromRatioT@_J_JN@ImGui@@YA_JHM_J0_NMM@Z ; ImGui::ScaleValueFromRatioT<__int64,__int64,double>
PUBLIC	??$ScaleRatioFromValueT@_J_JN@ImGui@@YAMH_J00_NMM@Z ; ImGui::ScaleRatioFromValueT<__int64,__int64,double>
PUBLIC	??$RoundScalarWithFormatT@I@ImGui@@YAIPEBDHI@Z	; ImGui::RoundScalarWithFormatT<unsigned int>
PUBLIC	??$ScaleValueFromRatioT@IHM@ImGui@@YAIHMII_NMM@Z ; ImGui::ScaleValueFromRatioT<unsigned int,int,float>
PUBLIC	??$ScaleRatioFromValueT@IHM@ImGui@@YAMHIII_NMM@Z ; ImGui::ScaleRatioFromValueT<unsigned int,int,float>
PUBLIC	??$RoundScalarWithFormatT@H@ImGui@@YAHPEBDHH@Z	; ImGui::RoundScalarWithFormatT<int>
PUBLIC	??$ScaleValueFromRatioT@HHM@ImGui@@YAHHMHH_NMM@Z ; ImGui::ScaleValueFromRatioT<int,int,float>
PUBLIC	??$ScaleRatioFromValueT@HHM@ImGui@@YAMHHHH_NMM@Z ; ImGui::ScaleRatioFromValueT<int,int,float>
PUBLIC	??$SliderBehaviorT@NNN@ImGui@@YA_NAEBUImRect@@IHPEANNNPEBDHPEAU1@@Z ; ImGui::SliderBehaviorT<double,double,double>
PUBLIC	??$SliderBehaviorT@MMM@ImGui@@YA_NAEBUImRect@@IHPEAMMMPEBDHPEAU1@@Z ; ImGui::SliderBehaviorT<float,float,float>
PUBLIC	??$SliderBehaviorT@_K_JN@ImGui@@YA_NAEBUImRect@@IHPEA_K_K2PEBDHPEAU1@@Z ; ImGui::SliderBehaviorT<unsigned __int64,__int64,double>
PUBLIC	??$SliderBehaviorT@_J_JN@ImGui@@YA_NAEBUImRect@@IHPEA_J_J2PEBDHPEAU1@@Z ; ImGui::SliderBehaviorT<__int64,__int64,double>
PUBLIC	??$SliderBehaviorT@IHM@ImGui@@YA_NAEBUImRect@@IHPEAIIIPEBDHPEAU1@@Z ; ImGui::SliderBehaviorT<unsigned int,int,float>
PUBLIC	??$SliderBehaviorT@HHM@ImGui@@YA_NAEBUImRect@@IHPEAHHHPEBDHPEAU1@@Z ; ImGui::SliderBehaviorT<int,int,float>
PUBLIC	??$DragBehaviorT@NNN@ImGui@@YA_NHPEANMNNPEBDH@Z	; ImGui::DragBehaviorT<double,double,double>
PUBLIC	??$DragBehaviorT@MMM@ImGui@@YA_NHPEAMMMMPEBDH@Z	; ImGui::DragBehaviorT<float,float,float>
PUBLIC	??$DragBehaviorT@_K_JN@ImGui@@YA_NHPEA_KM_K1PEBDH@Z ; ImGui::DragBehaviorT<unsigned __int64,__int64,double>
PUBLIC	??$DragBehaviorT@_J_JN@ImGui@@YA_NHPEA_JM_J1PEBDH@Z ; ImGui::DragBehaviorT<__int64,__int64,double>
PUBLIC	??$DragBehaviorT@IHM@ImGui@@YA_NHPEAIMIIPEBDH@Z	; ImGui::DragBehaviorT<unsigned int,int,float>
PUBLIC	??$DragBehaviorT@HHM@ImGui@@YA_NHPEAHMHHPEBDH@Z	; ImGui::DragBehaviorT<int,int,float>
PUBLIC	??$CheckboxFlagsT@H@ImGui@@YA_NPEBDPEAHH@Z	; ImGui::CheckboxFlagsT<int>
PUBLIC	?_grow_capacity@?$ImVector@UImGuiPtrOrIndex@@@@QEBAHH@Z ; ImVector<ImGuiPtrOrIndex>::_grow_capacity
PUBLIC	?reserve@?$ImVector@UImGuiPtrOrIndex@@@@QEAAXH@Z ; ImVector<ImGuiPtrOrIndex>::reserve
PUBLIC	?_grow_capacity@?$ImVector@UImGuiShrinkWidthItem@@@@QEBAHH@Z ; ImVector<ImGuiShrinkWidthItem>::_grow_capacity
PUBLIC	?reserve@?$ImVector@UImGuiShrinkWidthItem@@@@QEAAXH@Z ; ImVector<ImGuiShrinkWidthItem>::reserve
PUBLIC	?_grow_capacity@?$ImVector@UImGuiTabItem@@@@QEBAHH@Z ; ImVector<ImGuiTabItem>::_grow_capacity
PUBLIC	?reserve@?$ImVector@UImGuiTabItem@@@@QEAAXH@Z	; ImVector<ImGuiTabItem>::reserve
PUBLIC	??A?$ImVector@G@@QEBAAEBGH@Z			; ImVector<unsigned short>::operator[]
PUBLIC	?reserve_discard@?$ImVector@D@@QEAAXH@Z		; ImVector<char>::reserve_discard
PUBLIC	??A?$ImVector@M@@QEBAAEBMH@Z			; ImVector<float>::operator[]
PUBLIC	?GetIndex@?$ImPool@UImGuiTabBar@@@@QEBAHPEBUImGuiTabBar@@@Z ; ImPool<ImGuiTabBar>::GetIndex
PUBLIC	?Contains@?$ImPool@UImGuiTabBar@@@@QEBA_NPEBUImGuiTabBar@@@Z ; ImPool<ImGuiTabBar>::Contains
PUBLIC	?empty@?$ImVector@UImGuiPtrOrIndex@@@@QEBA_NXZ	; ImVector<ImGuiPtrOrIndex>::empty
PUBLIC	?back@?$ImVector@UImGuiPtrOrIndex@@@@QEAAAEAUImGuiPtrOrIndex@@XZ ; ImVector<ImGuiPtrOrIndex>::back
PUBLIC	?push_back@?$ImVector@UImGuiPtrOrIndex@@@@QEAAXAEBUImGuiPtrOrIndex@@@Z ; ImVector<ImGuiPtrOrIndex>::push_back
PUBLIC	?pop_back@?$ImVector@UImGuiPtrOrIndex@@@@QEAAXXZ ; ImVector<ImGuiPtrOrIndex>::pop_back
PUBLIC	??A?$ImVector@UImGuiShrinkWidthItem@@@@QEAAAEAUImGuiShrinkWidthItem@@H@Z ; ImVector<ImGuiShrinkWidthItem>::operator[]
PUBLIC	?resize@?$ImVector@UImGuiShrinkWidthItem@@@@QEAAXH@Z ; ImVector<ImGuiShrinkWidthItem>::resize
PUBLIC	??0?$ImVector@UImGuiTabItem@@@@QEAA@XZ		; ImVector<ImGuiTabItem>::ImVector<ImGuiTabItem>
PUBLIC	?resize@?$ImVector@UImGuiTabItem@@@@QEAAXH@Z	; ImVector<ImGuiTabItem>::resize
PUBLIC	?push_back@?$ImVector@UImGuiTabItem@@@@QEAAXAEBUImGuiTabItem@@@Z ; ImVector<ImGuiTabItem>::push_back
PUBLIC	?erase@?$ImVector@UImGuiTabItem@@@@QEAAPEAUImGuiTabItem@@PEBU2@@Z ; ImVector<ImGuiTabItem>::erase
PUBLIC	?TabItemCalcSize@ImGui@@YA?AUImVec2@@PEBD_N@Z	; ImGui::TabItemCalcSize
PUBLIC	?TabBarProcessReorder@ImGui@@YA_NPEAUImGuiTabBar@@@Z ; ImGui::TabBarProcessReorder
PUBLIC	?TabBarQueueReorderFromMousePos@ImGui@@YAXPEAUImGuiTabBar@@PEAUImGuiTabItem@@UImVec2@@@Z ; ImGui::TabBarQueueReorderFromMousePos
PUBLIC	??0ImGuiTabBarSection@@QEAA@XZ			; ImGuiTabBarSection::ImGuiTabBarSection
PUBLIC	?MenuItemEx@ImGui@@YA_NPEBD00_N1@Z		; ImGui::MenuItemEx
PUBLIC	?BeginMenuEx@ImGui@@YA_NPEBD0_N@Z		; ImGui::BeginMenuEx
PUBLIC	?DeclColumns@ImGuiMenuColumns@@QEAAMMMMM@Z	; ImGuiMenuColumns::DeclColumns
PUBLIC	?CalcNextTotalWidth@ImGuiMenuColumns@@QEAAX_N@Z	; ImGuiMenuColumns::CalcNextTotalWidth
PUBLIC	?ColorPickerOptionsPopup@ImGui@@YAXPEBMH@Z	; ImGui::ColorPickerOptionsPopup
PUBLIC	?ColorEditOptionsPopup@ImGui@@YAXPEBMH@Z	; ImGui::ColorEditOptionsPopup
PUBLIC	?ColorTooltip@ImGui@@YAXPEBDPEBMH@Z		; ImGui::ColorTooltip
PUBLIC	?ColorPicker4PS@ImGui@@YA_NPEBDQEAMHPEBM@Z	; ImGui::ColorPicker4PS
PUBLIC	?InputTextEx@ImGui@@YA_NPEBD0PEADHAEBUImVec2@@HP6AHPEAUImGuiInputTextCallbackData@@@ZPEAX@Z ; ImGui::InputTextEx
PUBLIC	??0ImGuiInputTextCallbackData@@QEAA@XZ		; ImGuiInputTextCallbackData::ImGuiInputTextCallbackData
PUBLIC	?OnKeyPressed@ImGuiInputTextState@@QEAAXH@Z	; ImGuiInputTextState::OnKeyPressed
PUBLIC	?TempInputScalar@ImGui@@YA_NAEBUImRect@@IPEBDHPEAX1PEBX3@Z ; ImGui::TempInputScalar
PUBLIC	?TempInputText@ImGui@@YA_NAEBUImRect@@IPEBDPEADHH@Z ; ImGui::TempInputText
PUBLIC	?ImParseFormatPrecision@@YAHPEBDH@Z		; ImParseFormatPrecision
PUBLIC	?ImParseFormatSanitizeForScanning@@YAPEBDPEBDPEAD_K@Z ; ImParseFormatSanitizeForScanning
PUBLIC	?ImParseFormatSanitizeForPrinting@@YAXPEBDPEAD_K@Z ; ImParseFormatSanitizeForPrinting
PUBLIC	?ImParseFormatTrimDecorations@@YAPEBDPEBDPEAD_K@Z ; ImParseFormatTrimDecorations
PUBLIC	?ImParseFormatFindEnd@@YAPEBDPEBD@Z		; ImParseFormatFindEnd
PUBLIC	?ImParseFormatFindStart@@YAPEBDPEBD@Z		; ImParseFormatFindStart
PUBLIC	?SliderBehavior@ImGui@@YA_NAEBUImRect@@IHPEAXPEBX2PEBDHPEAU2@@Z ; ImGui::SliderBehavior
PUBLIC	?DragBehavior@ImGui@@YA_NIHPEAXMPEBX1PEBDH@Z	; ImGui::DragBehavior
PUBLIC	?DataTypeClamp@ImGui@@YA_NHPEAXPEBX1@Z		; ImGui::DataTypeClamp
PUBLIC	?DataTypeCompare@ImGui@@YAHHPEBX0@Z		; ImGui::DataTypeCompare
PUBLIC	?DataTypeApplyFromText@ImGui@@YA_NPEBDHPEAX0@Z	; ImGui::DataTypeApplyFromText
PUBLIC	?DataTypeFormatString@ImGui@@YAHPEADHHPEBXPEBD@Z ; ImGui::DataTypeFormatString
PUBLIC	?DataTypeGetInfo@ImGui@@YAPEBUImGuiDataTypeInfo@@H@Z ; ImGui::DataTypeGetInfo
PUBLIC	?BeginComboPopup@ImGui@@YA_NIAEBUImRect@@H@Z	; ImGui::BeginComboPopup
PUBLIC	?ShrinkWidths@ImGui@@YAXPEAUImGuiShrinkWidthItem@@HM@Z ; ImGui::ShrinkWidths
PUBLIC	?ScrollbarEx@ImGui@@YA_NAEBUImRect@@IW4ImGuiAxis@@PEA_J_J3H@Z ; ImGui::ScrollbarEx
PUBLIC	?GetWindowScrollbarRect@ImGui@@YA?AUImRect@@PEAUImGuiWindow@@W4ImGuiAxis@@@Z ; ImGui::GetWindowScrollbarRect
PUBLIC	?GetWindowScrollbarID@ImGui@@YAIPEAUImGuiWindow@@W4ImGuiAxis@@@Z ; ImGui::GetWindowScrollbarID
PUBLIC	?ArrowButtonEx@ImGui@@YA_NPEBDHUImVec2@@H@Z	; ImGui::ArrowButtonEx
PUBLIC	?TextColoredV@ImGui@@YAXAEBUImVec4@@PEBDPEAD@Z	; ImGui::TextColoredV
PUBLIC	?TextEx@ImGui@@YAXPEBD0H@Z			; ImGui::TextEx
PUBLIC	?GetInputTextState@ImGui@@YAPEAUImGuiInputTextState@@I@Z ; ImGui::GetInputTextState
PUBLIC	?TempInputIsActive@ImGui@@YA_NI@Z		; ImGui::TempInputIsActive
PUBLIC	??0ImGuiTabItem@@QEAA@XZ			; ImGuiTabItem::ImGuiTabItem
PUBLIC	??0ImGuiPtrOrIndex@@QEAA@H@Z			; ImGuiPtrOrIndex::ImGuiPtrOrIndex
PUBLIC	??0ImGuiPtrOrIndex@@QEAA@PEAX@Z			; ImGuiPtrOrIndex::ImGuiPtrOrIndex
PUBLIC	?ClearFlags@ImGuiNextItemData@@QEAAXXZ		; ImGuiNextItemData::ClearFlags
PUBLIC	?SelectAll@ImGuiInputTextState@@QEAAXXZ		; ImGuiInputTextState::SelectAll
PUBLIC	?ClearSelection@ImGuiInputTextState@@QEAAXXZ	; ImGuiInputTextState::ClearSelection
PUBLIC	?HasSelection@ImGuiInputTextState@@QEBA_NXZ	; ImGuiInputTextState::HasSelection
PUBLIC	?CursorClamp@ImGuiInputTextState@@QEAAXXZ	; ImGuiInputTextState::CursorClamp
PUBLIC	?CursorAnimReset@ImGuiInputTextState@@QEAAXXZ	; ImGuiInputTextState::CursorAnimReset
PUBLIC	?GetTR@ImRect@@QEBA?AUImVec2@@XZ		; ImRect::GetTR
PUBLIC	?GetTL@ImRect@@QEBA?AUImVec2@@XZ		; ImRect::GetTL
PUBLIC	?GetArea@ImRect@@QEBAMXZ			; ImRect::GetArea
PUBLIC	?GetCharAdvance@ImFont@@QEBAMG@Z		; ImFont::GetCharAdvance
PUBLIC	?PrimVtx@ImDrawList@@QEAAXAEBUImVec2@@0I@Z	; ImDrawList::PrimVtx
PUBLIC	?EndCombo@ImGui@@YAXXZ				; ImGui::EndCombo
PUBLIC	?AlignTextToFramePadding@ImGui@@YAXXZ		; ImGui::AlignTextToFramePadding
PUBLIC	?Spacing@ImGui@@YAXXZ				; ImGui::Spacing
PUBLIC	?DragScalar@ImGui@@YA_NPEBDHPEAXMPEBX20H@Z	; ImGui::DragScalar
PUBLIC	?ColorPicker4@ImGui@@YA_NPEBDQEAMHPEBM@Z	; ImGui::ColorPicker4
PUBLIC	?ColorButton@ImGui@@YA_NPEBDAEBUImVec4@@HAEBUImVec2@@@Z ; ImGui::ColorButton
PUBLIC	?SliderScalar@ImGui@@YA_NPEBDHPEAXPEBX20H@Z	; ImGui::SliderScalar
PUBLIC	?BeginCombo@ImGui@@YA_NPEBD0H@Z			; ImGui::BeginCombo
PUBLIC	?InvisibleButton@ImGui@@YA_NPEBDAEBUImVec2@@H@Z	; ImGui::InvisibleButton
PUBLIC	?DragInt@ImGui@@YA_NPEBDPEAHMHH0H@Z		; ImGui::DragInt
PUBLIC	?RadioButton@ImGui@@YA_NPEBD_N@Z		; ImGui::RadioButton
PUBLIC	?ColorEdit4@ImGui@@YA_NPEBDQEAMH@Z		; ImGui::ColorEdit4
PUBLIC	?InsertChars@ImGuiInputTextCallbackData@@QEAAXHPEBD0@Z ; ImGuiInputTextCallbackData::InsertChars
PUBLIC	?DeleteChars@ImGuiInputTextCallbackData@@QEAAXHH@Z ; ImGuiInputTextCallbackData::DeleteChars
PUBLIC	??0ImGuiTabBar@@QEAA@XZ				; ImGuiTabBar::ImGuiTabBar
PUBLIC	?Update@ImGuiMenuColumns@@QEAAXM_N@Z		; ImGuiMenuColumns::Update
PUBLIC	?TabBarAddTab@ImGui@@YAXPEAUImGuiTabBar@@HPEAUImGuiWindow@@@Z ; ImGui::TabBarAddTab
PUBLIC	?SplitterBehavior@ImGui@@YA_NAEBUImRect@@IW4ImGuiAxis@@PEAM2MMMMI@Z ; ImGui::SplitterBehavior
PUBLIC	?TextV@ImGui@@YAXPEBDPEAD@Z			; ImGui::TextV
PUBLIC	?TabItemBackground@ImGui@@YAXPEAUImDrawList@@AEBUImRect@@HI@Z ; ImGui::TabItemBackground
PUBLIC	?TabBarFindTabByID@ImGui@@YAPEAUImGuiTabItem@@PEAUImGuiTabBar@@I@Z ; ImGui::TabBarFindTabByID
PUBLIC	?InputTextDeactivateHook@ImGui@@YAXI@Z		; ImGui::InputTextDeactivateHook
PUBLIC	?MenuItem@ImGui@@YA_NPEBD0_N1@Z			; ImGui::MenuItem
PUBLIC	?Checkbox@ImGui@@YA_NPEBDPEA_N@Z		; ImGui::Checkbox
PUBLIC	?DragFloat@ImGui@@YA_NPEBDPEAMMMM0H@Z		; ImGui::DragFloat
PUBLIC	?TextColored@ImGui@@YAXAEBUImVec4@@PEBDZZ	; ImGui::TextColored
PUBLIC	?InputText@ImGui@@YA_NPEBDPEAD_KHP6AHPEAUImGuiInputTextCallbackData@@@ZPEAX@Z ; ImGui::InputText
PUBLIC	?Selectable@ImGui@@YA_NPEBD_NHAEBUImVec2@@@Z	; ImGui::Selectable
PUBLIC	?TabBarFindMostRecentlySelectedTabForActiveWindow@ImGui@@YAPEAUImGuiTabItem@@PEAUImGuiTabBar@@@Z ; ImGui::TabBarFindMostRecentlySelectedTabForActiveWindow
PUBLIC	?CheckboxFlags@ImGui@@YA_NPEBDPEAHH@Z		; ImGui::CheckboxFlags
PUBLIC	?TabItemLabelAndCloseButton@ImGui@@YAXPEAUImDrawList@@AEBUImRect@@HUImVec2@@PEBDII_NPEA_N5@Z ; ImGui::TabItemLabelAndCloseButton
PUBLIC	?ButtonBehavior@ImGui@@YA_NAEBUImRect@@IPEA_N1H@Z ; ImGui::ButtonBehavior
PUBLIC	?TabBarGetTabName@ImGui@@YAPEBDPEAUImGuiTabBar@@PEAUImGuiTabItem@@@Z ; ImGui::TabBarGetTabName
PUBLIC	?EndTabBar@ImGui@@YAXXZ				; ImGui::EndTabBar
PUBLIC	?Dummy@ImGui@@YAXAEBUImVec2@@@Z			; ImGui::Dummy
PUBLIC	?CloseButton@ImGui@@YA_NIAEBUImVec2@@@Z		; ImGui::CloseButton
PUBLIC	?TabItemEx@ImGui@@YA_NPEAUImGuiTabBar@@PEBDPEA_NHPEAUImGuiWindow@@@Z ; ImGui::TabItemEx
PUBLIC	?TabItemCalcSize@ImGui@@YA?AUImVec2@@PEAUImGuiWindow@@@Z ; ImGui::TabItemCalcSize
PUBLIC	?CollapseButton@ImGui@@YA_NIAEBUImVec2@@PEAUImGuiDockNode@@@Z ; ImGui::CollapseButton
PUBLIC	?TabBarRemoveTab@ImGui@@YAXPEAUImGuiTabBar@@I@Z	; ImGui::TabBarRemoveTab
PUBLIC	?TabBarQueueFocus@ImGui@@YAXPEAUImGuiTabBar@@PEAUImGuiTabItem@@@Z ; ImGui::TabBarQueueFocus
PUBLIC	?Scrollbar@ImGui@@YAXW4ImGuiAxis@@@Z		; ImGui::Scrollbar
PUBLIC	?TabBarQueueReorder@ImGui@@YAXPEAUImGuiTabBar@@PEAUImGuiTabItem@@H@Z ; ImGui::TabBarQueueReorder
PUBLIC	?Separator@ImGui@@YAXXZ				; ImGui::Separator
PUBLIC	?TabBarCloseTab@ImGui@@YAXPEAUImGuiTabBar@@PEAUImGuiTabItem@@@Z ; ImGui::TabBarCloseTab
PUBLIC	?BeginTabBarEx@ImGui@@YA_NPEAUImGuiTabBar@@AEBUImRect@@H@Z ; ImGui::BeginTabBarEx
PUBLIC	?MenuItem@ImGui@@YA_NPEBD0PEA_N_N@Z		; ImGui::MenuItem
PUBLIC	?BeginMenuBar@ImGui@@YA_NXZ			; ImGui::BeginMenuBar
PUBLIC	?BeginMenu@ImGui@@YA_NPEBD_N@Z			; ImGui::BeginMenu
PUBLIC	?EndMenu@ImGui@@YAXXZ				; ImGui::EndMenu
PUBLIC	?EndMenuBar@ImGui@@YAXXZ			; ImGui::EndMenuBar
PUBLIC	?SliderFloat@ImGui@@YA_NPEBDPEAMMM0H@Z		; ImGui::SliderFloat
PUBLIC	?SeparatorEx@ImGui@@YAXHM@Z			; ImGui::SeparatorEx
PUBLIC	?Text@ImGui@@YAXPEBDZZ				; ImGui::Text
PUBLIC	?Button@ImGui@@YA_NPEBDAEBUImVec2@@@Z		; ImGui::Button
PUBLIC	?ButtonEx@ImGui@@YA_NPEBDAEBUImVec2@@H@Z	; ImGui::ButtonEx
;	COMDAT pdata
pdata	SEGMENT
$pdata$??$RoundScalarWithFormatT@N@ImGui@@YANPEBDHN@Z DD imagerel $LN54@RoundScala
	DD	imagerel $LN54@RoundScala+337
	DD	imagerel $unwind$??$RoundScalarWithFormatT@N@ImGui@@YANPEBDHN@Z
pdata	ENDS
;	COMDAT pdata
pdata	SEGMENT
$pdata$??$RoundScalarWithFormatT@M@ImGui@@YAMPEBDHM@Z DD imagerel $LN54@RoundScala
	DD	imagerel $LN54@RoundScala+341
	DD	imagerel $unwind$??$RoundScalarWithFormatT@M@ImGui@@YAMPEBDHM@Z
pdata	ENDS
;	COMDAT pdata
pdata	SEGMENT
$pdata$??$RoundScalarWithFormatT@_K@ImGui@@YA_KPEBDH_K@Z DD imagerel $LN68@RoundScala
	DD	imagerel $LN68@RoundScala+368
	DD	imagerel $unwind$??$RoundScalarWithFormatT@_K@ImGui@@YA_KPEBDH_K@Z
pdata	ENDS
;	COMDAT pdata
pdata	SEGMENT
$pdata$??$RoundScalarWithFormatT@_J@ImGui@@YA_JPEBDH_J@Z DD imagerel $LN65@RoundScala
	DD	imagerel $LN65@RoundScala+326
	DD	imagerel $unwind$??$RoundScalarWithFormatT@_J@ImGui@@YA_JPEBDH_J@Z
pdata	ENDS
;	COMDAT pdata
pdata	SEGMENT
$pdata$??$RoundScalarWithFormatT@I@ImGui@@YAIPEBDHI@Z DD imagerel $LN65@RoundScala
	DD	imagerel $LN65@RoundScala+325
	DD	imagerel $unwind$??$RoundScalarWithFormatT@I@ImGui@@YAIPEBDHI@Z
pdata	ENDS
;	COMDAT pdata
pdata	SEGMENT
$pdata$??$RoundScalarWithFormatT@H@ImGui@@YAHPEBDHH@Z DD imagerel $LN65@RoundScala
	DD	imagerel $LN65@RoundScala+324
	DD	imagerel $unwind$??$RoundScalarWithFormatT@H@ImGui@@YAHPEBDHH@Z
pdata	ENDS
;	COMDAT pdata
pdata	SEGMENT
$pdata$??$ImAtoi@H@@YAPEBDPEBDPEAH@Z DD imagerel ??$ImAtoi@H@@YAPEBDPEBDPEAH@Z
	DD	imagerel ??$ImAtoi@H@@YAPEBDPEBDPEAH@Z+122
	DD	imagerel $unwind$??$ImAtoi@H@@YAPEBDPEBDPEAH@Z
pdata	ENDS
;	COMDAT pdata
pdata	SEGMENT
$pdata$??$SliderBehaviorT@NNN@ImGui@@YA_NAEBUImRect@@IHPEANNNPEBDHPEAU1@@Z DD imagerel $LN477@SliderBeha
	DD	imagerel $LN477@SliderBeha+71
	DD	imagerel $unwind$??$SliderBehaviorT@NNN@ImGui@@YA_NAEBUImRect@@IHPEANNNPEBDHPEAU1@@Z
pdata	ENDS
;	COMDAT pdata
pdata	SEGMENT
$pdata$8$??$SliderBehaviorT@NNN@ImGui@@YA_NAEBUImRect@@IHPEANNNPEBDHPEAU1@@Z DD imagerel $LN477@SliderBeha+71
	DD	imagerel $LN477@SliderBeha+458
	DD	imagerel $chain$8$??$SliderBehaviorT@NNN@ImGui@@YA_NAEBUImRect@@IHPEANNNPEBDHPEAU1@@Z
pdata	ENDS
;	COMDAT pdata
pdata	SEGMENT
$pdata$9$??$SliderBehaviorT@NNN@ImGui@@YA_NAEBUImRect@@IHPEANNNPEBDHPEAU1@@Z DD imagerel $LN477@SliderBeha+458
	DD	imagerel $LN477@SliderBeha+510
	DD	imagerel $chain$9$??$SliderBehaviorT@NNN@ImGui@@YA_NAEBUImRect@@IHPEANNNPEBDHPEAU1@@Z
pdata	ENDS
;	COMDAT pdata
pdata	SEGMENT
$pdata$10$??$SliderBehaviorT@NNN@ImGui@@YA_NAEBUImRect@@IHPEANNNPEBDHPEAU1@@Z DD imagerel $LN477@SliderBeha+510
	DD	imagerel $LN477@SliderBeha+1569
	DD	imagerel $chain$10$??$SliderBehaviorT@NNN@ImGui@@YA_NAEBUImRect@@IHPEANNNPEBDHPEAU1@@Z
pdata	ENDS
;	COMDAT pdata
pdata	SEGMENT
$pdata$11$??$SliderBehaviorT@NNN@ImGui@@YA_NAEBUImRect@@IHPEANNNPEBDHPEAU1@@Z DD imagerel $LN477@SliderBeha+1569
	DD	imagerel $LN477@SliderBeha+1759
	DD	imagerel $chain$11$??$SliderBehaviorT@NNN@ImGui@@YA_NAEBUImRect@@IHPEANNNPEBDHPEAU1@@Z
pdata	ENDS
;	COMDAT pdata
pdata	SEGMENT
$pdata$??$SliderBehaviorT@MMM@ImGui@@YA_NAEBUImRect@@IHPEAMMMPEBDHPEAU1@@Z DD imagerel $LN493@SliderBeha
	DD	imagerel $LN493@SliderBeha+72
	DD	imagerel $unwind$??$SliderBehaviorT@MMM@ImGui@@YA_NAEBUImRect@@IHPEAMMMPEBDHPEAU1@@Z
pdata	ENDS
;	COMDAT pdata
pdata	SEGMENT
$pdata$8$??$SliderBehaviorT@MMM@ImGui@@YA_NAEBUImRect@@IHPEAMMMPEBDHPEAU1@@Z DD imagerel $LN493@SliderBeha+72
	DD	imagerel $LN493@SliderBeha+457
	DD	imagerel $chain$8$??$SliderBehaviorT@MMM@ImGui@@YA_NAEBUImRect@@IHPEAMMMPEBDHPEAU1@@Z
pdata	ENDS
;	COMDAT pdata
pdata	SEGMENT
$pdata$9$??$SliderBehaviorT@MMM@ImGui@@YA_NAEBUImRect@@IHPEAMMMPEBDHPEAU1@@Z DD imagerel $LN493@SliderBeha+457
	DD	imagerel $LN493@SliderBeha+509
	DD	imagerel $chain$9$??$SliderBehaviorT@MMM@ImGui@@YA_NAEBUImRect@@IHPEAMMMPEBDHPEAU1@@Z
pdata	ENDS
;	COMDAT pdata
pdata	SEGMENT
$pdata$10$??$SliderBehaviorT@MMM@ImGui@@YA_NAEBUImRect@@IHPEAMMMPEBDHPEAU1@@Z DD imagerel $LN493@SliderBeha+509
	DD	imagerel $LN493@SliderBeha+1559
	DD	imagerel $chain$10$??$SliderBehaviorT@MMM@ImGui@@YA_NAEBUImRect@@IHPEAMMMPEBDHPEAU1@@Z
pdata	ENDS
;	COMDAT pdata
pdata	SEGMENT
$pdata$11$??$SliderBehaviorT@MMM@ImGui@@YA_NAEBUImRect@@IHPEAMMMPEBDHPEAU1@@Z DD imagerel $LN493@SliderBeha+1559
	DD	imagerel $LN493@SliderBeha+1750
	DD	imagerel $chain$11$??$SliderBehaviorT@MMM@ImGui@@YA_NAEBUImRect@@IHPEAMMMPEBDHPEAU1@@Z
pdata	ENDS
;	COMDAT pdata
pdata	SEGMENT
$pdata$??$SliderBehaviorT@_K_JN@ImGui@@YA_NAEBUImRect@@IHPEA_K_K2PEBDHPEAU1@@Z DD imagerel $LN451@SliderBeha
	DD	imagerel $LN451@SliderBeha+62
	DD	imagerel $unwind$??$SliderBehaviorT@_K_JN@ImGui@@YA_NAEBUImRect@@IHPEA_K_K2PEBDHPEAU1@@Z
pdata	ENDS
;	COMDAT pdata
pdata	SEGMENT
$pdata$6$??$SliderBehaviorT@_K_JN@ImGui@@YA_NAEBUImRect@@IHPEA_K_K2PEBDHPEAU1@@Z DD imagerel $LN451@SliderBeha+62
	DD	imagerel $LN451@SliderBeha+317
	DD	imagerel $chain$6$??$SliderBehaviorT@_K_JN@ImGui@@YA_NAEBUImRect@@IHPEA_K_K2PEBDHPEAU1@@Z
pdata	ENDS
;	COMDAT pdata
pdata	SEGMENT
$pdata$8$??$SliderBehaviorT@_K_JN@ImGui@@YA_NAEBUImRect@@IHPEA_K_K2PEBDHPEAU1@@Z DD imagerel $LN451@SliderBeha+317
	DD	imagerel $LN451@SliderBeha+1497
	DD	imagerel $chain$8$??$SliderBehaviorT@_K_JN@ImGui@@YA_NAEBUImRect@@IHPEA_K_K2PEBDHPEAU1@@Z
pdata	ENDS
;	COMDAT pdata
pdata	SEGMENT
$pdata$9$??$SliderBehaviorT@_K_JN@ImGui@@YA_NAEBUImRect@@IHPEA_K_K2PEBDHPEAU1@@Z DD imagerel $LN451@SliderBeha+1497
	DD	imagerel $LN451@SliderBeha+1748
	DD	imagerel $chain$9$??$SliderBehaviorT@_K_JN@ImGui@@YA_NAEBUImRect@@IHPEA_K_K2PEBDHPEAU1@@Z
pdata	ENDS
;	COMDAT pdata
pdata	SEGMENT
$pdata$??$SliderBehaviorT@_J_JN@ImGui@@YA_NAEBUImRect@@IHPEA_J_J2PEBDHPEAU1@@Z DD imagerel $LN451@SliderBeha
	DD	imagerel $LN451@SliderBeha+62
	DD	imagerel $unwind$??$SliderBehaviorT@_J_JN@ImGui@@YA_NAEBUImRect@@IHPEA_J_J2PEBDHPEAU1@@Z
pdata	ENDS
;	COMDAT pdata
pdata	SEGMENT
$pdata$8$??$SliderBehaviorT@_J_JN@ImGui@@YA_NAEBUImRect@@IHPEA_J_J2PEBDHPEAU1@@Z DD imagerel $LN451@SliderBeha+62
	DD	imagerel $LN451@SliderBeha+461
	DD	imagerel $chain$8$??$SliderBehaviorT@_J_JN@ImGui@@YA_NAEBUImRect@@IHPEA_J_J2PEBDHPEAU1@@Z
pdata	ENDS
;	COMDAT pdata
pdata	SEGMENT
$pdata$9$??$SliderBehaviorT@_J_JN@ImGui@@YA_NAEBUImRect@@IHPEA_J_J2PEBDHPEAU1@@Z DD imagerel $LN451@SliderBeha+461
	DD	imagerel $LN451@SliderBeha+514
	DD	imagerel $chain$9$??$SliderBehaviorT@_J_JN@ImGui@@YA_NAEBUImRect@@IHPEA_J_J2PEBDHPEAU1@@Z
pdata	ENDS
;	COMDAT pdata
pdata	SEGMENT
$pdata$10$??$SliderBehaviorT@_J_JN@ImGui@@YA_NAEBUImRect@@IHPEA_J_J2PEBDHPEAU1@@Z DD imagerel $LN451@SliderBeha+514
	DD	imagerel $LN451@SliderBeha+1457
	DD	imagerel $chain$10$??$SliderBehaviorT@_J_JN@ImGui@@YA_NAEBUImRect@@IHPEA_J_J2PEBDHPEAU1@@Z
pdata	ENDS
;	COMDAT pdata
pdata	SEGMENT
$pdata$11$??$SliderBehaviorT@_J_JN@ImGui@@YA_NAEBUImRect@@IHPEA_J_J2PEBDHPEAU1@@Z DD imagerel $LN451@SliderBeha+1457
	DD	imagerel $LN451@SliderBeha+1658
	DD	imagerel $chain$11$??$SliderBehaviorT@_J_JN@ImGui@@YA_NAEBUImRect@@IHPEA_J_J2PEBDHPEAU1@@Z
pdata	ENDS
;	COMDAT pdata
pdata	SEGMENT
$pdata$??$SliderBehaviorT@IHM@ImGui@@YA_NAEBUImRect@@IHPEAIIIPEBDHPEAU1@@Z DD imagerel $LN470@SliderBeha
	DD	imagerel $LN470@SliderBeha+70
	DD	imagerel $unwind$??$SliderBehaviorT@IHM@ImGui@@YA_NAEBUImRect@@IHPEAIIIPEBDHPEAU1@@Z
pdata	ENDS
;	COMDAT pdata
pdata	SEGMENT
$pdata$6$??$SliderBehaviorT@IHM@ImGui@@YA_NAEBUImRect@@IHPEAIIIPEBDHPEAU1@@Z DD imagerel $LN470@SliderBeha+70
	DD	imagerel $LN470@SliderBeha+325
	DD	imagerel $chain$6$??$SliderBehaviorT@IHM@ImGui@@YA_NAEBUImRect@@IHPEAIIIPEBDHPEAU1@@Z
pdata	ENDS
;	COMDAT pdata
pdata	SEGMENT
$pdata$8$??$SliderBehaviorT@IHM@ImGui@@YA_NAEBUImRect@@IHPEAIIIPEBDHPEAU1@@Z DD imagerel $LN470@SliderBeha+325
	DD	imagerel $LN470@SliderBeha+1390
	DD	imagerel $chain$8$??$SliderBehaviorT@IHM@ImGui@@YA_NAEBUImRect@@IHPEAIIIPEBDHPEAU1@@Z
pdata	ENDS
;	COMDAT pdata
pdata	SEGMENT
$pdata$9$??$SliderBehaviorT@IHM@ImGui@@YA_NAEBUImRect@@IHPEAIIIPEBDHPEAU1@@Z DD imagerel $LN470@SliderBeha+1390
	DD	imagerel $LN470@SliderBeha+1620
	DD	imagerel $chain$9$??$SliderBehaviorT@IHM@ImGui@@YA_NAEBUImRect@@IHPEAIIIPEBDHPEAU1@@Z
pdata	ENDS
;	COMDAT pdata
pdata	SEGMENT
$pdata$??$SliderBehaviorT@HHM@ImGui@@YA_NAEBUImRect@@IHPEAHHHPEBDHPEAU1@@Z DD imagerel $LN470@SliderBeha
	DD	imagerel $LN470@SliderBeha+70
	DD	imagerel $unwind$??$SliderBehaviorT@HHM@ImGui@@YA_NAEBUImRect@@IHPEAHHHPEBDHPEAU1@@Z
pdata	ENDS
;	COMDAT pdata
pdata	SEGMENT
$pdata$6$??$SliderBehaviorT@HHM@ImGui@@YA_NAEBUImRect@@IHPEAHHHPEBDHPEAU1@@Z DD imagerel $LN470@SliderBeha+70
	DD	imagerel $LN470@SliderBeha+325
	DD	imagerel $chain$6$??$SliderBehaviorT@HHM@ImGui@@YA_NAEBUImRect@@IHPEAHHHPEBDHPEAU1@@Z
pdata	ENDS
;	COMDAT pdata
pdata	SEGMENT
$pdata$8$??$SliderBehaviorT@HHM@ImGui@@YA_NAEBUImRect@@IHPEAHHHPEBDHPEAU1@@Z DD imagerel $LN470@SliderBeha+325
	DD	imagerel $LN470@SliderBeha+1390
	DD	imagerel $chain$8$??$SliderBehaviorT@HHM@ImGui@@YA_NAEBUImRect@@IHPEAHHHPEBDHPEAU1@@Z
pdata	ENDS
;	COMDAT pdata
pdata	SEGMENT
$pdata$9$??$SliderBehaviorT@HHM@ImGui@@YA_NAEBUImRect@@IHPEAHHHPEBDHPEAU1@@Z DD imagerel $LN470@SliderBeha+1390
	DD	imagerel $LN470@SliderBeha+1620
	DD	imagerel $chain$9$??$SliderBehaviorT@HHM@ImGui@@YA_NAEBUImRect@@IHPEAHHHPEBDHPEAU1@@Z
pdata	ENDS
;	COMDAT pdata
pdata	SEGMENT
$pdata$??$DragBehaviorT@NNN@ImGui@@YA_NHPEANMNNPEBDH@Z DD imagerel $LN251@DragBehavi
	DD	imagerel $LN251@DragBehavi+83
	DD	imagerel $unwind$??$DragBehaviorT@NNN@ImGui@@YA_NHPEANMNNPEBDH@Z
pdata	ENDS
;	COMDAT pdata
pdata	SEGMENT
$pdata$0$??$DragBehaviorT@NNN@ImGui@@YA_NHPEANMNNPEBDH@Z DD imagerel $LN251@DragBehavi+83
	DD	imagerel $LN251@DragBehavi+328
	DD	imagerel $chain$0$??$DragBehaviorT@NNN@ImGui@@YA_NHPEANMNNPEBDH@Z
pdata	ENDS
;	COMDAT pdata
pdata	SEGMENT
$pdata$3$??$DragBehaviorT@NNN@ImGui@@YA_NHPEANMNNPEBDH@Z DD imagerel $LN251@DragBehavi+328
	DD	imagerel $LN251@DragBehavi+478
	DD	imagerel $chain$3$??$DragBehaviorT@NNN@ImGui@@YA_NHPEANMNNPEBDH@Z
pdata	ENDS
;	COMDAT pdata
pdata	SEGMENT
$pdata$4$??$DragBehaviorT@NNN@ImGui@@YA_NHPEANMNNPEBDH@Z DD imagerel $LN251@DragBehavi+478
	DD	imagerel $LN251@DragBehavi+546
	DD	imagerel $chain$4$??$DragBehaviorT@NNN@ImGui@@YA_NHPEANMNNPEBDH@Z
pdata	ENDS
;	COMDAT pdata
pdata	SEGMENT
$pdata$5$??$DragBehaviorT@NNN@ImGui@@YA_NHPEANMNNPEBDH@Z DD imagerel $LN251@DragBehavi+546
	DD	imagerel $LN251@DragBehavi+566
	DD	imagerel $chain$5$??$DragBehaviorT@NNN@ImGui@@YA_NHPEANMNNPEBDH@Z
pdata	ENDS
;	COMDAT pdata
pdata	SEGMENT
$pdata$6$??$DragBehaviorT@NNN@ImGui@@YA_NHPEANMNNPEBDH@Z DD imagerel $LN251@DragBehavi+566
	DD	imagerel $LN251@DragBehavi+909
	DD	imagerel $chain$6$??$DragBehaviorT@NNN@ImGui@@YA_NHPEANMNNPEBDH@Z
pdata	ENDS
;	COMDAT pdata
pdata	SEGMENT
$pdata$??$DragBehaviorT@MMM@ImGui@@YA_NHPEAMMMMPEBDH@Z DD imagerel $LN322@DragBehavi
	DD	imagerel $LN322@DragBehavi+80
	DD	imagerel $unwind$??$DragBehaviorT@MMM@ImGui@@YA_NHPEAMMMMPEBDH@Z
pdata	ENDS
;	COMDAT pdata
pdata	SEGMENT
$pdata$0$??$DragBehaviorT@MMM@ImGui@@YA_NHPEAMMMMPEBDH@Z DD imagerel $LN322@DragBehavi+80
	DD	imagerel $LN322@DragBehavi+316
	DD	imagerel $chain$0$??$DragBehaviorT@MMM@ImGui@@YA_NHPEAMMMMPEBDH@Z
pdata	ENDS
;	COMDAT pdata
pdata	SEGMENT
$pdata$3$??$DragBehaviorT@MMM@ImGui@@YA_NHPEAMMMMPEBDH@Z DD imagerel $LN322@DragBehavi+316
	DD	imagerel $LN322@DragBehavi+471
	DD	imagerel $chain$3$??$DragBehaviorT@MMM@ImGui@@YA_NHPEAMMMMPEBDH@Z
pdata	ENDS
;	COMDAT pdata
pdata	SEGMENT
$pdata$4$??$DragBehaviorT@MMM@ImGui@@YA_NHPEAMMMMPEBDH@Z DD imagerel $LN322@DragBehavi+471
	DD	imagerel $LN322@DragBehavi+539
	DD	imagerel $chain$4$??$DragBehaviorT@MMM@ImGui@@YA_NHPEAMMMMPEBDH@Z
pdata	ENDS
;	COMDAT pdata
pdata	SEGMENT
$pdata$5$??$DragBehaviorT@MMM@ImGui@@YA_NHPEAMMMMPEBDH@Z DD imagerel $LN322@DragBehavi+539
	DD	imagerel $LN322@DragBehavi+559
	DD	imagerel $chain$5$??$DragBehaviorT@MMM@ImGui@@YA_NHPEAMMMMPEBDH@Z
pdata	ENDS
;	COMDAT pdata
pdata	SEGMENT
$pdata$6$??$DragBehaviorT@MMM@ImGui@@YA_NHPEAMMMMPEBDH@Z DD imagerel $LN322@DragBehavi+559
	DD	imagerel $LN322@DragBehavi+867
	DD	imagerel $chain$6$??$DragBehaviorT@MMM@ImGui@@YA_NHPEAMMMMPEBDH@Z
pdata	ENDS
;	COMDAT pdata
pdata	SEGMENT
$pdata$??$DragBehaviorT@_K_JN@ImGui@@YA_NHPEA_KM_K1PEBDH@Z DD imagerel $LN242@DragBehavi
	DD	imagerel $LN242@DragBehavi+68
	DD	imagerel $unwind$??$DragBehaviorT@_K_JN@ImGui@@YA_NHPEA_KM_K1PEBDH@Z
pdata	ENDS
;	COMDAT pdata
pdata	SEGMENT
$pdata$0$??$DragBehaviorT@_K_JN@ImGui@@YA_NHPEA_KM_K1PEBDH@Z DD imagerel $LN242@DragBehavi+68
	DD	imagerel $LN242@DragBehavi+321
	DD	imagerel $chain$0$??$DragBehaviorT@_K_JN@ImGui@@YA_NHPEA_KM_K1PEBDH@Z
pdata	ENDS
;	COMDAT pdata
pdata	SEGMENT
$pdata$1$??$DragBehaviorT@_K_JN@ImGui@@YA_NHPEA_KM_K1PEBDH@Z DD imagerel $LN242@DragBehavi+321
	DD	imagerel $LN242@DragBehavi+329
	DD	imagerel $chain$1$??$DragBehaviorT@_K_JN@ImGui@@YA_NHPEA_KM_K1PEBDH@Z
pdata	ENDS
;	COMDAT pdata
pdata	SEGMENT
$pdata$3$??$DragBehaviorT@_K_JN@ImGui@@YA_NHPEA_KM_K1PEBDH@Z DD imagerel $LN242@DragBehavi+329
	DD	imagerel $LN242@DragBehavi+471
	DD	imagerel $chain$3$??$DragBehaviorT@_K_JN@ImGui@@YA_NHPEA_KM_K1PEBDH@Z
pdata	ENDS
;	COMDAT pdata
pdata	SEGMENT
$pdata$4$??$DragBehaviorT@_K_JN@ImGui@@YA_NHPEA_KM_K1PEBDH@Z DD imagerel $LN242@DragBehavi+471
	DD	imagerel $LN242@DragBehavi+538
	DD	imagerel $chain$4$??$DragBehaviorT@_K_JN@ImGui@@YA_NHPEA_KM_K1PEBDH@Z
pdata	ENDS
;	COMDAT pdata
pdata	SEGMENT
$pdata$5$??$DragBehaviorT@_K_JN@ImGui@@YA_NHPEA_KM_K1PEBDH@Z DD imagerel $LN242@DragBehavi+538
	DD	imagerel $LN242@DragBehavi+555
	DD	imagerel $chain$5$??$DragBehaviorT@_K_JN@ImGui@@YA_NHPEA_KM_K1PEBDH@Z
pdata	ENDS
;	COMDAT pdata
pdata	SEGMENT
$pdata$6$??$DragBehaviorT@_K_JN@ImGui@@YA_NHPEA_KM_K1PEBDH@Z DD imagerel $LN242@DragBehavi+555
	DD	imagerel $LN242@DragBehavi+845
	DD	imagerel $chain$6$??$DragBehaviorT@_K_JN@ImGui@@YA_NHPEA_KM_K1PEBDH@Z
pdata	ENDS
;	COMDAT pdata
pdata	SEGMENT
$pdata$??$DragBehaviorT@_J_JN@ImGui@@YA_NHPEA_JM_J1PEBDH@Z DD imagerel $LN239@DragBehavi
	DD	imagerel $LN239@DragBehavi+68
	DD	imagerel $unwind$??$DragBehaviorT@_J_JN@ImGui@@YA_NHPEA_JM_J1PEBDH@Z
pdata	ENDS
;	COMDAT pdata
pdata	SEGMENT
$pdata$0$??$DragBehaviorT@_J_JN@ImGui@@YA_NHPEA_JM_J1PEBDH@Z DD imagerel $LN239@DragBehavi+68
	DD	imagerel $LN239@DragBehavi+296
	DD	imagerel $chain$0$??$DragBehaviorT@_J_JN@ImGui@@YA_NHPEA_JM_J1PEBDH@Z
pdata	ENDS
;	COMDAT pdata
pdata	SEGMENT
$pdata$1$??$DragBehaviorT@_J_JN@ImGui@@YA_NHPEA_JM_J1PEBDH@Z DD imagerel $LN239@DragBehavi+296
	DD	imagerel $LN239@DragBehavi+304
	DD	imagerel $chain$1$??$DragBehaviorT@_J_JN@ImGui@@YA_NHPEA_JM_J1PEBDH@Z
pdata	ENDS
;	COMDAT pdata
pdata	SEGMENT
$pdata$3$??$DragBehaviorT@_J_JN@ImGui@@YA_NHPEA_JM_J1PEBDH@Z DD imagerel $LN239@DragBehavi+304
	DD	imagerel $LN239@DragBehavi+446
	DD	imagerel $chain$3$??$DragBehaviorT@_J_JN@ImGui@@YA_NHPEA_JM_J1PEBDH@Z
pdata	ENDS
;	COMDAT pdata
pdata	SEGMENT
$pdata$4$??$DragBehaviorT@_J_JN@ImGui@@YA_NHPEA_JM_J1PEBDH@Z DD imagerel $LN239@DragBehavi+446
	DD	imagerel $LN239@DragBehavi+513
	DD	imagerel $chain$4$??$DragBehaviorT@_J_JN@ImGui@@YA_NHPEA_JM_J1PEBDH@Z
pdata	ENDS
;	COMDAT pdata
pdata	SEGMENT
$pdata$5$??$DragBehaviorT@_J_JN@ImGui@@YA_NHPEA_JM_J1PEBDH@Z DD imagerel $LN239@DragBehavi+513
	DD	imagerel $LN239@DragBehavi+530
	DD	imagerel $chain$5$??$DragBehaviorT@_J_JN@ImGui@@YA_NHPEA_JM_J1PEBDH@Z
pdata	ENDS
;	COMDAT pdata
pdata	SEGMENT
$pdata$6$??$DragBehaviorT@_J_JN@ImGui@@YA_NHPEA_JM_J1PEBDH@Z DD imagerel $LN239@DragBehavi+530
	DD	imagerel $LN239@DragBehavi+820
	DD	imagerel $chain$6$??$DragBehaviorT@_J_JN@ImGui@@YA_NHPEA_JM_J1PEBDH@Z
pdata	ENDS
;	COMDAT pdata
pdata	SEGMENT
$pdata$??$DragBehaviorT@IHM@ImGui@@YA_NHPEAIMIIPEBDH@Z DD imagerel $LN247@DragBehavi
	DD	imagerel $LN247@DragBehavi+67
	DD	imagerel $unwind$??$DragBehaviorT@IHM@ImGui@@YA_NHPEAIMIIPEBDH@Z
pdata	ENDS
;	COMDAT pdata
pdata	SEGMENT
$pdata$0$??$DragBehaviorT@IHM@ImGui@@YA_NHPEAIMIIPEBDH@Z DD imagerel $LN247@DragBehavi+67
	DD	imagerel $LN247@DragBehavi+294
	DD	imagerel $chain$0$??$DragBehaviorT@IHM@ImGui@@YA_NHPEAIMIIPEBDH@Z
pdata	ENDS
;	COMDAT pdata
pdata	SEGMENT
$pdata$1$??$DragBehaviorT@IHM@ImGui@@YA_NHPEAIMIIPEBDH@Z DD imagerel $LN247@DragBehavi+294
	DD	imagerel $LN247@DragBehavi+302
	DD	imagerel $chain$1$??$DragBehaviorT@IHM@ImGui@@YA_NHPEAIMIIPEBDH@Z
pdata	ENDS
;	COMDAT pdata
pdata	SEGMENT
$pdata$3$??$DragBehaviorT@IHM@ImGui@@YA_NHPEAIMIIPEBDH@Z DD imagerel $LN247@DragBehavi+302
	DD	imagerel $LN247@DragBehavi+444
	DD	imagerel $chain$3$??$DragBehaviorT@IHM@ImGui@@YA_NHPEAIMIIPEBDH@Z
pdata	ENDS
;	COMDAT pdata
pdata	SEGMENT
$pdata$4$??$DragBehaviorT@IHM@ImGui@@YA_NHPEAIMIIPEBDH@Z DD imagerel $LN247@DragBehavi+444
	DD	imagerel $LN247@DragBehavi+511
	DD	imagerel $chain$4$??$DragBehaviorT@IHM@ImGui@@YA_NHPEAIMIIPEBDH@Z
pdata	ENDS
;	COMDAT pdata
pdata	SEGMENT
$pdata$5$??$DragBehaviorT@IHM@ImGui@@YA_NHPEAIMIIPEBDH@Z DD imagerel $LN247@DragBehavi+511
	DD	imagerel $LN247@DragBehavi+527
	DD	imagerel $chain$5$??$DragBehaviorT@IHM@ImGui@@YA_NHPEAIMIIPEBDH@Z
pdata	ENDS
;	COMDAT pdata
pdata	SEGMENT
$pdata$6$??$DragBehaviorT@IHM@ImGui@@YA_NHPEAIMIIPEBDH@Z DD imagerel $LN247@DragBehavi+527
	DD	imagerel $LN247@DragBehavi+800
	DD	imagerel $chain$6$??$DragBehaviorT@IHM@ImGui@@YA_NHPEAIMIIPEBDH@Z
pdata	ENDS
;	COMDAT pdata
pdata	SEGMENT
$pdata$??$DragBehaviorT@HHM@ImGui@@YA_NHPEAHMHHPEBDH@Z DD imagerel $LN247@DragBehavi
	DD	imagerel $LN247@DragBehavi+67
	DD	imagerel $unwind$??$DragBehaviorT@HHM@ImGui@@YA_NHPEAHMHHPEBDH@Z
pdata	ENDS
;	COMDAT pdata
pdata	SEGMENT
$pdata$0$??$DragBehaviorT@HHM@ImGui@@YA_NHPEAHMHHPEBDH@Z DD imagerel $LN247@DragBehavi+67
	DD	imagerel $LN247@DragBehavi+293
	DD	imagerel $chain$0$??$DragBehaviorT@HHM@ImGui@@YA_NHPEAHMHHPEBDH@Z
pdata	ENDS
;	COMDAT pdata
pdata	SEGMENT
$pdata$1$??$DragBehaviorT@HHM@ImGui@@YA_NHPEAHMHHPEBDH@Z DD imagerel $LN247@DragBehavi+293
	DD	imagerel $LN247@DragBehavi+301
	DD	imagerel $chain$1$??$DragBehaviorT@HHM@ImGui@@YA_NHPEAHMHHPEBDH@Z
pdata	ENDS
;	COMDAT pdata
pdata	SEGMENT
$pdata$3$??$DragBehaviorT@HHM@ImGui@@YA_NHPEAHMHHPEBDH@Z DD imagerel $LN247@DragBehavi+301
	DD	imagerel $LN247@DragBehavi+443
	DD	imagerel $chain$3$??$DragBehaviorT@HHM@ImGui@@YA_NHPEAHMHHPEBDH@Z
pdata	ENDS
;	COMDAT pdata
pdata	SEGMENT
$pdata$4$??$DragBehaviorT@HHM@ImGui@@YA_NHPEAHMHHPEBDH@Z DD imagerel $LN247@DragBehavi+443
	DD	imagerel $LN247@DragBehavi+510
	DD	imagerel $chain$4$??$DragBehaviorT@HHM@ImGui@@YA_NHPEAHMHHPEBDH@Z
pdata	ENDS
;	COMDAT pdata
pdata	SEGMENT
$pdata$5$??$DragBehaviorT@HHM@ImGui@@YA_NHPEAHMHHPEBDH@Z DD imagerel $LN247@DragBehavi+510
	DD	imagerel $LN247@DragBehavi+526
	DD	imagerel $chain$5$??$DragBehaviorT@HHM@ImGui@@YA_NHPEAHMHHPEBDH@Z
pdata	ENDS
;	COMDAT pdata
pdata	SEGMENT
$pdata$6$??$DragBehaviorT@HHM@ImGui@@YA_NHPEAHMHHPEBDH@Z DD imagerel $LN247@DragBehavi+526
	DD	imagerel $LN247@DragBehavi+799
	DD	imagerel $chain$6$??$DragBehaviorT@HHM@ImGui@@YA_NHPEAHMHHPEBDH@Z
pdata	ENDS
;	COMDAT pdata
pdata	SEGMENT
$pdata$??$CheckboxFlagsT@H@ImGui@@YA_NPEBDPEAHH@Z DD imagerel $LN13@CheckboxFl
	DD	imagerel $LN13@CheckboxFl+70
	DD	imagerel $unwind$??$CheckboxFlagsT@H@ImGui@@YA_NPEBDPEAHH@Z
pdata	ENDS
;	COMDAT pdata
pdata	SEGMENT
$pdata$?reserve@?$ImVector@UImGuiPtrOrIndex@@@@QEAAXH@Z DD imagerel $LN24@reserve
	DD	imagerel $LN24@reserve+28
	DD	imagerel $unwind$?reserve@?$ImVector@UImGuiPtrOrIndex@@@@QEAAXH@Z
pdata	ENDS
;	COMDAT pdata
pdata	SEGMENT
$pdata$0$?reserve@?$ImVector@UImGuiPtrOrIndex@@@@QEAAXH@Z DD imagerel $LN24@reserve+28
	DD	imagerel $LN24@reserve+212
	DD	imagerel $chain$0$?reserve@?$ImVector@UImGuiPtrOrIndex@@@@QEAAXH@Z
pdata	ENDS
;	COMDAT pdata
pdata	SEGMENT
$pdata$1$?reserve@?$ImVector@UImGuiPtrOrIndex@@@@QEAAXH@Z DD imagerel $LN24@reserve+212
	DD	imagerel $LN24@reserve+223
	DD	imagerel $chain$1$?reserve@?$ImVector@UImGuiPtrOrIndex@@@@QEAAXH@Z
pdata	ENDS
;	COMDAT pdata
pdata	SEGMENT
$pdata$?reserve@?$ImVector@UImGuiShrinkWidthItem@@@@QEAAXH@Z DD imagerel $LN24@reserve
	DD	imagerel $LN24@reserve+29
	DD	imagerel $unwind$?reserve@?$ImVector@UImGuiShrinkWidthItem@@@@QEAAXH@Z
pdata	ENDS
;	COMDAT pdata
pdata	SEGMENT
$pdata$0$?reserve@?$ImVector@UImGuiShrinkWidthItem@@@@QEAAXH@Z DD imagerel $LN24@reserve+29
	DD	imagerel $LN24@reserve+217
	DD	imagerel $chain$0$?reserve@?$ImVector@UImGuiShrinkWidthItem@@@@QEAAXH@Z
pdata	ENDS
;	COMDAT pdata
pdata	SEGMENT
$pdata$1$?reserve@?$ImVector@UImGuiShrinkWidthItem@@@@QEAAXH@Z DD imagerel $LN24@reserve+217
	DD	imagerel $LN24@reserve+228
	DD	imagerel $chain$1$?reserve@?$ImVector@UImGuiShrinkWidthItem@@@@QEAAXH@Z
pdata	ENDS
;	COMDAT pdata
pdata	SEGMENT
$pdata$?reserve@?$ImVector@UImGuiTabItem@@@@QEAAXH@Z DD imagerel $LN24@reserve
	DD	imagerel $LN24@reserve+29
	DD	imagerel $unwind$?reserve@?$ImVector@UImGuiTabItem@@@@QEAAXH@Z
pdata	ENDS
;	COMDAT pdata
pdata	SEGMENT
$pdata$0$?reserve@?$ImVector@UImGuiTabItem@@@@QEAAXH@Z DD imagerel $LN24@reserve+29
	DD	imagerel $LN24@reserve+209
	DD	imagerel $chain$0$?reserve@?$ImVector@UImGuiTabItem@@@@QEAAXH@Z
pdata	ENDS
;	COMDAT pdata
pdata	SEGMENT
$pdata$1$?reserve@?$ImVector@UImGuiTabItem@@@@QEAAXH@Z DD imagerel $LN24@reserve+209
	DD	imagerel $LN24@reserve+220
	DD	imagerel $chain$1$?reserve@?$ImVector@UImGuiTabItem@@@@QEAAXH@Z
pdata	ENDS
;	COMDAT pdata
pdata	SEGMENT
$pdata$?reserve_discard@?$ImVector@D@@QEAAXH@Z DD imagerel $LN23@reserve_di
	DD	imagerel $LN23@reserve_di+178
	DD	imagerel $unwind$?reserve_discard@?$ImVector@D@@QEAAXH@Z
pdata	ENDS
;	COMDAT pdata
pdata	SEGMENT
$pdata$?push_back@?$ImVector@UImGuiPtrOrIndex@@@@QEAAXAEBUImGuiPtrOrIndex@@@Z DD imagerel $LN33@push_back
	DD	imagerel $LN33@push_back+76
	DD	imagerel $unwind$?push_back@?$ImVector@UImGuiPtrOrIndex@@@@QEAAXAEBUImGuiPtrOrIndex@@@Z
pdata	ENDS
;	COMDAT pdata
pdata	SEGMENT
$pdata$0$?push_back@?$ImVector@UImGuiPtrOrIndex@@@@QEAAXAEBUImGuiPtrOrIndex@@@Z DD imagerel $LN33@push_back+76
	DD	imagerel $LN33@push_back+256
	DD	imagerel $chain$0$?push_back@?$ImVector@UImGuiPtrOrIndex@@@@QEAAXAEBUImGuiPtrOrIndex@@@Z
pdata	ENDS
;	COMDAT pdata
pdata	SEGMENT
$pdata$1$?push_back@?$ImVector@UImGuiPtrOrIndex@@@@QEAAXAEBUImGuiPtrOrIndex@@@Z DD imagerel $LN33@push_back+256
	DD	imagerel $LN33@push_back+292
	DD	imagerel $chain$1$?push_back@?$ImVector@UImGuiPtrOrIndex@@@@QEAAXAEBUImGuiPtrOrIndex@@@Z
pdata	ENDS
;	COMDAT pdata
pdata	SEGMENT
$pdata$?resize@?$ImVector@UImGuiShrinkWidthItem@@@@QEAAXH@Z DD imagerel $LN36@resize
	DD	imagerel $LN36@resize+26
	DD	imagerel $unwind$?resize@?$ImVector@UImGuiShrinkWidthItem@@@@QEAAXH@Z
pdata	ENDS
;	COMDAT pdata
pdata	SEGMENT
$pdata$1$?resize@?$ImVector@UImGuiShrinkWidthItem@@@@QEAAXH@Z DD imagerel $LN36@resize+26
	DD	imagerel $LN36@resize+279
	DD	imagerel $chain$1$?resize@?$ImVector@UImGuiShrinkWidthItem@@@@QEAAXH@Z
pdata	ENDS
;	COMDAT pdata
pdata	SEGMENT
$pdata$3$?resize@?$ImVector@UImGuiShrinkWidthItem@@@@QEAAXH@Z DD imagerel $LN36@resize+279
	DD	imagerel $LN36@resize+297
	DD	imagerel $chain$3$?resize@?$ImVector@UImGuiShrinkWidthItem@@@@QEAAXH@Z
pdata	ENDS
;	COMDAT pdata
pdata	SEGMENT
$pdata$4$?resize@?$ImVector@UImGuiShrinkWidthItem@@@@QEAAXH@Z DD imagerel $LN36@resize+297
	DD	imagerel $LN36@resize+310
	DD	imagerel $chain$4$?resize@?$ImVector@UImGuiShrinkWidthItem@@@@QEAAXH@Z
pdata	ENDS
;	COMDAT pdata
pdata	SEGMENT
$pdata$?resize@?$ImVector@UImGuiTabItem@@@@QEAAXH@Z DD imagerel $LN12@resize
	DD	imagerel $LN12@resize+70
	DD	imagerel $unwind$?resize@?$ImVector@UImGuiTabItem@@@@QEAAXH@Z
pdata	ENDS
;	COMDAT pdata
pdata	SEGMENT
$pdata$?push_back@?$ImVector@UImGuiTabItem@@@@QEAAXAEBUImGuiTabItem@@@Z DD imagerel $LN11@push_back
	DD	imagerel $LN11@push_back+128
	DD	imagerel $unwind$?push_back@?$ImVector@UImGuiTabItem@@@@QEAAXAEBUImGuiTabItem@@@Z
pdata	ENDS
;	COMDAT pdata
pdata	SEGMENT
$pdata$?erase@?$ImVector@UImGuiTabItem@@@@QEAAPEAUImGuiTabItem@@PEBU2@@Z DD imagerel $LN4@erase
	DD	imagerel $LN4@erase+98
	DD	imagerel $unwind$?erase@?$ImVector@UImGuiTabItem@@@@QEAAPEAUImGuiTabItem@@PEBU2@@Z
pdata	ENDS
;	COMDAT pdata
pdata	SEGMENT
$pdata$?TabItemCalcSize@ImGui@@YA?AUImVec2@@PEBD_N@Z DD imagerel $LN40@TabItemCal
	DD	imagerel $LN40@TabItemCal+299
	DD	imagerel $unwind$?TabItemCalcSize@ImGui@@YA?AUImVec2@@PEBD_N@Z
pdata	ENDS
;	COMDAT pdata
pdata	SEGMENT
$pdata$?TabBarTabListPopupButton@ImGui@@YAPEAUImGuiTabItem@@PEAUImGuiTabBar@@@Z DD imagerel ?TabBarTabListPopupButton@ImGui@@YAPEAUImGuiTabItem@@PEAUImGuiTabBar@@@Z
	DD	imagerel ?TabBarTabListPopupButton@ImGui@@YAPEAUImGuiTabItem@@PEAUImGuiTabBar@@@Z+70
	DD	imagerel $unwind$?TabBarTabListPopupButton@ImGui@@YAPEAUImGuiTabItem@@PEAUImGuiTabBar@@@Z
pdata	ENDS
;	COMDAT pdata
pdata	SEGMENT
$pdata$0$?TabBarTabListPopupButton@ImGui@@YAPEAUImGuiTabItem@@PEAUImGuiTabBar@@@Z DD imagerel ?TabBarTabListPopupButton@ImGui@@YAPEAUImGuiTabItem@@PEAUImGuiTabBar@@@Z+70
	DD	imagerel ?TabBarTabListPopupButton@ImGui@@YAPEAUImGuiTabItem@@PEAUImGuiTabBar@@@Z+308
	DD	imagerel $chain$0$?TabBarTabListPopupButton@ImGui@@YAPEAUImGuiTabItem@@PEAUImGuiTabBar@@@Z
pdata	ENDS
;	COMDAT pdata
pdata	SEGMENT
$pdata$1$?TabBarTabListPopupButton@ImGui@@YAPEAUImGuiTabItem@@PEAUImGuiTabBar@@@Z DD imagerel ?TabBarTabListPopupButton@ImGui@@YAPEAUImGuiTabItem@@PEAUImGuiTabBar@@@Z+308
	DD	imagerel ?TabBarTabListPopupButton@ImGui@@YAPEAUImGuiTabItem@@PEAUImGuiTabBar@@@Z+386
	DD	imagerel $chain$1$?TabBarTabListPopupButton@ImGui@@YAPEAUImGuiTabItem@@PEAUImGuiTabBar@@@Z
pdata	ENDS
;	COMDAT pdata
pdata	SEGMENT
$pdata$2$?TabBarTabListPopupButton@ImGui@@YAPEAUImGuiTabItem@@PEAUImGuiTabBar@@@Z DD imagerel ?TabBarTabListPopupButton@ImGui@@YAPEAUImGuiTabItem@@PEAUImGuiTabBar@@@Z+386
	DD	imagerel ?TabBarTabListPopupButton@ImGui@@YAPEAUImGuiTabItem@@PEAUImGuiTabBar@@@Z+404
	DD	imagerel $chain$2$?TabBarTabListPopupButton@ImGui@@YAPEAUImGuiTabItem@@PEAUImGuiTabBar@@@Z
pdata	ENDS
;	COMDAT pdata
pdata	SEGMENT
$pdata$3$?TabBarTabListPopupButton@ImGui@@YAPEAUImGuiTabItem@@PEAUImGuiTabBar@@@Z DD imagerel ?TabBarTabListPopupButton@ImGui@@YAPEAUImGuiTabItem@@PEAUImGuiTabBar@@@Z+404
	DD	imagerel ?TabBarTabListPopupButton@ImGui@@YAPEAUImGuiTabItem@@PEAUImGuiTabBar@@@Z+542
	DD	imagerel $chain$3$?TabBarTabListPopupButton@ImGui@@YAPEAUImGuiTabItem@@PEAUImGuiTabBar@@@Z
pdata	ENDS
;	COMDAT pdata
pdata	SEGMENT
$pdata$4$?TabBarTabListPopupButton@ImGui@@YAPEAUImGuiTabItem@@PEAUImGuiTabBar@@@Z DD imagerel ?TabBarTabListPopupButton@ImGui@@YAPEAUImGuiTabItem@@PEAUImGuiTabBar@@@Z+542
	DD	imagerel ?TabBarTabListPopupButton@ImGui@@YAPEAUImGuiTabItem@@PEAUImGuiTabBar@@@Z+566
	DD	imagerel $chain$4$?TabBarTabListPopupButton@ImGui@@YAPEAUImGuiTabItem@@PEAUImGuiTabBar@@@Z
pdata	ENDS
;	COMDAT pdata
pdata	SEGMENT
$pdata$5$?TabBarTabListPopupButton@ImGui@@YAPEAUImGuiTabItem@@PEAUImGuiTabBar@@@Z DD imagerel ?TabBarTabListPopupButton@ImGui@@YAPEAUImGuiTabItem@@PEAUImGuiTabBar@@@Z+566
	DD	imagerel ?TabBarTabListPopupButton@ImGui@@YAPEAUImGuiTabItem@@PEAUImGuiTabBar@@@Z+688
	DD	imagerel $chain$5$?TabBarTabListPopupButton@ImGui@@YAPEAUImGuiTabItem@@PEAUImGuiTabBar@@@Z
pdata	ENDS
;	COMDAT pdata
pdata	SEGMENT
$pdata$?TabBarScrollingButtons@ImGui@@YAPEAUImGuiTabItem@@PEAUImGuiTabBar@@@Z DD imagerel ?TabBarScrollingButtons@ImGui@@YAPEAUImGuiTabItem@@PEAUImGuiTabBar@@@Z
	DD	imagerel ?TabBarScrollingButtons@ImGui@@YAPEAUImGuiTabItem@@PEAUImGuiTabBar@@@Z+873
	DD	imagerel $unwind$?TabBarScrollingButtons@ImGui@@YAPEAUImGuiTabItem@@PEAUImGuiTabBar@@@Z
pdata	ENDS
;	COMDAT pdata
pdata	SEGMENT
$pdata$?TabBarProcessReorder@ImGui@@YA_NPEAUImGuiTabBar@@@Z DD imagerel $LN56@TabBarProc
	DD	imagerel $LN56@TabBarProc+183
	DD	imagerel $unwind$?TabBarProcessReorder@ImGui@@YA_NPEAUImGuiTabBar@@@Z
pdata	ENDS
;	COMDAT pdata
pdata	SEGMENT
$pdata$3$?TabBarProcessReorder@ImGui@@YA_NPEAUImGuiTabBar@@@Z DD imagerel $LN56@TabBarProc+183
	DD	imagerel $LN56@TabBarProc+313
	DD	imagerel $chain$3$?TabBarProcessReorder@ImGui@@YA_NPEAUImGuiTabBar@@@Z
pdata	ENDS
;	COMDAT pdata
pdata	SEGMENT
$pdata$4$?TabBarProcessReorder@ImGui@@YA_NPEAUImGuiTabBar@@@Z DD imagerel $LN56@TabBarProc+313
	DD	imagerel $LN56@TabBarProc+359
	DD	imagerel $chain$4$?TabBarProcessReorder@ImGui@@YA_NPEAUImGuiTabBar@@@Z
pdata	ENDS
;	COMDAT pdata
pdata	SEGMENT
$pdata$?TabBarQueueReorderFromMousePos@ImGui@@YAXPEAUImGuiTabBar@@PEAUImGuiTabItem@@UImVec2@@@Z DD imagerel $LN41@TabBarQueu
	DD	imagerel $LN41@TabBarQueu+39
	DD	imagerel $unwind$?TabBarQueueReorderFromMousePos@ImGui@@YAXPEAUImGuiTabBar@@PEAUImGuiTabItem@@UImVec2@@@Z
pdata	ENDS
;	COMDAT pdata
pdata	SEGMENT
$pdata$2$?TabBarQueueReorderFromMousePos@ImGui@@YAXPEAUImGuiTabBar@@PEAUImGuiTabItem@@UImVec2@@@Z DD imagerel $LN41@TabBarQueu+39
	DD	imagerel $LN41@TabBarQueu+164
	DD	imagerel $chain$2$?TabBarQueueReorderFromMousePos@ImGui@@YAXPEAUImGuiTabBar@@PEAUImGuiTabItem@@UImVec2@@@Z
pdata	ENDS
;	COMDAT pdata
pdata	SEGMENT
$pdata$4$?TabBarQueueReorderFromMousePos@ImGui@@YAXPEAUImGuiTabBar@@PEAUImGuiTabItem@@UImVec2@@@Z DD imagerel $LN41@TabBarQueu+164
	DD	imagerel $LN41@TabBarQueu+295
	DD	imagerel $chain$4$?TabBarQueueReorderFromMousePos@ImGui@@YAXPEAUImGuiTabBar@@PEAUImGuiTabItem@@UImVec2@@@Z
pdata	ENDS
;	COMDAT pdata
pdata	SEGMENT
$pdata$5$?TabBarQueueReorderFromMousePos@ImGui@@YAXPEAUImGuiTabBar@@PEAUImGuiTabItem@@UImVec2@@@Z DD imagerel $LN41@TabBarQueu+295
	DD	imagerel $LN41@TabBarQueu+326
	DD	imagerel $chain$5$?TabBarQueueReorderFromMousePos@ImGui@@YAXPEAUImGuiTabBar@@PEAUImGuiTabItem@@UImVec2@@@Z
pdata	ENDS
;	COMDAT pdata
pdata	SEGMENT
$pdata$6$?TabBarQueueReorderFromMousePos@ImGui@@YAXPEAUImGuiTabBar@@PEAUImGuiTabItem@@UImVec2@@@Z DD imagerel $LN41@TabBarQueu+326
	DD	imagerel $LN41@TabBarQueu+335
	DD	imagerel $chain$6$?TabBarQueueReorderFromMousePos@ImGui@@YAXPEAUImGuiTabBar@@PEAUImGuiTabItem@@UImVec2@@@Z
pdata	ENDS
;	COMDAT pdata
pdata	SEGMENT
$pdata$?TabBarCalcTabID@ImGui@@YAIPEAUImGuiTabBar@@PEBDPEAUImGuiWindow@@@Z DD imagerel ?TabBarCalcTabID@ImGui@@YAIPEAUImGuiTabBar@@PEBDPEAUImGuiWindow@@@Z
	DD	imagerel ?TabBarCalcTabID@ImGui@@YAIPEAUImGuiTabBar@@PEBDPEAUImGuiWindow@@@Z+72
	DD	imagerel $unwind$?TabBarCalcTabID@ImGui@@YAIPEAUImGuiTabBar@@PEBDPEAUImGuiWindow@@@Z
pdata	ENDS
;	COMDAT pdata
pdata	SEGMENT
$pdata$1$?TabBarCalcTabID@ImGui@@YAIPEAUImGuiTabBar@@PEBDPEAUImGuiWindow@@@Z DD imagerel ?TabBarCalcTabID@ImGui@@YAIPEAUImGuiTabBar@@PEBDPEAUImGuiWindow@@@Z+72
	DD	imagerel ?TabBarCalcTabID@ImGui@@YAIPEAUImGuiTabBar@@PEBDPEAUImGuiWindow@@@Z+134
	DD	imagerel $chain$1$?TabBarCalcTabID@ImGui@@YAIPEAUImGuiTabBar@@PEBDPEAUImGuiWindow@@@Z
pdata	ENDS
;	COMDAT pdata
pdata	SEGMENT
$pdata$2$?TabBarCalcTabID@ImGui@@YAIPEAUImGuiTabBar@@PEBDPEAUImGuiWindow@@@Z DD imagerel ?TabBarCalcTabID@ImGui@@YAIPEAUImGuiTabBar@@PEBDPEAUImGuiWindow@@@Z+134
	DD	imagerel ?TabBarCalcTabID@ImGui@@YAIPEAUImGuiTabBar@@PEBDPEAUImGuiWindow@@@Z+156
	DD	imagerel $chain$2$?TabBarCalcTabID@ImGui@@YAIPEAUImGuiTabBar@@PEBDPEAUImGuiWindow@@@Z
pdata	ENDS
;	COMDAT pdata
pdata	SEGMENT
$pdata$3$?TabBarCalcTabID@ImGui@@YAIPEAUImGuiTabBar@@PEBDPEAUImGuiWindow@@@Z DD imagerel ?TabBarCalcTabID@ImGui@@YAIPEAUImGuiTabBar@@PEBDPEAUImGuiWindow@@@Z+156
	DD	imagerel ?TabBarCalcTabID@ImGui@@YAIPEAUImGuiTabBar@@PEBDPEAUImGuiWindow@@@Z+162
	DD	imagerel $chain$3$?TabBarCalcTabID@ImGui@@YAIPEAUImGuiTabBar@@PEBDPEAUImGuiWindow@@@Z
pdata	ENDS
;	COMDAT pdata
pdata	SEGMENT
$pdata$?TabBarLayout@ImGui@@YAXPEAUImGuiTabBar@@@Z DD imagerel ?TabBarLayout@ImGui@@YAXPEAUImGuiTabBar@@@Z
	DD	imagerel ?TabBarLayout@ImGui@@YAXPEAUImGuiTabBar@@@Z+50
	DD	imagerel $unwind$?TabBarLayout@ImGui@@YAXPEAUImGuiTabBar@@@Z
pdata	ENDS
;	COMDAT pdata
pdata	SEGMENT
$pdata$1$?TabBarLayout@ImGui@@YAXPEAUImGuiTabBar@@@Z DD imagerel ?TabBarLayout@ImGui@@YAXPEAUImGuiTabBar@@@Z+50
	DD	imagerel ?TabBarLayout@ImGui@@YAXPEAUImGuiTabBar@@@Z+63
	DD	imagerel $chain$1$?TabBarLayout@ImGui@@YAXPEAUImGuiTabBar@@@Z
pdata	ENDS
;	COMDAT pdata
pdata	SEGMENT
$pdata$3$?TabBarLayout@ImGui@@YAXPEAUImGuiTabBar@@@Z DD imagerel ?TabBarLayout@ImGui@@YAXPEAUImGuiTabBar@@@Z+63
	DD	imagerel ?TabBarLayout@ImGui@@YAXPEAUImGuiTabBar@@@Z+745
	DD	imagerel $chain$3$?TabBarLayout@ImGui@@YAXPEAUImGuiTabBar@@@Z
pdata	ENDS
;	COMDAT pdata
pdata	SEGMENT
$pdata$6$?TabBarLayout@ImGui@@YAXPEAUImGuiTabBar@@@Z DD imagerel ?TabBarLayout@ImGui@@YAXPEAUImGuiTabBar@@@Z+745
	DD	imagerel ?TabBarLayout@ImGui@@YAXPEAUImGuiTabBar@@@Z+875
	DD	imagerel $chain$6$?TabBarLayout@ImGui@@YAXPEAUImGuiTabBar@@@Z
pdata	ENDS
;	COMDAT pdata
pdata	SEGMENT
$pdata$7$?TabBarLayout@ImGui@@YAXPEAUImGuiTabBar@@@Z DD imagerel ?TabBarLayout@ImGui@@YAXPEAUImGuiTabBar@@@Z+875
	DD	imagerel ?TabBarLayout@ImGui@@YAXPEAUImGuiTabBar@@@Z+3039
	DD	imagerel $chain$7$?TabBarLayout@ImGui@@YAXPEAUImGuiTabBar@@@Z
pdata	ENDS
;	COMDAT pdata
pdata	SEGMENT
$pdata$8$?TabBarLayout@ImGui@@YAXPEAUImGuiTabBar@@@Z DD imagerel ?TabBarLayout@ImGui@@YAXPEAUImGuiTabBar@@@Z+3039
	DD	imagerel ?TabBarLayout@ImGui@@YAXPEAUImGuiTabBar@@@Z+3965
	DD	imagerel $chain$8$?TabBarLayout@ImGui@@YAXPEAUImGuiTabBar@@@Z
pdata	ENDS
;	COMDAT pdata
pdata	SEGMENT
$pdata$9$?TabBarLayout@ImGui@@YAXPEAUImGuiTabBar@@@Z DD imagerel ?TabBarLayout@ImGui@@YAXPEAUImGuiTabBar@@@Z+3965
	DD	imagerel ?TabBarLayout@ImGui@@YAXPEAUImGuiTabBar@@@Z+4277
	DD	imagerel $chain$9$?TabBarLayout@ImGui@@YAXPEAUImGuiTabBar@@@Z
pdata	ENDS
;	COMDAT pdata
pdata	SEGMENT
$pdata$?MenuItemEx@ImGui@@YA_NPEBD00_N1@Z DD imagerel $LN203@MenuItemEx
	DD	imagerel $LN203@MenuItemEx+83
	DD	imagerel $unwind$?MenuItemEx@ImGui@@YA_NPEBD00_N1@Z
pdata	ENDS
;	COMDAT pdata
pdata	SEGMENT
$pdata$9$?MenuItemEx@ImGui@@YA_NPEBD00_N1@Z DD imagerel $LN203@MenuItemEx+83
	DD	imagerel $LN203@MenuItemEx+355
	DD	imagerel $chain$9$?MenuItemEx@ImGui@@YA_NPEBD00_N1@Z
pdata	ENDS
;	COMDAT pdata
pdata	SEGMENT
$pdata$10$?MenuItemEx@ImGui@@YA_NPEBD00_N1@Z DD imagerel $LN203@MenuItemEx+355
	DD	imagerel $LN203@MenuItemEx+1619
	DD	imagerel $chain$10$?MenuItemEx@ImGui@@YA_NPEBD00_N1@Z
pdata	ENDS
;	COMDAT pdata
pdata	SEGMENT
$pdata$11$?MenuItemEx@ImGui@@YA_NPEBD00_N1@Z DD imagerel $LN203@MenuItemEx+1619
	DD	imagerel $LN203@MenuItemEx+1679
	DD	imagerel $chain$11$?MenuItemEx@ImGui@@YA_NPEBD00_N1@Z
pdata	ENDS
;	COMDAT pdata
pdata	SEGMENT
$pdata$?BeginMenuEx@ImGui@@YA_NPEBD0_N@Z DD imagerel $LN470@BeginMenuE
	DD	imagerel $LN470@BeginMenuE+280
	DD	imagerel $unwind$?BeginMenuEx@ImGui@@YA_NPEBD0_N@Z
pdata	ENDS
;	COMDAT pdata
pdata	SEGMENT
$pdata$9$?BeginMenuEx@ImGui@@YA_NPEBD0_N@Z DD imagerel $LN470@BeginMenuE+280
	DD	imagerel $LN470@BeginMenuE+366
	DD	imagerel $chain$9$?BeginMenuEx@ImGui@@YA_NPEBD0_N@Z
pdata	ENDS
;	COMDAT pdata
pdata	SEGMENT
$pdata$10$?BeginMenuEx@ImGui@@YA_NPEBD0_N@Z DD imagerel $LN470@BeginMenuE+366
	DD	imagerel $LN470@BeginMenuE+406
	DD	imagerel $chain$10$?BeginMenuEx@ImGui@@YA_NPEBD0_N@Z
pdata	ENDS
;	COMDAT pdata
pdata	SEGMENT
$pdata$12$?BeginMenuEx@ImGui@@YA_NPEBD0_N@Z DD imagerel $LN470@BeginMenuE+406
	DD	imagerel $LN470@BeginMenuE+750
	DD	imagerel $chain$12$?BeginMenuEx@ImGui@@YA_NPEBD0_N@Z
pdata	ENDS
;	COMDAT pdata
pdata	SEGMENT
$pdata$14$?BeginMenuEx@ImGui@@YA_NPEBD0_N@Z DD imagerel $LN470@BeginMenuE+750
	DD	imagerel $LN470@BeginMenuE+3195
	DD	imagerel $chain$14$?BeginMenuEx@ImGui@@YA_NPEBD0_N@Z
pdata	ENDS
;	COMDAT pdata
pdata	SEGMENT
$pdata$15$?BeginMenuEx@ImGui@@YA_NPEBD0_N@Z DD imagerel $LN470@BeginMenuE+3195
	DD	imagerel $LN470@BeginMenuE+3237
	DD	imagerel $chain$15$?BeginMenuEx@ImGui@@YA_NPEBD0_N@Z
pdata	ENDS
;	COMDAT pdata
pdata	SEGMENT
$pdata$?CalcNextTotalWidth@ImGuiMenuColumns@@QEAAX_N@Z DD imagerel $LN60@CalcNextTo
	DD	imagerel $LN60@CalcNextTo+365
	DD	imagerel $unwind$?CalcNextTotalWidth@ImGuiMenuColumns@@QEAAX_N@Z
pdata	ENDS
;	COMDAT pdata
pdata	SEGMENT
$pdata$?ColorPickerOptionsPopup@ImGui@@YAXPEBMH@Z DD imagerel $LN119@ColorPicke
	DD	imagerel $LN119@ColorPicke+100
	DD	imagerel $unwind$?ColorPickerOptionsPopup@ImGui@@YAXPEBMH@Z
pdata	ENDS
;	COMDAT pdata
pdata	SEGMENT
$pdata$1$?ColorPickerOptionsPopup@ImGui@@YAXPEBMH@Z DD imagerel $LN119@ColorPicke+100
	DD	imagerel $LN119@ColorPicke+126
	DD	imagerel $chain$1$?ColorPickerOptionsPopup@ImGui@@YAXPEBMH@Z
pdata	ENDS
;	COMDAT pdata
pdata	SEGMENT
$pdata$2$?ColorPickerOptionsPopup@ImGui@@YAXPEBMH@Z DD imagerel $LN119@ColorPicke+126
	DD	imagerel $LN119@ColorPicke+191
	DD	imagerel $chain$2$?ColorPickerOptionsPopup@ImGui@@YAXPEBMH@Z
pdata	ENDS
;	COMDAT pdata
pdata	SEGMENT
$pdata$6$?ColorPickerOptionsPopup@ImGui@@YAXPEBMH@Z DD imagerel $LN119@ColorPicke+191
	DD	imagerel $LN119@ColorPicke+781
	DD	imagerel $chain$6$?ColorPickerOptionsPopup@ImGui@@YAXPEBMH@Z
pdata	ENDS
;	COMDAT pdata
pdata	SEGMENT
$pdata$7$?ColorPickerOptionsPopup@ImGui@@YAXPEBMH@Z DD imagerel $LN119@ColorPicke+781
	DD	imagerel $LN119@ColorPicke+940
	DD	imagerel $chain$7$?ColorPickerOptionsPopup@ImGui@@YAXPEBMH@Z
pdata	ENDS
;	COMDAT pdata
pdata	SEGMENT
$pdata$8$?ColorPickerOptionsPopup@ImGui@@YAXPEBMH@Z DD imagerel $LN119@ColorPicke+940
	DD	imagerel $LN119@ColorPicke+1027
	DD	imagerel $chain$8$?ColorPickerOptionsPopup@ImGui@@YAXPEBMH@Z
pdata	ENDS
;	COMDAT pdata
pdata	SEGMENT
$pdata$9$?ColorPickerOptionsPopup@ImGui@@YAXPEBMH@Z DD imagerel $LN119@ColorPicke+1027
	DD	imagerel $LN119@ColorPicke+1056
	DD	imagerel $chain$9$?ColorPickerOptionsPopup@ImGui@@YAXPEBMH@Z
pdata	ENDS
;	COMDAT pdata
pdata	SEGMENT
$pdata$?ColorEditOptionsPopup@ImGui@@YAXPEBMH@Z DD imagerel $LN158@ColorEditO
	DD	imagerel $LN158@ColorEditO+86
	DD	imagerel $unwind$?ColorEditOptionsPopup@ImGui@@YAXPEBMH@Z
pdata	ENDS
;	COMDAT pdata
pdata	SEGMENT
$pdata$3$?ColorEditOptionsPopup@ImGui@@YAXPEBMH@Z DD imagerel $LN158@ColorEditO+86
	DD	imagerel $LN158@ColorEditO+472
	DD	imagerel $chain$3$?ColorEditOptionsPopup@ImGui@@YAXPEBMH@Z
pdata	ENDS
;	COMDAT pdata
pdata	SEGMENT
$pdata$4$?ColorEditOptionsPopup@ImGui@@YAXPEBMH@Z DD imagerel $LN158@ColorEditO+472
	DD	imagerel $LN158@ColorEditO+1399
	DD	imagerel $chain$4$?ColorEditOptionsPopup@ImGui@@YAXPEBMH@Z
pdata	ENDS
;	COMDAT pdata
pdata	SEGMENT
$pdata$5$?ColorEditOptionsPopup@ImGui@@YAXPEBMH@Z DD imagerel $LN158@ColorEditO+1399
	DD	imagerel $LN158@ColorEditO+1479
	DD	imagerel $chain$5$?ColorEditOptionsPopup@ImGui@@YAXPEBMH@Z
pdata	ENDS
;	COMDAT pdata
pdata	SEGMENT
$pdata$6$?ColorEditOptionsPopup@ImGui@@YAXPEBMH@Z DD imagerel $LN158@ColorEditO+1479
	DD	imagerel $LN158@ColorEditO+1506
	DD	imagerel $chain$6$?ColorEditOptionsPopup@ImGui@@YAXPEBMH@Z
pdata	ENDS
;	COMDAT pdata
pdata	SEGMENT
$pdata$?ColorTooltip@ImGui@@YAXPEBDPEBMH@Z DD imagerel $LN85@ColorToolt
	DD	imagerel $LN85@ColorToolt+65
	DD	imagerel $unwind$?ColorTooltip@ImGui@@YAXPEBDPEBMH@Z
pdata	ENDS
;	COMDAT pdata
pdata	SEGMENT
$pdata$1$?ColorTooltip@ImGui@@YAXPEBDPEBMH@Z DD imagerel $LN85@ColorToolt+65
	DD	imagerel $LN85@ColorToolt+81
	DD	imagerel $chain$1$?ColorTooltip@ImGui@@YAXPEBDPEBMH@Z
pdata	ENDS
;	COMDAT pdata
pdata	SEGMENT
$pdata$3$?ColorTooltip@ImGui@@YAXPEBDPEBMH@Z DD imagerel $LN85@ColorToolt+81
	DD	imagerel $LN85@ColorToolt+435
	DD	imagerel $chain$3$?ColorTooltip@ImGui@@YAXPEBDPEBMH@Z
pdata	ENDS
;	COMDAT pdata
pdata	SEGMENT
$pdata$4$?ColorTooltip@ImGui@@YAXPEBDPEBMH@Z DD imagerel $LN85@ColorToolt+435
	DD	imagerel $LN85@ColorToolt+568
	DD	imagerel $chain$4$?ColorTooltip@ImGui@@YAXPEBDPEBMH@Z
pdata	ENDS
;	COMDAT pdata
pdata	SEGMENT
$pdata$5$?ColorTooltip@ImGui@@YAXPEBDPEBMH@Z DD imagerel $LN85@ColorToolt+568
	DD	imagerel $LN85@ColorToolt+878
	DD	imagerel $chain$5$?ColorTooltip@ImGui@@YAXPEBDPEBMH@Z
pdata	ENDS
;	COMDAT pdata
pdata	SEGMENT
$pdata$6$?ColorTooltip@ImGui@@YAXPEBDPEBMH@Z DD imagerel $LN85@ColorToolt+878
	DD	imagerel $LN85@ColorToolt+907
	DD	imagerel $chain$6$?ColorTooltip@ImGui@@YAXPEBDPEBMH@Z
pdata	ENDS
;	COMDAT pdata
pdata	SEGMENT
$pdata$?ColorPicker4PS@ImGui@@YA_NPEBDQEAMHPEBM@Z DD imagerel $LN1201
	DD	imagerel $LN1201+87
	DD	imagerel $unwind$?ColorPicker4PS@ImGui@@YA_NPEBDQEAMHPEBM@Z
pdata	ENDS
;	COMDAT pdata
pdata	SEGMENT
$pdata$14$?ColorPicker4PS@ImGui@@YA_NPEBDQEAMHPEBM@Z DD imagerel $LN1201+87
	DD	imagerel $LN1201+7802
	DD	imagerel $chain$14$?ColorPicker4PS@ImGui@@YA_NPEBDQEAMHPEBM@Z
pdata	ENDS
;	COMDAT pdata
pdata	SEGMENT
$pdata$15$?ColorPicker4PS@ImGui@@YA_NPEBDQEAMHPEBM@Z DD imagerel $LN1201+7802
	DD	imagerel $LN1201+8256
	DD	imagerel $chain$15$?ColorPicker4PS@ImGui@@YA_NPEBDQEAMHPEBM@Z
pdata	ENDS
;	COMDAT pdata
pdata	SEGMENT
$pdata$16$?ColorPicker4PS@ImGui@@YA_NPEBDQEAMHPEBM@Z DD imagerel $LN1201+8256
	DD	imagerel $LN1201+8402
	DD	imagerel $chain$16$?ColorPicker4PS@ImGui@@YA_NPEBDQEAMHPEBM@Z
pdata	ENDS
;	COMDAT pdata
pdata	SEGMENT
$pdata$?RenderArrowsForVerticalBar@@YAXPEAUImDrawList@@UImVec2@@1MM@Z DD imagerel ?RenderArrowsForVerticalBar@@YAXPEAUImDrawList@@UImVec2@@1MM@Z
	DD	imagerel ?RenderArrowsForVerticalBar@@YAXPEAUImDrawList@@UImVec2@@1MM@Z+613
	DD	imagerel $unwind$?RenderArrowsForVerticalBar@@YAXPEAUImDrawList@@UImVec2@@1MM@Z
pdata	ENDS
;	COMDAT pdata
pdata	SEGMENT
$pdata$?ColorEditRestoreHS@@YAXPEBMPEAM11@Z DD imagerel ?ColorEditRestoreHS@@YAXPEBMPEAM11@Z
	DD	imagerel ?ColorEditRestoreHS@@YAXPEBMPEAM11@Z+59
	DD	imagerel $unwind$?ColorEditRestoreHS@@YAXPEBMPEAM11@Z
pdata	ENDS
;	COMDAT pdata
pdata	SEGMENT
$pdata$0$?ColorEditRestoreHS@@YAXPEBMPEAM11@Z DD imagerel ?ColorEditRestoreHS@@YAXPEBMPEAM11@Z+59
	DD	imagerel ?ColorEditRestoreHS@@YAXPEBMPEAM11@Z+182
	DD	imagerel $chain$0$?ColorEditRestoreHS@@YAXPEBMPEAM11@Z
pdata	ENDS
;	COMDAT pdata
pdata	SEGMENT
$pdata$1$?ColorEditRestoreHS@@YAXPEBMPEAM11@Z DD imagerel ?ColorEditRestoreHS@@YAXPEBMPEAM11@Z+182
	DD	imagerel ?ColorEditRestoreHS@@YAXPEBMPEAM11@Z+187
	DD	imagerel $chain$1$?ColorEditRestoreHS@@YAXPEBMPEAM11@Z
pdata	ENDS
;	COMDAT pdata
pdata	SEGMENT
$pdata$?ColorEditRestoreH@@YAXPEBMPEAM@Z DD imagerel ?ColorEditRestoreH@@YAXPEBMPEAM@Z
	DD	imagerel ?ColorEditRestoreH@@YAXPEBMPEAM@Z+104
	DD	imagerel $unwind$?ColorEditRestoreH@@YAXPEBMPEAM@Z
pdata	ENDS
;	COMDAT pdata
pdata	SEGMENT
$pdata$?InputTextEx@ImGui@@YA_NPEBD0PEADHAEBUImVec2@@HP6AHPEAUImGuiInputTextCallbackData@@@ZPEAX@Z DD imagerel $LN1997@InputTextE
	DD	imagerel $LN1997@InputTextE+15657
	DD	imagerel $unwind$?InputTextEx@ImGui@@YA_NPEBD0PEADHAEBUImVec2@@HP6AHPEAUImGuiInputTextCallbackData@@@ZPEAX@Z
pdata	ENDS
;	COMDAT pdata
pdata	SEGMENT
$pdata$?InputTextReconcileUndoStateAfterUserCallback@@YAXPEAUImGuiInputTextState@@PEBDH@Z DD imagerel ?InputTextReconcileUndoStateAfterUserCallback@@YAXPEAUImGuiInputTextState@@PEBDH@Z
	DD	imagerel ?InputTextReconcileUndoStateAfterUserCallback@@YAXPEAUImGuiInputTextState@@PEBDH@Z+671
	DD	imagerel $unwind$?InputTextReconcileUndoStateAfterUserCallback@@YAXPEAUImGuiInputTextState@@PEBDH@Z
pdata	ENDS
;	COMDAT pdata
pdata	SEGMENT
$pdata$?InputTextFilterCharacter@@YA_NPEAUImGuiContext@@PEAIHP6AHPEAUImGuiInputTextCallbackData@@@ZPEAX_N@Z DD imagerel ?InputTextFilterCharacter@@YA_NPEAUImGuiContext@@PEAIHP6AHPEAUImGuiInputTextCallbackData@@@ZPEAX_N@Z
	DD	imagerel ?InputTextFilterCharacter@@YA_NPEAUImGuiContext@@PEAIHP6AHPEAUImGuiInputTextCallbackData@@@ZPEAX_N@Z+574
	DD	imagerel $unwind$?InputTextFilterCharacter@@YA_NPEAUImGuiContext@@PEAIHP6AHPEAUImGuiInputTextCallbackData@@@ZPEAX_N@Z
pdata	ENDS
;	COMDAT pdata
pdata	SEGMENT
$pdata$?OnKeyPressed@ImGuiInputTextState@@QEAAXH@Z DD imagerel $LN6@OnKeyPress
	DD	imagerel $LN6@OnKeyPress+44
	DD	imagerel $unwind$?OnKeyPressed@ImGuiInputTextState@@QEAAXH@Z
pdata	ENDS
;	COMDAT pdata
pdata	SEGMENT
$pdata$?stb_textedit_replace@ImStb@@YAXPEAUImGuiInputTextState@@PEAUSTB_TexteditState@1@PEBGH@Z DD imagerel ?stb_textedit_replace@ImStb@@YAXPEAUImGuiInputTextState@@PEAUSTB_TexteditState@1@PEBGH@Z
	DD	imagerel ?stb_textedit_replace@ImStb@@YAXPEAUImGuiInputTextState@@PEAUSTB_TexteditState@1@PEBGH@Z+192
	DD	imagerel $unwind$?stb_textedit_replace@ImStb@@YAXPEAUImGuiInputTextState@@PEAUSTB_TexteditState@1@PEBGH@Z
pdata	ENDS
;	COMDAT pdata
pdata	SEGMENT
$pdata$?stb_textedit_paste@ImStb@@YAHPEAUImGuiInputTextState@@PEAUSTB_TexteditState@1@PEBGH@Z DD imagerel ?stb_textedit_paste@ImStb@@YAHPEAUImGuiInputTextState@@PEAUSTB_TexteditState@1@PEBGH@Z
	DD	imagerel ?stb_textedit_paste@ImStb@@YAHPEAUImGuiInputTextState@@PEAUSTB_TexteditState@1@PEBGH@Z+181
	DD	imagerel $unwind$?stb_textedit_paste@ImStb@@YAHPEAUImGuiInputTextState@@PEAUSTB_TexteditState@1@PEBGH@Z
pdata	ENDS
;	COMDAT pdata
pdata	SEGMENT
$pdata$?stb_text_makeundo_replace@ImStb@@YAXPEAUImGuiInputTextState@@PEAUSTB_TexteditState@1@HHH@Z DD imagerel ?stb_text_makeundo_replace@ImStb@@YAXPEAUImGuiInputTextState@@PEAUSTB_TexteditState@1@HHH@Z
	DD	imagerel ?stb_text_makeundo_replace@ImStb@@YAXPEAUImGuiInputTextState@@PEAUSTB_TexteditState@1@HHH@Z+106
	DD	imagerel $unwind$?stb_text_makeundo_replace@ImStb@@YAXPEAUImGuiInputTextState@@PEAUSTB_TexteditState@1@HHH@Z
pdata	ENDS
;	COMDAT pdata
pdata	SEGMENT
$pdata$?stb_text_makeundo_delete@ImStb@@YAXPEAUImGuiInputTextState@@PEAUSTB_TexteditState@1@HH@Z DD imagerel ?stb_text_makeundo_delete@ImStb@@YAXPEAUImGuiInputTextState@@PEAUSTB_TexteditState@1@HH@Z
	DD	imagerel ?stb_text_makeundo_delete@ImStb@@YAXPEAUImGuiInputTextState@@PEAUSTB_TexteditState@1@HH@Z+175
	DD	imagerel $unwind$?stb_text_makeundo_delete@ImStb@@YAXPEAUImGuiInputTextState@@PEAUSTB_TexteditState@1@HH@Z
pdata	ENDS
;	COMDAT pdata
pdata	SEGMENT
$pdata$?stb_text_makeundo_insert@ImStb@@YAXPEAUSTB_TexteditState@1@HH@Z DD imagerel ?stb_text_makeundo_insert@ImStb@@YAXPEAUSTB_TexteditState@1@HH@Z
	DD	imagerel ?stb_text_makeundo_insert@ImStb@@YAXPEAUSTB_TexteditState@1@HH@Z+61
	DD	imagerel $unwind$?stb_text_makeundo_insert@ImStb@@YAXPEAUSTB_TexteditState@1@HH@Z
pdata	ENDS
;	COMDAT pdata
pdata	SEGMENT
$pdata$?stb_text_redo@ImStb@@YAXPEAUImGuiInputTextState@@PEAUSTB_TexteditState@1@@Z DD imagerel ?stb_text_redo@ImStb@@YAXPEAUImGuiInputTextState@@PEAUSTB_TexteditState@1@@Z
	DD	imagerel ?stb_text_redo@ImStb@@YAXPEAUImGuiInputTextState@@PEAUSTB_TexteditState@1@@Z+47
	DD	imagerel $unwind$?stb_text_redo@ImStb@@YAXPEAUImGuiInputTextState@@PEAUSTB_TexteditState@1@@Z
pdata	ENDS
;	COMDAT pdata
pdata	SEGMENT
$pdata$2$?stb_text_redo@ImStb@@YAXPEAUImGuiInputTextState@@PEAUSTB_TexteditState@1@@Z DD imagerel ?stb_text_redo@ImStb@@YAXPEAUImGuiInputTextState@@PEAUSTB_TexteditState@1@@Z+47
	DD	imagerel ?stb_text_redo@ImStb@@YAXPEAUImGuiInputTextState@@PEAUSTB_TexteditState@1@@Z+312
	DD	imagerel $chain$2$?stb_text_redo@ImStb@@YAXPEAUImGuiInputTextState@@PEAUSTB_TexteditState@1@@Z
pdata	ENDS
;	COMDAT pdata
pdata	SEGMENT
$pdata$3$?stb_text_redo@ImStb@@YAXPEAUImGuiInputTextState@@PEAUSTB_TexteditState@1@@Z DD imagerel ?stb_text_redo@ImStb@@YAXPEAUImGuiInputTextState@@PEAUSTB_TexteditState@1@@Z+312
	DD	imagerel ?stb_text_redo@ImStb@@YAXPEAUImGuiInputTextState@@PEAUSTB_TexteditState@1@@Z+321
	DD	imagerel $chain$3$?stb_text_redo@ImStb@@YAXPEAUImGuiInputTextState@@PEAUSTB_TexteditState@1@@Z
pdata	ENDS
;	COMDAT pdata
pdata	SEGMENT
$pdata$?stb_text_undo@ImStb@@YAXPEAUImGuiInputTextState@@PEAUSTB_TexteditState@1@@Z DD imagerel ?stb_text_undo@ImStb@@YAXPEAUImGuiInputTextState@@PEAUSTB_TexteditState@1@@Z
	DD	imagerel ?stb_text_undo@ImStb@@YAXPEAUImGuiInputTextState@@PEAUSTB_TexteditState@1@@Z+41
	DD	imagerel $unwind$?stb_text_undo@ImStb@@YAXPEAUImGuiInputTextState@@PEAUSTB_TexteditState@1@@Z
pdata	ENDS
;	COMDAT pdata
pdata	SEGMENT
$pdata$3$?stb_text_undo@ImStb@@YAXPEAUImGuiInputTextState@@PEAUSTB_TexteditState@1@@Z DD imagerel ?stb_text_undo@ImStb@@YAXPEAUImGuiInputTextState@@PEAUSTB_TexteditState@1@@Z+41
	DD	imagerel ?stb_text_undo@ImStb@@YAXPEAUImGuiInputTextState@@PEAUSTB_TexteditState@1@@Z+602
	DD	imagerel $chain$3$?stb_text_undo@ImStb@@YAXPEAUImGuiInputTextState@@PEAUSTB_TexteditState@1@@Z
pdata	ENDS
;	COMDAT pdata
pdata	SEGMENT
$pdata$4$?stb_text_undo@ImStb@@YAXPEAUImGuiInputTextState@@PEAUSTB_TexteditState@1@@Z DD imagerel ?stb_text_undo@ImStb@@YAXPEAUImGuiInputTextState@@PEAUSTB_TexteditState@1@@Z+602
	DD	imagerel ?stb_text_undo@ImStb@@YAXPEAUImGuiInputTextState@@PEAUSTB_TexteditState@1@@Z+609
	DD	imagerel $chain$4$?stb_text_undo@ImStb@@YAXPEAUImGuiInputTextState@@PEAUSTB_TexteditState@1@@Z
pdata	ENDS
;	COMDAT pdata
pdata	SEGMENT
$pdata$?stb_text_createundo@ImStb@@YAPEAGPEAUStbUndoState@1@HHH@Z DD imagerel ?stb_text_createundo@ImStb@@YAPEAGPEAUStbUndoState@1@HHH@Z
	DD	imagerel ?stb_text_createundo@ImStb@@YAPEAGPEAUStbUndoState@1@HHH@Z+121
	DD	imagerel $unwind$?stb_text_createundo@ImStb@@YAPEAGPEAUStbUndoState@1@HHH@Z
pdata	ENDS
;	COMDAT pdata
pdata	SEGMENT
$pdata$?stb_text_create_undo_record@ImStb@@YAPEAUStbUndoRecord@1@PEAUStbUndoState@1@H@Z DD imagerel ?stb_text_create_undo_record@ImStb@@YAPEAUStbUndoRecord@1@PEAUStbUndoState@1@H@Z
	DD	imagerel ?stb_text_create_undo_record@ImStb@@YAPEAUStbUndoRecord@1@PEAUStbUndoState@1@H@Z+487
	DD	imagerel $unwind$?stb_text_create_undo_record@ImStb@@YAPEAUStbUndoRecord@1@PEAUStbUndoState@1@H@Z
pdata	ENDS
;	COMDAT pdata
pdata	SEGMENT
$pdata$?stb_textedit_discard_redo@ImStb@@YAXPEAUStbUndoState@1@@Z DD imagerel ?stb_textedit_discard_redo@ImStb@@YAXPEAUStbUndoState@1@@Z
	DD	imagerel ?stb_textedit_discard_redo@ImStb@@YAXPEAUStbUndoState@1@@Z+30
	DD	imagerel $unwind$?stb_textedit_discard_redo@ImStb@@YAXPEAUStbUndoState@1@@Z
pdata	ENDS
;	COMDAT pdata
pdata	SEGMENT
$pdata$0$?stb_textedit_discard_redo@ImStb@@YAXPEAUStbUndoState@1@@Z DD imagerel ?stb_textedit_discard_redo@ImStb@@YAXPEAUStbUndoState@1@@Z+30
	DD	imagerel ?stb_textedit_discard_redo@ImStb@@YAXPEAUStbUndoState@1@@Z+51
	DD	imagerel $chain$0$?stb_textedit_discard_redo@ImStb@@YAXPEAUStbUndoState@1@@Z
pdata	ENDS
;	COMDAT pdata
pdata	SEGMENT
$pdata$1$?stb_textedit_discard_redo@ImStb@@YAXPEAUStbUndoState@1@@Z DD imagerel ?stb_textedit_discard_redo@ImStb@@YAXPEAUStbUndoState@1@@Z+51
	DD	imagerel ?stb_textedit_discard_redo@ImStb@@YAXPEAUStbUndoState@1@@Z+177
	DD	imagerel $chain$1$?stb_textedit_discard_redo@ImStb@@YAXPEAUStbUndoState@1@@Z
pdata	ENDS
;	COMDAT pdata
pdata	SEGMENT
$pdata$2$?stb_textedit_discard_redo@ImStb@@YAXPEAUStbUndoState@1@@Z DD imagerel ?stb_textedit_discard_redo@ImStb@@YAXPEAUStbUndoState@1@@Z+177
	DD	imagerel ?stb_textedit_discard_redo@ImStb@@YAXPEAUStbUndoState@1@@Z+225
	DD	imagerel $chain$2$?stb_textedit_discard_redo@ImStb@@YAXPEAUStbUndoState@1@@Z
pdata	ENDS
;	COMDAT pdata
pdata	SEGMENT
$pdata$3$?stb_textedit_discard_redo@ImStb@@YAXPEAUStbUndoState@1@@Z DD imagerel ?stb_textedit_discard_redo@ImStb@@YAXPEAUStbUndoState@1@@Z+225
	DD	imagerel ?stb_textedit_discard_redo@ImStb@@YAXPEAUStbUndoState@1@@Z+231
	DD	imagerel $chain$3$?stb_textedit_discard_redo@ImStb@@YAXPEAUStbUndoState@1@@Z
pdata	ENDS
;	COMDAT pdata
pdata	SEGMENT
$pdata$?stb_textedit_discard_undo@ImStb@@YAXPEAUStbUndoState@1@@Z DD imagerel ?stb_textedit_discard_undo@ImStb@@YAXPEAUStbUndoState@1@@Z
	DD	imagerel ?stb_textedit_discard_undo@ImStb@@YAXPEAUStbUndoState@1@@Z+29
	DD	imagerel $unwind$?stb_textedit_discard_undo@ImStb@@YAXPEAUStbUndoState@1@@Z
pdata	ENDS
;	COMDAT pdata
pdata	SEGMENT
$pdata$0$?stb_textedit_discard_undo@ImStb@@YAXPEAUStbUndoState@1@@Z DD imagerel ?stb_textedit_discard_undo@ImStb@@YAXPEAUStbUndoState@1@@Z+29
	DD	imagerel ?stb_textedit_discard_undo@ImStb@@YAXPEAUStbUndoState@1@@Z+47
	DD	imagerel $chain$0$?stb_textedit_discard_undo@ImStb@@YAXPEAUStbUndoState@1@@Z
pdata	ENDS
;	COMDAT pdata
pdata	SEGMENT
$pdata$1$?stb_textedit_discard_undo@ImStb@@YAXPEAUStbUndoState@1@@Z DD imagerel ?stb_textedit_discard_undo@ImStb@@YAXPEAUStbUndoState@1@@Z+47
	DD	imagerel ?stb_textedit_discard_undo@ImStb@@YAXPEAUStbUndoState@1@@Z+134
	DD	imagerel $chain$1$?stb_textedit_discard_undo@ImStb@@YAXPEAUStbUndoState@1@@Z
pdata	ENDS
;	COMDAT pdata
pdata	SEGMENT
$pdata$2$?stb_textedit_discard_undo@ImStb@@YAXPEAUStbUndoState@1@@Z DD imagerel ?stb_textedit_discard_undo@ImStb@@YAXPEAUStbUndoState@1@@Z+134
	DD	imagerel ?stb_textedit_discard_undo@ImStb@@YAXPEAUStbUndoState@1@@Z+169
	DD	imagerel $chain$2$?stb_textedit_discard_undo@ImStb@@YAXPEAUStbUndoState@1@@Z
pdata	ENDS
;	COMDAT pdata
pdata	SEGMENT
$pdata$3$?stb_textedit_discard_undo@ImStb@@YAXPEAUStbUndoState@1@@Z DD imagerel ?stb_textedit_discard_undo@ImStb@@YAXPEAUStbUndoState@1@@Z+169
	DD	imagerel ?stb_textedit_discard_undo@ImStb@@YAXPEAUStbUndoState@1@@Z+175
	DD	imagerel $chain$3$?stb_textedit_discard_undo@ImStb@@YAXPEAUStbUndoState@1@@Z
pdata	ENDS
;	COMDAT pdata
pdata	SEGMENT
$pdata$?stb_textedit_key@ImStb@@YAXPEAUImGuiInputTextState@@PEAUSTB_TexteditState@1@H@Z DD imagerel ?stb_textedit_key@ImStb@@YAXPEAUImGuiInputTextState@@PEAUSTB_TexteditState@1@H@Z
	DD	imagerel ?stb_textedit_key@ImStb@@YAXPEAUImGuiInputTextState@@PEAUSTB_TexteditState@1@H@Z+3668
	DD	imagerel $unwind$?stb_textedit_key@ImStb@@YAXPEAUImGuiInputTextState@@PEAUSTB_TexteditState@1@H@Z
pdata	ENDS
;	COMDAT pdata
pdata	SEGMENT
$pdata$?stb_textedit_paste_internal@ImStb@@YAHPEAUImGuiInputTextState@@PEAUSTB_TexteditState@1@PEAGH@Z DD imagerel ?stb_textedit_paste_internal@ImStb@@YAHPEAUImGuiInputTextState@@PEAUSTB_TexteditState@1@PEAGH@Z
	DD	imagerel ?stb_textedit_paste_internal@ImStb@@YAHPEAUImGuiInputTextState@@PEAUSTB_TexteditState@1@PEAGH@Z+181
	DD	imagerel $unwind$?stb_textedit_paste_internal@ImStb@@YAHPEAUImGuiInputTextState@@PEAUSTB_TexteditState@1@PEAGH@Z
pdata	ENDS
;	COMDAT pdata
pdata	SEGMENT
$pdata$?stb_textedit_cut@ImStb@@YAHPEAUImGuiInputTextState@@PEAUSTB_TexteditState@1@@Z DD imagerel ?stb_textedit_cut@ImStb@@YAHPEAUImGuiInputTextState@@PEAUSTB_TexteditState@1@@Z
	DD	imagerel ?stb_textedit_cut@ImStb@@YAHPEAUImGuiInputTextState@@PEAUSTB_TexteditState@1@@Z+45
	DD	imagerel $unwind$?stb_textedit_cut@ImStb@@YAHPEAUImGuiInputTextState@@PEAUSTB_TexteditState@1@@Z
pdata	ENDS
;	COMDAT pdata
pdata	SEGMENT
$pdata$?stb_textedit_delete_selection@ImStb@@YAXPEAUImGuiInputTextState@@PEAUSTB_TexteditState@1@@Z DD imagerel ?stb_textedit_delete_selection@ImStb@@YAXPEAUImGuiInputTextState@@PEAUSTB_TexteditState@1@@Z
	DD	imagerel ?stb_textedit_delete_selection@ImStb@@YAXPEAUImGuiInputTextState@@PEAUSTB_TexteditState@1@@Z+153
	DD	imagerel $unwind$?stb_textedit_delete_selection@ImStb@@YAXPEAUImGuiInputTextState@@PEAUSTB_TexteditState@1@@Z
pdata	ENDS
;	COMDAT pdata
pdata	SEGMENT
$pdata$?stb_textedit_delete@ImStb@@YAXPEAUImGuiInputTextState@@PEAUSTB_TexteditState@1@HH@Z DD imagerel ?stb_textedit_delete@ImStb@@YAXPEAUImGuiInputTextState@@PEAUSTB_TexteditState@1@HH@Z
	DD	imagerel ?stb_textedit_delete@ImStb@@YAXPEAUImGuiInputTextState@@PEAUSTB_TexteditState@1@HH@Z+215
	DD	imagerel $unwind$?stb_textedit_delete@ImStb@@YAXPEAUImGuiInputTextState@@PEAUSTB_TexteditState@1@HH@Z
pdata	ENDS
;	COMDAT pdata
pdata	SEGMENT
$pdata$?stb_textedit_find_charpos@ImStb@@YAXPEAUStbFindState@1@PEAUImGuiInputTextState@@HH@Z DD imagerel ?stb_textedit_find_charpos@ImStb@@YAXPEAUStbFindState@1@PEAUImGuiInputTextState@@HH@Z
	DD	imagerel ?stb_textedit_find_charpos@ImStb@@YAXPEAUStbFindState@1@PEAUImGuiInputTextState@@HH@Z+131
	DD	imagerel $unwind$?stb_textedit_find_charpos@ImStb@@YAXPEAUStbFindState@1@PEAUImGuiInputTextState@@HH@Z
pdata	ENDS
;	COMDAT pdata
pdata	SEGMENT
$pdata$0$?stb_textedit_find_charpos@ImStb@@YAXPEAUStbFindState@1@PEAUImGuiInputTextState@@HH@Z DD imagerel ?stb_textedit_find_charpos@ImStb@@YAXPEAUStbFindState@1@PEAUImGuiInputTextState@@HH@Z+131
	DD	imagerel ?stb_textedit_find_charpos@ImStb@@YAXPEAUStbFindState@1@PEAUImGuiInputTextState@@HH@Z+221
	DD	imagerel $chain$0$?stb_textedit_find_charpos@ImStb@@YAXPEAUStbFindState@1@PEAUImGuiInputTextState@@HH@Z
pdata	ENDS
;	COMDAT pdata
pdata	SEGMENT
$pdata$1$?stb_textedit_find_charpos@ImStb@@YAXPEAUStbFindState@1@PEAUImGuiInputTextState@@HH@Z DD imagerel ?stb_textedit_find_charpos@ImStb@@YAXPEAUStbFindState@1@PEAUImGuiInputTextState@@HH@Z+221
	DD	imagerel ?stb_textedit_find_charpos@ImStb@@YAXPEAUStbFindState@1@PEAUImGuiInputTextState@@HH@Z+402
	DD	imagerel $chain$1$?stb_textedit_find_charpos@ImStb@@YAXPEAUStbFindState@1@PEAUImGuiInputTextState@@HH@Z
pdata	ENDS
;	COMDAT pdata
pdata	SEGMENT
$pdata$?stb_textedit_drag@ImStb@@YAXPEAUImGuiInputTextState@@PEAUSTB_TexteditState@1@MM@Z DD imagerel ?stb_textedit_drag@ImStb@@YAXPEAUImGuiInputTextState@@PEAUSTB_TexteditState@1@MM@Z
	DD	imagerel ?stb_textedit_drag@ImStb@@YAXPEAUImGuiInputTextState@@PEAUSTB_TexteditState@1@MM@Z+100
	DD	imagerel $unwind$?stb_textedit_drag@ImStb@@YAXPEAUImGuiInputTextState@@PEAUSTB_TexteditState@1@MM@Z
pdata	ENDS
;	COMDAT pdata
pdata	SEGMENT
$pdata$?stb_textedit_click@ImStb@@YAXPEAUImGuiInputTextState@@PEAUSTB_TexteditState@1@MM@Z DD imagerel ?stb_textedit_click@ImStb@@YAXPEAUImGuiInputTextState@@PEAUSTB_TexteditState@1@MM@Z
	DD	imagerel ?stb_textedit_click@ImStb@@YAXPEAUImGuiInputTextState@@PEAUSTB_TexteditState@1@MM@Z+94
	DD	imagerel $unwind$?stb_textedit_click@ImStb@@YAXPEAUImGuiInputTextState@@PEAUSTB_TexteditState@1@MM@Z
pdata	ENDS
;	COMDAT pdata
pdata	SEGMENT
$pdata$?stb_text_locate_coord@ImStb@@YAHPEAUImGuiInputTextState@@MM@Z DD imagerel ?stb_text_locate_coord@ImStb@@YAHPEAUImGuiInputTextState@@MM@Z
	DD	imagerel ?stb_text_locate_coord@ImStb@@YAHPEAUImGuiInputTextState@@MM@Z+409
	DD	imagerel $unwind$?stb_text_locate_coord@ImStb@@YAHPEAUImGuiInputTextState@@MM@Z
pdata	ENDS
;	COMDAT pdata
pdata	SEGMENT
$pdata$?STB_TEXTEDIT_INSERTCHARS@ImStb@@YA_NPEAUImGuiInputTextState@@HPEBGH@Z DD imagerel ?STB_TEXTEDIT_INSERTCHARS@ImStb@@YA_NPEAUImGuiInputTextState@@HPEBGH@Z
	DD	imagerel ?STB_TEXTEDIT_INSERTCHARS@ImStb@@YA_NPEAUImGuiInputTextState@@HPEBGH@Z+390
	DD	imagerel $unwind$?STB_TEXTEDIT_INSERTCHARS@ImStb@@YA_NPEAUImGuiInputTextState@@HPEBGH@Z
pdata	ENDS
;	COMDAT pdata
pdata	SEGMENT
$pdata$?STB_TEXTEDIT_DELETECHARS@ImStb@@YAXPEAUImGuiInputTextState@@HH@Z DD imagerel ?STB_TEXTEDIT_DELETECHARS@ImStb@@YAXPEAUImGuiInputTextState@@HH@Z
	DD	imagerel ?STB_TEXTEDIT_DELETECHARS@ImStb@@YAXPEAUImGuiInputTextState@@HH@Z+194
	DD	imagerel $unwind$?STB_TEXTEDIT_DELETECHARS@ImStb@@YAXPEAUImGuiInputTextState@@HH@Z
pdata	ENDS
;	COMDAT pdata
pdata	SEGMENT
$pdata$?STB_TEXTEDIT_MOVEWORDRIGHT_IMPL@ImStb@@YAHPEAUImGuiInputTextState@@H@Z DD imagerel ?STB_TEXTEDIT_MOVEWORDRIGHT_IMPL@ImStb@@YAHPEAUImGuiInputTextState@@H@Z
	DD	imagerel ?STB_TEXTEDIT_MOVEWORDRIGHT_IMPL@ImStb@@YAHPEAUImGuiInputTextState@@H@Z+91
	DD	imagerel $unwind$?STB_TEXTEDIT_MOVEWORDRIGHT_IMPL@ImStb@@YAHPEAUImGuiInputTextState@@H@Z
pdata	ENDS
;	COMDAT pdata
pdata	SEGMENT
$pdata$?STB_TEXTEDIT_MOVEWORDRIGHT_WIN@ImStb@@YAHPEAUImGuiInputTextState@@H@Z DD imagerel ?STB_TEXTEDIT_MOVEWORDRIGHT_WIN@ImStb@@YAHPEAUImGuiInputTextState@@H@Z
	DD	imagerel ?STB_TEXTEDIT_MOVEWORDRIGHT_WIN@ImStb@@YAHPEAUImGuiInputTextState@@H@Z+75
	DD	imagerel $unwind$?STB_TEXTEDIT_MOVEWORDRIGHT_WIN@ImStb@@YAHPEAUImGuiInputTextState@@H@Z
pdata	ENDS
;	COMDAT pdata
pdata	SEGMENT
$pdata$?STB_TEXTEDIT_MOVEWORDRIGHT_MAC@ImStb@@YAHPEAUImGuiInputTextState@@H@Z DD imagerel ?STB_TEXTEDIT_MOVEWORDRIGHT_MAC@ImStb@@YAHPEAUImGuiInputTextState@@H@Z
	DD	imagerel ?STB_TEXTEDIT_MOVEWORDRIGHT_MAC@ImStb@@YAHPEAUImGuiInputTextState@@H@Z+27
	DD	imagerel $unwind$?STB_TEXTEDIT_MOVEWORDRIGHT_MAC@ImStb@@YAHPEAUImGuiInputTextState@@H@Z
pdata	ENDS
;	COMDAT pdata
pdata	SEGMENT
$pdata$4$?STB_TEXTEDIT_MOVEWORDRIGHT_MAC@ImStb@@YAHPEAUImGuiInputTextState@@H@Z DD imagerel ?STB_TEXTEDIT_MOVEWORDRIGHT_MAC@ImStb@@YAHPEAUImGuiInputTextState@@H@Z+27
	DD	imagerel ?STB_TEXTEDIT_MOVEWORDRIGHT_MAC@ImStb@@YAHPEAUImGuiInputTextState@@H@Z+309
	DD	imagerel $chain$4$?STB_TEXTEDIT_MOVEWORDRIGHT_MAC@ImStb@@YAHPEAUImGuiInputTextState@@H@Z
pdata	ENDS
;	COMDAT pdata
pdata	SEGMENT
$pdata$5$?STB_TEXTEDIT_MOVEWORDRIGHT_MAC@ImStb@@YAHPEAUImGuiInputTextState@@H@Z DD imagerel ?STB_TEXTEDIT_MOVEWORDRIGHT_MAC@ImStb@@YAHPEAUImGuiInputTextState@@H@Z+309
	DD	imagerel ?STB_TEXTEDIT_MOVEWORDRIGHT_MAC@ImStb@@YAHPEAUImGuiInputTextState@@H@Z+323
	DD	imagerel $chain$5$?STB_TEXTEDIT_MOVEWORDRIGHT_MAC@ImStb@@YAHPEAUImGuiInputTextState@@H@Z
pdata	ENDS
;	COMDAT pdata
pdata	SEGMENT
$pdata$6$?STB_TEXTEDIT_MOVEWORDRIGHT_MAC@ImStb@@YAHPEAUImGuiInputTextState@@H@Z DD imagerel ?STB_TEXTEDIT_MOVEWORDRIGHT_MAC@ImStb@@YAHPEAUImGuiInputTextState@@H@Z+323
	DD	imagerel ?STB_TEXTEDIT_MOVEWORDRIGHT_MAC@ImStb@@YAHPEAUImGuiInputTextState@@H@Z+339
	DD	imagerel $chain$6$?STB_TEXTEDIT_MOVEWORDRIGHT_MAC@ImStb@@YAHPEAUImGuiInputTextState@@H@Z
pdata	ENDS
;	COMDAT pdata
pdata	SEGMENT
$pdata$?STB_TEXTEDIT_MOVEWORDLEFT_IMPL@ImStb@@YAHPEAUImGuiInputTextState@@H@Z DD imagerel ?STB_TEXTEDIT_MOVEWORDLEFT_IMPL@ImStb@@YAHPEAUImGuiInputTextState@@H@Z
	DD	imagerel ?STB_TEXTEDIT_MOVEWORDLEFT_IMPL@ImStb@@YAHPEAUImGuiInputTextState@@H@Z+59
	DD	imagerel $unwind$?STB_TEXTEDIT_MOVEWORDLEFT_IMPL@ImStb@@YAHPEAUImGuiInputTextState@@H@Z
pdata	ENDS
;	COMDAT pdata
pdata	SEGMENT
$pdata$?is_word_boundary_from_left@ImStb@@YAHPEAUImGuiInputTextState@@H@Z DD imagerel ?is_word_boundary_from_left@ImStb@@YAHPEAUImGuiInputTextState@@H@Z
	DD	imagerel ?is_word_boundary_from_left@ImStb@@YAHPEAUImGuiInputTextState@@H@Z+35
	DD	imagerel $unwind$?is_word_boundary_from_left@ImStb@@YAHPEAUImGuiInputTextState@@H@Z
pdata	ENDS
;	COMDAT pdata
pdata	SEGMENT
$pdata$1$?is_word_boundary_from_left@ImStb@@YAHPEAUImGuiInputTextState@@H@Z DD imagerel ?is_word_boundary_from_left@ImStb@@YAHPEAUImGuiInputTextState@@H@Z+35
	DD	imagerel ?is_word_boundary_from_left@ImStb@@YAHPEAUImGuiInputTextState@@H@Z+172
	DD	imagerel $chain$1$?is_word_boundary_from_left@ImStb@@YAHPEAUImGuiInputTextState@@H@Z
pdata	ENDS
;	COMDAT pdata
pdata	SEGMENT
$pdata$2$?is_word_boundary_from_left@ImStb@@YAHPEAUImGuiInputTextState@@H@Z DD imagerel ?is_word_boundary_from_left@ImStb@@YAHPEAUImGuiInputTextState@@H@Z+172
	DD	imagerel ?is_word_boundary_from_left@ImStb@@YAHPEAUImGuiInputTextState@@H@Z+212
	DD	imagerel $chain$2$?is_word_boundary_from_left@ImStb@@YAHPEAUImGuiInputTextState@@H@Z
pdata	ENDS
;	COMDAT pdata
pdata	SEGMENT
$pdata$3$?is_word_boundary_from_left@ImStb@@YAHPEAUImGuiInputTextState@@H@Z DD imagerel ?is_word_boundary_from_left@ImStb@@YAHPEAUImGuiInputTextState@@H@Z+212
	DD	imagerel ?is_word_boundary_from_left@ImStb@@YAHPEAUImGuiInputTextState@@H@Z+246
	DD	imagerel $chain$3$?is_word_boundary_from_left@ImStb@@YAHPEAUImGuiInputTextState@@H@Z
pdata	ENDS
;	COMDAT pdata
pdata	SEGMENT
$pdata$?is_word_boundary_from_right@ImStb@@YAHPEAUImGuiInputTextState@@H@Z DD imagerel ?is_word_boundary_from_right@ImStb@@YAHPEAUImGuiInputTextState@@H@Z
	DD	imagerel ?is_word_boundary_from_right@ImStb@@YAHPEAUImGuiInputTextState@@H@Z+46
	DD	imagerel $unwind$?is_word_boundary_from_right@ImStb@@YAHPEAUImGuiInputTextState@@H@Z
pdata	ENDS
;	COMDAT pdata
pdata	SEGMENT
$pdata$0$?is_word_boundary_from_right@ImStb@@YAHPEAUImGuiInputTextState@@H@Z DD imagerel ?is_word_boundary_from_right@ImStb@@YAHPEAUImGuiInputTextState@@H@Z+46
	DD	imagerel ?is_word_boundary_from_right@ImStb@@YAHPEAUImGuiInputTextState@@H@Z+207
	DD	imagerel $chain$0$?is_word_boundary_from_right@ImStb@@YAHPEAUImGuiInputTextState@@H@Z
pdata	ENDS
;	COMDAT pdata
pdata	SEGMENT
$pdata$1$?is_word_boundary_from_right@ImStb@@YAHPEAUImGuiInputTextState@@H@Z DD imagerel ?is_word_boundary_from_right@ImStb@@YAHPEAUImGuiInputTextState@@H@Z+207
	DD	imagerel ?is_word_boundary_from_right@ImStb@@YAHPEAUImGuiInputTextState@@H@Z+245
	DD	imagerel $chain$1$?is_word_boundary_from_right@ImStb@@YAHPEAUImGuiInputTextState@@H@Z
pdata	ENDS
;	COMDAT pdata
pdata	SEGMENT
$pdata$?STB_TEXTEDIT_LAYOUTROW@ImStb@@YAXPEAUStbTexteditRow@1@PEAUImGuiInputTextState@@H@Z DD imagerel ?STB_TEXTEDIT_LAYOUTROW@ImStb@@YAXPEAUStbTexteditRow@1@PEAUImGuiInputTextState@@H@Z
	DD	imagerel ?STB_TEXTEDIT_LAYOUTROW@ImStb@@YAXPEAUStbTexteditRow@1@PEAUImGuiInputTextState@@H@Z+218
	DD	imagerel $unwind$?STB_TEXTEDIT_LAYOUTROW@ImStb@@YAXPEAUStbTexteditRow@1@PEAUImGuiInputTextState@@H@Z
pdata	ENDS
;	COMDAT pdata
pdata	SEGMENT
$pdata$?TempInputScalar@ImGui@@YA_NAEBUImRect@@IPEBDHPEAX1PEBX3@Z DD imagerel $LN247@TempInputS
	DD	imagerel $LN247@TempInputS+1348
	DD	imagerel $unwind$?TempInputScalar@ImGui@@YA_NAEBUImRect@@IPEBDHPEAX1PEBX3@Z
pdata	ENDS
;	COMDAT pdata
pdata	SEGMENT
$pdata$?TempInputText@ImGui@@YA_NAEBUImRect@@IPEBDPEADHH@Z DD imagerel $LN15@TempInputT
	DD	imagerel $LN15@TempInputT+201
	DD	imagerel $unwind$?TempInputText@ImGui@@YA_NAEBUImRect@@IPEBDPEADHH@Z
pdata	ENDS
;	COMDAT pdata
pdata	SEGMENT
$pdata$?ImParseFormatSanitizeForScanning@@YAPEBDPEBDPEAD_K@Z DD imagerel $LN56@ImParseFor
	DD	imagerel $LN56@ImParseFor+33
	DD	imagerel $unwind$?ImParseFormatSanitizeForScanning@@YAPEBDPEBDPEAD_K@Z
pdata	ENDS
;	COMDAT pdata
pdata	SEGMENT
$pdata$2$?ImParseFormatSanitizeForScanning@@YAPEBDPEBDPEAD_K@Z DD imagerel $LN56@ImParseFor+33
	DD	imagerel $LN56@ImParseFor+256
	DD	imagerel $chain$2$?ImParseFormatSanitizeForScanning@@YAPEBDPEBDPEAD_K@Z
pdata	ENDS
;	COMDAT pdata
pdata	SEGMENT
$pdata$4$?ImParseFormatSanitizeForScanning@@YAPEBDPEBDPEAD_K@Z DD imagerel $LN56@ImParseFor+256
	DD	imagerel $LN56@ImParseFor+272
	DD	imagerel $chain$4$?ImParseFormatSanitizeForScanning@@YAPEBDPEBDPEAD_K@Z
pdata	ENDS
;	COMDAT pdata
pdata	SEGMENT
$pdata$?ImParseFormatTrimDecorations@@YAPEBDPEBDPEAD_K@Z DD imagerel $LN54@ImParseFor
	DD	imagerel $LN54@ImParseFor+235
	DD	imagerel $unwind$?ImParseFormatTrimDecorations@@YAPEBDPEBDPEAD_K@Z
pdata	ENDS
;	COMDAT pdata
pdata	SEGMENT
$pdata$?DragBehavior@ImGui@@YA_NIHPEAXMPEBX1PEBDH@Z DD imagerel $LN110@DragBehavi
	DD	imagerel $LN110@DragBehavi+1172
	DD	imagerel $unwind$?DragBehavior@ImGui@@YA_NIHPEAXMPEBX1PEBDH@Z
pdata	ENDS
;	COMDAT pdata
pdata	SEGMENT
$pdata$?DataTypeApplyFromText@ImGui@@YA_NPEBDHPEAX0@Z DD imagerel $LN116@DataTypeAp
	DD	imagerel $LN116@DataTypeAp+228
	DD	imagerel $unwind$?DataTypeApplyFromText@ImGui@@YA_NPEBDHPEAX0@Z
pdata	ENDS
;	COMDAT pdata
pdata	SEGMENT
$pdata$1$?DataTypeApplyFromText@ImGui@@YA_NPEBDHPEAX0@Z DD imagerel $LN116@DataTypeAp+228
	DD	imagerel $LN116@DataTypeAp+332
	DD	imagerel $chain$1$?DataTypeApplyFromText@ImGui@@YA_NPEBDHPEAX0@Z
pdata	ENDS
;	COMDAT pdata
pdata	SEGMENT
$pdata$2$?DataTypeApplyFromText@ImGui@@YA_NPEBDHPEAX0@Z DD imagerel $LN116@DataTypeAp+332
	DD	imagerel $LN116@DataTypeAp+571
	DD	imagerel $chain$2$?DataTypeApplyFromText@ImGui@@YA_NPEBDHPEAX0@Z
pdata	ENDS
;	COMDAT pdata
pdata	SEGMENT
$pdata$?ImGuiGetNameFromIndexOldToNewCallback@@YAPEBDPEAXH@Z DD imagerel ?ImGuiGetNameFromIndexOldToNewCallback@@YAPEBDPEAXH@Z
	DD	imagerel ?ImGuiGetNameFromIndexOldToNewCallback@@YAPEBDPEAXH@Z+65
	DD	imagerel $unwind$?ImGuiGetNameFromIndexOldToNewCallback@@YAPEBDPEAXH@Z
pdata	ENDS
;	COMDAT pdata
pdata	SEGMENT
$pdata$?BeginComboPopup@ImGui@@YA_NIAEBUImRect@@H@Z DD imagerel $LN132@BeginCombo
	DD	imagerel $LN132@BeginCombo+102
	DD	imagerel $unwind$?BeginComboPopup@ImGui@@YA_NIAEBUImRect@@H@Z
pdata	ENDS
;	COMDAT pdata
pdata	SEGMENT
$pdata$0$?BeginComboPopup@ImGui@@YA_NIAEBUImRect@@H@Z DD imagerel $LN132@BeginCombo+102
	DD	imagerel $LN132@BeginCombo+106
	DD	imagerel $chain$0$?BeginComboPopup@ImGui@@YA_NIAEBUImRect@@H@Z
pdata	ENDS
;	COMDAT pdata
pdata	SEGMENT
$pdata$2$?BeginComboPopup@ImGui@@YA_NIAEBUImRect@@H@Z DD imagerel $LN132@BeginCombo+106
	DD	imagerel $LN132@BeginCombo+695
	DD	imagerel $chain$2$?BeginComboPopup@ImGui@@YA_NIAEBUImRect@@H@Z
pdata	ENDS
;	COMDAT pdata
pdata	SEGMENT
$pdata$3$?BeginComboPopup@ImGui@@YA_NIAEBUImRect@@H@Z DD imagerel $LN132@BeginCombo+695
	DD	imagerel $LN132@BeginCombo+791
	DD	imagerel $chain$3$?BeginComboPopup@ImGui@@YA_NIAEBUImRect@@H@Z
pdata	ENDS
;	COMDAT pdata
pdata	SEGMENT
$pdata$4$?BeginComboPopup@ImGui@@YA_NIAEBUImRect@@H@Z DD imagerel $LN132@BeginCombo+791
	DD	imagerel $LN132@BeginCombo+823
	DD	imagerel $chain$4$?BeginComboPopup@ImGui@@YA_NIAEBUImRect@@H@Z
pdata	ENDS
;	COMDAT pdata
pdata	SEGMENT
$pdata$5$?BeginComboPopup@ImGui@@YA_NIAEBUImRect@@H@Z DD imagerel $LN132@BeginCombo+823
	DD	imagerel $LN132@BeginCombo+833
	DD	imagerel $chain$5$?BeginComboPopup@ImGui@@YA_NIAEBUImRect@@H@Z
pdata	ENDS
;	COMDAT pdata
pdata	SEGMENT
$pdata$6$?BeginComboPopup@ImGui@@YA_NIAEBUImRect@@H@Z DD imagerel $LN132@BeginCombo+833
	DD	imagerel $LN132@BeginCombo+845
	DD	imagerel $chain$6$?BeginComboPopup@ImGui@@YA_NIAEBUImRect@@H@Z
pdata	ENDS
;	COMDAT pdata
pdata	SEGMENT
$pdata$?ShrinkWidths@ImGui@@YAXPEAUImGuiShrinkWidthItem@@HM@Z DD imagerel $LN110@ShrinkWidt
	DD	imagerel $LN110@ShrinkWidt+79
	DD	imagerel $unwind$?ShrinkWidths@ImGui@@YAXPEAUImGuiShrinkWidthItem@@HM@Z
pdata	ENDS
;	COMDAT pdata
pdata	SEGMENT
$pdata$0$?ShrinkWidths@ImGui@@YAXPEAUImGuiShrinkWidthItem@@HM@Z DD imagerel $LN110@ShrinkWidt+79
	DD	imagerel $LN110@ShrinkWidt+947
	DD	imagerel $chain$0$?ShrinkWidths@ImGui@@YAXPEAUImGuiShrinkWidthItem@@HM@Z
pdata	ENDS
;	COMDAT pdata
pdata	SEGMENT
$pdata$1$?ShrinkWidths@ImGui@@YAXPEAUImGuiShrinkWidthItem@@HM@Z DD imagerel $LN110@ShrinkWidt+947
	DD	imagerel $LN110@ShrinkWidt+963
	DD	imagerel $chain$1$?ShrinkWidths@ImGui@@YAXPEAUImGuiShrinkWidthItem@@HM@Z
pdata	ENDS
;	COMDAT pdata
pdata	SEGMENT
$pdata$?ScrollbarEx@ImGui@@YA_NAEBUImRect@@IW4ImGuiAxis@@PEA_J_J3H@Z DD imagerel $LN276@ScrollbarE
	DD	imagerel $LN276@ScrollbarE+237
	DD	imagerel $unwind$?ScrollbarEx@ImGui@@YA_NAEBUImRect@@IW4ImGuiAxis@@PEA_J_J3H@Z
pdata	ENDS
;	COMDAT pdata
pdata	SEGMENT
$pdata$0$?ScrollbarEx@ImGui@@YA_NAEBUImRect@@IW4ImGuiAxis@@PEA_J_J3H@Z DD imagerel $LN276@ScrollbarE+237
	DD	imagerel $LN276@ScrollbarE+245
	DD	imagerel $chain$0$?ScrollbarEx@ImGui@@YA_NAEBUImRect@@IW4ImGuiAxis@@PEA_J_J3H@Z
pdata	ENDS
;	COMDAT pdata
pdata	SEGMENT
$pdata$1$?ScrollbarEx@ImGui@@YA_NAEBUImRect@@IW4ImGuiAxis@@PEA_J_J3H@Z DD imagerel $LN276@ScrollbarE+245
	DD	imagerel $LN276@ScrollbarE+257
	DD	imagerel $chain$1$?ScrollbarEx@ImGui@@YA_NAEBUImRect@@IW4ImGuiAxis@@PEA_J_J3H@Z
pdata	ENDS
;	COMDAT pdata
pdata	SEGMENT
$pdata$8$?ScrollbarEx@ImGui@@YA_NAEBUImRect@@IW4ImGuiAxis@@PEA_J_J3H@Z DD imagerel $LN276@ScrollbarE+257
	DD	imagerel $LN276@ScrollbarE+1120
	DD	imagerel $chain$8$?ScrollbarEx@ImGui@@YA_NAEBUImRect@@IW4ImGuiAxis@@PEA_J_J3H@Z
pdata	ENDS
;	COMDAT pdata
pdata	SEGMENT
$pdata$9$?ScrollbarEx@ImGui@@YA_NAEBUImRect@@IW4ImGuiAxis@@PEA_J_J3H@Z DD imagerel $LN276@ScrollbarE+1120
	DD	imagerel $LN276@ScrollbarE+1251
	DD	imagerel $chain$9$?ScrollbarEx@ImGui@@YA_NAEBUImRect@@IW4ImGuiAxis@@PEA_J_J3H@Z
pdata	ENDS
;	COMDAT pdata
pdata	SEGMENT
$pdata$10$?ScrollbarEx@ImGui@@YA_NAEBUImRect@@IW4ImGuiAxis@@PEA_J_J3H@Z DD imagerel $LN276@ScrollbarE+1251
	DD	imagerel $LN276@ScrollbarE+1447
	DD	imagerel $chain$10$?ScrollbarEx@ImGui@@YA_NAEBUImRect@@IW4ImGuiAxis@@PEA_J_J3H@Z
pdata	ENDS
;	COMDAT pdata
pdata	SEGMENT
$pdata$11$?ScrollbarEx@ImGui@@YA_NAEBUImRect@@IW4ImGuiAxis@@PEA_J_J3H@Z DD imagerel $LN276@ScrollbarE+1447
	DD	imagerel $LN276@ScrollbarE+1496
	DD	imagerel $chain$11$?ScrollbarEx@ImGui@@YA_NAEBUImRect@@IW4ImGuiAxis@@PEA_J_J3H@Z
pdata	ENDS
;	COMDAT pdata
pdata	SEGMENT
$pdata$?GetWindowScrollbarRect@ImGui@@YA?AUImRect@@PEAUImGuiWindow@@W4ImGuiAxis@@@Z DD imagerel $LN38@GetWindowS
	DD	imagerel $LN38@GetWindowS+197
	DD	imagerel $unwind$?GetWindowScrollbarRect@ImGui@@YA?AUImRect@@PEAUImGuiWindow@@W4ImGuiAxis@@@Z
pdata	ENDS
;	COMDAT pdata
pdata	SEGMENT
$pdata$?GetWindowScrollbarID@ImGui@@YAIPEAUImGuiWindow@@W4ImGuiAxis@@@Z DD imagerel $LN13@GetWindowS
	DD	imagerel $LN13@GetWindowS+113
	DD	imagerel $unwind$?GetWindowScrollbarID@ImGui@@YAIPEAUImGuiWindow@@W4ImGuiAxis@@@Z
pdata	ENDS
;	COMDAT pdata
pdata	SEGMENT
$pdata$?ArrowButtonEx@ImGui@@YA_NPEBDHUImVec2@@H@Z DD imagerel $LN53@ArrowButto
	DD	imagerel $LN53@ArrowButto+319
	DD	imagerel $unwind$?ArrowButtonEx@ImGui@@YA_NPEBDHUImVec2@@H@Z
pdata	ENDS
;	COMDAT pdata
pdata	SEGMENT
$pdata$1$?ArrowButtonEx@ImGui@@YA_NPEBDHUImVec2@@H@Z DD imagerel $LN53@ArrowButto+319
	DD	imagerel $LN53@ArrowButto+658
	DD	imagerel $chain$1$?ArrowButtonEx@ImGui@@YA_NPEBDHUImVec2@@H@Z
pdata	ENDS
;	COMDAT pdata
pdata	SEGMENT
$pdata$2$?ArrowButtonEx@ImGui@@YA_NPEBDHUImVec2@@H@Z DD imagerel $LN53@ArrowButto+658
	DD	imagerel $LN53@ArrowButto+710
	DD	imagerel $chain$2$?ArrowButtonEx@ImGui@@YA_NPEBDHUImVec2@@H@Z
pdata	ENDS
;	COMDAT pdata
pdata	SEGMENT
$pdata$?TextColoredV@ImGui@@YAXAEBUImVec4@@PEBDPEAD@Z DD imagerel $LN33@TextColore
	DD	imagerel $LN33@TextColore+253
	DD	imagerel $unwind$?TextColoredV@ImGui@@YAXAEBUImVec4@@PEBDPEAD@Z
pdata	ENDS
;	COMDAT pdata
pdata	SEGMENT
$pdata$?TextEx@ImGui@@YAXPEBD0H@Z DD imagerel $LN327@TextEx
	DD	imagerel $LN327@TextEx+85
	DD	imagerel $unwind$?TextEx@ImGui@@YAXPEBD0H@Z
pdata	ENDS
;	COMDAT pdata
pdata	SEGMENT
$pdata$8$?TextEx@ImGui@@YAXPEBD0H@Z DD imagerel $LN327@TextEx+85
	DD	imagerel $LN327@TextEx+291
	DD	imagerel $chain$8$?TextEx@ImGui@@YAXPEBD0H@Z
pdata	ENDS
;	COMDAT pdata
pdata	SEGMENT
$pdata$12$?TextEx@ImGui@@YAXPEBD0H@Z DD imagerel $LN327@TextEx+291
	DD	imagerel $LN327@TextEx+639
	DD	imagerel $chain$12$?TextEx@ImGui@@YAXPEBD0H@Z
pdata	ENDS
;	COMDAT pdata
pdata	SEGMENT
$pdata$14$?TextEx@ImGui@@YAXPEBD0H@Z DD imagerel $LN327@TextEx+639
	DD	imagerel $LN327@TextEx+989
	DD	imagerel $chain$14$?TextEx@ImGui@@YAXPEBD0H@Z
pdata	ENDS
;	COMDAT pdata
pdata	SEGMENT
$pdata$15$?TextEx@ImGui@@YAXPEBD0H@Z DD imagerel $LN327@TextEx+989
	DD	imagerel $LN327@TextEx+1385
	DD	imagerel $chain$15$?TextEx@ImGui@@YAXPEBD0H@Z
pdata	ENDS
;	COMDAT pdata
pdata	SEGMENT
$pdata$16$?TextEx@ImGui@@YAXPEBD0H@Z DD imagerel $LN327@TextEx+1385
	DD	imagerel $LN327@TextEx+2018
	DD	imagerel $chain$16$?TextEx@ImGui@@YAXPEBD0H@Z
pdata	ENDS
;	COMDAT pdata
pdata	SEGMENT
$pdata$17$?TextEx@ImGui@@YAXPEBD0H@Z DD imagerel $LN327@TextEx+2018
	DD	imagerel $LN327@TextEx+2043
	DD	imagerel $chain$17$?TextEx@ImGui@@YAXPEBD0H@Z
pdata	ENDS
;	COMDAT pdata
pdata	SEGMENT
$pdata$?EndCombo@ImGui@@YAXXZ DD imagerel $LN16@EndCombo
	DD	imagerel $LN16@EndCombo+105
	DD	imagerel $unwind$?EndCombo@ImGui@@YAXXZ
pdata	ENDS
;	COMDAT pdata
pdata	SEGMENT
$pdata$?Spacing@ImGui@@YAXXZ DD imagerel $LN9@Spacing
	DD	imagerel $LN9@Spacing+73
	DD	imagerel $unwind$?Spacing@ImGui@@YAXXZ
pdata	ENDS
;	COMDAT pdata
pdata	SEGMENT
$pdata$?DragScalar@ImGui@@YA_NPEBDHPEAXMPEBX20H@Z DD imagerel $LN351@DragScalar
	DD	imagerel $LN351@DragScalar+159
	DD	imagerel $unwind$?DragScalar@ImGui@@YA_NPEBDHPEAXMPEBX20H@Z
pdata	ENDS
;	COMDAT pdata
pdata	SEGMENT
$pdata$0$?DragScalar@ImGui@@YA_NPEBDHPEAXMPEBX20H@Z DD imagerel $LN351@DragScalar+159
	DD	imagerel $LN351@DragScalar+485
	DD	imagerel $chain$0$?DragScalar@ImGui@@YA_NPEBDHPEAXMPEBX20H@Z
pdata	ENDS
;	COMDAT pdata
pdata	SEGMENT
$pdata$1$?DragScalar@ImGui@@YA_NPEBDHPEAXMPEBX20H@Z DD imagerel $LN351@DragScalar+485
	DD	imagerel $LN351@DragScalar+2520
	DD	imagerel $chain$1$?DragScalar@ImGui@@YA_NPEBDHPEAXMPEBX20H@Z
pdata	ENDS
;	COMDAT pdata
pdata	SEGMENT
$pdata$?ColorPicker4@ImGui@@YA_NPEBDQEAMHPEBM@Z DD imagerel $LN823@ColorPicke
	DD	imagerel $LN823@ColorPicke+118
	DD	imagerel $unwind$?ColorPicker4@ImGui@@YA_NPEBDQEAMHPEBM@Z
pdata	ENDS
;	COMDAT pdata
pdata	SEGMENT
$pdata$0$?ColorPicker4@ImGui@@YA_NPEBDQEAMHPEBM@Z DD imagerel $LN823@ColorPicke+118
	DD	imagerel $LN823@ColorPicke+126
	DD	imagerel $chain$0$?ColorPicker4@ImGui@@YA_NPEBDQEAMHPEBM@Z
pdata	ENDS
;	COMDAT pdata
pdata	SEGMENT
$pdata$12$?ColorPicker4@ImGui@@YA_NPEBDQEAMHPEBM@Z DD imagerel $LN823@ColorPicke+126
	DD	imagerel $LN823@ColorPicke+9327
	DD	imagerel $chain$12$?ColorPicker4@ImGui@@YA_NPEBDQEAMHPEBM@Z
pdata	ENDS
;	COMDAT pdata
pdata	SEGMENT
$pdata$13$?ColorPicker4@ImGui@@YA_NPEBDQEAMHPEBM@Z DD imagerel $LN823@ColorPicke+9327
	DD	imagerel $LN823@ColorPicke+9444
	DD	imagerel $chain$13$?ColorPicker4@ImGui@@YA_NPEBDQEAMHPEBM@Z
pdata	ENDS
;	COMDAT pdata
pdata	SEGMENT
$pdata$14$?ColorPicker4@ImGui@@YA_NPEBDQEAMHPEBM@Z DD imagerel $LN823@ColorPicke+9444
	DD	imagerel $LN823@ColorPicke+9475
	DD	imagerel $chain$14$?ColorPicker4@ImGui@@YA_NPEBDQEAMHPEBM@Z
pdata	ENDS
;	COMDAT pdata
pdata	SEGMENT
$pdata$?ColorButton@ImGui@@YA_NPEBDAEBUImVec4@@HAEBUImVec2@@@Z DD imagerel $LN307@ColorButto
	DD	imagerel $LN307@ColorButto+375
	DD	imagerel $unwind$?ColorButton@ImGui@@YA_NPEBDAEBUImVec4@@HAEBUImVec2@@@Z
pdata	ENDS
;	COMDAT pdata
pdata	SEGMENT
$pdata$0$?ColorButton@ImGui@@YA_NPEBDAEBUImVec4@@HAEBUImVec2@@@Z DD imagerel $LN307@ColorButto+375
	DD	imagerel $LN307@ColorButto+388
	DD	imagerel $chain$0$?ColorButton@ImGui@@YA_NPEBDAEBUImVec4@@HAEBUImVec2@@@Z
pdata	ENDS
;	COMDAT pdata
pdata	SEGMENT
$pdata$2$?ColorButton@ImGui@@YA_NPEBDAEBUImVec4@@HAEBUImVec2@@@Z DD imagerel $LN307@ColorButto+388
	DD	imagerel $LN307@ColorButto+414
	DD	imagerel $chain$2$?ColorButton@ImGui@@YA_NPEBDAEBUImVec4@@HAEBUImVec2@@@Z
pdata	ENDS
;	COMDAT pdata
pdata	SEGMENT
$pdata$5$?ColorButton@ImGui@@YA_NPEBDAEBUImVec4@@HAEBUImVec2@@@Z DD imagerel $LN307@ColorButto+414
	DD	imagerel $LN307@ColorButto+781
	DD	imagerel $chain$5$?ColorButton@ImGui@@YA_NPEBDAEBUImVec4@@HAEBUImVec2@@@Z
pdata	ENDS
;	COMDAT pdata
pdata	SEGMENT
$pdata$6$?ColorButton@ImGui@@YA_NPEBDAEBUImVec4@@HAEBUImVec2@@@Z DD imagerel $LN307@ColorButto+781
	DD	imagerel $LN307@ColorButto+1373
	DD	imagerel $chain$6$?ColorButton@ImGui@@YA_NPEBDAEBUImVec4@@HAEBUImVec2@@@Z
pdata	ENDS
;	COMDAT pdata
pdata	SEGMENT
$pdata$7$?ColorButton@ImGui@@YA_NPEBDAEBUImVec4@@HAEBUImVec2@@@Z DD imagerel $LN307@ColorButto+1373
	DD	imagerel $LN307@ColorButto+1734
	DD	imagerel $chain$7$?ColorButton@ImGui@@YA_NPEBDAEBUImVec4@@HAEBUImVec2@@@Z
pdata	ENDS
;	COMDAT pdata
pdata	SEGMENT
$pdata$8$?ColorButton@ImGui@@YA_NPEBDAEBUImVec4@@HAEBUImVec2@@@Z DD imagerel $LN307@ColorButto+1734
	DD	imagerel $LN307@ColorButto+2099
	DD	imagerel $chain$8$?ColorButton@ImGui@@YA_NPEBDAEBUImVec4@@HAEBUImVec2@@@Z
pdata	ENDS
;	COMDAT pdata
pdata	SEGMENT
$pdata$9$?ColorButton@ImGui@@YA_NPEBDAEBUImVec4@@HAEBUImVec2@@@Z DD imagerel $LN307@ColorButto+2099
	DD	imagerel $LN307@ColorButto+2202
	DD	imagerel $chain$9$?ColorButton@ImGui@@YA_NPEBDAEBUImVec4@@HAEBUImVec2@@@Z
pdata	ENDS
;	COMDAT pdata
pdata	SEGMENT
$pdata$?SliderScalar@ImGui@@YA_NPEBDHPEAXPEBX20H@Z DD imagerel $LN215@SliderScal
	DD	imagerel $LN215@SliderScal+132
	DD	imagerel $unwind$?SliderScalar@ImGui@@YA_NPEBDHPEAXPEBX20H@Z
pdata	ENDS
;	COMDAT pdata
pdata	SEGMENT
$pdata$0$?SliderScalar@ImGui@@YA_NPEBDHPEAXPEBX20H@Z DD imagerel $LN215@SliderScal+132
	DD	imagerel $LN215@SliderScal+551
	DD	imagerel $chain$0$?SliderScalar@ImGui@@YA_NPEBDHPEAXPEBX20H@Z
pdata	ENDS
;	COMDAT pdata
pdata	SEGMENT
$pdata$1$?SliderScalar@ImGui@@YA_NPEBDHPEAXPEBX20H@Z DD imagerel $LN215@SliderScal+551
	DD	imagerel $LN215@SliderScal+1458
	DD	imagerel $chain$1$?SliderScalar@ImGui@@YA_NPEBDHPEAXPEBX20H@Z
pdata	ENDS
;	COMDAT pdata
pdata	SEGMENT
$pdata$?BeginCombo@ImGui@@YA_NPEBD0H@Z DD imagerel $LN395@BeginCombo
	DD	imagerel $LN395@BeginCombo+539
	DD	imagerel $unwind$?BeginCombo@ImGui@@YA_NPEBD0H@Z
pdata	ENDS
;	COMDAT pdata
pdata	SEGMENT
$pdata$0$?BeginCombo@ImGui@@YA_NPEBD0H@Z DD imagerel $LN395@BeginCombo+539
	DD	imagerel $LN395@BeginCombo+1209
	DD	imagerel $chain$0$?BeginCombo@ImGui@@YA_NPEBD0H@Z
pdata	ENDS
;	COMDAT pdata
pdata	SEGMENT
$pdata$1$?BeginCombo@ImGui@@YA_NPEBD0H@Z DD imagerel $LN395@BeginCombo+1209
	DD	imagerel $LN395@BeginCombo+1344
	DD	imagerel $chain$1$?BeginCombo@ImGui@@YA_NPEBD0H@Z
pdata	ENDS
;	COMDAT pdata
pdata	SEGMENT
$pdata$?InvisibleButton@ImGui@@YA_NPEBDAEBUImVec2@@H@Z DD imagerel $LN26@InvisibleB
	DD	imagerel $LN26@InvisibleB+332
	DD	imagerel $unwind$?InvisibleButton@ImGui@@YA_NPEBDAEBUImVec2@@H@Z
pdata	ENDS
;	COMDAT pdata
pdata	SEGMENT
$pdata$?DragInt@ImGui@@YA_NPEBDPEAHMHH0H@Z DD imagerel $LN4@DragInt
	DD	imagerel $LN4@DragInt+92
	DD	imagerel $unwind$?DragInt@ImGui@@YA_NPEBDPEAHMHH0H@Z
pdata	ENDS
;	COMDAT pdata
pdata	SEGMENT
$pdata$?RadioButton@ImGui@@YA_NPEBD_N@Z DD imagerel $LN223@RadioButto
	DD	imagerel $LN223@RadioButto+549
	DD	imagerel $unwind$?RadioButton@ImGui@@YA_NPEBD_N@Z
pdata	ENDS
;	COMDAT pdata
pdata	SEGMENT
$pdata$1$?RadioButton@ImGui@@YA_NPEBD_N@Z DD imagerel $LN223@RadioButto+549
	DD	imagerel $LN223@RadioButto+583
	DD	imagerel $chain$1$?RadioButton@ImGui@@YA_NPEBD_N@Z
pdata	ENDS
;	COMDAT pdata
pdata	SEGMENT
$pdata$3$?RadioButton@ImGui@@YA_NPEBD_N@Z DD imagerel $LN223@RadioButto+583
	DD	imagerel $LN223@RadioButto+1689
	DD	imagerel $chain$3$?RadioButton@ImGui@@YA_NPEBD_N@Z
pdata	ENDS
;	COMDAT pdata
pdata	SEGMENT
$pdata$4$?RadioButton@ImGui@@YA_NPEBD_N@Z DD imagerel $LN223@RadioButto+1689
	DD	imagerel $LN223@RadioButto+2137
	DD	imagerel $chain$4$?RadioButton@ImGui@@YA_NPEBD_N@Z
pdata	ENDS
;	COMDAT pdata
pdata	SEGMENT
$pdata$5$?RadioButton@ImGui@@YA_NPEBD_N@Z DD imagerel $LN223@RadioButto+2137
	DD	imagerel $LN223@RadioButto+2230
	DD	imagerel $chain$5$?RadioButton@ImGui@@YA_NPEBD_N@Z
pdata	ENDS
;	COMDAT pdata
pdata	SEGMENT
$pdata$?ColorEdit4@ImGui@@YA_NPEBDQEAMH@Z DD imagerel $LN801@ColorEdit4
	DD	imagerel $LN801@ColorEdit4+106
	DD	imagerel $unwind$?ColorEdit4@ImGui@@YA_NPEBDQEAMH@Z
pdata	ENDS
;	COMDAT pdata
pdata	SEGMENT
$pdata$1$?ColorEdit4@ImGui@@YA_NPEBDQEAMH@Z DD imagerel $LN801@ColorEdit4+106
	DD	imagerel $LN801@ColorEdit4+125
	DD	imagerel $chain$1$?ColorEdit4@ImGui@@YA_NPEBDQEAMH@Z
pdata	ENDS
;	COMDAT pdata
pdata	SEGMENT
$pdata$4$?ColorEdit4@ImGui@@YA_NPEBDQEAMH@Z DD imagerel $LN801@ColorEdit4+125
	DD	imagerel $LN801@ColorEdit4+150
	DD	imagerel $chain$4$?ColorEdit4@ImGui@@YA_NPEBDQEAMH@Z
pdata	ENDS
;	COMDAT pdata
pdata	SEGMENT
$pdata$5$?ColorEdit4@ImGui@@YA_NPEBDQEAMH@Z DD imagerel $LN801@ColorEdit4+150
	DD	imagerel $LN801@ColorEdit4+159
	DD	imagerel $chain$5$?ColorEdit4@ImGui@@YA_NPEBDQEAMH@Z
pdata	ENDS
;	COMDAT pdata
pdata	SEGMENT
$pdata$10$?ColorEdit4@ImGui@@YA_NPEBDQEAMH@Z DD imagerel $LN801@ColorEdit4+159
	DD	imagerel $LN801@ColorEdit4+1061
	DD	imagerel $chain$10$?ColorEdit4@ImGui@@YA_NPEBDQEAMH@Z
pdata	ENDS
;	COMDAT pdata
pdata	SEGMENT
$pdata$11$?ColorEdit4@ImGui@@YA_NPEBDQEAMH@Z DD imagerel $LN801@ColorEdit4+1061
	DD	imagerel $LN801@ColorEdit4+1776
	DD	imagerel $chain$11$?ColorEdit4@ImGui@@YA_NPEBDQEAMH@Z
pdata	ENDS
;	COMDAT pdata
pdata	SEGMENT
$pdata$12$?ColorEdit4@ImGui@@YA_NPEBDQEAMH@Z DD imagerel $LN801@ColorEdit4+1776
	DD	imagerel $LN801@ColorEdit4+2978
	DD	imagerel $chain$12$?ColorEdit4@ImGui@@YA_NPEBDQEAMH@Z
pdata	ENDS
;	COMDAT pdata
pdata	SEGMENT
$pdata$13$?ColorEdit4@ImGui@@YA_NPEBDQEAMH@Z DD imagerel $LN801@ColorEdit4+2978
	DD	imagerel $LN801@ColorEdit4+3092
	DD	imagerel $chain$13$?ColorEdit4@ImGui@@YA_NPEBDQEAMH@Z
pdata	ENDS
;	COMDAT pdata
pdata	SEGMENT
$pdata$14$?ColorEdit4@ImGui@@YA_NPEBDQEAMH@Z DD imagerel $LN801@ColorEdit4+3092
	DD	imagerel $LN801@ColorEdit4+3433
	DD	imagerel $chain$14$?ColorEdit4@ImGui@@YA_NPEBDQEAMH@Z
pdata	ENDS
;	COMDAT pdata
pdata	SEGMENT
$pdata$15$?ColorEdit4@ImGui@@YA_NPEBDQEAMH@Z DD imagerel $LN801@ColorEdit4+3433
	DD	imagerel $LN801@ColorEdit4+3699
	DD	imagerel $chain$15$?ColorEdit4@ImGui@@YA_NPEBDQEAMH@Z
pdata	ENDS
;	COMDAT pdata
pdata	SEGMENT
$pdata$16$?ColorEdit4@ImGui@@YA_NPEBDQEAMH@Z DD imagerel $LN801@ColorEdit4+3699
	DD	imagerel $LN801@ColorEdit4+3798
	DD	imagerel $chain$16$?ColorEdit4@ImGui@@YA_NPEBDQEAMH@Z
pdata	ENDS
;	COMDAT pdata
pdata	SEGMENT
$pdata$17$?ColorEdit4@ImGui@@YA_NPEBDQEAMH@Z DD imagerel $LN801@ColorEdit4+3798
	DD	imagerel $LN801@ColorEdit4+3826
	DD	imagerel $chain$17$?ColorEdit4@ImGui@@YA_NPEBDQEAMH@Z
pdata	ENDS
;	COMDAT pdata
pdata	SEGMENT
$pdata$?InsertChars@ImGuiInputTextCallbackData@@QEAAXHPEBD0@Z DD imagerel $LN31@InsertChar
	DD	imagerel $LN31@InsertChar+79
	DD	imagerel $unwind$?InsertChars@ImGuiInputTextCallbackData@@QEAAXHPEBD0@Z
pdata	ENDS
;	COMDAT pdata
pdata	SEGMENT
$pdata$1$?InsertChars@ImGuiInputTextCallbackData@@QEAAXHPEBD0@Z DD imagerel $LN31@InsertChar+79
	DD	imagerel $LN31@InsertChar+305
	DD	imagerel $chain$1$?InsertChars@ImGuiInputTextCallbackData@@QEAAXHPEBD0@Z
pdata	ENDS
;	COMDAT pdata
pdata	SEGMENT
$pdata$2$?InsertChars@ImGuiInputTextCallbackData@@QEAAXHPEBD0@Z DD imagerel $LN31@InsertChar+305
	DD	imagerel $LN31@InsertChar+306
	DD	imagerel $chain$2$?InsertChars@ImGuiInputTextCallbackData@@QEAAXHPEBD0@Z
pdata	ENDS
;	COMDAT pdata
pdata	SEGMENT
$pdata$??0ImGuiTabBar@@QEAA@XZ DD imagerel $LN21@ImGuiTabBa
	DD	imagerel $LN21@ImGuiTabBa+82
	DD	imagerel $unwind$??0ImGuiTabBar@@QEAA@XZ
pdata	ENDS
;	COMDAT pdata
pdata	SEGMENT
$pdata$?Update@ImGuiMenuColumns@@QEAAXM_N@Z DD imagerel $LN61@Update
	DD	imagerel $LN61@Update+365
	DD	imagerel $unwind$?Update@ImGuiMenuColumns@@QEAAXM_N@Z
pdata	ENDS
;	COMDAT pdata
pdata	SEGMENT
$pdata$?TabBarAddTab@ImGui@@YAXPEAUImGuiTabBar@@HPEAUImGuiWindow@@@Z DD imagerel $LN18@TabBarAddT
	DD	imagerel $LN18@TabBarAddT+231
	DD	imagerel $unwind$?TabBarAddTab@ImGui@@YAXPEAUImGuiTabBar@@HPEAUImGuiWindow@@@Z
pdata	ENDS
;	COMDAT pdata
pdata	SEGMENT
$pdata$?SplitterBehavior@ImGui@@YA_NAEBUImRect@@IW4ImGuiAxis@@PEAM2MMMMI@Z DD imagerel $LN83@SplitterBe
	DD	imagerel $LN83@SplitterBe+104
	DD	imagerel $unwind$?SplitterBehavior@ImGui@@YA_NAEBUImRect@@IW4ImGuiAxis@@PEAM2MMMMI@Z
pdata	ENDS
;	COMDAT pdata
pdata	SEGMENT
$pdata$0$?SplitterBehavior@ImGui@@YA_NAEBUImRect@@IW4ImGuiAxis@@PEAM2MMMMI@Z DD imagerel $LN83@SplitterBe+104
	DD	imagerel $LN83@SplitterBe+774
	DD	imagerel $chain$0$?SplitterBehavior@ImGui@@YA_NAEBUImRect@@IW4ImGuiAxis@@PEAM2MMMMI@Z
pdata	ENDS
;	COMDAT pdata
pdata	SEGMENT
$pdata$1$?SplitterBehavior@ImGui@@YA_NAEBUImRect@@IW4ImGuiAxis@@PEAM2MMMMI@Z DD imagerel $LN83@SplitterBe+774
	DD	imagerel $LN83@SplitterBe+818
	DD	imagerel $chain$1$?SplitterBehavior@ImGui@@YA_NAEBUImRect@@IW4ImGuiAxis@@PEAM2MMMMI@Z
pdata	ENDS
;	COMDAT pdata
pdata	SEGMENT
$pdata$?TextV@ImGui@@YAXPEBDPEAD@Z DD imagerel $LN7@TextV
	DD	imagerel $LN7@TextV+92
	DD	imagerel $unwind$?TextV@ImGui@@YAXPEBDPEAD@Z
pdata	ENDS
;	COMDAT pdata
pdata	SEGMENT
$pdata$?TabItemBackground@ImGui@@YAXPEAUImDrawList@@AEBUImRect@@HI@Z DD imagerel $LN136@TabItemBac
	DD	imagerel $LN136@TabItemBac+1340
	DD	imagerel $unwind$?TabItemBackground@ImGui@@YAXPEAUImDrawList@@AEBUImRect@@HI@Z
pdata	ENDS
;	COMDAT pdata
pdata	SEGMENT
$pdata$?InputTextDeactivateHook@ImGui@@YAXI@Z DD imagerel $LN30@InputTextD
	DD	imagerel $LN30@InputTextD+50
	DD	imagerel $unwind$?InputTextDeactivateHook@ImGui@@YAXI@Z
pdata	ENDS
;	COMDAT pdata
pdata	SEGMENT
$pdata$0$?InputTextDeactivateHook@ImGui@@YAXI@Z DD imagerel $LN30@InputTextD+50
	DD	imagerel $LN30@InputTextD+112
	DD	imagerel $chain$0$?InputTextDeactivateHook@ImGui@@YAXI@Z
pdata	ENDS
;	COMDAT pdata
pdata	SEGMENT
$pdata$3$?InputTextDeactivateHook@ImGui@@YAXI@Z DD imagerel $LN30@InputTextD+112
	DD	imagerel $LN30@InputTextD+206
	DD	imagerel $chain$3$?InputTextDeactivateHook@ImGui@@YAXI@Z
pdata	ENDS
;	COMDAT pdata
pdata	SEGMENT
$pdata$4$?InputTextDeactivateHook@ImGui@@YAXI@Z DD imagerel $LN30@InputTextD+206
	DD	imagerel $LN30@InputTextD+212
	DD	imagerel $chain$4$?InputTextDeactivateHook@ImGui@@YAXI@Z
pdata	ENDS
;	COMDAT pdata
pdata	SEGMENT
$pdata$?MenuItem@ImGui@@YA_NPEBD0_N1@Z DD imagerel $LN4@MenuItem
	DD	imagerel $LN4@MenuItem+21
	DD	imagerel $unwind$?MenuItem@ImGui@@YA_NPEBD0_N1@Z
pdata	ENDS
;	COMDAT pdata
pdata	SEGMENT
$pdata$?Checkbox@ImGui@@YA_NPEBDPEA_N@Z DD imagerel $LN187@Checkbox
	DD	imagerel $LN187@Checkbox+532
	DD	imagerel $unwind$?Checkbox@ImGui@@YA_NPEBDPEA_N@Z
pdata	ENDS
;	COMDAT pdata
pdata	SEGMENT
$pdata$2$?Checkbox@ImGui@@YA_NPEBDPEA_N@Z DD imagerel $LN187@Checkbox+532
	DD	imagerel $LN187@Checkbox+1180
	DD	imagerel $chain$2$?Checkbox@ImGui@@YA_NPEBDPEA_N@Z
pdata	ENDS
;	COMDAT pdata
pdata	SEGMENT
$pdata$3$?Checkbox@ImGui@@YA_NPEBDPEA_N@Z DD imagerel $LN187@Checkbox+1180
	DD	imagerel $LN187@Checkbox+1634
	DD	imagerel $chain$3$?Checkbox@ImGui@@YA_NPEBDPEA_N@Z
pdata	ENDS
;	COMDAT pdata
pdata	SEGMENT
$pdata$4$?Checkbox@ImGui@@YA_NPEBDPEA_N@Z DD imagerel $LN187@Checkbox+1634
	DD	imagerel $LN187@Checkbox+1735
	DD	imagerel $chain$4$?Checkbox@ImGui@@YA_NPEBDPEA_N@Z
pdata	ENDS
;	COMDAT pdata
pdata	SEGMENT
$pdata$?DragFloat@ImGui@@YA_NPEBDPEAMMMM0H@Z DD imagerel $LN4@DragFloat
	DD	imagerel $LN4@DragFloat+90
	DD	imagerel $unwind$?DragFloat@ImGui@@YA_NPEBDPEAMMMM0H@Z
pdata	ENDS
;	COMDAT pdata
pdata	SEGMENT
$pdata$?TextColored@ImGui@@YAXAEBUImVec4@@PEBDZZ DD imagerel $LN35@TextColore
	DD	imagerel $LN35@TextColore+242
	DD	imagerel $unwind$?TextColored@ImGui@@YAXAEBUImVec4@@PEBDZZ
pdata	ENDS
;	COMDAT pdata
pdata	SEGMENT
$pdata$?InputText@ImGui@@YA_NPEBDPEAD_KHP6AHPEAUImGuiInputTextCallbackData@@@ZPEAX@Z DD imagerel $LN6@InputText
	DD	imagerel $LN6@InputText+76
	DD	imagerel $unwind$?InputText@ImGui@@YA_NPEBDPEAD_KHP6AHPEAUImGuiInputTextCallbackData@@@ZPEAX@Z
pdata	ENDS
;	COMDAT pdata
pdata	SEGMENT
$pdata$?Selectable@ImGui@@YA_NPEBD_NHAEBUImVec2@@@Z DD imagerel $LN320@Selectable
	DD	imagerel $LN320@Selectable+135
	DD	imagerel $unwind$?Selectable@ImGui@@YA_NPEBD_NHAEBUImVec2@@@Z
pdata	ENDS
;	COMDAT pdata
pdata	SEGMENT
$pdata$1$?Selectable@ImGui@@YA_NPEBD_NHAEBUImVec2@@@Z DD imagerel $LN320@Selectable+135
	DD	imagerel $LN320@Selectable+145
	DD	imagerel $chain$1$?Selectable@ImGui@@YA_NPEBD_NHAEBUImVec2@@@Z
pdata	ENDS
;	COMDAT pdata
pdata	SEGMENT
$pdata$4$?Selectable@ImGui@@YA_NPEBD_NHAEBUImVec2@@@Z DD imagerel $LN320@Selectable+145
	DD	imagerel $LN320@Selectable+789
	DD	imagerel $chain$4$?Selectable@ImGui@@YA_NPEBD_NHAEBUImVec2@@@Z
pdata	ENDS
;	COMDAT pdata
pdata	SEGMENT
$pdata$5$?Selectable@ImGui@@YA_NPEBD_NHAEBUImVec2@@@Z DD imagerel $LN320@Selectable+789
	DD	imagerel $LN320@Selectable+898
	DD	imagerel $chain$5$?Selectable@ImGui@@YA_NPEBD_NHAEBUImVec2@@@Z
pdata	ENDS
;	COMDAT pdata
pdata	SEGMENT
$pdata$6$?Selectable@ImGui@@YA_NPEBD_NHAEBUImVec2@@@Z DD imagerel $LN320@Selectable+898
	DD	imagerel $LN320@Selectable+1926
	DD	imagerel $chain$6$?Selectable@ImGui@@YA_NPEBD_NHAEBUImVec2@@@Z
pdata	ENDS
;	COMDAT pdata
pdata	SEGMENT
$pdata$?CheckboxFlags@ImGui@@YA_NPEBDPEAHH@Z DD imagerel $LN15@CheckboxFl
	DD	imagerel $LN15@CheckboxFl+70
	DD	imagerel $unwind$?CheckboxFlags@ImGui@@YA_NPEBDPEAHH@Z
pdata	ENDS
;	COMDAT pdata
pdata	SEGMENT
$pdata$?TabItemLabelAndCloseButton@ImGui@@YAXPEAUImDrawList@@AEBUImRect@@HUImVec2@@PEBDII_NPEA_N5@Z DD imagerel $LN128@TabItemLab
	DD	imagerel $LN128@TabItemLab+346
	DD	imagerel $unwind$?TabItemLabelAndCloseButton@ImGui@@YAXPEAUImDrawList@@AEBUImRect@@HUImVec2@@PEBDII_NPEA_N5@Z
pdata	ENDS
;	COMDAT pdata
pdata	SEGMENT
$pdata$3$?TabItemLabelAndCloseButton@ImGui@@YAXPEAUImDrawList@@AEBUImRect@@HUImVec2@@PEBDII_NPEA_N5@Z DD imagerel $LN128@TabItemLab+346
	DD	imagerel $LN128@TabItemLab+645
	DD	imagerel $chain$3$?TabItemLabelAndCloseButton@ImGui@@YAXPEAUImDrawList@@AEBUImRect@@HUImVec2@@PEBDII_NPEA_N5@Z
pdata	ENDS
;	COMDAT pdata
pdata	SEGMENT
$pdata$5$?TabItemLabelAndCloseButton@ImGui@@YAXPEAUImDrawList@@AEBUImRect@@HUImVec2@@PEBDII_NPEA_N5@Z DD imagerel $LN128@TabItemLab+645
	DD	imagerel $LN128@TabItemLab+770
	DD	imagerel $chain$5$?TabItemLabelAndCloseButton@ImGui@@YAXPEAUImDrawList@@AEBUImRect@@HUImVec2@@PEBDII_NPEA_N5@Z
pdata	ENDS
;	COMDAT pdata
pdata	SEGMENT
$pdata$6$?TabItemLabelAndCloseButton@ImGui@@YAXPEAUImDrawList@@AEBUImRect@@HUImVec2@@PEBDII_NPEA_N5@Z DD imagerel $LN128@TabItemLab+770
	DD	imagerel $LN128@TabItemLab+1164
	DD	imagerel $chain$6$?TabItemLabelAndCloseButton@ImGui@@YAXPEAUImDrawList@@AEBUImRect@@HUImVec2@@PEBDII_NPEA_N5@Z
pdata	ENDS
;	COMDAT pdata
pdata	SEGMENT
$pdata$7$?TabItemLabelAndCloseButton@ImGui@@YAXPEAUImDrawList@@AEBUImRect@@HUImVec2@@PEBDII_NPEA_N5@Z DD imagerel $LN128@TabItemLab+1164
	DD	imagerel $LN128@TabItemLab+1218
	DD	imagerel $chain$7$?TabItemLabelAndCloseButton@ImGui@@YAXPEAUImDrawList@@AEBUImRect@@HUImVec2@@PEBDII_NPEA_N5@Z
pdata	ENDS
;	COMDAT pdata
pdata	SEGMENT
$pdata$?ButtonBehavior@ImGui@@YA_NAEBUImRect@@IPEA_N1H@Z DD imagerel $LN275@ButtonBeha
	DD	imagerel $LN275@ButtonBeha+1914
	DD	imagerel $unwind$?ButtonBehavior@ImGui@@YA_NAEBUImRect@@IPEA_N1H@Z
pdata	ENDS
;	COMDAT pdata
pdata	SEGMENT
$pdata$?EndTabBar@ImGui@@YAXXZ DD imagerel $LN47@EndTabBar
	DD	imagerel $LN47@EndTabBar+40
	DD	imagerel $unwind$?EndTabBar@ImGui@@YAXXZ
pdata	ENDS
;	COMDAT pdata
pdata	SEGMENT
$pdata$0$?EndTabBar@ImGui@@YAXXZ DD imagerel $LN47@EndTabBar+40
	DD	imagerel $LN47@EndTabBar+289
	DD	imagerel $chain$0$?EndTabBar@ImGui@@YAXXZ
pdata	ENDS
;	COMDAT pdata
pdata	SEGMENT
$pdata$1$?EndTabBar@ImGui@@YAXXZ DD imagerel $LN47@EndTabBar+289
	DD	imagerel $LN47@EndTabBar+300
	DD	imagerel $chain$1$?EndTabBar@ImGui@@YAXXZ
pdata	ENDS
;	COMDAT pdata
pdata	SEGMENT
$pdata$?Dummy@ImGui@@YAXAEBUImVec2@@@Z DD imagerel $LN69@Dummy
	DD	imagerel $LN69@Dummy+71
	DD	imagerel $unwind$?Dummy@ImGui@@YAXAEBUImVec2@@@Z
pdata	ENDS
;	COMDAT pdata
pdata	SEGMENT
$pdata$3$?Dummy@ImGui@@YAXAEBUImVec2@@@Z DD imagerel $LN69@Dummy+71
	DD	imagerel $LN69@Dummy+259
	DD	imagerel $chain$3$?Dummy@ImGui@@YAXAEBUImVec2@@@Z
pdata	ENDS
;	COMDAT pdata
pdata	SEGMENT
$pdata$4$?Dummy@ImGui@@YAXAEBUImVec2@@@Z DD imagerel $LN69@Dummy+259
	DD	imagerel $LN69@Dummy+365
	DD	imagerel $chain$4$?Dummy@ImGui@@YAXAEBUImVec2@@@Z
pdata	ENDS
;	COMDAT pdata
pdata	SEGMENT
$pdata$5$?Dummy@ImGui@@YAXAEBUImVec2@@@Z DD imagerel $LN69@Dummy+365
	DD	imagerel $LN69@Dummy+386
	DD	imagerel $chain$5$?Dummy@ImGui@@YAXAEBUImVec2@@@Z
pdata	ENDS
;	COMDAT pdata
pdata	SEGMENT
$pdata$?CloseButton@ImGui@@YA_NIAEBUImVec2@@@Z DD imagerel $LN215@CloseButto
	DD	imagerel $LN215@CloseButto+401
	DD	imagerel $unwind$?CloseButton@ImGui@@YA_NIAEBUImVec2@@@Z
pdata	ENDS
;	COMDAT pdata
pdata	SEGMENT
$pdata$1$?CloseButton@ImGui@@YA_NIAEBUImVec2@@@Z DD imagerel $LN215@CloseButto+401
	DD	imagerel $LN215@CloseButto+899
	DD	imagerel $chain$1$?CloseButton@ImGui@@YA_NIAEBUImVec2@@@Z
pdata	ENDS
;	COMDAT pdata
pdata	SEGMENT
$pdata$2$?CloseButton@ImGui@@YA_NIAEBUImVec2@@@Z DD imagerel $LN215@CloseButto+899
	DD	imagerel $LN215@CloseButto+960
	DD	imagerel $chain$2$?CloseButton@ImGui@@YA_NIAEBUImVec2@@@Z
pdata	ENDS
;	COMDAT pdata
pdata	SEGMENT
$pdata$?TabItemEx@ImGui@@YA_NPEAUImGuiTabBar@@PEBDPEA_NHPEAUImGuiWindow@@@Z DD imagerel $LN703@TabItemEx
	DD	imagerel $LN703@TabItemEx+1176
	DD	imagerel $unwind$?TabItemEx@ImGui@@YA_NPEAUImGuiTabBar@@PEBDPEA_NHPEAUImGuiWindow@@@Z
pdata	ENDS
;	COMDAT pdata
pdata	SEGMENT
$pdata$3$?TabItemEx@ImGui@@YA_NPEAUImGuiTabBar@@PEBDPEA_NHPEAUImGuiWindow@@@Z DD imagerel $LN703@TabItemEx+1176
	DD	imagerel $LN703@TabItemEx+3500
	DD	imagerel $chain$3$?TabItemEx@ImGui@@YA_NPEAUImGuiTabBar@@PEBDPEA_NHPEAUImGuiWindow@@@Z
pdata	ENDS
;	COMDAT pdata
pdata	SEGMENT
$pdata$4$?TabItemEx@ImGui@@YA_NPEAUImGuiTabBar@@PEBDPEA_NHPEAUImGuiWindow@@@Z DD imagerel $LN703@TabItemEx+3500
	DD	imagerel $LN703@TabItemEx+3554
	DD	imagerel $chain$4$?TabItemEx@ImGui@@YA_NPEAUImGuiTabBar@@PEBDPEA_NHPEAUImGuiWindow@@@Z
pdata	ENDS
;	COMDAT pdata
pdata	SEGMENT
$pdata$?TabItemCalcSize@ImGui@@YA?AUImVec2@@PEAUImGuiWindow@@@Z DD imagerel $LN8@TabItemCal
	DD	imagerel $LN8@TabItemCal+69
	DD	imagerel $unwind$?TabItemCalcSize@ImGui@@YA?AUImVec2@@PEAUImGuiWindow@@@Z
pdata	ENDS
;	COMDAT pdata
pdata	SEGMENT
$pdata$?CollapseButton@ImGui@@YA_NIAEBUImVec2@@PEAUImGuiDockNode@@@Z DD imagerel $LN246@CollapseBu
	DD	imagerel $LN246@CollapseBu+165
	DD	imagerel $unwind$?CollapseButton@ImGui@@YA_NIAEBUImVec2@@PEAUImGuiDockNode@@@Z
pdata	ENDS
;	COMDAT pdata
pdata	SEGMENT
$pdata$4$?CollapseButton@ImGui@@YA_NIAEBUImVec2@@PEAUImGuiDockNode@@@Z DD imagerel $LN246@CollapseBu+165
	DD	imagerel $LN246@CollapseBu+528
	DD	imagerel $chain$4$?CollapseButton@ImGui@@YA_NIAEBUImVec2@@PEAUImGuiDockNode@@@Z
pdata	ENDS
;	COMDAT pdata
pdata	SEGMENT
$pdata$5$?CollapseButton@ImGui@@YA_NIAEBUImVec2@@PEAUImGuiDockNode@@@Z DD imagerel $LN246@CollapseBu+528
	DD	imagerel $LN246@CollapseBu+548
	DD	imagerel $chain$5$?CollapseButton@ImGui@@YA_NIAEBUImVec2@@PEAUImGuiDockNode@@@Z
pdata	ENDS
;	COMDAT pdata
pdata	SEGMENT
$pdata$8$?CollapseButton@ImGui@@YA_NIAEBUImVec2@@PEAUImGuiDockNode@@@Z DD imagerel $LN246@CollapseBu+548
	DD	imagerel $LN246@CollapseBu+842
	DD	imagerel $chain$8$?CollapseButton@ImGui@@YA_NIAEBUImVec2@@PEAUImGuiDockNode@@@Z
pdata	ENDS
;	COMDAT pdata
pdata	SEGMENT
$pdata$9$?CollapseButton@ImGui@@YA_NIAEBUImVec2@@PEAUImGuiDockNode@@@Z DD imagerel $LN246@CollapseBu+842
	DD	imagerel $LN246@CollapseBu+937
	DD	imagerel $chain$9$?CollapseButton@ImGui@@YA_NIAEBUImVec2@@PEAUImGuiDockNode@@@Z
pdata	ENDS
;	COMDAT pdata
pdata	SEGMENT
$pdata$10$?CollapseButton@ImGui@@YA_NIAEBUImVec2@@PEAUImGuiDockNode@@@Z DD imagerel $LN246@CollapseBu+937
	DD	imagerel $LN246@CollapseBu+1034
	DD	imagerel $chain$10$?CollapseButton@ImGui@@YA_NIAEBUImVec2@@PEAUImGuiDockNode@@@Z
pdata	ENDS
;	COMDAT pdata
pdata	SEGMENT
$pdata$?TabBarRemoveTab@ImGui@@YAXPEAUImGuiTabBar@@I@Z DD imagerel $LN33@TabBarRemo
	DD	imagerel $LN33@TabBarRemo+175
	DD	imagerel $unwind$?TabBarRemoveTab@ImGui@@YAXPEAUImGuiTabBar@@I@Z
pdata	ENDS
;	COMDAT pdata
pdata	SEGMENT
$pdata$?Scrollbar@ImGui@@YAXW4ImGuiAxis@@@Z DD imagerel $LN58@Scrollbar
	DD	imagerel $LN58@Scrollbar+443
	DD	imagerel $unwind$?Scrollbar@ImGui@@YAXW4ImGuiAxis@@@Z
pdata	ENDS
;	COMDAT pdata
pdata	SEGMENT
$pdata$?BeginTabBarEx@ImGui@@YA_NPEAUImGuiTabBar@@AEBUImRect@@H@Z DD imagerel $LN84@BeginTabBa
	DD	imagerel $LN84@BeginTabBa+58
	DD	imagerel $unwind$?BeginTabBarEx@ImGui@@YA_NPEAUImGuiTabBar@@AEBUImRect@@H@Z
pdata	ENDS
;	COMDAT pdata
pdata	SEGMENT
$pdata$2$?BeginTabBarEx@ImGui@@YA_NPEAUImGuiTabBar@@AEBUImRect@@H@Z DD imagerel $LN84@BeginTabBa+58
	DD	imagerel $LN84@BeginTabBa+532
	DD	imagerel $chain$2$?BeginTabBarEx@ImGui@@YA_NPEAUImGuiTabBar@@AEBUImRect@@H@Z
pdata	ENDS
;	COMDAT pdata
pdata	SEGMENT
$pdata$3$?BeginTabBarEx@ImGui@@YA_NPEAUImGuiTabBar@@AEBUImRect@@H@Z DD imagerel $LN84@BeginTabBa+532
	DD	imagerel $LN84@BeginTabBa+580
	DD	imagerel $chain$3$?BeginTabBarEx@ImGui@@YA_NPEAUImGuiTabBar@@AEBUImRect@@H@Z
pdata	ENDS
;	COMDAT pdata
pdata	SEGMENT
$pdata$4$?BeginTabBarEx@ImGui@@YA_NPEAUImGuiTabBar@@AEBUImRect@@H@Z DD imagerel $LN84@BeginTabBa+580
	DD	imagerel $LN84@BeginTabBa+946
	DD	imagerel $chain$4$?BeginTabBarEx@ImGui@@YA_NPEAUImGuiTabBar@@AEBUImRect@@H@Z
pdata	ENDS
;	COMDAT pdata
pdata	SEGMENT
$pdata$5$?BeginTabBarEx@ImGui@@YA_NPEAUImGuiTabBar@@AEBUImRect@@H@Z DD imagerel $LN84@BeginTabBa+946
	DD	imagerel $LN84@BeginTabBa+976
	DD	imagerel $chain$5$?BeginTabBarEx@ImGui@@YA_NPEAUImGuiTabBar@@AEBUImRect@@H@Z
pdata	ENDS
;	COMDAT pdata
pdata	SEGMENT
$pdata$?MenuItem@ImGui@@YA_NPEBD0PEA_N_N@Z DD imagerel $LN11@MenuItem
	DD	imagerel $LN11@MenuItem+64
	DD	imagerel $unwind$?MenuItem@ImGui@@YA_NPEBD0PEA_N_N@Z
pdata	ENDS
;	COMDAT pdata
pdata	SEGMENT
$pdata$?BeginMenuBar@ImGui@@YA_NXZ DD imagerel $LN98@BeginMenuB
	DD	imagerel $LN98@BeginMenuB+75
	DD	imagerel $unwind$?BeginMenuBar@ImGui@@YA_NXZ
pdata	ENDS
;	COMDAT pdata
pdata	SEGMENT
$pdata$2$?BeginMenuBar@ImGui@@YA_NXZ DD imagerel $LN98@BeginMenuB+75
	DD	imagerel $LN98@BeginMenuB+709
	DD	imagerel $chain$2$?BeginMenuBar@ImGui@@YA_NXZ
pdata	ENDS
;	COMDAT pdata
pdata	SEGMENT
$pdata$3$?BeginMenuBar@ImGui@@YA_NXZ DD imagerel $LN98@BeginMenuB+709
	DD	imagerel $LN98@BeginMenuB+815
	DD	imagerel $chain$3$?BeginMenuBar@ImGui@@YA_NXZ
pdata	ENDS
;	COMDAT pdata
pdata	SEGMENT
$pdata$?EndMenu@ImGui@@YAXXZ DD imagerel $LN39@EndMenu
	DD	imagerel $LN39@EndMenu+242
	DD	imagerel $unwind$?EndMenu@ImGui@@YAXXZ
pdata	ENDS
;	COMDAT pdata
pdata	SEGMENT
$pdata$?EndMenuBar@ImGui@@YAXXZ DD imagerel $LN53@EndMenuBar
	DD	imagerel $LN53@EndMenuBar+58
	DD	imagerel $unwind$?EndMenuBar@ImGui@@YAXXZ
pdata	ENDS
;	COMDAT pdata
pdata	SEGMENT
$pdata$1$?EndMenuBar@ImGui@@YAXXZ DD imagerel $LN53@EndMenuBar+58
	DD	imagerel $LN53@EndMenuBar+543
	DD	imagerel $chain$1$?EndMenuBar@ImGui@@YAXXZ
pdata	ENDS
;	COMDAT pdata
pdata	SEGMENT
$pdata$2$?EndMenuBar@ImGui@@YAXXZ DD imagerel $LN53@EndMenuBar+543
	DD	imagerel $LN53@EndMenuBar+554
	DD	imagerel $chain$2$?EndMenuBar@ImGui@@YAXXZ
pdata	ENDS
;	COMDAT pdata
pdata	SEGMENT
$pdata$?SliderFloat@ImGui@@YA_NPEBDPEAMMM0H@Z DD imagerel $LN4@SliderFloa
	DD	imagerel $LN4@SliderFloa+44
	DD	imagerel $unwind$?SliderFloat@ImGui@@YA_NPEBDPEAMMM0H@Z
pdata	ENDS
;	COMDAT pdata
pdata	SEGMENT
$pdata$?SeparatorEx@ImGui@@YAXHM@Z DD imagerel $LN220@SeparatorE
	DD	imagerel $LN220@SeparatorE+83
	DD	imagerel $unwind$?SeparatorEx@ImGui@@YAXHM@Z
pdata	ENDS
;	COMDAT pdata
pdata	SEGMENT
$pdata$4$?SeparatorEx@ImGui@@YAXHM@Z DD imagerel $LN220@SeparatorE+83
	DD	imagerel $LN220@SeparatorE+152
	DD	imagerel $chain$4$?SeparatorEx@ImGui@@YAXHM@Z
pdata	ENDS
;	COMDAT pdata
pdata	SEGMENT
$pdata$5$?SeparatorEx@ImGui@@YAXHM@Z DD imagerel $LN220@SeparatorE+152
	DD	imagerel $LN220@SeparatorE+498
	DD	imagerel $chain$5$?SeparatorEx@ImGui@@YAXHM@Z
pdata	ENDS
;	COMDAT pdata
pdata	SEGMENT
$pdata$6$?SeparatorEx@ImGui@@YAXHM@Z DD imagerel $LN220@SeparatorE+498
	DD	imagerel $LN220@SeparatorE+540
	DD	imagerel $chain$6$?SeparatorEx@ImGui@@YAXHM@Z
pdata	ENDS
;	COMDAT pdata
pdata	SEGMENT
$pdata$7$?SeparatorEx@ImGui@@YAXHM@Z DD imagerel $LN220@SeparatorE+540
	DD	imagerel $LN220@SeparatorE+573
	DD	imagerel $chain$7$?SeparatorEx@ImGui@@YAXHM@Z
pdata	ENDS
;	COMDAT pdata
pdata	SEGMENT
$pdata$8$?SeparatorEx@ImGui@@YAXHM@Z DD imagerel $LN220@SeparatorE+573
	DD	imagerel $LN220@SeparatorE+1022
	DD	imagerel $chain$8$?SeparatorEx@ImGui@@YAXHM@Z
pdata	ENDS
;	COMDAT pdata
pdata	SEGMENT
$pdata$12$?SeparatorEx@ImGui@@YAXHM@Z DD imagerel $LN220@SeparatorE+1022
	DD	imagerel $LN220@SeparatorE+1472
	DD	imagerel $chain$12$?SeparatorEx@ImGui@@YAXHM@Z
pdata	ENDS
;	COMDAT pdata
pdata	SEGMENT
$pdata$13$?SeparatorEx@ImGui@@YAXHM@Z DD imagerel $LN220@SeparatorE+1472
	DD	imagerel $LN220@SeparatorE+1508
	DD	imagerel $chain$13$?SeparatorEx@ImGui@@YAXHM@Z
pdata	ENDS
;	COMDAT pdata
pdata	SEGMENT
$pdata$14$?SeparatorEx@ImGui@@YAXHM@Z DD imagerel $LN220@SeparatorE+1508
	DD	imagerel $LN220@SeparatorE+1541
	DD	imagerel $chain$14$?SeparatorEx@ImGui@@YAXHM@Z
pdata	ENDS
;	COMDAT pdata
pdata	SEGMENT
$pdata$?Text@ImGui@@YAXPEBDZZ DD imagerel $LN9@Text
	DD	imagerel $LN9@Text+106
	DD	imagerel $unwind$?Text@ImGui@@YAXPEBDZZ
pdata	ENDS
;	COMDAT pdata
pdata	SEGMENT
$pdata$?ButtonEx@ImGui@@YA_NPEBDAEBUImVec2@@H@Z DD imagerel $LN72@ButtonEx
	DD	imagerel $LN72@ButtonEx+113
	DD	imagerel $unwind$?ButtonEx@ImGui@@YA_NPEBDAEBUImVec2@@H@Z
pdata	ENDS
;	COMDAT pdata
pdata	SEGMENT
$pdata$1$?ButtonEx@ImGui@@YA_NPEBDAEBUImVec2@@H@Z DD imagerel $LN72@ButtonEx+113
	DD	imagerel $LN72@ButtonEx+525
	DD	imagerel $chain$1$?ButtonEx@ImGui@@YA_NPEBDAEBUImVec2@@H@Z
pdata	ENDS
;	COMDAT pdata
pdata	SEGMENT
$pdata$2$?ButtonEx@ImGui@@YA_NPEBDAEBUImVec2@@H@Z DD imagerel $LN72@ButtonEx+525
	DD	imagerel $LN72@ButtonEx+882
	DD	imagerel $chain$2$?ButtonEx@ImGui@@YA_NPEBDAEBUImVec2@@H@Z
;	COMDAT xdata
xdata	SEGMENT
$chain$2$?ButtonEx@ImGui@@YA_NPEBDAEBUImVec2@@H@Z DD 021H
	DD	imagerel $LN72@ButtonEx
	DD	imagerel $LN72@ButtonEx+113
	DD	imagerel $unwind$?ButtonEx@ImGui@@YA_NPEBDAEBUImVec2@@H@Z
xdata	ENDS
;	COMDAT xdata
xdata	SEGMENT
$chain$1$?ButtonEx@ImGui@@YA_NPEBDAEBUImVec2@@H@Z DQ 00008880a00040a21r ; 1.18644e-308
	DD	097805H
	DD	imagerel $LN72@ButtonEx
	DD	imagerel $LN72@ButtonEx+113
	DD	imagerel $unwind$?ButtonEx@ImGui@@YA_NPEBDAEBUImVec2@@H@Z
xdata	ENDS
;	COMDAT xdata
xdata	SEGMENT
$unwind$?ButtonEx@ImGui@@YA_NPEBDAEBUImVec2@@H@Z DQ 0001d341d000b2b19r ; 4.06126e-308
	DQ	0e010f0120014011dr		; -5.67746e+154
	DQ	06009700ac00cd00er		; 4.26329e+154
	DD	05008H
	DD	imagerel __GSHandlerCheck
	DD	078H
xdata	ENDS
;	COMDAT xdata
xdata	SEGMENT
$unwind$?Text@ImGui@@YAXPEBDZZ DQ 00000621700011701r ; 5.32854e-310
xdata	ENDS
;	COMDAT xdata
xdata	SEGMENT
$chain$14$?SeparatorEx@ImGui@@YAXHM@Z DD 021H
	DD	imagerel $LN220@SeparatorE+573
	DD	imagerel $LN220@SeparatorE+1022
	DD	imagerel $chain$8$?SeparatorEx@ImGui@@YAXHM@Z
xdata	ENDS
;	COMDAT xdata
xdata	SEGMENT
$chain$13$?SeparatorEx@ImGui@@YAXHM@Z DQ 0001af40000020021r ; 3.74829e-308
	DD	imagerel $LN220@SeparatorE+573
	DD	imagerel $LN220@SeparatorE+1022
	DD	imagerel $chain$8$?SeparatorEx@ImGui@@YAXHM@Z
xdata	ENDS
;	COMDAT xdata
xdata	SEGMENT
$chain$12$?SeparatorEx@ImGui@@YAXHM@Z DQ 0001af42e00082e21r ; 3.74839e-308
	DQ	00022c417001be41fr		; 5.21946e-308
	DD	0216408H
	DD	imagerel $LN220@SeparatorE+573
	DD	imagerel $LN220@SeparatorE+1022
	DD	imagerel $chain$8$?SeparatorEx@ImGui@@YAXHM@Z
xdata	ENDS
;	COMDAT xdata
xdata	SEGMENT
$chain$8$?SeparatorEx@ImGui@@YAXHM@Z DQ 00008a800000a0021r ; 1.2038e-308
	DQ	0000b780000099800r		; 1.59493e-308
	DQ	000203400000c6800r		; 4.50664e-308
	DD	imagerel $LN220@SeparatorE
	DD	imagerel $LN220@SeparatorE+83
	DD	imagerel $unwind$?SeparatorEx@ImGui@@YAXHM@Z
xdata	ENDS
;	COMDAT xdata
xdata	SEGMENT
$chain$7$?SeparatorEx@ImGui@@YAXHM@Z DD 021H
	DD	imagerel $LN220@SeparatorE
	DD	imagerel $LN220@SeparatorE+83
	DD	imagerel $unwind$?SeparatorEx@ImGui@@YAXHM@Z
xdata	ENDS
;	COMDAT xdata
xdata	SEGMENT
$chain$6$?SeparatorEx@ImGui@@YAXHM@Z DD 021H
	DD	imagerel $LN220@SeparatorE+83
	DD	imagerel $LN220@SeparatorE+152
	DD	imagerel $chain$4$?SeparatorEx@ImGui@@YAXHM@Z
xdata	ENDS
;	COMDAT xdata
xdata	SEGMENT
$chain$5$?SeparatorEx@ImGui@@YAXHM@Z DQ 00007b80600020621r ; 1.07344e-308
	DD	imagerel $LN220@SeparatorE+83
	DD	imagerel $LN220@SeparatorE+152
	DD	imagerel $chain$4$?SeparatorEx@ImGui@@YAXHM@Z
xdata	ENDS
;	COMDAT xdata
xdata	SEGMENT
$chain$4$?SeparatorEx@ImGui@@YAXHM@Z DQ 00008a818000a1821r ; 1.20385e-308
	DQ	0000b780e00099813r		; 1.59496e-308
	DQ	000203404000c6809r		; 4.50666e-308
	DD	imagerel $LN220@SeparatorE
	DD	imagerel $LN220@SeparatorE+83
	DD	imagerel $unwind$?SeparatorEx@ImGui@@YAXHM@Z
xdata	ENDS
;	COMDAT xdata
xdata	SEGMENT
$unwind$?SeparatorEx@ImGui@@YAXHM@Z DQ 0000a881700072519r ; 1.4646e-308
	DQ	07005d007001c0112r		; 4.23306e+231
	DD	05004H
	DD	imagerel __GSHandlerCheck
	DD	060H
xdata	ENDS
;	COMDAT xdata
xdata	SEGMENT
$unwind$?SliderFloat@ImGui@@YA_NPEBDPEAMMM0H@Z DQ 00000821000011001r ; 7.0654e-310
xdata	ENDS
;	COMDAT xdata
xdata	SEGMENT
$chain$2$?EndMenuBar@ImGui@@YAXXZ DD 021H
	DD	imagerel $LN53@EndMenuBar
	DD	imagerel $LN53@EndMenuBar+58
	DD	imagerel $unwind$?EndMenuBar@ImGui@@YAXXZ
xdata	ENDS
;	COMDAT xdata
xdata	SEGMENT
$chain$1$?EndMenuBar@ImGui@@YAXXZ DQ 00002780a00040a21r ; 3.43343e-309
	DD	036805H
	DD	imagerel $LN53@EndMenuBar
	DD	imagerel $LN53@EndMenuBar+58
	DD	imagerel $unwind$?EndMenuBar@ImGui@@YAXXZ
xdata	ENDS
;	COMDAT xdata
xdata	SEGMENT
$unwind$?EndMenuBar@ImGui@@YAXXZ DQ 0000a340a00040a01r ; 1.41894e-308
	DD	07006720aH
xdata	ENDS
;	COMDAT xdata
xdata	SEGMENT
$unwind$?EndMenu@ImGui@@YAXXZ DQ 03002320600020601r ; 1.96423e-77
xdata	ENDS
;	COMDAT xdata
xdata	SEGMENT
$chain$3$?BeginMenuBar@ImGui@@YA_NXZ DD 021H
	DD	imagerel $LN98@BeginMenuB
	DD	imagerel $LN98@BeginMenuB+75
	DD	imagerel $unwind$?BeginMenuBar@ImGui@@YA_NXZ
xdata	ENDS
;	COMDAT xdata
xdata	SEGMENT
$chain$2$?BeginMenuBar@ImGui@@YA_NXZ DQ 00004780f00060f21r ; 6.21488e-309
	DQ	0000e34050005680ar		; 1.9752e-308
	DD	imagerel $LN98@BeginMenuB
	DD	imagerel $LN98@BeginMenuB+75
	DD	imagerel $unwind$?BeginMenuBar@ImGui@@YA_NXZ
xdata	ENDS
;	COMDAT xdata
xdata	SEGMENT
$unwind$?BeginMenuBar@ImGui@@YA_NXZ DQ 07002b20600021519r ; 3.62812e+231
	DD	imagerel __GSHandlerCheck
	DD	030H
xdata	ENDS
;	COMDAT xdata
xdata	SEGMENT
$unwind$?MenuItem@ImGui@@YA_NPEBD0PEA_N_N@Z DQ 03002520600020601r ; 1.97773e-77
xdata	ENDS
;	COMDAT xdata
xdata	SEGMENT
$chain$5$?BeginTabBarEx@ImGui@@YA_NPEAUImGuiTabBar@@AEBUImRect@@H@Z DD 021H
	DD	imagerel $LN84@BeginTabBa+532
	DD	imagerel $LN84@BeginTabBa+580
	DD	imagerel $chain$3$?BeginTabBarEx@ImGui@@YA_NPEAUImGuiTabBar@@AEBUImRect@@H@Z
xdata	ENDS
;	COMDAT xdata
xdata	SEGMENT
$chain$4$?BeginTabBarEx@ImGui@@YA_NPEAUImGuiTabBar@@AEBUImRect@@H@Z DQ 00005680500020521r ; 7.51842e-309
	DD	imagerel $LN84@BeginTabBa+532
	DD	imagerel $LN84@BeginTabBa+580
	DD	imagerel $chain$3$?BeginTabBarEx@ImGui@@YA_NPEAUImGuiTabBar@@AEBUImRect@@H@Z
xdata	ENDS
;	COMDAT xdata
xdata	SEGMENT
$chain$3$?BeginTabBarEx@ImGui@@YA_NPEAUImGuiTabBar@@AEBUImRect@@H@Z DQ 00014f40000040021r ; 2.91389e-308
	DD	013e400H
	DD	imagerel $LN84@BeginTabBa
	DD	imagerel $LN84@BeginTabBa+58
	DD	imagerel $unwind$?BeginTabBarEx@ImGui@@YA_NPEAUImGuiTabBar@@AEBUImRect@@H@Z
xdata	ENDS
;	COMDAT xdata
xdata	SEGMENT
$chain$2$?BeginTabBarEx@ImGui@@YA_NPEAUImGuiTabBar@@AEBUImRect@@H@Z DQ 00014f41b00061b21r ; 2.91395e-308
	DQ	0001264080013e410r		; 2.55755e-308
	DD	imagerel $LN84@BeginTabBa
	DD	imagerel $LN84@BeginTabBa+58
	DD	imagerel $unwind$?BeginTabBarEx@ImGui@@YA_NPEAUImGuiTabBar@@AEBUImRect@@H@Z
xdata	ENDS
;	COMDAT xdata
xdata	SEGMENT
$unwind$?BeginTabBarEx@ImGui@@YA_NPEAUImGuiTabBar@@AEBUImRect@@H@Z DQ 0d008b20c00060c01r ; -3.57443e+77
	DQ	0300250037004c006r		; 1.97688e-77
xdata	ENDS
;	COMDAT xdata
xdata	SEGMENT
$unwind$?Scrollbar@ImGui@@YAXW4ImGuiAxis@@@Z DQ 00012640f00061e19r ; 2.55756e-308
	DQ	0700bd20f0011340fr		; 5.39899e+231
	DD	imagerel __GSHandlerCheck
	DD	060H
xdata	ENDS
;	COMDAT xdata
xdata	SEGMENT
$unwind$?TabBarRemoveTab@ImGui@@YAXPEAUImGuiTabBar@@I@Z DQ 00006340a00040a01r ; 8.62672e-309
	DD	07006320aH
xdata	ENDS
;	COMDAT xdata
xdata	SEGMENT
$chain$10$?CollapseButton@ImGui@@YA_NIAEBUImVec2@@PEAUImGuiDockNode@@@Z DD 021H
	DD	imagerel $LN246@CollapseBu
	DD	imagerel $LN246@CollapseBu+165
	DD	imagerel $unwind$?CollapseButton@ImGui@@YA_NIAEBUImVec2@@PEAUImGuiDockNode@@@Z
xdata	ENDS
;	COMDAT xdata
xdata	SEGMENT
$chain$9$?CollapseButton@ImGui@@YA_NIAEBUImVec2@@PEAUImGuiDockNode@@@Z DD 021H
	DD	imagerel $LN246@CollapseBu+528
	DD	imagerel $LN246@CollapseBu+548
	DD	imagerel $chain$5$?CollapseButton@ImGui@@YA_NIAEBUImVec2@@PEAUImGuiDockNode@@@Z
xdata	ENDS
;	COMDAT xdata
xdata	SEGMENT
$chain$8$?CollapseButton@ImGui@@YA_NIAEBUImVec2@@PEAUImGuiDockNode@@@Z DQ 00009982500062521r ; 1.33425e-308
	DQ	0000b7808000a881cr		; 1.59494e-308
	DD	imagerel $LN246@CollapseBu+528
	DD	imagerel $LN246@CollapseBu+548
	DD	imagerel $chain$5$?CollapseButton@ImGui@@YA_NIAEBUImVec2@@PEAUImGuiDockNode@@@Z
xdata	ENDS
;	COMDAT xdata
xdata	SEGMENT
$chain$5$?CollapseButton@ImGui@@YA_NIAEBUImVec2@@PEAUImGuiDockNode@@@Z DQ 00007b80000080021r ; 1.07342e-308
	DQ	0000c68000008a800r		; 1.7253e-308
	DD	022d400H
	DD	imagerel $LN246@CollapseBu
	DD	imagerel $LN246@CollapseBu+165
	DD	imagerel $unwind$?CollapseButton@ImGui@@YA_NIAEBUImVec2@@PEAUImGuiDockNode@@@Z
xdata	ENDS
;	COMDAT xdata
xdata	SEGMENT
$chain$4$?CollapseButton@ImGui@@YA_NIAEBUImVec2@@PEAUImGuiDockNode@@@Z DQ 00007b827000a2721r ; 1.07351e-308
	DQ	0000c68180008a821r		; 1.72535e-308
	DQ	00021c4080022d410r		; 4.94126e-308
	DD	imagerel $LN246@CollapseBu
	DD	imagerel $LN246@CollapseBu+165
	DD	imagerel $unwind$?CollapseButton@ImGui@@YA_NIAEBUImVec2@@PEAUImGuiDockNode@@@Z
xdata	ENDS
;	COMDAT xdata
xdata	SEGMENT
$unwind$?CollapseButton@ImGui@@YA_NIAEBUImVec2@@PEAUImGuiDockNode@@@Z DQ 00023341800092619r ; 5.34115e-308
	DQ	0e00af00c001a0118r		; -4.51469e+154
	DQ	00000500660077008r		; 4.3472e-310
	DD	imagerel __GSHandlerCheck
	DD	068H
xdata	ENDS
;	COMDAT xdata
xdata	SEGMENT
$unwind$?TabItemCalcSize@ImGui@@YA?AUImVec2@@PEAUImGuiWindow@@@Z DQ 03002320600020601r ; 1.96423e-77
xdata	ENDS
;	COMDAT xdata
xdata	SEGMENT
$chain$4$?TabItemEx@ImGui@@YA_NPEAUImGuiTabBar@@PEBDPEA_NHPEAUImGuiWindow@@@Z DD 021H
	DD	imagerel $LN703@TabItemEx
	DD	imagerel $LN703@TabItemEx+1176
	DD	imagerel $unwind$?TabItemEx@ImGui@@YA_NPEAUImGuiTabBar@@PEBDPEA_NHPEAUImGuiWindow@@@Z
xdata	ENDS
;	COMDAT xdata
xdata	SEGMENT
$chain$3$?TabItemEx@ImGui@@YA_NPEAUImGuiTabBar@@PEBDPEA_NHPEAUImGuiWindow@@@Z DQ 00012a81b00061b21r ; 2.59453e-308
	DQ	00014880900139812r		; 2.85524e-308
	DD	imagerel $LN703@TabItemEx
	DD	imagerel $LN703@TabItemEx+1176
	DD	imagerel $unwind$?TabItemEx@ImGui@@YA_NPEAUImGuiTabBar@@PEBDPEA_NHPEAUImGuiWindow@@@Z
xdata	ENDS
;	COMDAT xdata
xdata	SEGMENT
$unwind$?TabItemEx@ImGui@@YA_NPEAUImGuiTabBar@@PEBDPEA_NHPEAUImGuiWindow@@@Z DQ 0002ff494000f9419r ; 8.88789e-308
	DQ	00016681d00157821r		; 3.11603e-308
	DQ	0d00be00d00300119r		; -4.03466e+77
	DQ	0300560067007c009r		; 2.30749e-77
	DD	05004H
	DD	imagerel __GSHandlerCheck
	DD	0118H
xdata	ENDS
;	COMDAT xdata
xdata	SEGMENT
$chain$2$?CloseButton@ImGui@@YA_NIAEBUImVec2@@@Z DD 021H
	DD	imagerel $LN215@CloseButto
	DD	imagerel $LN215@CloseButto+401
	DD	imagerel $unwind$?CloseButton@ImGui@@YA_NIAEBUImVec2@@@Z
xdata	ENDS
;	COMDAT xdata
xdata	SEGMENT
$chain$1$?CloseButton@ImGui@@YA_NIAEBUImVec2@@@Z DQ 00007b81200041221r ; 1.07346e-308
	DD	08a809H
	DD	imagerel $LN215@CloseButto
	DD	imagerel $LN215@CloseButto+401
	DD	imagerel $unwind$?CloseButton@ImGui@@YA_NIAEBUImVec2@@@Z
xdata	ENDS
;	COMDAT xdata
xdata	SEGMENT
$unwind$?CloseButton@ImGui@@YA_NIAEBUImVec2@@@Z DQ 00009983100133f19r ; 1.33428e-308
	DQ	0000b7827000a882cr		; 1.59501e-308
	DQ	00021741f000c6823r		; 4.85444e-308
	DQ	0001f341f0020641fr		; 4.33939e-308
	DQ	0e012f014001a011fr		; -6.34786e+154
	DD	05010H
	DD	imagerel __GSHandlerCheck
	DD	060H
xdata	ENDS
;	COMDAT xdata
xdata	SEGMENT
$chain$5$?Dummy@ImGui@@YAXAEBUImVec2@@@Z DD 021H
	DD	imagerel $LN69@Dummy
	DD	imagerel $LN69@Dummy+71
	DD	imagerel $unwind$?Dummy@ImGui@@YAXAEBUImVec2@@@Z
xdata	ENDS
;	COMDAT xdata
xdata	SEGMENT
$chain$4$?Dummy@ImGui@@YAXAEBUImVec2@@@Z DQ 00004980000060021r ; 6.3884e-309
	DQ	00006780000058800r		; 8.9959e-309
	DD	imagerel $LN69@Dummy
	DD	imagerel $LN69@Dummy+71
	DD	imagerel $unwind$?Dummy@ImGui@@YAXAEBUImVec2@@@Z
xdata	ENDS
;	COMDAT xdata
xdata	SEGMENT
$chain$3$?Dummy@ImGui@@YAXAEBUImVec2@@@Z DQ 00004981f00081f21r ; 6.38905e-309
	DQ	00006780a00058810r		; 8.99612e-309
	DD	076805H
	DD	imagerel $LN69@Dummy
	DD	imagerel $LN69@Dummy+71
	DD	imagerel $unwind$?Dummy@ImGui@@YAXAEBUImVec2@@@Z
xdata	ENDS
;	COMDAT xdata
xdata	SEGMENT
$unwind$?Dummy@ImGui@@YAXAEBUImVec2@@@Z DQ 00011010700021619r ; 2.3647e-308
	DD	imagerel __GSHandlerCheck
	DD	030H
xdata	ENDS
;	COMDAT xdata
xdata	SEGMENT
$chain$1$?EndTabBar@ImGui@@YAXXZ DD 021H
	DD	imagerel $LN47@EndTabBar
	DD	imagerel $LN47@EndTabBar+40
	DD	imagerel $unwind$?EndTabBar@ImGui@@YAXXZ
xdata	ENDS
;	COMDAT xdata
xdata	SEGMENT
$chain$0$?EndTabBar@ImGui@@YAXXZ DQ 00006340500020521r ; 8.62661e-309
	DD	imagerel $LN47@EndTabBar
	DD	imagerel $LN47@EndTabBar+40
	DD	imagerel $unwind$?EndTabBar@ImGui@@YAXXZ
xdata	ENDS
;	COMDAT xdata
xdata	SEGMENT
$unwind$?EndTabBar@ImGui@@YAXXZ DQ 00007640a00040a01r ; 1.02781e-308
	DD	07006320aH
xdata	ENDS
;	COMDAT xdata
xdata	SEGMENT
$unwind$?ButtonBehavior@ImGui@@YA_NAEBUImRect@@IPEA_N1H@Z DQ 000046840000b4001r ; 6.129e-309
	DQ	0d01be01df01fa223r		; -8.06939e+77
	DQ	0501560167017c019r		; 6.18774e+77
	DD	03014H
xdata	ENDS
;	COMDAT xdata
xdata	SEGMENT
$chain$7$?TabItemLabelAndCloseButton@ImGui@@YAXPEAUImDrawList@@AEBUImRect@@HUImVec2@@PEBDII_NPEA_N5@Z DD 021H
	DD	imagerel $LN128@TabItemLab
	DD	imagerel $LN128@TabItemLab+346
	DD	imagerel $unwind$?TabItemLabelAndCloseButton@ImGui@@YAXPEAUImDrawList@@AEBUImRect@@HUImVec2@@PEBDII_NPEA_N5@Z
xdata	ENDS
;	COMDAT xdata
xdata	SEGMENT
$chain$6$?TabItemLabelAndCloseButton@ImGui@@YAXPEAUImDrawList@@AEBUImRect@@HUImVec2@@PEBDII_NPEA_N5@Z DD 021H
	DD	imagerel $LN128@TabItemLab+346
	DD	imagerel $LN128@TabItemLab+645
	DD	imagerel $chain$3$?TabItemLabelAndCloseButton@ImGui@@YAXPEAUImDrawList@@AEBUImRect@@HUImVec2@@PEBDII_NPEA_N5@Z
xdata	ENDS
;	COMDAT xdata
xdata	SEGMENT
$chain$5$?TabItemLabelAndCloseButton@ImGui@@YAXPEAUImDrawList@@AEBUImRect@@HUImVec2@@PEBDII_NPEA_N5@Z DQ 0000ba81a00041a21r ; 1.62106e-308
	DD	0c9809H
	DD	imagerel $LN128@TabItemLab+346
	DD	imagerel $LN128@TabItemLab+645
	DD	imagerel $chain$3$?TabItemLabelAndCloseButton@ImGui@@YAXPEAUImDrawList@@AEBUImRect@@HUImVec2@@PEBDII_NPEA_N5@Z
xdata	ENDS
;	COMDAT xdata
xdata	SEGMENT
$chain$3$?TabItemLabelAndCloseButton@ImGui@@YAXPEAUImDrawList@@AEBUImRect@@HUImVec2@@PEBDII_NPEA_N5@Z DQ 00029e4e30008e321r ; 7.20203e-308
	DQ	0000e78150009c83ar		; 2.01217e-308
	DD	0f6808H
	DD	imagerel $LN128@TabItemLab
	DD	imagerel $LN128@TabItemLab+346
	DD	imagerel $unwind$?TabItemLabelAndCloseButton@ImGui@@YAXPEAUImDrawList@@AEBUImRect@@HUImVec2@@PEBDII_NPEA_N5@Z
xdata	ENDS
;	COMDAT xdata
xdata	SEGMENT
$unwind$?TabItemLabelAndCloseButton@ImGui@@YAXPEAUImDrawList@@AEBUImRect@@HUImVec2@@PEBDII_NPEA_N5@Z DQ 00008d82d000f3c19r ; 1.22997e-308
	DQ	0000d881d000ab825r		; 1.88181e-308
	DQ	0d00bf00d00200118r		; -4.04371e+77
	DQ	0300560067007c009r		; 2.30749e-77
	DD	05004H
	DD	imagerel __GSHandlerCheck
	DD	078H
xdata	ENDS
;	COMDAT xdata
xdata	SEGMENT
$unwind$?CheckboxFlags@ImGui@@YA_NPEBDPEAHH@Z DQ 03006320a00020a01r ; 2.39605e-77
xdata	ENDS
;	COMDAT xdata
xdata	SEGMENT
$chain$6$?Selectable@ImGui@@YA_NPEBD_NHAEBUImVec2@@@Z DD 021H
	DD	imagerel $LN320@Selectable
	DD	imagerel $LN320@Selectable+135
	DD	imagerel $unwind$?Selectable@ImGui@@YA_NPEBD_NHAEBUImVec2@@@Z
xdata	ENDS
;	COMDAT xdata
xdata	SEGMENT
$chain$5$?Selectable@ImGui@@YA_NPEBD_NHAEBUImVec2@@@Z DD 021H
	DD	imagerel $LN320@Selectable+135
	DD	imagerel $LN320@Selectable+145
	DD	imagerel $chain$1$?Selectable@ImGui@@YA_NPEBD_NHAEBUImVec2@@@Z
xdata	ENDS
;	COMDAT xdata
xdata	SEGMENT
$chain$4$?Selectable@ImGui@@YA_NPEBD_NHAEBUImVec2@@@Z DQ 0000da81700061721r ; 1.89918e-308
	DQ	0000f8805000e9812r		; 2.1599e-308
	DD	imagerel $LN320@Selectable+135
	DD	imagerel $LN320@Selectable+145
	DD	imagerel $chain$1$?Selectable@ImGui@@YA_NPEBD_NHAEBUImVec2@@@Z
xdata	ENDS
;	COMDAT xdata
xdata	SEGMENT
$chain$1$?Selectable@ImGui@@YA_NPEBD_NHAEBUImVec2@@@Z DQ 00010780a00040a21r ; 2.29028e-308
	DD	0116805H
	DD	imagerel $LN320@Selectable
	DD	imagerel $LN320@Selectable+135
	DD	imagerel $unwind$?Selectable@ImGui@@YA_NPEBD_NHAEBUImVec2@@@Z
xdata	ENDS
;	COMDAT xdata
xdata	SEGMENT
$unwind$?Selectable@ImGui@@YA_NPEBD_NHAEBUImVec2@@@Z DQ 0000cb82b000f3919r ; 1.76885e-308
	DQ	0002c6423002d7423r		; 7.89655e-308
	DQ	000240123002b3423r		; 5.56392e-308
	DQ	0c012d014e016f018r		; -4.7032
	DD	05010H
	DD	imagerel __GSHandlerCheck
	DD	0b0H
xdata	ENDS
;	COMDAT xdata
xdata	SEGMENT
$unwind$?InputText@ImGui@@YA_NPEBDPEAD_KHP6AHPEAUImGuiInputTextCallbackData@@@ZPEAX@Z DQ 00000820900010901r ; 7.06391e-310
xdata	ENDS
;	COMDAT xdata
xdata	SEGMENT
$unwind$?TextColored@ImGui@@YAXAEBUImVec4@@PEBDZZ DQ 07013a21700051701r ; 7.62021e+231
	DQ	00000301050116012r		; 2.61097e-310
xdata	ENDS
;	COMDAT xdata
xdata	SEGMENT
$unwind$?DragFloat@ImGui@@YA_NPEBDPEAMMMM0H@Z DQ 00000a20700011619r ; 8.80183e-310
	DD	imagerel __GSHandlerCheck
	DD	048H
xdata	ENDS
;	COMDAT xdata
xdata	SEGMENT
$chain$4$?Checkbox@ImGui@@YA_NPEBDPEA_N@Z DD 021H
	DD	imagerel $LN187@Checkbox
	DD	imagerel $LN187@Checkbox+532
	DD	imagerel $unwind$?Checkbox@ImGui@@YA_NPEBDPEA_N@Z
xdata	ENDS
;	COMDAT xdata
xdata	SEGMENT
$chain$3$?Checkbox@ImGui@@YA_NPEBDPEA_N@Z DQ 0000bb80000020021r ; 1.62969e-308
	DD	imagerel $LN187@Checkbox
	DD	imagerel $LN187@Checkbox+532
	DD	imagerel $unwind$?Checkbox@ImGui@@YA_NPEBDPEA_N@Z
xdata	ENDS
;	COMDAT xdata
xdata	SEGMENT
$chain$2$?Checkbox@ImGui@@YA_NPEBDPEA_N@Z DQ 0000bb82800062821r ; 1.62978e-308
	DQ	0000e8809000ca817r		; 2.02084e-308
	DD	imagerel $LN187@Checkbox
	DD	imagerel $LN187@Checkbox+532
	DD	imagerel $unwind$?Checkbox@ImGui@@YA_NPEBDPEA_N@Z
xdata	ENDS
;	COMDAT xdata
xdata	SEGMENT
$unwind$?Checkbox@ImGui@@YA_NPEBDPEA_N@Z DQ 00009d84000174e19r ; 1.36908e-308
	DQ	0000d9830000ac838r		; 1.89055e-308
	DQ	000106827000f782br		; 2.28165e-308
	DQ	0002a6423002b7423r		; 7.34028e-308
	DQ	00022012300283423r		; 5.00765e-308
	DQ	0c012d014e016f018r		; -4.7032
	DD	05010H
	DD	imagerel __GSHandlerCheck
	DD	088H
xdata	ENDS
;	COMDAT xdata
xdata	SEGMENT
$unwind$?MenuItem@ImGui@@YA_NPEBD0_N1@Z DQ 00000620400010401r ; 5.32451e-310
xdata	ENDS
;	COMDAT xdata
xdata	SEGMENT
$chain$4$?InputTextDeactivateHook@ImGui@@YAXI@Z DD 021H
	DD	imagerel $LN30@InputTextD
	DD	imagerel $LN30@InputTextD+50
	DD	imagerel $unwind$?InputTextDeactivateHook@ImGui@@YAXI@Z
xdata	ENDS
;	COMDAT xdata
xdata	SEGMENT
$chain$3$?InputTextDeactivateHook@ImGui@@YAXI@Z DQ 00006640500040521r ; 8.88736e-309
	DD	077400H
	DD	imagerel $LN30@InputTextD
	DD	imagerel $LN30@InputTextD+50
	DD	imagerel $unwind$?InputTextDeactivateHook@ImGui@@YAXI@Z
xdata	ENDS
;	COMDAT xdata
xdata	SEGMENT
$chain$0$?InputTextDeactivateHook@ImGui@@YAXI@Z DQ 00007740500020521r ; 1.0365e-308
	DD	imagerel $LN30@InputTextD
	DD	imagerel $LN30@InputTextD+50
	DD	imagerel $unwind$?InputTextDeactivateHook@ImGui@@YAXI@Z
xdata	ENDS
;	COMDAT xdata
xdata	SEGMENT
$unwind$?InputTextDeactivateHook@ImGui@@YAXI@Z DQ 03009320d00020d01r ; 2.71991e-77
xdata	ENDS
;	COMDAT xdata
xdata	SEGMENT
$unwind$?TabItemBackground@ImGui@@YAXPEAUImDrawList@@AEBUImRect@@HI@Z DQ 00004a86300156301r ; 6.47741e-309
	DQ	0000688550005985er		; 9.08462e-309
	DQ	00008684400077848r		; 1.16918e-308
	DQ	00018541b0019641br		; 3.3833e-308
	DQ	00012011b0017341br		; 2.50381e-308
	DQ	000007010e012f014r		; 6.08777e-310
xdata	ENDS
;	COMDAT xdata
xdata	SEGMENT
$unwind$?TextV@ImGui@@YAXPEBDPEAD@Z DQ 00000420400010401r ; 3.58617e-310
xdata	ENDS
;	COMDAT xdata
xdata	SEGMENT
$chain$1$?SplitterBehavior@ImGui@@YA_NAEBUImRect@@IW4ImGuiAxis@@PEAM2MMMMI@Z DD 021H
	DD	imagerel $LN83@SplitterBe
	DD	imagerel $LN83@SplitterBe+104
	DD	imagerel $unwind$?SplitterBehavior@ImGui@@YA_NAEBUImRect@@IW4ImGuiAxis@@PEAM2MMMMI@Z
xdata	ENDS
;	COMDAT xdata
xdata	SEGMENT
$chain$0$?SplitterBehavior@ImGui@@YA_NAEBUImRect@@IW4ImGuiAxis@@PEAM2MMMMI@Z DQ 00008680800020821r ; 1.16905e-308
	DD	imagerel $LN83@SplitterBe
	DD	imagerel $LN83@SplitterBe+104
	DD	imagerel $unwind$?SplitterBehavior@ImGui@@YA_NAEBUImRect@@IW4ImGuiAxis@@PEAM2MMMMI@Z
xdata	ENDS
;	COMDAT xdata
xdata	SEGMENT
$unwind$?SplitterBehavior@ImGui@@YA_NAEBUImRect@@IW4ImGuiAxis@@PEAM2MMMMI@Z DQ 000077821000d2f19r ; 1.03873e-308
	DQ	00012011c001c341cr		; 2.50381e-308
	DQ	0c00ad00ce00ef010r		; -3.35159
	DQ	00000500660077008r		; 4.3472e-310
	DD	imagerel __GSHandlerCheck
	DD	068H
xdata	ENDS
;	COMDAT xdata
xdata	SEGMENT
$unwind$?TabBarAddTab@ImGui@@YAXPEAUImGuiTabBar@@HPEAUImGuiWindow@@@Z DQ 03002b20600020601r ; 2.01821e-77
xdata	ENDS
;	COMDAT xdata
xdata	SEGMENT
$unwind$?Update@ImGuiMenuColumns@@QEAAXM_N@Z DQ 00001340500020501r ; 1.67326e-309
xdata	ENDS
;	COMDAT xdata
xdata	SEGMENT
$unwind$??0ImGuiTabBar@@QEAA@XZ DQ 03002320600020601r ; 1.96423e-77
xdata	ENDS
;	COMDAT xdata
xdata	SEGMENT
$chain$2$?InsertChars@ImGuiInputTextCallbackData@@QEAAXHPEBD0@Z DD 021H
	DD	imagerel $LN31@InsertChar
	DD	imagerel $LN31@InsertChar+79
	DD	imagerel $unwind$?InsertChars@ImGuiInputTextCallbackData@@QEAAXHPEBD0@Z
xdata	ENDS
;	COMDAT xdata
xdata	SEGMENT
$chain$1$?InsertChars@ImGuiInputTextCallbackData@@QEAAXHPEBD0@Z DQ 00009f40a00040a21r ; 1.38417e-308
	DD	083405H
	DD	imagerel $LN31@InsertChar
	DD	imagerel $LN31@InsertChar+79
	DD	imagerel $unwind$?InsertChars@ImGuiInputTextCallbackData@@QEAAXHPEBD0@Z
xdata	ENDS
;	COMDAT xdata
xdata	SEGMENT
$unwind$?InsertChars@ImGuiInputTextCallbackData@@QEAAXHPEBD0@Z DQ 0000a541600061601r ; 1.43635e-308
	DQ	0600f7010e0123216r		; 5.26889e+154
xdata	ENDS
;	COMDAT xdata
xdata	SEGMENT
$chain$17$?ColorEdit4@ImGui@@YA_NPEBDQEAMH@Z DD 021H
	DD	imagerel $LN801@ColorEdit4
	DD	imagerel $LN801@ColorEdit4+106
	DD	imagerel $unwind$?ColorEdit4@ImGui@@YA_NPEBDQEAMH@Z
xdata	ENDS
;	COMDAT xdata
xdata	SEGMENT
$chain$16$?ColorEdit4@ImGui@@YA_NPEBDQEAMH@Z DQ 0003cf40000020021r ; 1.61057e-307
	DD	imagerel $LN801@ColorEdit4
	DD	imagerel $LN801@ColorEdit4+106
	DD	imagerel $unwind$?ColorEdit4@ImGui@@YA_NPEBDQEAMH@Z
xdata	ENDS
;	COMDAT xdata
xdata	SEGMENT
$chain$15$?ColorEdit4@ImGui@@YA_NPEBDQEAMH@Z DD 021H
	DD	imagerel $LN801@ColorEdit4+106
	DD	imagerel $LN801@ColorEdit4+125
	DD	imagerel $chain$1$?ColorEdit4@ImGui@@YA_NPEBDQEAMH@Z
xdata	ENDS
;	COMDAT xdata
xdata	SEGMENT
$chain$14$?ColorEdit4@ImGui@@YA_NPEBDQEAMH@Z DD 021H
	DD	imagerel $LN801@ColorEdit4+125
	DD	imagerel $LN801@ColorEdit4+150
	DD	imagerel $chain$4$?ColorEdit4@ImGui@@YA_NPEBDQEAMH@Z
xdata	ENDS
;	COMDAT xdata
xdata	SEGMENT
$chain$13$?ColorEdit4@ImGui@@YA_NPEBDQEAMH@Z DQ 00014f80000040021r ; 2.91606e-308
	DD	015e800H
	DD	imagerel $LN801@ColorEdit4+150
	DD	imagerel $LN801@ColorEdit4+159
	DD	imagerel $chain$5$?ColorEdit4@ImGui@@YA_NPEBDQEAMH@Z
xdata	ENDS
;	COMDAT xdata
xdata	SEGMENT
$chain$12$?ColorEdit4@ImGui@@YA_NPEBDQEAMH@Z DD 021H
	DD	imagerel $LN801@ColorEdit4+159
	DD	imagerel $LN801@ColorEdit4+1061
	DD	imagerel $chain$10$?ColorEdit4@ImGui@@YA_NPEBDQEAMH@Z
xdata	ENDS
;	COMDAT xdata
xdata	SEGMENT
$chain$11$?ColorEdit4@ImGui@@YA_NPEBDQEAMH@Z DQ 00019a80900020921r ; 3.56796e-308
	DD	imagerel $LN801@ColorEdit4+159
	DD	imagerel $LN801@ColorEdit4+1061
	DD	imagerel $chain$10$?ColorEdit4@ImGui@@YA_NPEBDQEAMH@Z
xdata	ENDS
;	COMDAT xdata
xdata	SEGMENT
$chain$10$?ColorEdit4@ImGui@@YA_NPEBDQEAMH@Z DQ 00014f83b000a3b21r ; 2.91619e-308
	DQ	00016d81b0015e82dr		; 3.17687e-308
	DQ	00018b8090017c812r		; 3.43758e-308
	DD	imagerel $LN801@ColorEdit4+150
	DD	imagerel $LN801@ColorEdit4+159
	DD	imagerel $chain$5$?ColorEdit4@ImGui@@YA_NPEBDQEAMH@Z
xdata	ENDS
;	COMDAT xdata
xdata	SEGMENT
$chain$5$?ColorEdit4@ImGui@@YA_NPEBDQEAMH@Z DQ 0001a980900020921r ; 3.69834e-308
	DD	imagerel $LN801@ColorEdit4+125
	DD	imagerel $LN801@ColorEdit4+150
	DD	imagerel $chain$4$?ColorEdit4@ImGui@@YA_NPEBDQEAMH@Z
xdata	ENDS
;	COMDAT xdata
xdata	SEGMENT
$chain$4$?ColorEdit4@ImGui@@YA_NPEBDQEAMH@Z DQ 0001b881900061921r ; 3.82874e-308
	DQ	0001d6808001c7810r		; 4.08946e-308
	DD	imagerel $LN801@ColorEdit4+106
	DD	imagerel $LN801@ColorEdit4+125
	DD	imagerel $chain$1$?ColorEdit4@ImGui@@YA_NPEBDQEAMH@Z
xdata	ENDS
;	COMDAT xdata
xdata	SEGMENT
$chain$1$?ColorEdit4@ImGui@@YA_NPEBDQEAMH@Z DQ 0003cf41000041021r ; 1.61058e-307
	DD	047d408H
	DD	imagerel $LN801@ColorEdit4
	DD	imagerel $LN801@ColorEdit4+106
	DD	imagerel $unwind$?ColorEdit4@ImGui@@YA_NPEBDQEAMH@Z
xdata	ENDS
;	COMDAT xdata
xdata	SEGMENT
$unwind$?ColorEdit4@ImGui@@YA_NPEBDQEAMH@Z DQ 0003d011800082619r ; 1.61342e-307
	DQ	060047005c007e009r		; 3.42529e+154
	DD	050023003H
	DD	imagerel __GSHandlerCheck
	DD	0130H
xdata	ENDS
;	COMDAT xdata
xdata	SEGMENT
$chain$5$?RadioButton@ImGui@@YA_NPEBD_N@Z DD 021H
	DD	imagerel $LN223@RadioButto
	DD	imagerel $LN223@RadioButto+549
	DD	imagerel $unwind$?RadioButton@ImGui@@YA_NPEBD_N@Z
xdata	ENDS
;	COMDAT xdata
xdata	SEGMENT
$chain$4$?RadioButton@ImGui@@YA_NPEBD_N@Z DD 021H
	DD	imagerel $LN223@RadioButto+549
	DD	imagerel $LN223@RadioButto+583
	DD	imagerel $chain$1$?RadioButton@ImGui@@YA_NPEBD_N@Z
xdata	ENDS
;	COMDAT xdata
xdata	SEGMENT
$chain$3$?RadioButton@ImGui@@YA_NPEBD_N@Z DQ 0000bf81a00041a21r ; 1.66451e-308
	DD	0ce809H
	DD	imagerel $LN223@RadioButto+549
	DD	imagerel $LN223@RadioButto+583
	DD	imagerel $chain$1$?RadioButton@ImGui@@YA_NPEBD_N@Z
xdata	ENDS
;	COMDAT xdata
xdata	SEGMENT
$chain$1$?RadioButton@ImGui@@YA_NPEBD_N@Z DQ 0000eb81100041121r ; 2.04693e-308
	DD	032d408H
	DD	imagerel $LN223@RadioButto
	DD	imagerel $LN223@RadioButto+549
	DD	imagerel $unwind$?RadioButton@ImGui@@YA_NPEBD_N@Z
xdata	ENDS
;	COMDAT xdata
xdata	SEGMENT
$unwind$?RadioButton@ImGui@@YA_NPEBD_N@Z DQ 0000dc83a00154819r ; 1.91664e-308
	DQ	00010982a000fa832r		; 2.30773e-308
	DQ	00012782000118825r		; 2.56846e-308
	DQ	0002801180013681cr		; 6.67641e-308
	DQ	07007c009e00bf00dr		; 4.60907e+231
	DQ	00000500430056006r		; 4.34674e-310
	DD	imagerel __GSHandlerCheck
	DD	0a0H
xdata	ENDS
;	COMDAT xdata
xdata	SEGMENT
$unwind$?DragInt@ImGui@@YA_NPEBDPEAHMHH0H@Z DQ 00000c20700011619r ; 1.05402e-309
	DD	imagerel __GSHandlerCheck
	DD	050H
xdata	ENDS
;	COMDAT xdata
xdata	SEGMENT
$unwind$?InvisibleButton@ImGui@@YA_NPEBDAEBUImVec2@@H@Z DQ 00011741500082419r ; 2.4272e-308
	DQ	0000f341500106415r		; 2.1143e-308
	DD	0e011b215H
	DD	imagerel __GSHandlerCheck
	DD	050H
xdata	ENDS
;	COMDAT xdata
xdata	SEGMENT
$chain$1$?BeginCombo@ImGui@@YA_NPEBD0H@Z DD 021H
	DD	imagerel $LN395@BeginCombo
	DD	imagerel $LN395@BeginCombo+539
	DD	imagerel $unwind$?BeginCombo@ImGui@@YA_NPEBD0H@Z
xdata	ENDS
;	COMDAT xdata
xdata	SEGMENT
$chain$0$?BeginCombo@ImGui@@YA_NPEBD0H@Z DQ 0000c680800020821r ; 1.72532e-308
	DD	imagerel $LN395@BeginCombo
	DD	imagerel $LN395@BeginCombo+539
	DD	imagerel $unwind$?BeginCombo@ImGui@@YA_NPEBD0H@Z
xdata	ENDS
;	COMDAT xdata
xdata	SEGMENT
$unwind$?BeginCombo@ImGui@@YA_NPEBD0H@Z DQ 00009983100133f19r ; 1.33428e-308
	DQ	0000b7827000a882cr		; 1.59501e-308
	DQ	00021642300227423r		; 4.83708e-308
	DQ	0001a012300203423r		; 3.61636e-308
	DQ	0c012d014e016f018r		; -4.7032
	DD	05010H
	DD	imagerel __GSHandlerCheck
	DD	088H
xdata	ENDS
;	COMDAT xdata
xdata	SEGMENT
$chain$1$?SliderScalar@ImGui@@YA_NPEBDHPEAXPEBX20H@Z DD 021H
	DD	imagerel $LN215@SliderScal
	DD	imagerel $LN215@SliderScal+132
	DD	imagerel $unwind$?SliderScalar@ImGui@@YA_NPEBDHPEAXPEBX20H@Z
xdata	ENDS
;	COMDAT xdata
xdata	SEGMENT
$chain$0$?SliderScalar@ImGui@@YA_NPEBDHPEAXPEBX20H@Z DQ 0000e780500020521r ; 2.01214e-308
	DD	imagerel $LN215@SliderScal
	DD	imagerel $LN215@SliderScal+132
	DD	imagerel $unwind$?SliderScalar@ImGui@@YA_NPEBDHPEAXPEBX20H@Z
xdata	ENDS
;	COMDAT xdata
xdata	SEGMENT
$unwind$?SliderScalar@ImGui@@YA_NPEBDHPEAXPEBX20H@Z DQ 0000d882d00113b19r ; 1.88185e-308
	DQ	000297423000f6828r		; 7.07953e-308
	DQ	00026342300276423r		; 6.1756e-308
	DQ	0e016f01800200123r		; -7.68866e+154
	DQ	000005010c012d014r		; 4.3494e-310
	DD	imagerel __GSHandlerCheck
	DD	0c0H
xdata	ENDS
;	COMDAT xdata
xdata	SEGMENT
$chain$9$?ColorButton@ImGui@@YA_NPEBDAEBUImVec4@@HAEBUImVec2@@@Z DD 021H
	DD	imagerel $LN307@ColorButto
	DD	imagerel $LN307@ColorButto+375
	DD	imagerel $unwind$?ColorButton@ImGui@@YA_NPEBDAEBUImVec4@@HAEBUImVec2@@@Z
xdata	ENDS
;	COMDAT xdata
xdata	SEGMENT
$chain$8$?ColorButton@ImGui@@YA_NPEBDAEBUImVec4@@HAEBUImVec2@@@Z DD 021H
	DD	imagerel $LN307@ColorButto+375
	DD	imagerel $LN307@ColorButto+388
	DD	imagerel $chain$0$?ColorButton@ImGui@@YA_NPEBDAEBUImVec4@@HAEBUImVec2@@@Z
xdata	ENDS
;	COMDAT xdata
xdata	SEGMENT
$chain$7$?ColorButton@ImGui@@YA_NPEBDAEBUImVec4@@HAEBUImVec2@@@Z DQ 00015780000020021r ; 2.9856e-308
	DD	imagerel $LN307@ColorButto+388
	DD	imagerel $LN307@ColorButto+414
	DD	imagerel $chain$2$?ColorButton@ImGui@@YA_NPEBDAEBUImVec4@@HAEBUImVec2@@@Z
xdata	ENDS
;	COMDAT xdata
xdata	SEGMENT
$chain$6$?ColorButton@ImGui@@YA_NPEBDAEBUImVec4@@HAEBUImVec2@@@Z DQ 00015780800020821r ; 2.98561e-308
	DD	imagerel $LN307@ColorButto+414
	DD	imagerel $LN307@ColorButto+781
	DD	imagerel $chain$5$?ColorButton@ImGui@@YA_NPEBDAEBUImVec4@@HAEBUImVec2@@@Z
xdata	ENDS
;	COMDAT xdata
xdata	SEGMENT
$chain$5$?ColorButton@ImGui@@YA_NPEBDAEBUImVec4@@HAEBUImVec2@@@Z DQ 0000df81d00061d21r ; 1.94266e-308
	DQ	00010c809000ee814r		; 2.33374e-308
	DD	imagerel $LN307@ColorButto+388
	DD	imagerel $LN307@ColorButto+414
	DD	imagerel $chain$2$?ColorButton@ImGui@@YA_NPEBDAEBUImVec4@@HAEBUImVec2@@@Z
xdata	ENDS
;	COMDAT xdata
xdata	SEGMENT
$chain$2$?ColorButton@ImGui@@YA_NPEBDAEBUImVec4@@HAEBUImVec2@@@Z DQ 00011b81600041621r ; 2.46414e-308
	DD	012a809H
	DD	imagerel $LN307@ColorButto+375
	DD	imagerel $LN307@ColorButto+388
	DD	imagerel $chain$0$?ColorButton@ImGui@@YA_NPEBDAEBUImVec4@@HAEBUImVec2@@@Z
xdata	ENDS
;	COMDAT xdata
xdata	SEGMENT
$chain$0$?ColorButton@ImGui@@YA_NPEBDAEBUImVec4@@HAEBUImVec2@@@Z DQ 00014880900020921r ; 2.85524e-308
	DD	imagerel $LN307@ColorButto
	DD	imagerel $LN307@ColorButto+375
	DD	imagerel $unwind$?ColorButton@ImGui@@YA_NPEBDAEBUImVec4@@HAEBUImVec2@@@Z
xdata	ENDS
;	COMDAT xdata
xdata	SEGMENT
$unwind$?ColorButton@ImGui@@YA_NPEBDAEBUImVec4@@HAEBUImVec2@@@Z DQ 0000fd82f00113d19r ; 2.20344e-308
	DQ	00016682200139827r		; 3.11604e-308
	DQ	0002e011e0039341er		; 8.34524e-308
	DQ	0c00cd00ee010f012r		; -3.60159
	DQ	0000050086009700ar		; 4.34762e-310
	DD	imagerel __GSHandlerCheck
	DD	0c0H
xdata	ENDS
;	COMDAT xdata
xdata	SEGMENT
$chain$14$?ColorPicker4@ImGui@@YA_NPEBDQEAMHPEBM@Z DD 021H
	DD	imagerel $LN823@ColorPicke
	DD	imagerel $LN823@ColorPicke+118
	DD	imagerel $unwind$?ColorPicker4@ImGui@@YA_NPEBDQEAMHPEBM@Z
xdata	ENDS
;	COMDAT xdata
xdata	SEGMENT
$chain$13$?ColorPicker4@ImGui@@YA_NPEBDQEAMHPEBM@Z DD 021H
	DD	imagerel $LN823@ColorPicke+118
	DD	imagerel $LN823@ColorPicke+126
	DD	imagerel $chain$0$?ColorPicker4@ImGui@@YA_NPEBDQEAMHPEBM@Z
xdata	ENDS
;	COMDAT xdata
xdata	SEGMENT
$chain$12$?ColorPicker4@ImGui@@YA_NPEBDQEAMHPEBM@Z DQ 0001cf86f00186f21r ; 4.02884e-308
	DQ	0001ed85d001de866r		; 4.28955e-308
	DQ	00020b84b001fc854r		; 4.65037e-308
	DQ	0002298390021a842r		; 5.1718e-308
	DQ	00024782700238830r		; 5.69323e-308
	DQ	0004df4170025681fr		; 3.33243e-307
	DD	04e6408H
	DD	imagerel $LN823@ColorPicke+118
	DD	imagerel $LN823@ColorPicke+126
	DD	imagerel $chain$0$?ColorPicker4@ImGui@@YA_NPEBDQEAMHPEBM@Z
xdata	ENDS
;	COMDAT xdata
xdata	SEGMENT
$chain$0$?ColorPicker4@ImGui@@YA_NPEBDQEAMHPEBM@Z DQ 0004f340800020821r ; 3.47148e-307
	DD	imagerel $LN823@ColorPicke
	DD	imagerel $LN823@ColorPicke+118
	DD	imagerel $unwind$?ColorPicker4@ImGui@@YA_NPEBDQEAMHPEBM@Z
xdata	ENDS
;	COMDAT xdata
xdata	SEGMENT
$unwind$?ColorPicker4@ImGui@@YA_NPEBDQEAMHPEBM@Z DQ 00050011800072919r ; 3.56107e-307
	DQ	07003c005d007e009r		; 3.8328e+231
	DD	05002H
	DD	imagerel __GSHandlerCheck
	DD	01b8H
xdata	ENDS
;	COMDAT xdata
xdata	SEGMENT
$chain$1$?DragScalar@ImGui@@YA_NPEBDHPEAXMPEBX20H@Z DD 021H
	DD	imagerel $LN351@DragScalar
	DD	imagerel $LN351@DragScalar+159
	DD	imagerel $unwind$?DragScalar@ImGui@@YA_NPEBDHPEAXMPEBX20H@Z
xdata	ENDS
;	COMDAT xdata
xdata	SEGMENT
$chain$0$?DragScalar@ImGui@@YA_NPEBDHPEAXMPEBX20H@Z DQ 00011680500020521r ; 2.42065e-308
	DD	imagerel $LN351@DragScalar
	DD	imagerel $LN351@DragScalar+159
	DD	imagerel $unwind$?DragScalar@ImGui@@YA_NPEBDHPEAXMPEBX20H@Z
xdata	ENDS
;	COMDAT xdata
xdata	SEGMENT
$unwind$?DragScalar@ImGui@@YA_NPEBDHPEAXMPEBX20H@Z DQ 0000da83400134219r ; 1.89925e-308
	DQ	0000f8827000e982cr		; 2.15997e-308
	DQ	0002f341d00107822r		; 8.67878e-308
	DQ	0e010f0120024011dr		; -5.67746e+154
	DQ	06009700ac00cd00er		; 4.26329e+154
	DD	05008H
	DD	imagerel __GSHandlerCheck
	DD	0c0H
xdata	ENDS
;	COMDAT xdata
xdata	SEGMENT
$unwind$?Spacing@ImGui@@YAXXZ DQ 00000420400010401r ; 3.58617e-310
xdata	ENDS
;	COMDAT xdata
xdata	SEGMENT
$unwind$?EndCombo@ImGui@@YAXXZ DQ 03002320600020601r ; 1.96423e-77
xdata	ENDS
;	COMDAT xdata
xdata	SEGMENT
$chain$17$?TextEx@ImGui@@YAXPEBD0H@Z DD 021H
	DD	imagerel $LN327@TextEx
	DD	imagerel $LN327@TextEx+85
	DD	imagerel $unwind$?TextEx@ImGui@@YAXPEBD0H@Z
xdata	ENDS
;	COMDAT xdata
xdata	SEGMENT
$chain$16$?TextEx@ImGui@@YAXPEBD0H@Z DD 021H
	DD	imagerel $LN327@TextEx+85
	DD	imagerel $LN327@TextEx+291
	DD	imagerel $chain$8$?TextEx@ImGui@@YAXPEBD0H@Z
xdata	ENDS
;	COMDAT xdata
xdata	SEGMENT
$chain$15$?TextEx@ImGui@@YAXPEBD0H@Z DD 021H
	DD	imagerel $LN327@TextEx+291
	DD	imagerel $LN327@TextEx+639
	DD	imagerel $chain$12$?TextEx@ImGui@@YAXPEBD0H@Z
xdata	ENDS
;	COMDAT xdata
xdata	SEGMENT
$chain$14$?TextEx@ImGui@@YAXPEBD0H@Z DQ 0000cb81600041621r ; 1.76881e-308
	DD	0da809H
	DD	imagerel $LN327@TextEx+291
	DD	imagerel $LN327@TextEx+639
	DD	imagerel $chain$12$?TextEx@ImGui@@YAXPEBD0H@Z
xdata	ENDS
;	COMDAT xdata
xdata	SEGMENT
$chain$12$?TextEx@ImGui@@YAXPEBD0H@Z DQ 00024f43800083821r ; 5.82802e-308
	DQ	00009e81f0025e430r		; 1.3777e-308
	DD	0bc809H
	DD	imagerel $LN327@TextEx+85
	DD	imagerel $LN327@TextEx+291
	DD	imagerel $chain$8$?TextEx@ImGui@@YAXPEBD0H@Z
xdata	ENDS
;	COMDAT xdata
xdata	SEGMENT
$chain$8$?TextEx@ImGui@@YAXPEBD0H@Z DQ 0000e98a80012a821r ; 2.02987e-308
	DQ	00026d48d00107895r		; 6.34988e-308
	DQ	0000ad82f0008f837r		; 1.50811e-308
	DQ	000116817000f881fr		; 2.42069e-308
	DQ	0002e34040027740br		; 8.40054e-308
	DD	imagerel $LN327@TextEx
	DD	imagerel $LN327@TextEx+85
	DD	imagerel $unwind$?TextEx@ImGui@@YAXPEBD0H@Z
xdata	ENDS
;	COMDAT xdata
xdata	SEGMENT
$unwind$?TextEx@ImGui@@YAXPEBD0H@Z DQ 00028011200052119r ; 6.67638e-308
	DQ	0000050046005c007r		; 4.34678e-310
	DD	imagerel __GSHandlerCheck
	DD	070H
xdata	ENDS
;	COMDAT xdata
xdata	SEGMENT
$unwind$?TextColoredV@ImGui@@YAXAEBUImVec4@@PEBDPEAD@Z DQ 0000c641400081401r ; 1.72317e-308
	DQ	0000a3414000b5414r		; 1.41896e-308
	DD	070107214H
xdata	ENDS
;	COMDAT xdata
xdata	SEGMENT
$chain$2$?ArrowButtonEx@ImGui@@YA_NPEBDHUImVec2@@H@Z DD 021H
	DD	imagerel $LN53@ArrowButto
	DD	imagerel $LN53@ArrowButto+319
	DD	imagerel $unwind$?ArrowButtonEx@ImGui@@YA_NPEBDHUImVec2@@H@Z
xdata	ENDS
;	COMDAT xdata
xdata	SEGMENT
$chain$1$?ArrowButtonEx@ImGui@@YA_NPEBDHUImVec2@@H@Z DQ 0000a781800041821r ; 1.45591e-308
	DD	0b6808H
	DD	imagerel $LN53@ArrowButto
	DD	imagerel $LN53@ArrowButto+319
	DD	imagerel $unwind$?ArrowButtonEx@ImGui@@YA_NPEBDHUImVec2@@H@Z
xdata	ENDS
;	COMDAT xdata
xdata	SEGMENT
$unwind$?ArrowButtonEx@ImGui@@YA_NPEBDHUImVec2@@H@Z DQ 000089828000f3619r ; 1.19519e-308
	DQ	00021641e00098823r		; 4.83706e-308
	DQ	00018011e001f341er		; 3.33822e-308
	DQ	0700dc00fe011f013r		; 5.77347e+231
	DD	0500cH
	DD	imagerel __GSHandlerCheck
	DD	070H
xdata	ENDS
;	COMDAT xdata
xdata	SEGMENT
$unwind$?GetWindowScrollbarID@ImGui@@YAIPEAUImGuiWindow@@W4ImGuiAxis@@@Z DQ 00007640f00060f01r ; 1.02782e-308
	DQ	0700b320f0006340fr		; 5.2777e+231
xdata	ENDS
;	COMDAT xdata
xdata	SEGMENT
$unwind$?GetWindowScrollbarRect@ImGui@@YA?AUImRect@@PEAUImGuiWindow@@W4ImGuiAxis@@@Z DQ 00001683100033101r ; 1.95667e-309
	DD	04204H
xdata	ENDS
;	COMDAT xdata
xdata	SEGMENT
$chain$11$?ScrollbarEx@ImGui@@YA_NAEBUImRect@@IW4ImGuiAxis@@PEA_J_J3H@Z DD 021H
	DD	imagerel $LN276@ScrollbarE
	DD	imagerel $LN276@ScrollbarE+237
	DD	imagerel $unwind$?ScrollbarEx@ImGui@@YA_NAEBUImRect@@IW4ImGuiAxis@@PEA_J_J3H@Z
xdata	ENDS
;	COMDAT xdata
xdata	SEGMENT
$chain$10$?ScrollbarEx@ImGui@@YA_NAEBUImRect@@IW4ImGuiAxis@@PEA_J_J3H@Z DQ 0000c980000040021r ; 1.75138e-308
	DD	0d8800H
	DD	imagerel $LN276@ScrollbarE+237
	DD	imagerel $LN276@ScrollbarE+245
	DD	imagerel $chain$0$?ScrollbarEx@ImGui@@YA_NAEBUImRect@@IW4ImGuiAxis@@PEA_J_J3H@Z
xdata	ENDS
;	COMDAT xdata
xdata	SEGMENT
$chain$9$?ScrollbarEx@ImGui@@YA_NAEBUImRect@@IW4ImGuiAxis@@PEA_J_J3H@Z DQ 0000c980000040021r ; 1.75138e-308
	DD	0d8800H
	DD	imagerel $LN276@ScrollbarE+245
	DD	imagerel $LN276@ScrollbarE+257
	DD	imagerel $chain$1$?ScrollbarEx@ImGui@@YA_NAEBUImRect@@IW4ImGuiAxis@@PEA_J_J3H@Z
xdata	ENDS
;	COMDAT xdata
xdata	SEGMENT
$chain$8$?ScrollbarEx@ImGui@@YA_NAEBUImRect@@IW4ImGuiAxis@@PEA_J_J3H@Z DQ 00007e858000e5821r ; 1.09969e-308
	DQ	0000ab8330008d83cr		; 1.49073e-308
	DQ	0000d8821000c982ar		; 1.88182e-308
	DQ	00020f408000e7810r		; 4.71528e-308
	DD	imagerel $LN276@ScrollbarE+245
	DD	imagerel $LN276@ScrollbarE+257
	DD	imagerel $chain$1$?ScrollbarEx@ImGui@@YA_NAEBUImRect@@IW4ImGuiAxis@@PEA_J_J3H@Z
xdata	ENDS
;	COMDAT xdata
xdata	SEGMENT
$chain$1$?ScrollbarEx@ImGui@@YA_NAEBUImRect@@IW4ImGuiAxis@@PEA_J_J3H@Z DQ 00021e40800020821r ; 4.97603e-308
	DD	imagerel $LN276@ScrollbarE+237
	DD	imagerel $LN276@ScrollbarE+245
	DD	imagerel $chain$0$?ScrollbarEx@ImGui@@YA_NAEBUImRect@@IW4ImGuiAxis@@PEA_J_J3H@Z
xdata	ENDS
;	COMDAT xdata
xdata	SEGMENT
$chain$0$?ScrollbarEx@ImGui@@YA_NAEBUImRect@@IW4ImGuiAxis@@PEA_J_J3H@Z DQ 0002a640800020821r ; 7.34017e-308
	DD	imagerel $LN276@ScrollbarE
	DD	imagerel $LN276@ScrollbarE+237
	DD	imagerel $unwind$?ScrollbarEx@ImGui@@YA_NAEBUImRect@@IW4ImGuiAxis@@PEA_J_J3H@Z
xdata	ENDS
;	COMDAT xdata
xdata	SEGMENT
$unwind$?ScrollbarEx@ImGui@@YA_NAEBUImRect@@IW4ImGuiAxis@@PEA_J_J3H@Z DQ 00009c829000d3819r ; 1.36034e-308
	DQ	0000f6819000ba821r		; 2.14256e-308
	DQ	0c008d00a00220115r		; -3.10158
	DQ	00000500430057006r		; 4.34674e-310
	DD	imagerel __GSHandlerCheck
	DD	060H
xdata	ENDS
;	COMDAT xdata
xdata	SEGMENT
$chain$1$?ShrinkWidths@ImGui@@YAXPEAUImGuiShrinkWidthItem@@HM@Z DD 021H
	DD	imagerel $LN110@ShrinkWidt
	DD	imagerel $LN110@ShrinkWidt+79
	DD	imagerel $unwind$?ShrinkWidths@ImGui@@YAXPEAUImGuiShrinkWidthItem@@HM@Z
xdata	ENDS
;	COMDAT xdata
xdata	SEGMENT
$chain$0$?ShrinkWidths@ImGui@@YAXPEAUImGuiShrinkWidthItem@@HM@Z DQ 00008340500020521r ; 1.1408e-308
	DD	imagerel $LN110@ShrinkWidt
	DD	imagerel $LN110@ShrinkWidt+79
	DD	imagerel $unwind$?ShrinkWidths@ImGui@@YAXPEAUImGuiShrinkWidthItem@@HM@Z
xdata	ENDS
;	COMDAT xdata
xdata	SEGMENT
$unwind$?ShrinkWidths@ImGui@@YAXPEAUImGuiShrinkWidthItem@@HM@Z DQ 00002681500061501r ; 3.34675e-309
	DQ	07006520a0009640ar		; 4.33162e+231
xdata	ENDS
;	COMDAT xdata
xdata	SEGMENT
$chain$6$?BeginComboPopup@ImGui@@YA_NIAEBUImRect@@H@Z DD 021H
	DD	imagerel $LN132@BeginCombo
	DD	imagerel $LN132@BeginCombo+102
	DD	imagerel $unwind$?BeginComboPopup@ImGui@@YA_NIAEBUImRect@@H@Z
xdata	ENDS
;	COMDAT xdata
xdata	SEGMENT
$chain$5$?BeginComboPopup@ImGui@@YA_NIAEBUImRect@@H@Z DQ 0001a340000020021r ; 3.64399e-308
	DD	imagerel $LN132@BeginCombo
	DD	imagerel $LN132@BeginCombo+102
	DD	imagerel $unwind$?BeginComboPopup@ImGui@@YA_NIAEBUImRect@@H@Z
xdata	ENDS
;	COMDAT xdata
xdata	SEGMENT
$chain$4$?BeginComboPopup@ImGui@@YA_NIAEBUImRect@@H@Z DD 021H
	DD	imagerel $LN132@BeginCombo
	DD	imagerel $LN132@BeginCombo+102
	DD	imagerel $unwind$?BeginComboPopup@ImGui@@YA_NIAEBUImRect@@H@Z
xdata	ENDS
;	COMDAT xdata
xdata	SEGMENT
$chain$3$?BeginComboPopup@ImGui@@YA_NIAEBUImRect@@H@Z DD 021H
	DD	imagerel $LN132@BeginCombo+102
	DD	imagerel $LN132@BeginCombo+106
	DD	imagerel $chain$0$?BeginComboPopup@ImGui@@YA_NIAEBUImRect@@H@Z
xdata	ENDS
;	COMDAT xdata
xdata	SEGMENT
$chain$2$?BeginComboPopup@ImGui@@YA_NIAEBUImRect@@H@Z DQ 00009780a00040a21r ; 1.31681e-308
	DD	0a6805H
	DD	imagerel $LN132@BeginCombo+102
	DD	imagerel $LN132@BeginCombo+106
	DD	imagerel $chain$0$?BeginComboPopup@ImGui@@YA_NIAEBUImRect@@H@Z
xdata	ENDS
;	COMDAT xdata
xdata	SEGMENT
$chain$0$?BeginComboPopup@ImGui@@YA_NIAEBUImRect@@H@Z DQ 0001a340400020421r ; 3.644e-308
	DD	imagerel $LN132@BeginCombo
	DD	imagerel $LN132@BeginCombo+102
	DD	imagerel $unwind$?BeginComboPopup@ImGui@@YA_NIAEBUImRect@@H@Z
xdata	ENDS
;	COMDAT xdata
xdata	SEGMENT
$unwind$?BeginComboPopup@ImGui@@YA_NIAEBUImRect@@H@Z DQ 0001c641600072419r ; 3.94825e-308
	DQ	07009e00b00160116r		; 5.02146e+231
	DD	05008H
	DD	imagerel __GSHandlerCheck
	DD	080H
xdata	ENDS
;	COMDAT xdata
xdata	SEGMENT
$unwind$?ImGuiGetNameFromIndexOldToNewCallback@@YAPEBDPEAXH@Z DQ 00000620400011319r ; 5.32451e-310
	DD	imagerel __GSHandlerCheck
	DD	028H
xdata	ENDS
;	COMDAT xdata
xdata	SEGMENT
$chain$2$?DataTypeApplyFromText@ImGui@@YA_NPEBDHPEAX0@Z DD 021H
	DD	imagerel $LN116@DataTypeAp
	DD	imagerel $LN116@DataTypeAp+228
	DD	imagerel $unwind$?DataTypeApplyFromText@ImGui@@YA_NPEBDHPEAX0@Z
xdata	ENDS
;	COMDAT xdata
xdata	SEGMENT
$chain$1$?DataTypeApplyFromText@ImGui@@YA_NPEBDHPEAX0@Z DQ 00015c40800020821r ; 3.0269e-308
	DD	imagerel $LN116@DataTypeAp
	DD	imagerel $LN116@DataTypeAp+228
	DD	imagerel $unwind$?DataTypeApplyFromText@ImGui@@YA_NPEBDHPEAX0@Z
xdata	ENDS
;	COMDAT xdata
xdata	SEGMENT
$unwind$?DataTypeApplyFromText@ImGui@@YA_NPEBDHPEAX0@Z DQ 0000ce43900073919r ; 1.79278e-308
	DQ	0500360047005c209r		; 2.80435e+77
	DD	03002H
	DD	imagerel __GSHandlerCheck
	DD	050H
xdata	ENDS
;	COMDAT xdata
xdata	SEGMENT
$unwind$?DragBehavior@ImGui@@YA_NIHPEAXMPEBX1PEBDH@Z DQ 000046823000a2301r ; 6.12839e-309
	DQ	0000e5414000f6414r		; 1.99261e-308
	DQ	070109214000d3414r		; 6.43155e+231
xdata	ENDS
;	COMDAT xdata
xdata	SEGMENT
$unwind$?ImParseFormatTrimDecorations@@YAPEBDPEBDPEAD_K@Z DQ 0000634b40004b401r ; 8.63033e-309
	DD	070023206H
xdata	ENDS
;	COMDAT xdata
xdata	SEGMENT
$chain$4$?ImParseFormatSanitizeForScanning@@YAPEBDPEBDPEAD_K@Z DQ 00002340000020021r ; 3.06382e-309
	DD	imagerel $LN56@ImParseFor
	DD	imagerel $LN56@ImParseFor+33
	DD	imagerel $unwind$?ImParseFormatSanitizeForScanning@@YAPEBDPEBDPEAD_K@Z
xdata	ENDS
;	COMDAT xdata
xdata	SEGMENT
$chain$2$?ImParseFormatSanitizeForScanning@@YAPEBDPEBDPEAD_K@Z DQ 00000747500067521r ; 6.32631e-310
	DQ	00002340500036467r		; 3.06393e-309
	DD	imagerel $LN56@ImParseFor
	DD	imagerel $LN56@ImParseFor+33
	DD	imagerel $unwind$?ImParseFormatSanitizeForScanning@@YAPEBDPEBDPEAD_K@Z
xdata	ENDS
;	COMDAT xdata
xdata	SEGMENT
$unwind$?ImParseFormatSanitizeForScanning@@YAPEBDPEBDPEAD_K@Z DQ 00000020400010401r ; 1.09495e-311
xdata	ENDS
;	COMDAT xdata
xdata	SEGMENT
$unwind$?TempInputText@ImGui@@YA_NAEBUImRect@@IPEBDPEADHH@Z DQ 0000f6418000a1801r ; 2.14038e-308
	DQ	0000d3418000e5418r		; 1.83617e-308
	DQ	07010e012f0147218r		; 6.5498e+231
xdata	ENDS
;	COMDAT xdata
xdata	SEGMENT
$unwind$?TempInputScalar@ImGui@@YA_NAEBUImRect@@IPEBDHPEAX1PEBX3@Z DQ 0001c3417000b2919r ; 3.92218e-308
	DQ	0e00ef01000140117r		; -5.18509e+154
	DQ	060077008c00ad00cr		; 3.92809e+154
	DD	05006H
	DD	imagerel __GSHandlerCheck
	DD	090H
xdata	ENDS
;	COMDAT xdata
xdata	SEGMENT
$unwind$?STB_TEXTEDIT_LAYOUTROW@ImStb@@YAXPEAUStbTexteditRow@1@PEAUImGuiInputTextState@@H@Z DQ 00000681800041801r ; 5.65469e-310
	DD	030021206H
xdata	ENDS
;	COMDAT xdata
xdata	SEGMENT
$chain$1$?is_word_boundary_from_right@ImStb@@YAHPEAUImGuiInputTextState@@H@Z DD 021H
	DD	imagerel ?is_word_boundary_from_right@ImStb@@YAHPEAUImGuiInputTextState@@H@Z
	DD	imagerel ?is_word_boundary_from_right@ImStb@@YAHPEAUImGuiInputTextState@@H@Z+46
	DD	imagerel $unwind$?is_word_boundary_from_right@ImStb@@YAHPEAUImGuiInputTextState@@H@Z
xdata	ENDS
;	COMDAT xdata
xdata	SEGMENT
$chain$0$?is_word_boundary_from_right@ImStb@@YAHPEAUImGuiInputTextState@@H@Z DQ 00000340400020421r ; 2.82565e-310
	DD	imagerel ?is_word_boundary_from_right@ImStb@@YAHPEAUImGuiInputTextState@@H@Z
	DD	imagerel ?is_word_boundary_from_right@ImStb@@YAHPEAUImGuiInputTextState@@H@Z+46
	DD	imagerel $unwind$?is_word_boundary_from_right@ImStb@@YAHPEAUImGuiInputTextState@@H@Z
xdata	ENDS
;	COMDAT xdata
xdata	SEGMENT
$unwind$?is_word_boundary_from_right@ImStb@@YAHPEAUImGuiInputTextState@@H@Z DQ 00000020400010401r ; 1.09495e-311
xdata	ENDS
;	COMDAT xdata
xdata	SEGMENT
$chain$3$?is_word_boundary_from_left@ImStb@@YAHPEAUImGuiInputTextState@@H@Z DD 021H
	DD	imagerel ?is_word_boundary_from_left@ImStb@@YAHPEAUImGuiInputTextState@@H@Z
	DD	imagerel ?is_word_boundary_from_left@ImStb@@YAHPEAUImGuiInputTextState@@H@Z+35
	DD	imagerel $unwind$?is_word_boundary_from_left@ImStb@@YAHPEAUImGuiInputTextState@@H@Z
xdata	ENDS
;	COMDAT xdata
xdata	SEGMENT
$chain$2$?is_word_boundary_from_left@ImStb@@YAHPEAUImGuiInputTextState@@H@Z DQ 00000740000020021r ; 6.30148e-310
	DD	imagerel ?is_word_boundary_from_left@ImStb@@YAHPEAUImGuiInputTextState@@H@Z
	DD	imagerel ?is_word_boundary_from_left@ImStb@@YAHPEAUImGuiInputTextState@@H@Z+35
	DD	imagerel $unwind$?is_word_boundary_from_left@ImStb@@YAHPEAUImGuiInputTextState@@H@Z
xdata	ENDS
;	COMDAT xdata
xdata	SEGMENT
$chain$1$?is_word_boundary_from_left@ImStb@@YAHPEAUImGuiInputTextState@@H@Z DQ 00000740e00040e21r ; 6.30445e-310
	DD	023405H
	DD	imagerel ?is_word_boundary_from_left@ImStb@@YAHPEAUImGuiInputTextState@@H@Z
	DD	imagerel ?is_word_boundary_from_left@ImStb@@YAHPEAUImGuiInputTextState@@H@Z+35
	DD	imagerel $unwind$?is_word_boundary_from_left@ImStb@@YAHPEAUImGuiInputTextState@@H@Z
xdata	ENDS
;	COMDAT xdata
xdata	SEGMENT
$unwind$?is_word_boundary_from_left@ImStb@@YAHPEAUImGuiInputTextState@@H@Z DQ 00000020400010401r ; 1.09495e-311
xdata	ENDS
;	COMDAT xdata
xdata	SEGMENT
$unwind$?STB_TEXTEDIT_MOVEWORDLEFT_IMPL@ImStb@@YAHPEAUImGuiInputTextState@@H@Z DQ 00006340a00040a01r ; 8.62672e-309
	DD	07006320aH
xdata	ENDS
;	COMDAT xdata
xdata	SEGMENT
$chain$6$?STB_TEXTEDIT_MOVEWORDRIGHT_MAC@ImStb@@YAHPEAUImGuiInputTextState@@H@Z DQ 00000f400000a0021r ; 1.32548e-309
	DQ	00006c4000007e400r		; 9.40876e-309
	DQ	00004540000056400r		; 6.019e-309
	DD	imagerel ?STB_TEXTEDIT_MOVEWORDRIGHT_MAC@ImStb@@YAHPEAUImGuiInputTextState@@H@Z
	DD	imagerel ?STB_TEXTEDIT_MOVEWORDRIGHT_MAC@ImStb@@YAHPEAUImGuiInputTextState@@H@Z+27
	DD	imagerel $unwind$?STB_TEXTEDIT_MOVEWORDRIGHT_MAC@ImStb@@YAHPEAUImGuiInputTextState@@H@Z
xdata	ENDS
;	COMDAT xdata
xdata	SEGMENT
$chain$5$?STB_TEXTEDIT_MOVEWORDRIGHT_MAC@ImStb@@YAHPEAUImGuiInputTextState@@H@Z DD 021H
	DD	imagerel ?STB_TEXTEDIT_MOVEWORDRIGHT_MAC@ImStb@@YAHPEAUImGuiInputTextState@@H@Z
	DD	imagerel ?STB_TEXTEDIT_MOVEWORDRIGHT_MAC@ImStb@@YAHPEAUImGuiInputTextState@@H@Z+27
	DD	imagerel $unwind$?STB_TEXTEDIT_MOVEWORDRIGHT_MAC@ImStb@@YAHPEAUImGuiInputTextState@@H@Z
xdata	ENDS
;	COMDAT xdata
xdata	SEGMENT
$chain$4$?STB_TEXTEDIT_MOVEWORDRIGHT_MAC@ImStb@@YAHPEAUImGuiInputTextState@@H@Z DQ 00000f42e000a2e21r ; 1.32646e-309
	DQ	00006c4150007e420r		; 9.40921e-309
	DQ	0000454050005640ar		; 6.0191e-309
	DD	imagerel ?STB_TEXTEDIT_MOVEWORDRIGHT_MAC@ImStb@@YAHPEAUImGuiInputTextState@@H@Z
	DD	imagerel ?STB_TEXTEDIT_MOVEWORDRIGHT_MAC@ImStb@@YAHPEAUImGuiInputTextState@@H@Z+27
	DD	imagerel $unwind$?STB_TEXTEDIT_MOVEWORDRIGHT_MAC@ImStb@@YAHPEAUImGuiInputTextState@@H@Z
xdata	ENDS
;	COMDAT xdata
xdata	SEGMENT
$unwind$?STB_TEXTEDIT_MOVEWORDRIGHT_MAC@ImStb@@YAHPEAUImGuiInputTextState@@H@Z DQ 07003020700030701r ; 3.68877e+231
	DD	03002H
xdata	ENDS
;	COMDAT xdata
xdata	SEGMENT
$unwind$?STB_TEXTEDIT_MOVEWORDRIGHT_WIN@ImStb@@YAHPEAUImGuiInputTextState@@H@Z DQ 00007640f00060f01r ; 1.02782e-308
	DQ	0700b320f0006340fr		; 5.2777e+231
xdata	ENDS
;	COMDAT xdata
xdata	SEGMENT
$unwind$?STB_TEXTEDIT_MOVEWORDRIGHT_IMPL@ImStb@@YAHPEAUImGuiInputTextState@@H@Z DQ 00007742900062901r ; 1.03657e-308
	DQ	06002320600063421r		; 3.04951e+154
xdata	ENDS
;	COMDAT xdata
xdata	SEGMENT
$unwind$?STB_TEXTEDIT_DELETECHARS@ImStb@@YAXPEAUImGuiInputTextState@@HH@Z DQ 000067418000a1801r ; 8.97468e-309
	DQ	00004541800056418r		; 6.01951e-309
	DQ	0e016f01800033418r		; -7.68866e+154
xdata	ENDS
;	COMDAT xdata
xdata	SEGMENT
$unwind$?STB_TEXTEDIT_INSERTCHARS@ImStb@@YA_NPEAUImGuiInputTextState@@HPEBGH@Z DQ 0000c7490000c9001r ; 1.73213e-308
	DQ	0000d5412000b348br		; 1.85354e-308
	DQ	0d00ae00cf00e3212r		; -3.88992e+77
	DD	06006c008H
xdata	ENDS
;	COMDAT xdata
xdata	SEGMENT
$unwind$?stb_text_locate_coord@ImStb@@YAHPEAUImGuiInputTextState@@MM@Z DQ 00004882b000e2b01r ; 6.30239e-309
	DQ	00006681e00057824r		; 8.90962e-309
	DQ	00011641500127415r		; 2.41851e-308
	DQ	0e011d21500103415r		; -5.97339e+154
xdata	ENDS
;	COMDAT xdata
xdata	SEGMENT
$unwind$?stb_textedit_click@ImStb@@YAXPEAUImGuiInputTextState@@PEAUSTB_TexteditState@1@MM@Z DQ 00004681600061601r ; 6.12811e-309
	DQ	07006920a000c340ar		; 4.38013e+231
xdata	ENDS
;	COMDAT xdata
xdata	SEGMENT
$unwind$?stb_textedit_drag@ImStb@@YAXPEAUImGuiInputTextState@@PEAUSTB_TexteditState@1@MM@Z DQ 00004681600061601r ; 6.12811e-309
	DQ	07006920a000c340ar		; 4.38013e+231
xdata	ENDS
;	COMDAT xdata
xdata	SEGMENT
$chain$1$?stb_textedit_find_charpos@ImStb@@YAXPEAUStbFindState@1@PEAUImGuiInputTextState@@HH@Z DD 021H
	DD	imagerel ?stb_textedit_find_charpos@ImStb@@YAXPEAUStbFindState@1@PEAUImGuiInputTextState@@HH@Z
	DD	imagerel ?stb_textedit_find_charpos@ImStb@@YAXPEAUStbFindState@1@PEAUImGuiInputTextState@@HH@Z+131
	DD	imagerel $unwind$?stb_textedit_find_charpos@ImStb@@YAXPEAUStbFindState@1@PEAUImGuiInputTextState@@HH@Z
xdata	ENDS
;	COMDAT xdata
xdata	SEGMENT
$chain$0$?stb_textedit_find_charpos@ImStb@@YAXPEAUStbFindState@1@PEAUImGuiInputTextState@@HH@Z DQ 0000ce40500020521r ; 1.79267e-308
	DD	imagerel ?stb_textedit_find_charpos@ImStb@@YAXPEAUStbFindState@1@PEAUImGuiInputTextState@@HH@Z
	DD	imagerel ?stb_textedit_find_charpos@ImStb@@YAXPEAUStbFindState@1@PEAUImGuiInputTextState@@HH@Z+131
	DD	imagerel $unwind$?stb_textedit_find_charpos@ImStb@@YAXPEAUStbFindState@1@PEAUImGuiInputTextState@@HH@Z
xdata	ENDS
;	COMDAT xdata
xdata	SEGMENT
$unwind$?stb_textedit_find_charpos@ImStb@@YAXPEAUStbFindState@1@PEAUImGuiInputTextState@@HH@Z DQ 0000f6418000a1801r ; 2.14038e-308
	DQ	0000d3418000e5418r		; 1.83617e-308
	DQ	07010c012f0147218r		; 6.50128e+231
xdata	ENDS
;	COMDAT xdata
xdata	SEGMENT
$unwind$?stb_textedit_delete@ImStb@@YAXPEAUImGuiInputTextState@@PEAUSTB_TexteditState@1@HH@Z DQ 00009741a000a1a01r ; 1.31467e-308
	DQ	00007541a0008641ar		; 1.01916e-308
	DQ	0e016321a0006341ar		; -7.4399e+154
xdata	ENDS
;	COMDAT xdata
xdata	SEGMENT
$unwind$?stb_textedit_delete_selection@ImStb@@YAXPEAUImGuiInputTextState@@PEAUSTB_TexteditState@1@@Z DQ 03002320600020601r ; 1.96423e-77
xdata	ENDS
;	COMDAT xdata
xdata	SEGMENT
$unwind$?stb_textedit_cut@ImStb@@YAHPEAUImGuiInputTextState@@PEAUSTB_TexteditState@1@@Z DQ 03002320600020601r ; 1.96423e-77
xdata	ENDS
;	COMDAT xdata
xdata	SEGMENT
$unwind$?stb_textedit_paste_internal@ImStb@@YAHPEAUImGuiInputTextState@@PEAUSTB_TexteditState@1@PEAGH@Z DQ 00008641400081401r ; 1.1669e-308
	DQ	00006341400075414r		; 8.62693e-309
	DD	070103214H
xdata	ENDS
;	COMDAT xdata
xdata	SEGMENT
$unwind$?stb_textedit_key@ImStb@@YAXPEAUImGuiInputTextState@@PEAUSTB_TexteditState@1@H@Z DQ 00006885400145419r ; 9.0846e-309
	DQ	0000868470007784fr		; 1.16918e-308
	DQ	00013e4340012f43fr		; 2.76624e-308
	DQ	0001d54230014642dr		; 4.07865e-308
	DQ	0c007d00900150110r		; -2.97658
	DD	030047005H
	DD	imagerel __GSHandlerCheck
	DD	058H
xdata	ENDS
;	COMDAT xdata
xdata	SEGMENT
$chain$3$?stb_textedit_discard_undo@ImStb@@YAXPEAUStbUndoState@1@@Z DD 021H
	DD	imagerel ?stb_textedit_discard_undo@ImStb@@YAXPEAUStbUndoState@1@@Z
	DD	imagerel ?stb_textedit_discard_undo@ImStb@@YAXPEAUStbUndoState@1@@Z+29
	DD	imagerel $unwind$?stb_textedit_discard_undo@ImStb@@YAXPEAUStbUndoState@1@@Z
xdata	ENDS
;	COMDAT xdata
xdata	SEGMENT
$chain$2$?stb_textedit_discard_undo@ImStb@@YAXPEAUStbUndoState@1@@Z DD 021H
	DD	imagerel ?stb_textedit_discard_undo@ImStb@@YAXPEAUStbUndoState@1@@Z+29
	DD	imagerel ?stb_textedit_discard_undo@ImStb@@YAXPEAUStbUndoState@1@@Z+47
	DD	imagerel $chain$0$?stb_textedit_discard_undo@ImStb@@YAXPEAUStbUndoState@1@@Z
xdata	ENDS
;	COMDAT xdata
xdata	SEGMENT
$chain$1$?stb_textedit_discard_undo@ImStb@@YAXPEAUStbUndoState@1@@Z DQ 00007640500020521r ; 1.0278e-308
	DD	imagerel ?stb_textedit_discard_undo@ImStb@@YAXPEAUStbUndoState@1@@Z+29
	DD	imagerel ?stb_textedit_discard_undo@ImStb@@YAXPEAUStbUndoState@1@@Z+47
	DD	imagerel $chain$0$?stb_textedit_discard_undo@ImStb@@YAXPEAUStbUndoState@1@@Z
xdata	ENDS
;	COMDAT xdata
xdata	SEGMENT
$chain$0$?stb_textedit_discard_undo@ImStb@@YAXPEAUStbUndoState@1@@Z DQ 00006340500020521r ; 8.62661e-309
	DD	imagerel ?stb_textedit_discard_undo@ImStb@@YAXPEAUStbUndoState@1@@Z
	DD	imagerel ?stb_textedit_discard_undo@ImStb@@YAXPEAUStbUndoState@1@@Z+29
	DD	imagerel $unwind$?stb_textedit_discard_undo@ImStb@@YAXPEAUStbUndoState@1@@Z
xdata	ENDS
;	COMDAT xdata
xdata	SEGMENT
$unwind$?stb_textedit_discard_undo@ImStb@@YAXPEAUStbUndoState@1@@Z DQ 07002320600020601r ; 3.53109e+231
xdata	ENDS
;	COMDAT xdata
xdata	SEGMENT
$chain$3$?stb_textedit_discard_redo@ImStb@@YAXPEAUStbUndoState@1@@Z DD 021H
	DD	imagerel ?stb_textedit_discard_redo@ImStb@@YAXPEAUStbUndoState@1@@Z
	DD	imagerel ?stb_textedit_discard_redo@ImStb@@YAXPEAUStbUndoState@1@@Z+30
	DD	imagerel $unwind$?stb_textedit_discard_redo@ImStb@@YAXPEAUStbUndoState@1@@Z
xdata	ENDS
;	COMDAT xdata
xdata	SEGMENT
$chain$2$?stb_textedit_discard_redo@ImStb@@YAXPEAUStbUndoState@1@@Z DD 021H
	DD	imagerel ?stb_textedit_discard_redo@ImStb@@YAXPEAUStbUndoState@1@@Z+30
	DD	imagerel ?stb_textedit_discard_redo@ImStb@@YAXPEAUStbUndoState@1@@Z+51
	DD	imagerel $chain$0$?stb_textedit_discard_redo@ImStb@@YAXPEAUStbUndoState@1@@Z
xdata	ENDS
;	COMDAT xdata
xdata	SEGMENT
$chain$1$?stb_textedit_discard_redo@ImStb@@YAXPEAUStbUndoState@1@@Z DQ 00007740500020521r ; 1.0365e-308
	DD	imagerel ?stb_textedit_discard_redo@ImStb@@YAXPEAUStbUndoState@1@@Z+30
	DD	imagerel ?stb_textedit_discard_redo@ImStb@@YAXPEAUStbUndoState@1@@Z+51
	DD	imagerel $chain$0$?stb_textedit_discard_redo@ImStb@@YAXPEAUStbUndoState@1@@Z
xdata	ENDS
;	COMDAT xdata
xdata	SEGMENT
$chain$0$?stb_textedit_discard_redo@ImStb@@YAXPEAUStbUndoState@1@@Z DQ 00006640500020521r ; 8.88736e-309
	DD	imagerel ?stb_textedit_discard_redo@ImStb@@YAXPEAUStbUndoState@1@@Z
	DD	imagerel ?stb_textedit_discard_redo@ImStb@@YAXPEAUStbUndoState@1@@Z+30
	DD	imagerel $unwind$?stb_textedit_discard_redo@ImStb@@YAXPEAUStbUndoState@1@@Z
xdata	ENDS
;	COMDAT xdata
xdata	SEGMENT
$unwind$?stb_textedit_discard_redo@ImStb@@YAXPEAUStbUndoState@1@@Z DQ 03002320600020601r ; 1.96423e-77
xdata	ENDS
;	COMDAT xdata
xdata	SEGMENT
$unwind$?stb_text_create_undo_record@ImStb@@YAPEAUStbUndoRecord@1@PEAUStbUndoState@1@H@Z DQ 00009741a000a1a01r ; 1.31467e-308
	DQ	00007541a0008641ar		; 1.01916e-308
	DQ	0e016321a0006341ar		; -7.4399e+154
xdata	ENDS
;	COMDAT xdata
xdata	SEGMENT
$unwind$?stb_text_createundo@ImStb@@YAPEAGPEAUStbUndoState@1@HHH@Z DQ 00008641400081401r ; 1.1669e-308
	DQ	00006341400075414r		; 8.62693e-309
	DD	070103214H
xdata	ENDS
;	COMDAT xdata
xdata	SEGMENT
$chain$4$?stb_text_undo@ImStb@@YAXPEAUImGuiInputTextState@@PEAUSTB_TexteditState@1@@Z DD 021H
	DD	imagerel ?stb_text_undo@ImStb@@YAXPEAUImGuiInputTextState@@PEAUSTB_TexteditState@1@@Z
	DD	imagerel ?stb_text_undo@ImStb@@YAXPEAUImGuiInputTextState@@PEAUSTB_TexteditState@1@@Z+41
	DD	imagerel $unwind$?stb_text_undo@ImStb@@YAXPEAUImGuiInputTextState@@PEAUSTB_TexteditState@1@@Z
xdata	ENDS
;	COMDAT xdata
xdata	SEGMENT
$chain$3$?stb_text_undo@ImStb@@YAXPEAUImGuiInputTextState@@PEAUSTB_TexteditState@1@@Z DQ 0000b742000082021r ; 1.59282e-308
	DQ	0000ce40a0006f40fr		; 1.79268e-308
	DD	0a6405H
	DD	imagerel ?stb_text_undo@ImStb@@YAXPEAUImGuiInputTextState@@PEAUSTB_TexteditState@1@@Z
	DD	imagerel ?stb_text_undo@ImStb@@YAXPEAUImGuiInputTextState@@PEAUSTB_TexteditState@1@@Z+41
	DD	imagerel $unwind$?stb_text_undo@ImStb@@YAXPEAUImGuiInputTextState@@PEAUSTB_TexteditState@1@@Z
xdata	ENDS
;	COMDAT xdata
xdata	SEGMENT
$unwind$?stb_text_undo@ImStb@@YAXPEAUImGuiInputTextState@@PEAUSTB_TexteditState@1@@Z DQ 05003620700030701r ; 2.80549e+77
	DD	03002H
xdata	ENDS
;	COMDAT xdata
xdata	SEGMENT
$chain$3$?stb_text_redo@ImStb@@YAXPEAUImGuiInputTextState@@PEAUSTB_TexteditState@1@@Z DD 021H
	DD	imagerel ?stb_text_redo@ImStb@@YAXPEAUImGuiInputTextState@@PEAUSTB_TexteditState@1@@Z
	DD	imagerel ?stb_text_redo@ImStb@@YAXPEAUImGuiInputTextState@@PEAUSTB_TexteditState@1@@Z+47
	DD	imagerel $unwind$?stb_text_redo@ImStb@@YAXPEAUImGuiInputTextState@@PEAUSTB_TexteditState@1@@Z
xdata	ENDS
;	COMDAT xdata
xdata	SEGMENT
$chain$2$?stb_text_redo@ImStb@@YAXPEAUImGuiInputTextState@@PEAUSTB_TexteditState@1@@Z DQ 0000ce41a00061a21r ; 1.79272e-308
	DQ	0000a5405000b740ar		; 1.43631e-308
	DD	imagerel ?stb_text_redo@ImStb@@YAXPEAUImGuiInputTextState@@PEAUSTB_TexteditState@1@@Z
	DD	imagerel ?stb_text_redo@ImStb@@YAXPEAUImGuiInputTextState@@PEAUSTB_TexteditState@1@@Z+47
	DD	imagerel $unwind$?stb_text_redo@ImStb@@YAXPEAUImGuiInputTextState@@PEAUSTB_TexteditState@1@@Z
xdata	ENDS
;	COMDAT xdata
xdata	SEGMENT
$unwind$?stb_text_redo@ImStb@@YAXPEAUImGuiInputTextState@@PEAUSTB_TexteditState@1@@Z DQ 0f005520900040901r ; -4.13755e+231
	DD	030026003H
xdata	ENDS
;	COMDAT xdata
xdata	SEGMENT
$unwind$?stb_text_makeundo_insert@ImStb@@YAXPEAUSTB_TexteditState@1@HH@Z DQ 00006340a00040a01r ; 8.62672e-309
	DD	07006320aH
xdata	ENDS
;	COMDAT xdata
xdata	SEGMENT
$unwind$?stb_text_makeundo_delete@ImStb@@YAXPEAUImGuiInputTextState@@PEAUSTB_TexteditState@1@HH@Z DQ 00008641400081401r ; 1.1669e-308
	DQ	00006341400075414r		; 8.62693e-309
	DD	070103214H
xdata	ENDS
;	COMDAT xdata
xdata	SEGMENT
$unwind$?stb_text_makeundo_replace@ImStb@@YAXPEAUImGuiInputTextState@@PEAUSTB_TexteditState@1@HHH@Z DQ 00007640f00060f01r ; 1.02782e-308
	DQ	0700b320f0006340fr		; 5.2777e+231
xdata	ENDS
;	COMDAT xdata
xdata	SEGMENT
$unwind$?stb_textedit_paste@ImStb@@YAHPEAUImGuiInputTextState@@PEAUSTB_TexteditState@1@PEBGH@Z DQ 00008641400081401r ; 1.1669e-308
	DQ	00006341400075414r		; 8.62693e-309
	DD	070103214H
xdata	ENDS
;	COMDAT xdata
xdata	SEGMENT
$unwind$?stb_textedit_replace@ImStb@@YAXPEAUImGuiInputTextState@@PEAUSTB_TexteditState@1@PEBGH@Z DQ 00009741a000a1a01r ; 1.31467e-308
	DQ	00007541a0008641ar		; 1.01916e-308
	DQ	0e016321a0006341ar		; -7.4399e+154
xdata	ENDS
;	COMDAT xdata
xdata	SEGMENT
$unwind$?OnKeyPressed@ImGuiInputTextState@@QEAAXH@Z DQ 03002320600020601r ; 1.96423e-77
xdata	ENDS
;	COMDAT xdata
xdata	SEGMENT
$unwind$?InputTextFilterCharacter@@YA_NPEAUImGuiContext@@PEAIHP6AHPEAUImGuiInputTextCallbackData@@@ZPEAX_N@Z DQ 03002d20600021519r ; 2.0317e-77
	DD	imagerel __GSHandlerCheck
	DD	060H
xdata	ENDS
;	COMDAT xdata
xdata	SEGMENT
$unwind$?InputTextReconcileUndoStateAfterUserCallback@@YAXPEAUImGuiInputTextState@@PEBDH@Z DQ 0000f3414000a1401r ; 2.1143e-308
	DQ	0d00ce00ef0103214r		; -4.1794e+77
	DQ	0500660077008c00ar		; 3.23858e+77
xdata	ENDS
;	COMDAT xdata
xdata	SEGMENT
$ip2state$?InputTextEx@ImGui@@YA_NPEBD0PEADHAEBUImVec2@@HP6AHPEAUImGuiInputTextCallbackData@@@ZPEAX@Z DQ 0d50292f900032908r ; -3.2501e+101
	DD	0fa0403H
xdata	ENDS
;	COMDAT xdata
xdata	SEGMENT
$stateUnwindMap$?InputTextEx@ImGui@@YA_NPEBD0PEADHAEBUImVec2@@HP6AHPEAUImGuiInputTextCallbackData@@@ZPEAX@Z DW 0a04H
	DD	imagerel ??1?$ImVector@G@@QEAA@XZ
	DW	0621H
	DB	046H
	DD	imagerel __std_terminate
xdata	ENDS
;	COMDAT xdata
xdata	SEGMENT
$cppxdata$?InputTextEx@ImGui@@YA_NPEBD0PEADHAEBUImVec2@@HP6AHPEAUImGuiInputTextCallbackData@@@ZPEAX@Z DB 028H
	DD	imagerel $stateUnwindMap$?InputTextEx@ImGui@@YA_NPEBD0PEADHAEBUImVec2@@HP6AHPEAUImGuiInputTextCallbackData@@@ZPEAX@Z
	DD	imagerel $ip2state$?InputTextEx@ImGui@@YA_NPEBD0PEADHAEBUImVec2@@HP6AHPEAUImGuiInputTextCallbackData@@@ZPEAX@Z
xdata	ENDS
;	COMDAT xdata
xdata	SEGMENT
$unwind$?InputTextEx@ImGui@@YA_NPEBD0PEADHAEBUImVec2@@HP6AHPEAUImGuiInputTextCallbackData@@@ZPEAX@Z DQ 00022f862001f7319r ; 5.27627e-308
	DQ	00024d8520023e85ar		; 5.79771e-308
	DQ	00026b8420025c84ar		; 6.31914e-308
	DQ	0002898320027a83ar		; 6.84058e-308
	DQ	0002a78280029882dr		; 7.36204e-308
	DQ	000613420002b6824r		; 7.65586e-307
	DQ	0e010f01200580120r		; -5.67746e+154
	DQ	06009700ac00cd00er		; 4.26329e+154
	DD	05008H
	DD	imagerel __GSHandlerCheck_EH4
	DD	imagerel $cppxdata$?InputTextEx@ImGui@@YA_NPEBD0PEADHAEBUImVec2@@HP6AHPEAUImGuiInputTextCallbackData@@@ZPEAX@Z
	DD	0212H
xdata	ENDS
;	COMDAT xdata
xdata	SEGMENT
$unwind$?ColorEditRestoreH@@YAXPEBMPEAM@Z DQ 00000620400010401r ; 5.32451e-310
xdata	ENDS
;	COMDAT xdata
xdata	SEGMENT
$chain$1$?ColorEditRestoreHS@@YAXPEBMPEAM11@Z DD 021H
	DD	imagerel ?ColorEditRestoreHS@@YAXPEBMPEAM11@Z
	DD	imagerel ?ColorEditRestoreHS@@YAXPEBMPEAM11@Z+59
	DD	imagerel $unwind$?ColorEditRestoreHS@@YAXPEBMPEAM11@Z
xdata	ENDS
;	COMDAT xdata
xdata	SEGMENT
$chain$0$?ColorEditRestoreHS@@YAXPEBMPEAM11@Z DQ 00003680500020521r ; 4.73708e-309
	DD	imagerel ?ColorEditRestoreHS@@YAXPEBMPEAM11@Z
	DD	imagerel ?ColorEditRestoreHS@@YAXPEBMPEAM11@Z+59
	DD	imagerel $unwind$?ColorEditRestoreHS@@YAXPEBMPEAM11@Z
xdata	ENDS
;	COMDAT xdata
xdata	SEGMENT
$unwind$?ColorEditRestoreHS@@YAXPEBMPEAM11@Z DQ 00000820400010401r ; 7.06285e-310
xdata	ENDS
;	COMDAT xdata
xdata	SEGMENT
$unwind$?RenderArrowsForVerticalBar@@YAXPEAUImDrawList@@UImVec2@@1MM@Z DQ 00006f84500195319r ; 9.6927e-309
	DQ	00008d8390007e83fr		; 1.23e-308
	DQ	0000ab82c0009c831r		; 1.49072e-308
	DQ	0000c8822000ba827r		; 1.74276e-308
	DQ	0000e6819000d781dr		; 2.00349e-308
	DQ	0001e011500253415r		; 4.1726e-308
	DQ	0000050086009700ar		; 4.34762e-310
	DD	imagerel __GSHandlerCheck
	DD	058H
xdata	ENDS
;	COMDAT xdata
xdata	SEGMENT
$chain$16$?ColorPicker4PS@ImGui@@YA_NPEBDQEAMHPEBM@Z DD 021H
	DD	imagerel $LN1201
	DD	imagerel $LN1201+87
	DD	imagerel $unwind$?ColorPicker4PS@ImGui@@YA_NPEBDQEAMHPEBM@Z
xdata	ENDS
;	COMDAT xdata
xdata	SEGMENT
$chain$15$?ColorPicker4PS@ImGui@@YA_NPEBDQEAMHPEBM@Z DD 0180021H
	DD	01bf800H
	DD	01ce800H
	DD	01dd800H
	DD	01ec800H
	DD	01fb800H
	DD	020a800H
	DD	0219800H
	DD	0228800H
	DD	0237800H
	DD	0246800H
	DD	04af400H
	DD	0516400H
	DD	imagerel $LN1201
	DD	imagerel $LN1201+87
	DD	imagerel $unwind$?ColorPicker4PS@ImGui@@YA_NPEBDQEAMHPEBM@Z
xdata	ENDS
;	COMDAT xdata
xdata	SEGMENT
$chain$14$?ColorPicker4PS@ImGui@@YA_NPEBDQEAMHPEBM@Z DD 01e8721H
	DD	01bf887H
	DD	01ce87eH
	DD	01dd875H
	DD	01ec86cH
	DD	01fb863H
	DD	020a85aH
	DD	0219851H
	DD	0228848H
	DD	023783fH
	DD	0246837H
	DD	04af42fH
	DD	04bc427H
	DD	052741fH
	DD	0516410H
	DD	0503408H
	DD	imagerel $LN1201
	DD	imagerel $LN1201+87
	DD	imagerel $unwind$?ColorPicker4PS@ImGui@@YA_NPEBDQEAMHPEBM@Z
xdata	ENDS
;	COMDAT xdata
xdata	SEGMENT
$unwind$?ColorPicker4PS@ImGui@@YA_NPEBDQEAMHPEBM@Z DD 052619H
	DD	04c0115H
	DD	0d004e006H
	DD	05002H
	DD	imagerel __GSHandlerCheck
	DD	01a0H
xdata	ENDS
;	COMDAT xdata
xdata	SEGMENT
$chain$6$?ColorTooltip@ImGui@@YAXPEBDPEBMH@Z DD 021H
	DD	imagerel $LN85@ColorToolt
	DD	imagerel $LN85@ColorToolt+65
	DD	imagerel $unwind$?ColorTooltip@ImGui@@YAXPEBDPEBMH@Z
xdata	ENDS
;	COMDAT xdata
xdata	SEGMENT
$chain$5$?ColorTooltip@ImGui@@YAXPEBDPEBMH@Z DQ 00018540000020021r ; 3.38324e-308
	DD	imagerel $LN85@ColorToolt+65
	DD	imagerel $LN85@ColorToolt+81
	DD	imagerel $chain$1$?ColorTooltip@ImGui@@YAXPEBDPEBMH@Z
xdata	ENDS
;	COMDAT xdata
xdata	SEGMENT
$chain$4$?ColorTooltip@ImGui@@YAXPEBDPEBMH@Z DQ 00018540800020821r ; 3.38326e-308
	DD	imagerel $LN85@ColorToolt+81
	DD	imagerel $LN85@ColorToolt+435
	DD	imagerel $chain$3$?ColorTooltip@ImGui@@YAXPEBDPEBMH@Z
xdata	ENDS
;	COMDAT xdata
xdata	SEGMENT
$chain$3$?ColorTooltip@ImGui@@YAXPEBDPEBMH@Z DQ 00009781800041821r ; 1.31684e-308
	DD	0a6808H
	DD	imagerel $LN85@ColorToolt+65
	DD	imagerel $LN85@ColorToolt+81
	DD	imagerel $chain$1$?ColorTooltip@ImGui@@YAXPEBDPEBMH@Z
xdata	ENDS
;	COMDAT xdata
xdata	SEGMENT
$chain$1$?ColorTooltip@ImGui@@YAXPEBDPEBMH@Z DQ 00016f41000041021r ; 3.19206e-308
	DD	017e408H
	DD	imagerel $LN85@ColorToolt
	DD	imagerel $LN85@ColorToolt+65
	DD	imagerel $unwind$?ColorTooltip@ImGui@@YAXPEBDPEBMH@Z
xdata	ENDS
;	COMDAT xdata
xdata	SEGMENT
$unwind$?ColorTooltip@ImGui@@YAXPEBDPEBMH@Z DQ 00019010d00061f19r ; 3.47725e-308
	DQ	0300260037004c006r		; 1.98363e-77
	DD	imagerel __GSHandlerCheck
	DD	088H
xdata	ENDS
;	COMDAT xdata
xdata	SEGMENT
$chain$6$?ColorEditOptionsPopup@ImGui@@YAXPEBMH@Z DD 021H
	DD	imagerel $LN158@ColorEditO
	DD	imagerel $LN158@ColorEditO+86
	DD	imagerel $unwind$?ColorEditOptionsPopup@ImGui@@YAXPEBMH@Z
xdata	ENDS
;	COMDAT xdata
xdata	SEGMENT
$chain$5$?ColorEditOptionsPopup@ImGui@@YAXPEBMH@Z DQ 00020e40000020021r ; 4.69786e-308
	DD	imagerel $LN158@ColorEditO
	DD	imagerel $LN158@ColorEditO+86
	DD	imagerel $unwind$?ColorEditOptionsPopup@ImGui@@YAXPEBMH@Z
xdata	ENDS
;	COMDAT xdata
xdata	SEGMENT
$chain$4$?ColorEditOptionsPopup@ImGui@@YAXPEBMH@Z DQ 00021f40800020821r ; 4.99341e-308
	DD	imagerel $LN158@ColorEditO+86
	DD	imagerel $LN158@ColorEditO+472
	DD	imagerel $chain$3$?ColorEditOptionsPopup@ImGui@@YAXPEBMH@Z
xdata	ENDS
;	COMDAT xdata
xdata	SEGMENT
$chain$3$?ColorEditOptionsPopup@ImGui@@YAXPEBMH@Z DQ 0000a782700082721r ; 1.45594e-308
	DQ	00020e410000b681fr		; 4.69793e-308
	DD	01f7408H
	DD	imagerel $LN158@ColorEditO
	DD	imagerel $LN158@ColorEditO+86
	DD	imagerel $unwind$?ColorEditOptionsPopup@ImGui@@YAXPEBMH@Z
xdata	ENDS
;	COMDAT xdata
xdata	SEGMENT
$unwind$?ColorEditOptionsPopup@ImGui@@YAXPEBMH@Z DQ 00018011400072219r ; 3.3382e-308
	DQ	030036004c006d008r		; 2.09158e-77
	DD	05002H
	DD	imagerel __GSHandlerCheck
	DD	090H
xdata	ENDS
;	COMDAT xdata
xdata	SEGMENT
$chain$9$?ColorPickerOptionsPopup@ImGui@@YAXPEBMH@Z DD 021H
	DD	imagerel $LN119@ColorPicke
	DD	imagerel $LN119@ColorPicke+100
	DD	imagerel $unwind$?ColorPickerOptionsPopup@ImGui@@YAXPEBMH@Z
xdata	ENDS
;	COMDAT xdata
xdata	SEGMENT
$chain$8$?ColorPickerOptionsPopup@ImGui@@YAXPEBMH@Z DD 021H
	DD	imagerel $LN119@ColorPicke+100
	DD	imagerel $LN119@ColorPicke+126
	DD	imagerel $chain$1$?ColorPickerOptionsPopup@ImGui@@YAXPEBMH@Z
xdata	ENDS
;	COMDAT xdata
xdata	SEGMENT
$chain$7$?ColorPickerOptionsPopup@ImGui@@YAXPEBMH@Z DD 021H
	DD	imagerel $LN119@ColorPicke+126
	DD	imagerel $LN119@ColorPicke+191
	DD	imagerel $chain$2$?ColorPickerOptionsPopup@ImGui@@YAXPEBMH@Z
xdata	ENDS
;	COMDAT xdata
xdata	SEGMENT
$chain$6$?ColorPickerOptionsPopup@ImGui@@YAXPEBMH@Z DQ 00006782400082421r ; 8.99667e-309
	DQ	00011641000076815r		; 2.4185e-308
	DD	0125408H
	DD	imagerel $LN119@ColorPicke+126
	DD	imagerel $LN119@ColorPicke+191
	DD	imagerel $chain$2$?ColorPickerOptionsPopup@ImGui@@YAXPEBMH@Z
xdata	ENDS
;	COMDAT xdata
xdata	SEGMENT
$chain$2$?ColorPickerOptionsPopup@ImGui@@YAXPEBMH@Z DQ 00005880600020621r ; 7.69228e-309
	DD	imagerel $LN119@ColorPicke+100
	DD	imagerel $LN119@ColorPicke+126
	DD	imagerel $chain$1$?ColorPickerOptionsPopup@ImGui@@YAXPEBMH@Z
xdata	ENDS
;	COMDAT xdata
xdata	SEGMENT
$chain$1$?ColorPickerOptionsPopup@ImGui@@YAXPEBMH@Z DQ 00010741700041721r ; 2.28814e-308
	DD	01a3408H
	DD	imagerel $LN119@ColorPicke
	DD	imagerel $LN119@ColorPicke+100
	DD	imagerel $unwind$?ColorPickerOptionsPopup@ImGui@@YAXPEBMH@Z
xdata	ENDS
;	COMDAT xdata
xdata	SEGMENT
$unwind$?ColorPickerOptionsPopup@ImGui@@YAXPEBMH@Z DQ 00013010f00061e19r ; 2.64285e-308
	DQ	0c002d004e006f008r		; -2.35157
	DD	imagerel __GSHandlerCheck
	DD	048H
xdata	ENDS
;	COMDAT xdata
xdata	SEGMENT
$unwind$?CalcNextTotalWidth@ImGuiMenuColumns@@QEAAX_N@Z DQ 00002740a00040a01r ; 3.4117e-309
	DD	013405H
xdata	ENDS
;	COMDAT xdata
xdata	SEGMENT
$chain$15$?BeginMenuEx@ImGui@@YA_NPEBD0_N@Z DD 021H
	DD	imagerel $LN470@BeginMenuE
	DD	imagerel $LN470@BeginMenuE+280
	DD	imagerel $unwind$?BeginMenuEx@ImGui@@YA_NPEBD0_N@Z
xdata	ENDS
;	COMDAT xdata
xdata	SEGMENT
$chain$14$?BeginMenuEx@ImGui@@YA_NPEBD0_N@Z DQ 0000ae81700041721r ; 1.51675e-308
	DD	0117808H
	DD	imagerel $LN470@BeginMenuE+406
	DD	imagerel $LN470@BeginMenuE+750
	DD	imagerel $chain$12$?BeginMenuEx@ImGui@@YA_NPEBD0_N@Z
xdata	ENDS
;	COMDAT xdata
xdata	SEGMENT
$chain$12$?BeginMenuEx@ImGui@@YA_NPEBD0_N@Z DQ 00010887900107921r ; 2.29921e-308
	DQ	0000bd8000009f800r		; 1.64708e-308
	DQ	0000db800000cc800r		; 1.90783e-308
	DQ	0000f9800000ea800r		; 2.16858e-308
	DD	0126800H
	DD	imagerel $LN470@BeginMenuE
	DD	imagerel $LN470@BeginMenuE+280
	DD	imagerel $unwind$?BeginMenuEx@ImGui@@YA_NPEBD0_N@Z
xdata	ENDS
;	COMDAT xdata
xdata	SEGMENT
$chain$10$?BeginMenuEx@ImGui@@YA_NPEBD0_N@Z DD 021H
	DD	imagerel $LN470@BeginMenuE
	DD	imagerel $LN470@BeginMenuE+280
	DD	imagerel $unwind$?BeginMenuEx@ImGui@@YA_NPEBD0_N@Z
xdata	ENDS
;	COMDAT xdata
xdata	SEGMENT
$chain$9$?BeginMenuEx@ImGui@@YA_NPEBD0_N@Z DQ 00009f83e000e3e21r ; 1.38646e-308
	DQ	0000cc82c000bd835r		; 1.77754e-308
	DQ	0000ea81a000db823r		; 2.03826e-308
	DQ	000126808000f9811r		; 2.55972e-308
	DD	imagerel $LN470@BeginMenuE
	DD	imagerel $LN470@BeginMenuE+280
	DD	imagerel $unwind$?BeginMenuEx@ImGui@@YA_NPEBD0_N@Z
xdata	ENDS
;	COMDAT xdata
xdata	SEGMENT
$unwind$?BeginMenuEx@ImGui@@YA_NPEBD0_N@Z DQ 0002ff4ae000dae01r ; 8.888e-308
	DQ	0002dc466002ee46er		; 8.27927e-308
	DQ	07005d00700260113r		; 4.23306e+231
	DQ	00000500230036004r		; 4.34631e-310
xdata	ENDS
;	COMDAT xdata
xdata	SEGMENT
$chain$11$?MenuItemEx@ImGui@@YA_NPEBD00_N1@Z DQ 00025e40000020021r ; 6.08853e-308
	DD	imagerel $LN203@MenuItemEx
	DD	imagerel $LN203@MenuItemEx+83
	DD	imagerel $unwind$?MenuItemEx@ImGui@@YA_NPEBD00_N1@Z
xdata	ENDS
;	COMDAT xdata
xdata	SEGMENT
$chain$10$?MenuItemEx@ImGui@@YA_NPEBD00_N1@Z DQ 00022340800020821r ; 5.06295e-308
	DD	imagerel $LN203@MenuItemEx+83
	DD	imagerel $LN203@MenuItemEx+355
	DD	imagerel $chain$9$?MenuItemEx@ImGui@@YA_NPEBD00_N1@Z
xdata	ENDS
;	COMDAT xdata
xdata	SEGMENT
$chain$9$?MenuItemEx@ImGui@@YA_NPEBD00_N1@Z DQ 00009a8ab0014ab21r ; 1.34323e-308
	DQ	00007c8410006d850r		; 1.08225e-308
	DQ	0000a98320008b83br		; 1.47335e-308
	DQ	0000c7820000b8829r		; 1.73406e-308
	DQ	00025e410000d6818r		; 6.0886e-308
	DD	024c408H
	DD	imagerel $LN203@MenuItemEx
	DD	imagerel $LN203@MenuItemEx+83
	DD	imagerel $unwind$?MenuItemEx@ImGui@@YA_NPEBD00_N1@Z
xdata	ENDS
;	COMDAT xdata
xdata	SEGMENT
$unwind$?MenuItemEx@ImGui@@YA_NPEBD00_N1@Z DQ 0001c011300071301r ; 3.89446e-308
	DQ	060077008d00af00cr		; 3.92809e+154
	DD	05006H
xdata	ENDS
;	COMDAT xdata
xdata	SEGMENT
$chain$9$?TabBarLayout@ImGui@@YAXPEAUImGuiTabBar@@@Z DD 021H
	DD	imagerel ?TabBarLayout@ImGui@@YAXPEAUImGuiTabBar@@@Z
	DD	imagerel ?TabBarLayout@ImGui@@YAXPEAUImGuiTabBar@@@Z+50
	DD	imagerel $unwind$?TabBarLayout@ImGui@@YAXPEAUImGuiTabBar@@@Z
xdata	ENDS
;	COMDAT xdata
xdata	SEGMENT
$chain$8$?TabBarLayout@ImGui@@YAXPEAUImGuiTabBar@@@Z DQ 0000c680000020021r ; 1.7253e-308
	DD	imagerel ?TabBarLayout@ImGui@@YAXPEAUImGuiTabBar@@@Z+50
	DD	imagerel ?TabBarLayout@ImGui@@YAXPEAUImGuiTabBar@@@Z+63
	DD	imagerel $chain$1$?TabBarLayout@ImGui@@YAXPEAUImGuiTabBar@@@Z
xdata	ENDS
;	COMDAT xdata
xdata	SEGMENT
$chain$7$?TabBarLayout@ImGui@@YAXPEAUImGuiTabBar@@@Z DD 021H
	DD	imagerel ?TabBarLayout@ImGui@@YAXPEAUImGuiTabBar@@@Z+63
	DD	imagerel ?TabBarLayout@ImGui@@YAXPEAUImGuiTabBar@@@Z+745
	DD	imagerel $chain$3$?TabBarLayout@ImGui@@YAXPEAUImGuiTabBar@@@Z
xdata	ENDS
;	COMDAT xdata
xdata	SEGMENT
$chain$6$?TabBarLayout@ImGui@@YAXPEAUImGuiTabBar@@@Z DQ 00008a82d00062d21r ; 1.2039e-308
	DQ	0000a88090009981fr		; 1.46457e-308
	DD	imagerel ?TabBarLayout@ImGui@@YAXPEAUImGuiTabBar@@@Z+63
	DD	imagerel ?TabBarLayout@ImGui@@YAXPEAUImGuiTabBar@@@Z+745
	DD	imagerel $chain$3$?TabBarLayout@ImGui@@YAXPEAUImGuiTabBar@@@Z
xdata	ENDS
;	COMDAT xdata
xdata	SEGMENT
$chain$3$?TabBarLayout@ImGui@@YAXPEAUImGuiTabBar@@@Z DQ 0000c681800041821r ; 1.72535e-308
	DD	023e404H
	DD	imagerel ?TabBarLayout@ImGui@@YAXPEAUImGuiTabBar@@@Z+50
	DD	imagerel ?TabBarLayout@ImGui@@YAXPEAUImGuiTabBar@@@Z+63
	DD	imagerel $chain$1$?TabBarLayout@ImGui@@YAXPEAUImGuiTabBar@@@Z
xdata	ENDS
;	COMDAT xdata
xdata	SEGMENT
$chain$1$?TabBarLayout@ImGui@@YAXPEAUImGuiTabBar@@@Z DQ 00022c40a00040a21r ; 5.21941e-308
	DD	0217404H
	DD	imagerel ?TabBarLayout@ImGui@@YAXPEAUImGuiTabBar@@@Z
	DD	imagerel ?TabBarLayout@ImGui@@YAXPEAUImGuiTabBar@@@Z+50
	DD	imagerel $unwind$?TabBarLayout@ImGui@@YAXPEAUImGuiTabBar@@@Z
xdata	ENDS
;	COMDAT xdata
xdata	SEGMENT
$unwind$?TabBarLayout@ImGui@@YAXPEAUImGuiTabBar@@@Z DQ 0000b781a00092819r ; 1.59498e-308
	DQ	0d008f00a001a0115r		; -3.60948e+77
	DQ	00000500430056006r		; 4.34674e-310
	DD	imagerel __GSHandlerCheck
	DD	070H
xdata	ENDS
;	COMDAT xdata
xdata	SEGMENT
$chain$3$?TabBarCalcTabID@ImGui@@YAIPEAUImGuiTabBar@@PEBDPEAUImGuiWindow@@@Z DD 021H
	DD	imagerel ?TabBarCalcTabID@ImGui@@YAIPEAUImGuiTabBar@@PEBDPEAUImGuiWindow@@@Z
	DD	imagerel ?TabBarCalcTabID@ImGui@@YAIPEAUImGuiTabBar@@PEBDPEAUImGuiWindow@@@Z+72
	DD	imagerel $unwind$?TabBarCalcTabID@ImGui@@YAIPEAUImGuiTabBar@@PEBDPEAUImGuiWindow@@@Z
xdata	ENDS
;	COMDAT xdata
xdata	SEGMENT
$chain$2$?TabBarCalcTabID@ImGui@@YAIPEAUImGuiTabBar@@PEBDPEAUImGuiWindow@@@Z DQ 00007740000020021r ; 1.03648e-308
	DD	imagerel ?TabBarCalcTabID@ImGui@@YAIPEAUImGuiTabBar@@PEBDPEAUImGuiWindow@@@Z
	DD	imagerel ?TabBarCalcTabID@ImGui@@YAIPEAUImGuiTabBar@@PEBDPEAUImGuiWindow@@@Z+72
	DD	imagerel $unwind$?TabBarCalcTabID@ImGui@@YAIPEAUImGuiTabBar@@PEBDPEAUImGuiWindow@@@Z
xdata	ENDS
;	COMDAT xdata
xdata	SEGMENT
$chain$1$?TabBarCalcTabID@ImGui@@YAIPEAUImGuiTabBar@@PEBDPEAUImGuiWindow@@@Z DQ 00007740a00040a21r ; 1.03651e-308
	DD	063405H
	DD	imagerel ?TabBarCalcTabID@ImGui@@YAIPEAUImGuiTabBar@@PEBDPEAUImGuiWindow@@@Z
	DD	imagerel ?TabBarCalcTabID@ImGui@@YAIPEAUImGuiTabBar@@PEBDPEAUImGuiWindow@@@Z+72
	DD	imagerel $unwind$?TabBarCalcTabID@ImGui@@YAIPEAUImGuiTabBar@@PEBDPEAUImGuiWindow@@@Z
xdata	ENDS
;	COMDAT xdata
xdata	SEGMENT
$unwind$?TabBarCalcTabID@ImGui@@YAIPEAUImGuiTabBar@@PEBDPEAUImGuiWindow@@@Z DQ 06002320600020601r ; 3.04951e+154
xdata	ENDS
;	COMDAT xdata
xdata	SEGMENT
$chain$6$?TabBarQueueReorderFromMousePos@ImGui@@YAXPEAUImGuiTabBar@@PEAUImGuiTabItem@@UImVec2@@@Z DD 021H
	DD	imagerel $LN41@TabBarQueu
	DD	imagerel $LN41@TabBarQueu+39
	DD	imagerel $unwind$?TabBarQueueReorderFromMousePos@ImGui@@YAXPEAUImGuiTabBar@@PEAUImGuiTabItem@@UImVec2@@@Z
xdata	ENDS
;	COMDAT xdata
xdata	SEGMENT
$chain$5$?TabBarQueueReorderFromMousePos@ImGui@@YAXPEAUImGuiTabBar@@PEAUImGuiTabItem@@UImVec2@@@Z DD 021H
	DD	imagerel $LN41@TabBarQueu+39
	DD	imagerel $LN41@TabBarQueu+164
	DD	imagerel $chain$2$?TabBarQueueReorderFromMousePos@ImGui@@YAXPEAUImGuiTabBar@@PEAUImGuiTabItem@@UImVec2@@@Z
xdata	ENDS
;	COMDAT xdata
xdata	SEGMENT
$chain$4$?TabBarQueueReorderFromMousePos@ImGui@@YAXPEAUImGuiTabBar@@PEAUImGuiTabItem@@UImVec2@@@Z DQ 00002e41700041721r ; 4.0204e-309
	DD	095405H
	DD	imagerel $LN41@TabBarQueu+39
	DD	imagerel $LN41@TabBarQueu+164
	DD	imagerel $chain$2$?TabBarQueueReorderFromMousePos@ImGui@@YAXPEAUImGuiTabBar@@PEAUImGuiTabItem@@UImVec2@@@Z
xdata	ENDS
;	COMDAT xdata
xdata	SEGMENT
$chain$2$?TabBarQueueReorderFromMousePos@ImGui@@YAXPEAUImGuiTabBar@@PEAUImGuiTabItem@@UImVec2@@@Z DQ 00003740f00060f21r ; 4.80248e-309
	DQ	0000834050004640ar		; 1.1408e-308
	DD	imagerel $LN41@TabBarQueu
	DD	imagerel $LN41@TabBarQueu+39
	DD	imagerel $unwind$?TabBarQueueReorderFromMousePos@ImGui@@YAXPEAUImGuiTabBar@@PEAUImGuiTabItem@@UImVec2@@@Z
xdata	ENDS
;	COMDAT xdata
xdata	SEGMENT
$unwind$?TabBarQueueReorderFromMousePos@ImGui@@YAXPEAUImGuiTabBar@@PEAUImGuiTabItem@@UImVec2@@@Z DQ 0f004420800030801r ; -3.93135e+231
	DD	0c002H
xdata	ENDS
;	COMDAT xdata
xdata	SEGMENT
$chain$4$?TabBarProcessReorder@ImGui@@YA_NPEAUImGuiTabBar@@@Z DD 021H
	DD	imagerel $LN56@TabBarProc
	DD	imagerel $LN56@TabBarProc+183
	DD	imagerel $unwind$?TabBarProcessReorder@ImGui@@YA_NPEAUImGuiTabBar@@@Z
xdata	ENDS
;	COMDAT xdata
xdata	SEGMENT
$chain$3$?TabBarProcessReorder@ImGui@@YA_NPEAUImGuiTabBar@@@Z DQ 00002983300083321r ; 3.60814e-309
	DQ	00004781900038828r		; 6.21509e-309
	DD	056805H
	DD	imagerel $LN56@TabBarProc
	DD	imagerel $LN56@TabBarProc+183
	DD	imagerel $unwind$?TabBarProcessReorder@ImGui@@YA_NPEAUImGuiTabBar@@@Z
xdata	ENDS
;	COMDAT xdata
xdata	SEGMENT
$unwind$?TabBarProcessReorder@ImGui@@YA_NPEAUImGuiTabBar@@@Z DQ 0000f640f00060f01r ; 2.14036e-308
	DQ	0700bb20f000e340fr		; 5.37473e+231
xdata	ENDS
;	COMDAT xdata
xdata	SEGMENT
$unwind$?TabBarScrollingButtons@ImGui@@YAPEAUImGuiTabItem@@PEAUImGuiTabBar@@@Z DQ 00005d894001b9401r ; 8.12988e-309
	DQ	00007b87b0006c881r		; 1.07369e-308
	DQ	00009986d0008a872r		; 1.33441e-308
	DQ	0000b7832000a8839r		; 1.59503e-308
	DQ	00021641b000c682br		; 4.83704e-308
	DQ	0001f341b0020541br		; 4.33939e-308
	DQ	0e012f014001a011br		; -6.34786e+154
	DD	07010H
xdata	ENDS
;	COMDAT xdata
xdata	SEGMENT
$chain$5$?TabBarTabListPopupButton@ImGui@@YAPEAUImGuiTabItem@@PEAUImGuiTabBar@@@Z DD 021H
	DD	imagerel ?TabBarTabListPopupButton@ImGui@@YAPEAUImGuiTabItem@@PEAUImGuiTabBar@@@Z+308
	DD	imagerel ?TabBarTabListPopupButton@ImGui@@YAPEAUImGuiTabItem@@PEAUImGuiTabBar@@@Z+386
	DD	imagerel $chain$1$?TabBarTabListPopupButton@ImGui@@YAPEAUImGuiTabItem@@PEAUImGuiTabBar@@@Z
xdata	ENDS
;	COMDAT xdata
xdata	SEGMENT
$chain$4$?TabBarTabListPopupButton@ImGui@@YAPEAUImGuiTabItem@@PEAUImGuiTabBar@@@Z DD 021H
	DD	imagerel ?TabBarTabListPopupButton@ImGui@@YAPEAUImGuiTabItem@@PEAUImGuiTabBar@@@Z+386
	DD	imagerel ?TabBarTabListPopupButton@ImGui@@YAPEAUImGuiTabItem@@PEAUImGuiTabBar@@@Z+404
	DD	imagerel $chain$2$?TabBarTabListPopupButton@ImGui@@YAPEAUImGuiTabItem@@PEAUImGuiTabBar@@@Z
xdata	ENDS
;	COMDAT xdata
xdata	SEGMENT
$chain$3$?TabBarTabListPopupButton@ImGui@@YAPEAUImGuiTabItem@@PEAUImGuiTabBar@@@Z DQ 00016e40800020821r ; 3.18335e-308
	DD	imagerel ?TabBarTabListPopupButton@ImGui@@YAPEAUImGuiTabItem@@PEAUImGuiTabBar@@@Z+386
	DD	imagerel ?TabBarTabListPopupButton@ImGui@@YAPEAUImGuiTabItem@@PEAUImGuiTabBar@@@Z+404
	DD	imagerel $chain$2$?TabBarTabListPopupButton@ImGui@@YAPEAUImGuiTabItem@@PEAUImGuiTabBar@@@Z
xdata	ENDS
;	COMDAT xdata
xdata	SEGMENT
$chain$2$?TabBarTabListPopupButton@ImGui@@YAPEAUImGuiTabItem@@PEAUImGuiTabBar@@@Z DQ 00015640800020821r ; 2.97475e-308
	DD	imagerel ?TabBarTabListPopupButton@ImGui@@YAPEAUImGuiTabItem@@PEAUImGuiTabBar@@@Z+308
	DD	imagerel ?TabBarTabListPopupButton@ImGui@@YAPEAUImGuiTabItem@@PEAUImGuiTabBar@@@Z+386
	DD	imagerel $chain$1$?TabBarTabListPopupButton@ImGui@@YAPEAUImGuiTabItem@@PEAUImGuiTabBar@@@Z
xdata	ENDS
;	COMDAT xdata
xdata	SEGMENT
$chain$1$?TabBarTabListPopupButton@ImGui@@YAPEAUImGuiTabItem@@PEAUImGuiTabBar@@@Z DD 021H
	DD	imagerel ?TabBarTabListPopupButton@ImGui@@YAPEAUImGuiTabItem@@PEAUImGuiTabBar@@@Z
	DD	imagerel ?TabBarTabListPopupButton@ImGui@@YAPEAUImGuiTabItem@@PEAUImGuiTabBar@@@Z+70
	DD	imagerel $unwind$?TabBarTabListPopupButton@ImGui@@YAPEAUImGuiTabItem@@PEAUImGuiTabBar@@@Z
xdata	ENDS
;	COMDAT xdata
xdata	SEGMENT
$chain$0$?TabBarTabListPopupButton@ImGui@@YAPEAUImGuiTabItem@@PEAUImGuiTabBar@@@Z DQ 00007680400020421r ; 1.02997e-308
	DD	imagerel ?TabBarTabListPopupButton@ImGui@@YAPEAUImGuiTabItem@@PEAUImGuiTabBar@@@Z
	DD	imagerel ?TabBarTabListPopupButton@ImGui@@YAPEAUImGuiTabItem@@PEAUImGuiTabBar@@@Z+70
	DD	imagerel $unwind$?TabBarTabListPopupButton@ImGui@@YAPEAUImGuiTabItem@@PEAUImGuiTabBar@@@Z
xdata	ENDS
;	COMDAT xdata
xdata	SEGMENT
$unwind$?TabBarTabListPopupButton@ImGui@@YAPEAUImGuiTabItem@@PEAUImGuiTabBar@@@Z DQ 000058830000a3001r ; 7.69317e-309
	DQ	00017341200067829r		; 3.22683e-308
	DQ	050087009f00bf212r		; 3.53711e+77
xdata	ENDS
;	COMDAT xdata
xdata	SEGMENT
$unwind$?TabItemCalcSize@ImGui@@YA?AUImVec2@@PEBD_N@Z DQ 0000c640f00060f01r ; 1.72316e-308
	DQ	0700b720f000b340fr		; 5.32621e+231
xdata	ENDS
;	COMDAT xdata
xdata	SEGMENT
$unwind$?erase@?$ImVector@UImGuiTabItem@@@@QEAAPEAUImGuiTabItem@@PEBU2@@Z DQ 00006340a00040a01r ; 8.62672e-309
	DD	07006320aH
xdata	ENDS
;	COMDAT xdata
xdata	SEGMENT
$unwind$?push_back@?$ImVector@UImGuiTabItem@@@@QEAAXAEBUImGuiTabItem@@@Z DQ 00006340a00040a01r ; 8.62672e-309
	DD	07006320aH
xdata	ENDS
;	COMDAT xdata
xdata	SEGMENT
$unwind$?resize@?$ImVector@UImGuiTabItem@@@@QEAAXH@Z DQ 00006340a00040a01r ; 8.62672e-309
	DD	07006320aH
xdata	ENDS
;	COMDAT xdata
xdata	SEGMENT
$chain$4$?resize@?$ImVector@UImGuiShrinkWidthItem@@@@QEAAXH@Z DD 021H
	DD	imagerel $LN36@resize
	DD	imagerel $LN36@resize+26
	DD	imagerel $unwind$?resize@?$ImVector@UImGuiShrinkWidthItem@@@@QEAAXH@Z
xdata	ENDS
;	COMDAT xdata
xdata	SEGMENT
$chain$3$?resize@?$ImVector@UImGuiShrinkWidthItem@@@@QEAAXH@Z DQ 00007640000020021r ; 1.02779e-308
	DD	imagerel $LN36@resize
	DD	imagerel $LN36@resize+26
	DD	imagerel $unwind$?resize@?$ImVector@UImGuiShrinkWidthItem@@@@QEAAXH@Z
xdata	ENDS
;	COMDAT xdata
xdata	SEGMENT
$chain$1$?resize@?$ImVector@UImGuiShrinkWidthItem@@@@QEAAXH@Z DQ 00006543000043021r ; 8.80136e-309
	DD	076405H
	DD	imagerel $LN36@resize
	DD	imagerel $LN36@resize+26
	DD	imagerel $unwind$?resize@?$ImVector@UImGuiShrinkWidthItem@@@@QEAAXH@Z
xdata	ENDS
;	COMDAT xdata
xdata	SEGMENT
$unwind$?resize@?$ImVector@UImGuiShrinkWidthItem@@@@QEAAXH@Z DQ 00008340a00040a01r ; 1.14081e-308
	DD	07006320aH
xdata	ENDS
;	COMDAT xdata
xdata	SEGMENT
$chain$1$?push_back@?$ImVector@UImGuiPtrOrIndex@@@@QEAAXAEBUImGuiPtrOrIndex@@@Z DD 021H
	DD	imagerel $LN33@push_back
	DD	imagerel $LN33@push_back+76
	DD	imagerel $unwind$?push_back@?$ImVector@UImGuiPtrOrIndex@@@@QEAAXAEBUImGuiPtrOrIndex@@@Z
xdata	ENDS
;	COMDAT xdata
xdata	SEGMENT
$chain$0$?push_back@?$ImVector@UImGuiPtrOrIndex@@@@QEAAXAEBUImGuiPtrOrIndex@@@Z DQ 00006640500020521r ; 8.88736e-309
	DD	imagerel $LN33@push_back
	DD	imagerel $LN33@push_back+76
	DD	imagerel $unwind$?push_back@?$ImVector@UImGuiPtrOrIndex@@@@QEAAXAEBUImGuiPtrOrIndex@@@Z
xdata	ENDS
;	COMDAT xdata
xdata	SEGMENT
$unwind$?push_back@?$ImVector@UImGuiPtrOrIndex@@@@QEAAXAEBUImGuiPtrOrIndex@@@Z DQ 00008540f00060f01r ; 1.1582e-308
	DQ	0700b320f0007340fr		; 5.2777e+231
xdata	ENDS
;	COMDAT xdata
xdata	SEGMENT
$unwind$?reserve_discard@?$ImVector@D@@QEAAXH@Z DQ 00006340a00040a01r ; 8.62672e-309
	DD	07006320aH
xdata	ENDS
;	COMDAT xdata
xdata	SEGMENT
$chain$1$?reserve@?$ImVector@UImGuiTabItem@@@@QEAAXH@Z DD 021H
	DD	imagerel $LN24@reserve
	DD	imagerel $LN24@reserve+29
	DD	imagerel $unwind$?reserve@?$ImVector@UImGuiTabItem@@@@QEAAXH@Z
xdata	ENDS
;	COMDAT xdata
xdata	SEGMENT
$chain$0$?reserve@?$ImVector@UImGuiTabItem@@@@QEAAXH@Z DQ 00006640500020521r ; 8.88736e-309
	DD	imagerel $LN24@reserve
	DD	imagerel $LN24@reserve+29
	DD	imagerel $unwind$?reserve@?$ImVector@UImGuiTabItem@@@@QEAAXH@Z
xdata	ENDS
;	COMDAT xdata
xdata	SEGMENT
$unwind$?reserve@?$ImVector@UImGuiTabItem@@@@QEAAXH@Z DQ 00007340a00040a01r ; 1.00174e-308
	DD	07006320aH
xdata	ENDS
;	COMDAT xdata
xdata	SEGMENT
$chain$1$?reserve@?$ImVector@UImGuiShrinkWidthItem@@@@QEAAXH@Z DD 021H
	DD	imagerel $LN24@reserve
	DD	imagerel $LN24@reserve+29
	DD	imagerel $unwind$?reserve@?$ImVector@UImGuiShrinkWidthItem@@@@QEAAXH@Z
xdata	ENDS
;	COMDAT xdata
xdata	SEGMENT
$chain$0$?reserve@?$ImVector@UImGuiShrinkWidthItem@@@@QEAAXH@Z DQ 00006640500020521r ; 8.88736e-309
	DD	imagerel $LN24@reserve
	DD	imagerel $LN24@reserve+29
	DD	imagerel $unwind$?reserve@?$ImVector@UImGuiShrinkWidthItem@@@@QEAAXH@Z
xdata	ENDS
;	COMDAT xdata
xdata	SEGMENT
$unwind$?reserve@?$ImVector@UImGuiShrinkWidthItem@@@@QEAAXH@Z DQ 00007340a00040a01r ; 1.00174e-308
	DD	07006320aH
xdata	ENDS
;	COMDAT xdata
xdata	SEGMENT
$chain$1$?reserve@?$ImVector@UImGuiPtrOrIndex@@@@QEAAXH@Z DD 021H
	DD	imagerel $LN24@reserve
	DD	imagerel $LN24@reserve+28
	DD	imagerel $unwind$?reserve@?$ImVector@UImGuiPtrOrIndex@@@@QEAAXH@Z
xdata	ENDS
;	COMDAT xdata
xdata	SEGMENT
$chain$0$?reserve@?$ImVector@UImGuiPtrOrIndex@@@@QEAAXH@Z DQ 00006640500020521r ; 8.88736e-309
	DD	imagerel $LN24@reserve
	DD	imagerel $LN24@reserve+28
	DD	imagerel $unwind$?reserve@?$ImVector@UImGuiPtrOrIndex@@@@QEAAXH@Z
xdata	ENDS
;	COMDAT xdata
xdata	SEGMENT
$unwind$?reserve@?$ImVector@UImGuiPtrOrIndex@@@@QEAAXH@Z DQ 00007340a00040a01r ; 1.00174e-308
	DD	07006320aH
xdata	ENDS
;	COMDAT xdata
xdata	SEGMENT
$unwind$??$CheckboxFlagsT@H@ImGui@@YA_NPEBDPEAHH@Z DQ 03006320a00020a01r ; 2.39605e-77
xdata	ENDS
;	COMDAT xdata
xdata	SEGMENT
$chain$6$??$DragBehaviorT@HHM@ImGui@@YA_NHPEAHMHHPEBDH@Z DD 021H
	DD	imagerel $LN247@DragBehavi
	DD	imagerel $LN247@DragBehavi+67
	DD	imagerel $unwind$??$DragBehaviorT@HHM@ImGui@@YA_NHPEAHMHHPEBDH@Z
xdata	ENDS
;	COMDAT xdata
xdata	SEGMENT
$chain$5$??$DragBehaviorT@HHM@ImGui@@YA_NHPEAHMHHPEBDH@Z DD 021H
	DD	imagerel $LN247@DragBehavi+67
	DD	imagerel $LN247@DragBehavi+293
	DD	imagerel $chain$0$??$DragBehaviorT@HHM@ImGui@@YA_NHPEAHMHHPEBDH@Z
xdata	ENDS
;	COMDAT xdata
xdata	SEGMENT
$chain$4$??$DragBehaviorT@HHM@ImGui@@YA_NHPEAHMHHPEBDH@Z DD 021H
	DD	imagerel $LN247@DragBehavi+293
	DD	imagerel $LN247@DragBehavi+301
	DD	imagerel $chain$1$??$DragBehaviorT@HHM@ImGui@@YA_NHPEAHMHHPEBDH@Z
xdata	ENDS
;	COMDAT xdata
xdata	SEGMENT
$chain$3$??$DragBehaviorT@HHM@ImGui@@YA_NHPEAHMHHPEBDH@Z DQ 00003880b00040b21r ; 4.91104e-309
	DD	0ce405H
	DD	imagerel $LN247@DragBehavi+293
	DD	imagerel $LN247@DragBehavi+301
	DD	imagerel $chain$1$??$DragBehaviorT@HHM@ImGui@@YA_NHPEAHMHHPEBDH@Z
xdata	ENDS
;	COMDAT xdata
xdata	SEGMENT
$chain$1$??$DragBehaviorT@HHM@ImGui@@YA_NHPEAHMHHPEBDH@Z DQ 00016740800020821r ; 3.12251e-308
	DD	imagerel $LN247@DragBehavi+67
	DD	imagerel $LN247@DragBehavi+293
	DD	imagerel $chain$0$??$DragBehaviorT@HHM@ImGui@@YA_NHPEAHMHHPEBDH@Z
xdata	ENDS
;	COMDAT xdata
xdata	SEGMENT
$chain$0$??$DragBehaviorT@HHM@ImGui@@YA_NHPEAHMHHPEBDH@Z DQ 00004780500020521r ; 6.21467e-309
	DD	imagerel $LN247@DragBehavi
	DD	imagerel $LN247@DragBehavi+67
	DD	imagerel $unwind$??$DragBehaviorT@HHM@ImGui@@YA_NHPEAHMHHPEBDH@Z
xdata	ENDS
;	COMDAT xdata
xdata	SEGMENT
$unwind$??$DragBehaviorT@HHM@ImGui@@YA_NHPEAHMHHPEBDH@Z DQ 00002983c000b3c01r ; 3.60833e-309
	DQ	0f00ac20e00056832r		; -5.19279e+231
	DQ	050036004c006d008r		; 2.80435e+77
	DD	03002H
xdata	ENDS
;	COMDAT xdata
xdata	SEGMENT
$chain$6$??$DragBehaviorT@IHM@ImGui@@YA_NHPEAIMIIPEBDH@Z DD 021H
	DD	imagerel $LN247@DragBehavi
	DD	imagerel $LN247@DragBehavi+67
	DD	imagerel $unwind$??$DragBehaviorT@IHM@ImGui@@YA_NHPEAIMIIPEBDH@Z
xdata	ENDS
;	COMDAT xdata
xdata	SEGMENT
$chain$5$??$DragBehaviorT@IHM@ImGui@@YA_NHPEAIMIIPEBDH@Z DD 021H
	DD	imagerel $LN247@DragBehavi+67
	DD	imagerel $LN247@DragBehavi+294
	DD	imagerel $chain$0$??$DragBehaviorT@IHM@ImGui@@YA_NHPEAIMIIPEBDH@Z
xdata	ENDS
;	COMDAT xdata
xdata	SEGMENT
$chain$4$??$DragBehaviorT@IHM@ImGui@@YA_NHPEAIMIIPEBDH@Z DD 021H
	DD	imagerel $LN247@DragBehavi+294
	DD	imagerel $LN247@DragBehavi+302
	DD	imagerel $chain$1$??$DragBehaviorT@IHM@ImGui@@YA_NHPEAIMIIPEBDH@Z
xdata	ENDS
;	COMDAT xdata
xdata	SEGMENT
$chain$3$??$DragBehaviorT@IHM@ImGui@@YA_NHPEAIMIIPEBDH@Z DQ 00003880b00040b21r ; 4.91104e-309
	DD	0ce405H
	DD	imagerel $LN247@DragBehavi+294
	DD	imagerel $LN247@DragBehavi+302
	DD	imagerel $chain$1$??$DragBehaviorT@IHM@ImGui@@YA_NHPEAIMIIPEBDH@Z
xdata	ENDS
;	COMDAT xdata
xdata	SEGMENT
$chain$1$??$DragBehaviorT@IHM@ImGui@@YA_NHPEAIMIIPEBDH@Z DQ 00016740800020821r ; 3.12251e-308
	DD	imagerel $LN247@DragBehavi+67
	DD	imagerel $LN247@DragBehavi+294
	DD	imagerel $chain$0$??$DragBehaviorT@IHM@ImGui@@YA_NHPEAIMIIPEBDH@Z
xdata	ENDS
;	COMDAT xdata
xdata	SEGMENT
$chain$0$??$DragBehaviorT@IHM@ImGui@@YA_NHPEAIMIIPEBDH@Z DQ 00004780500020521r ; 6.21467e-309
	DD	imagerel $LN247@DragBehavi
	DD	imagerel $LN247@DragBehavi+67
	DD	imagerel $unwind$??$DragBehaviorT@IHM@ImGui@@YA_NHPEAIMIIPEBDH@Z
xdata	ENDS
;	COMDAT xdata
xdata	SEGMENT
$unwind$??$DragBehaviorT@IHM@ImGui@@YA_NHPEAIMIIPEBDH@Z DQ 00002983c000b3c01r ; 3.60833e-309
	DQ	0f00ac20e00056832r		; -5.19279e+231
	DQ	050036004c006d008r		; 2.80435e+77
	DD	03002H
xdata	ENDS
;	COMDAT xdata
xdata	SEGMENT
$chain$6$??$DragBehaviorT@_J_JN@ImGui@@YA_NHPEA_JM_J1PEBDH@Z DD 021H
	DD	imagerel $LN239@DragBehavi
	DD	imagerel $LN239@DragBehavi+68
	DD	imagerel $unwind$??$DragBehaviorT@_J_JN@ImGui@@YA_NHPEA_JM_J1PEBDH@Z
xdata	ENDS
;	COMDAT xdata
xdata	SEGMENT
$chain$5$??$DragBehaviorT@_J_JN@ImGui@@YA_NHPEA_JM_J1PEBDH@Z DD 021H
	DD	imagerel $LN239@DragBehavi+68
	DD	imagerel $LN239@DragBehavi+296
	DD	imagerel $chain$0$??$DragBehaviorT@_J_JN@ImGui@@YA_NHPEA_JM_J1PEBDH@Z
xdata	ENDS
;	COMDAT xdata
xdata	SEGMENT
$chain$4$??$DragBehaviorT@_J_JN@ImGui@@YA_NHPEA_JM_J1PEBDH@Z DD 021H
	DD	imagerel $LN239@DragBehavi+296
	DD	imagerel $LN239@DragBehavi+304
	DD	imagerel $chain$1$??$DragBehaviorT@_J_JN@ImGui@@YA_NHPEA_JM_J1PEBDH@Z
xdata	ENDS
;	COMDAT xdata
xdata	SEGMENT
$chain$3$??$DragBehaviorT@_J_JN@ImGui@@YA_NHPEA_JM_J1PEBDH@Z DQ 00003880b00040b21r ; 4.91104e-309
	DD	0ce405H
	DD	imagerel $LN239@DragBehavi+296
	DD	imagerel $LN239@DragBehavi+304
	DD	imagerel $chain$1$??$DragBehaviorT@_J_JN@ImGui@@YA_NHPEA_JM_J1PEBDH@Z
xdata	ENDS
;	COMDAT xdata
xdata	SEGMENT
$chain$1$??$DragBehaviorT@_J_JN@ImGui@@YA_NHPEA_JM_J1PEBDH@Z DQ 00016740800020821r ; 3.12251e-308
	DD	imagerel $LN239@DragBehavi+68
	DD	imagerel $LN239@DragBehavi+296
	DD	imagerel $chain$0$??$DragBehaviorT@_J_JN@ImGui@@YA_NHPEA_JM_J1PEBDH@Z
xdata	ENDS
;	COMDAT xdata
xdata	SEGMENT
$chain$0$??$DragBehaviorT@_J_JN@ImGui@@YA_NHPEA_JM_J1PEBDH@Z DQ 00004780500020521r ; 6.21467e-309
	DD	imagerel $LN239@DragBehavi
	DD	imagerel $LN239@DragBehavi+68
	DD	imagerel $unwind$??$DragBehaviorT@_J_JN@ImGui@@YA_NHPEA_JM_J1PEBDH@Z
xdata	ENDS
;	COMDAT xdata
xdata	SEGMENT
$unwind$??$DragBehaviorT@_J_JN@ImGui@@YA_NHPEA_JM_J1PEBDH@Z DQ 00002983d000b3d01r ; 3.60835e-309
	DQ	0f00ac20e00056833r		; -5.19279e+231
	DQ	050036004c006d008r		; 2.80435e+77
	DD	03002H
xdata	ENDS
;	COMDAT xdata
xdata	SEGMENT
$chain$6$??$DragBehaviorT@_K_JN@ImGui@@YA_NHPEA_KM_K1PEBDH@Z DD 021H
	DD	imagerel $LN242@DragBehavi
	DD	imagerel $LN242@DragBehavi+68
	DD	imagerel $unwind$??$DragBehaviorT@_K_JN@ImGui@@YA_NHPEA_KM_K1PEBDH@Z
xdata	ENDS
;	COMDAT xdata
xdata	SEGMENT
$chain$5$??$DragBehaviorT@_K_JN@ImGui@@YA_NHPEA_KM_K1PEBDH@Z DD 021H
	DD	imagerel $LN242@DragBehavi+68
	DD	imagerel $LN242@DragBehavi+321
	DD	imagerel $chain$0$??$DragBehaviorT@_K_JN@ImGui@@YA_NHPEA_KM_K1PEBDH@Z
xdata	ENDS
;	COMDAT xdata
xdata	SEGMENT
$chain$4$??$DragBehaviorT@_K_JN@ImGui@@YA_NHPEA_KM_K1PEBDH@Z DD 021H
	DD	imagerel $LN242@DragBehavi+321
	DD	imagerel $LN242@DragBehavi+329
	DD	imagerel $chain$1$??$DragBehaviorT@_K_JN@ImGui@@YA_NHPEA_KM_K1PEBDH@Z
xdata	ENDS
;	COMDAT xdata
xdata	SEGMENT
$chain$3$??$DragBehaviorT@_K_JN@ImGui@@YA_NHPEA_KM_K1PEBDH@Z DQ 00003880b00040b21r ; 4.91104e-309
	DD	0ce405H
	DD	imagerel $LN242@DragBehavi+321
	DD	imagerel $LN242@DragBehavi+329
	DD	imagerel $chain$1$??$DragBehaviorT@_K_JN@ImGui@@YA_NHPEA_KM_K1PEBDH@Z
xdata	ENDS
;	COMDAT xdata
xdata	SEGMENT
$chain$1$??$DragBehaviorT@_K_JN@ImGui@@YA_NHPEA_KM_K1PEBDH@Z DQ 00016740800020821r ; 3.12251e-308
	DD	imagerel $LN242@DragBehavi+68
	DD	imagerel $LN242@DragBehavi+321
	DD	imagerel $chain$0$??$DragBehaviorT@_K_JN@ImGui@@YA_NHPEA_KM_K1PEBDH@Z
xdata	ENDS
;	COMDAT xdata
xdata	SEGMENT
$chain$0$??$DragBehaviorT@_K_JN@ImGui@@YA_NHPEA_KM_K1PEBDH@Z DQ 00004780500020521r ; 6.21467e-309
	DD	imagerel $LN242@DragBehavi
	DD	imagerel $LN242@DragBehavi+68
	DD	imagerel $unwind$??$DragBehaviorT@_K_JN@ImGui@@YA_NHPEA_KM_K1PEBDH@Z
xdata	ENDS
;	COMDAT xdata
xdata	SEGMENT
$unwind$??$DragBehaviorT@_K_JN@ImGui@@YA_NHPEA_KM_K1PEBDH@Z DQ 00002983d000b3d01r ; 3.60835e-309
	DQ	0f00ac20e00056833r		; -5.19279e+231
	DQ	050036004c006d008r		; 2.80435e+77
	DD	03002H
xdata	ENDS
;	COMDAT xdata
xdata	SEGMENT
$chain$6$??$DragBehaviorT@MMM@ImGui@@YA_NHPEAMMMMPEBDH@Z DD 021H
	DD	imagerel $LN322@DragBehavi
	DD	imagerel $LN322@DragBehavi+80
	DD	imagerel $unwind$??$DragBehaviorT@MMM@ImGui@@YA_NHPEAMMMMPEBDH@Z
xdata	ENDS
;	COMDAT xdata
xdata	SEGMENT
$chain$5$??$DragBehaviorT@MMM@ImGui@@YA_NHPEAMMMMPEBDH@Z DD 021H
	DD	imagerel $LN322@DragBehavi+80
	DD	imagerel $LN322@DragBehavi+316
	DD	imagerel $chain$0$??$DragBehaviorT@MMM@ImGui@@YA_NHPEAMMMMPEBDH@Z
xdata	ENDS
;	COMDAT xdata
xdata	SEGMENT
$chain$4$??$DragBehaviorT@MMM@ImGui@@YA_NHPEAMMMMPEBDH@Z DQ 00018740000020021r ; 3.40063e-308
	DD	imagerel $LN322@DragBehavi+80
	DD	imagerel $LN322@DragBehavi+316
	DD	imagerel $chain$0$??$DragBehaviorT@MMM@ImGui@@YA_NHPEAMMMMPEBDH@Z
xdata	ENDS
;	COMDAT xdata
xdata	SEGMENT
$chain$3$??$DragBehaviorT@MMM@ImGui@@YA_NHPEAMMMMPEBDH@Z DQ 00004981600061621r ; 6.38886e-309
	DQ	00016640800187410r		; 3.11382e-308
	DD	imagerel $LN322@DragBehavi+80
	DD	imagerel $LN322@DragBehavi+316
	DD	imagerel $chain$0$??$DragBehaviorT@MMM@ImGui@@YA_NHPEAMMMMPEBDH@Z
xdata	ENDS
;	COMDAT xdata
xdata	SEGMENT
$chain$0$??$DragBehaviorT@MMM@ImGui@@YA_NHPEAMMMMPEBDH@Z DQ 00005880600020621r ; 7.69228e-309
	DD	imagerel $LN322@DragBehavi
	DD	imagerel $LN322@DragBehavi+80
	DD	imagerel $unwind$??$DragBehaviorT@MMM@ImGui@@YA_NHPEAMMMMPEBDH@Z
xdata	ENDS
;	COMDAT xdata
xdata	SEGMENT
$unwind$??$DragBehaviorT@MMM@ImGui@@YA_NHPEAMMMMPEBDH@Z DQ 00002c848000e4801r ; 3.86933e-309
	DQ	00006782f0003b838r		; 8.9969e-309
	DQ	0f009f2100007682ar		; -5.03512e+231
	DQ	030025003c005e007r		; 1.97688e-77
xdata	ENDS
;	COMDAT xdata
xdata	SEGMENT
$chain$6$??$DragBehaviorT@NNN@ImGui@@YA_NHPEANMNNPEBDH@Z DD 021H
	DD	imagerel $LN251@DragBehavi
	DD	imagerel $LN251@DragBehavi+83
	DD	imagerel $unwind$??$DragBehaviorT@NNN@ImGui@@YA_NHPEANMNNPEBDH@Z
xdata	ENDS
;	COMDAT xdata
xdata	SEGMENT
$chain$5$??$DragBehaviorT@NNN@ImGui@@YA_NHPEANMNNPEBDH@Z DD 021H
	DD	imagerel $LN251@DragBehavi+83
	DD	imagerel $LN251@DragBehavi+328
	DD	imagerel $chain$0$??$DragBehaviorT@NNN@ImGui@@YA_NHPEANMNNPEBDH@Z
xdata	ENDS
;	COMDAT xdata
xdata	SEGMENT
$chain$4$??$DragBehaviorT@NNN@ImGui@@YA_NHPEANMNNPEBDH@Z DQ 00010740000020021r ; 2.28809e-308
	DD	imagerel $LN251@DragBehavi+83
	DD	imagerel $LN251@DragBehavi+328
	DD	imagerel $chain$0$??$DragBehaviorT@NNN@ImGui@@YA_NHPEANMNNPEBDH@Z
xdata	ENDS
;	COMDAT xdata
xdata	SEGMENT
$chain$3$??$DragBehaviorT@NNN@ImGui@@YA_NHPEANMNNPEBDH@Z DQ 00006781500061521r ; 8.99635e-309
	DQ	00011640800107410r		; 2.41848e-308
	DD	imagerel $LN251@DragBehavi+83
	DD	imagerel $LN251@DragBehavi+328
	DD	imagerel $chain$0$??$DragBehaviorT@NNN@ImGui@@YA_NHPEANMNNPEBDH@Z
xdata	ENDS
;	COMDAT xdata
xdata	SEGMENT
$chain$0$??$DragBehaviorT@NNN@ImGui@@YA_NHPEANMNNPEBDH@Z DQ 00004980600020621r ; 6.38852e-309
	DD	imagerel $LN251@DragBehavi
	DD	imagerel $LN251@DragBehavi+83
	DD	imagerel $unwind$??$DragBehaviorT@NNN@ImGui@@YA_NHPEANMNNPEBDH@Z
xdata	ENDS
;	COMDAT xdata
xdata	SEGMENT
$unwind$??$DragBehaviorT@NNN@ImGui@@YA_NHPEANMNNPEBDH@Z DQ 00002c84f000f4f01r ; 3.86948e-309
	DQ	0000588300003b83ar		; 7.69317e-309
	DQ	0001201100007682ar		; 2.50379e-308
	DQ	05003c005e007f009r		; 2.85863e+77
	DD	03002H
xdata	ENDS
;	COMDAT xdata
xdata	SEGMENT
$chain$9$??$SliderBehaviorT@HHM@ImGui@@YA_NAEBUImRect@@IHPEAHHHPEBDHPEAU1@@Z DD 021H
	DD	imagerel $LN470@SliderBeha
	DD	imagerel $LN470@SliderBeha+70
	DD	imagerel $unwind$??$SliderBehaviorT@HHM@ImGui@@YA_NAEBUImRect@@IHPEAHHHPEBDHPEAU1@@Z
xdata	ENDS
;	COMDAT xdata
xdata	SEGMENT
$chain$8$??$SliderBehaviorT@HHM@ImGui@@YA_NAEBUImRect@@IHPEAHHHPEBDHPEAU1@@Z DQ 0000d981100041121r ; 1.89048e-308
	DD	0f7808H
	DD	imagerel $LN470@SliderBeha+70
	DD	imagerel $LN470@SliderBeha+325
	DD	imagerel $chain$6$??$SliderBehaviorT@HHM@ImGui@@YA_NAEBUImRect@@IHPEAHHHPEBDHPEAU1@@Z
xdata	ENDS
;	COMDAT xdata
xdata	SEGMENT
$chain$6$??$SliderBehaviorT@HHM@ImGui@@YA_NAEBUImRect@@IHPEAHHHPEBDHPEAU1@@Z DQ 00022f4fa000efa21r ; 5.27257e-308
	DQ	00009d8410023e4edr		; 1.36908e-308
	DQ	0000e881f000ac830r		; 2.02088e-308
	DQ	0002564040024d40fr		; 5.94948e-308
	DD	imagerel $LN470@SliderBeha
	DD	imagerel $LN470@SliderBeha+70
	DD	imagerel $unwind$??$SliderBehaviorT@HHM@ImGui@@YA_NAEBUImRect@@IHPEAHHHPEBDHPEAU1@@Z
xdata	ENDS
;	COMDAT xdata
xdata	SEGMENT
$unwind$??$SliderBehaviorT@HHM@ImGui@@YA_NAEBUImRect@@IHPEAHHHPEBDHPEAU1@@Z DQ 00007f846000f4601r ; 1.10834e-308
	DQ	0000bb8380008e840r		; 1.62981e-308
	DQ	000106825000ca830r		; 2.28165e-308
	DQ	0500570060026010dr		; 3.10288e+77
	DD	03004H
xdata	ENDS
;	COMDAT xdata
xdata	SEGMENT
$chain$9$??$SliderBehaviorT@IHM@ImGui@@YA_NAEBUImRect@@IHPEAIIIPEBDHPEAU1@@Z DD 021H
	DD	imagerel $LN470@SliderBeha
	DD	imagerel $LN470@SliderBeha+70
	DD	imagerel $unwind$??$SliderBehaviorT@IHM@ImGui@@YA_NAEBUImRect@@IHPEAIIIPEBDHPEAU1@@Z
xdata	ENDS
;	COMDAT xdata
xdata	SEGMENT
$chain$8$??$SliderBehaviorT@IHM@ImGui@@YA_NAEBUImRect@@IHPEAIIIPEBDHPEAU1@@Z DQ 0000d981100041121r ; 1.89048e-308
	DD	0f7808H
	DD	imagerel $LN470@SliderBeha+70
	DD	imagerel $LN470@SliderBeha+325
	DD	imagerel $chain$6$??$SliderBehaviorT@IHM@ImGui@@YA_NAEBUImRect@@IHPEAIIIPEBDHPEAU1@@Z
xdata	ENDS
;	COMDAT xdata
xdata	SEGMENT
$chain$6$??$SliderBehaviorT@IHM@ImGui@@YA_NAEBUImRect@@IHPEAIIIPEBDHPEAU1@@Z DQ 00022f4fa000efa21r ; 5.27257e-308
	DQ	00009d8450023e4edr		; 1.36909e-308
	DQ	0000e881f000ac834r		; 2.02088e-308
	DQ	0002564040024d40fr		; 5.94948e-308
	DD	imagerel $LN470@SliderBeha
	DD	imagerel $LN470@SliderBeha+70
	DD	imagerel $unwind$??$SliderBehaviorT@IHM@ImGui@@YA_NAEBUImRect@@IHPEAIIIPEBDHPEAU1@@Z
xdata	ENDS
;	COMDAT xdata
xdata	SEGMENT
$unwind$??$SliderBehaviorT@IHM@ImGui@@YA_NAEBUImRect@@IHPEAIIIPEBDHPEAU1@@Z DQ 00007f846000f4601r ; 1.10834e-308
	DQ	0000bb8380008e840r		; 1.62981e-308
	DQ	000106825000ca830r		; 2.28165e-308
	DQ	0500570060026010dr		; 3.10288e+77
	DD	03004H
xdata	ENDS
;	COMDAT xdata
xdata	SEGMENT
$chain$11$??$SliderBehaviorT@_J_JN@ImGui@@YA_NAEBUImRect@@IHPEA_J_J2PEBDHPEAU1@@Z DD 021H
	DD	imagerel $LN451@SliderBeha
	DD	imagerel $LN451@SliderBeha+62
	DD	imagerel $unwind$??$SliderBehaviorT@_J_JN@ImGui@@YA_NAEBUImRect@@IHPEA_J_J2PEBDHPEAU1@@Z
xdata	ENDS
;	COMDAT xdata
xdata	SEGMENT
$chain$10$??$SliderBehaviorT@_J_JN@ImGui@@YA_NAEBUImRect@@IHPEA_J_J2PEBDHPEAU1@@Z DQ 00007f80000120021r ; 1.10819e-308
	DQ	0000bb8000009d800r		; 1.62969e-308
	DQ	000106800000d9800r		; 2.28157e-308
	DQ	00023e4000022f400r		; 5.53226e-308
	DQ	000296400002ad400r		; 7.062e-308
	DD	imagerel $LN451@SliderBeha
	DD	imagerel $LN451@SliderBeha+62
	DD	imagerel $unwind$??$SliderBehaviorT@_J_JN@ImGui@@YA_NAEBUImRect@@IHPEA_J_J2PEBDHPEAU1@@Z
xdata	ENDS
;	COMDAT xdata
xdata	SEGMENT
$chain$9$??$SliderBehaviorT@_J_JN@ImGui@@YA_NAEBUImRect@@IHPEA_J_J2PEBDHPEAU1@@Z DD 021H
	DD	imagerel $LN451@SliderBeha
	DD	imagerel $LN451@SliderBeha+62
	DD	imagerel $unwind$??$SliderBehaviorT@_J_JN@ImGui@@YA_NAEBUImRect@@IHPEA_J_J2PEBDHPEAU1@@Z
xdata	ENDS
;	COMDAT xdata
xdata	SEGMENT
$chain$8$??$SliderBehaviorT@_J_JN@ImGui@@YA_NAEBUImRect@@IHPEA_J_J2PEBDHPEAU1@@Z DQ 0000bb8f00012f021r ; 1.6302e-308
	DQ	00023e4c9001068e4r		; 5.53312e-308
	DQ	00009d83e0007f85cr		; 1.36907e-308
	DQ	00022f41e000d9832r		; 5.27164e-308
	DQ	000296404002ad40fr		; 7.06202e-308
	DD	imagerel $LN451@SliderBeha
	DD	imagerel $LN451@SliderBeha+62
	DD	imagerel $unwind$??$SliderBehaviorT@_J_JN@ImGui@@YA_NAEBUImRect@@IHPEA_J_J2PEBDHPEAU1@@Z
xdata	ENDS
;	COMDAT xdata
xdata	SEGMENT
$unwind$??$SliderBehaviorT@_J_JN@ImGui@@YA_NAEBUImRect@@IHPEA_J_J2PEBDHPEAU1@@Z DQ 00008e83e000f3e01r ; 1.2387e-308
	DQ	0000ca82e000ac836r		; 1.76017e-308
	DQ	0000f7824000e8829r		; 2.15127e-308
	DQ	0500570060024010dr		; 3.10288e+77
	DD	03004H
xdata	ENDS
;	COMDAT xdata
xdata	SEGMENT
$chain$9$??$SliderBehaviorT@_K_JN@ImGui@@YA_NAEBUImRect@@IHPEA_K_K2PEBDHPEAU1@@Z DD 021H
	DD	imagerel $LN451@SliderBeha
	DD	imagerel $LN451@SliderBeha+62
	DD	imagerel $unwind$??$SliderBehaviorT@_K_JN@ImGui@@YA_NAEBUImRect@@IHPEA_K_K2PEBDHPEAU1@@Z
xdata	ENDS
;	COMDAT xdata
xdata	SEGMENT
$chain$8$??$SliderBehaviorT@_K_JN@ImGui@@YA_NAEBUImRect@@IHPEA_K_K2PEBDHPEAU1@@Z DQ 0000cb81100041121r ; 1.7688e-308
	DD	0116808H
	DD	imagerel $LN451@SliderBeha+62
	DD	imagerel $LN451@SliderBeha+317
	DD	imagerel $chain$6$??$SliderBehaviorT@_K_JN@ImGui@@YA_NAEBUImRect@@IHPEA_K_K2PEBDHPEAU1@@Z
xdata	ENDS
;	COMDAT xdata
xdata	SEGMENT
$chain$6$??$SliderBehaviorT@_K_JN@ImGui@@YA_NAEBUImRect@@IHPEA_K_K2PEBDHPEAU1@@Z DQ 00008f844000e4421r ; 1.2474e-308
	DQ	0000f882d000ad838r		; 2.15998e-308
	DQ	00025e41e0024f425r		; 6.08866e-308
	DQ	0002b6404002cd40fr		; 7.61829e-308
	DD	imagerel $LN451@SliderBeha
	DD	imagerel $LN451@SliderBeha+62
	DD	imagerel $unwind$??$SliderBehaviorT@_K_JN@ImGui@@YA_NAEBUImRect@@IHPEA_K_K2PEBDHPEAU1@@Z
xdata	ENDS
;	COMDAT xdata
xdata	SEGMENT
$unwind$??$SliderBehaviorT@_K_JN@ImGui@@YA_NAEBUImRect@@IHPEA_K_K2PEBDHPEAU1@@Z DQ 00009e83e000f3e01r ; 1.37777e-308
	DQ	0000da82e000bc836r		; 1.89923e-308
	DQ	000107824000e9829r		; 2.29034e-308
	DQ	0500570060026010dr		; 3.10288e+77
	DD	03004H
xdata	ENDS
;	COMDAT xdata
xdata	SEGMENT
$chain$11$??$SliderBehaviorT@MMM@ImGui@@YA_NAEBUImRect@@IHPEAMMMPEBDHPEAU1@@Z DD 021H
	DD	imagerel $LN493@SliderBeha
	DD	imagerel $LN493@SliderBeha+72
	DD	imagerel $unwind$??$SliderBehaviorT@MMM@ImGui@@YA_NAEBUImRect@@IHPEAMMMPEBDHPEAU1@@Z
xdata	ENDS
;	COMDAT xdata
xdata	SEGMENT
$chain$10$??$SliderBehaviorT@MMM@ImGui@@YA_NAEBUImRect@@IHPEAMMMPEBDHPEAU1@@Z DQ 00006f80000120021r ; 9.69124e-309
	DQ	0000ab8000009c800r		; 1.49063e-308
	DQ	0000c9800000ba800r		; 1.75138e-308
	DQ	0002174000020f400r		; 4.85431e-308
	DQ	00027340000286400r		; 6.45358e-308
	DD	imagerel $LN493@SliderBeha
	DD	imagerel $LN493@SliderBeha+72
	DD	imagerel $unwind$??$SliderBehaviorT@MMM@ImGui@@YA_NAEBUImRect@@IHPEAMMMPEBDHPEAU1@@Z
xdata	ENDS
;	COMDAT xdata
xdata	SEGMENT
$chain$9$??$SliderBehaviorT@MMM@ImGui@@YA_NAEBUImRect@@IHPEAMMMPEBDHPEAU1@@Z DD 021H
	DD	imagerel $LN493@SliderBeha
	DD	imagerel $LN493@SliderBeha+72
	DD	imagerel $unwind$??$SliderBehaviorT@MMM@ImGui@@YA_NAEBUImRect@@IHPEAMMMPEBDHPEAU1@@Z
xdata	ENDS
;	COMDAT xdata
xdata	SEGMENT
$chain$8$??$SliderBehaviorT@MMM@ImGui@@YA_NAEBUImRect@@IHPEAMMMPEBDHPEAU1@@Z DQ 00009c8cf0012cf21r ; 1.36069e-308
	DQ	0002174b2000c98c3r		; 4.85507e-308
	DQ	00006f83a00286498r		; 9.69247e-309
	DQ	0000ba81f000ab827r		; 1.62107e-308
	DQ	0002734040020f40fr		; 6.4536e-308
	DD	imagerel $LN493@SliderBeha
	DD	imagerel $LN493@SliderBeha+72
	DD	imagerel $unwind$??$SliderBehaviorT@MMM@ImGui@@YA_NAEBUImRect@@IHPEAMMMPEBDHPEAU1@@Z
xdata	ENDS
;	COMDAT xdata
xdata	SEGMENT
$unwind$??$SliderBehaviorT@MMM@ImGui@@YA_NAEBUImRect@@IHPEAMMMPEBDHPEAU1@@Z DQ 00007e848000f4801r ; 1.09965e-308
	DQ	0000d882c0008d842r		; 1.88185e-308
	DQ	0000f6814000e781br		; 2.14255e-308
	DQ	0d007e00900220110r		; -3.45569e+77
	DD	0c005H
xdata	ENDS
;	COMDAT xdata
xdata	SEGMENT
$chain$11$??$SliderBehaviorT@NNN@ImGui@@YA_NAEBUImRect@@IHPEANNNPEBDHPEAU1@@Z DD 021H
	DD	imagerel $LN477@SliderBeha
	DD	imagerel $LN477@SliderBeha+71
	DD	imagerel $unwind$??$SliderBehaviorT@NNN@ImGui@@YA_NAEBUImRect@@IHPEANNNPEBDHPEAU1@@Z
xdata	ENDS
;	COMDAT xdata
xdata	SEGMENT
$chain$10$??$SliderBehaviorT@NNN@ImGui@@YA_NAEBUImRect@@IHPEANNNPEBDHPEAU1@@Z DQ 00006f80000120021r ; 9.69124e-309
	DQ	0000ab8000008d800r		; 1.49063e-308
	DQ	0000d8800000ba800r		; 1.88175e-308
	DQ	0002174000020f400r		; 4.85431e-308
	DQ	00027340000286400r		; 6.45358e-308
	DD	imagerel $LN477@SliderBeha
	DD	imagerel $LN477@SliderBeha+71
	DD	imagerel $unwind$??$SliderBehaviorT@NNN@ImGui@@YA_NAEBUImRect@@IHPEANNNPEBDHPEAU1@@Z
xdata	ENDS
;	COMDAT xdata
xdata	SEGMENT
$chain$9$??$SliderBehaviorT@NNN@ImGui@@YA_NAEBUImRect@@IHPEANNNPEBDHPEAU1@@Z DD 021H
	DD	imagerel $LN477@SliderBeha
	DD	imagerel $LN477@SliderBeha+71
	DD	imagerel $unwind$??$SliderBehaviorT@NNN@ImGui@@YA_NAEBUImRect@@IHPEANNNPEBDHPEAU1@@Z
xdata	ENDS
;	COMDAT xdata
xdata	SEGMENT
$chain$8$??$SliderBehaviorT@NNN@ImGui@@YA_NAEBUImRect@@IHPEANNNPEBDHPEAU1@@Z DQ 00008d8d10012d121r ; 1.23032e-308
	DQ	0002174b3000d88c4r		; 4.85507e-308
	DQ	00006f83a00286499r		; 9.69247e-309
	DQ	0000ba81f000ab827r		; 1.62107e-308
	DQ	0002734040020f40fr		; 6.4536e-308
	DD	imagerel $LN477@SliderBeha
	DD	imagerel $LN477@SliderBeha+71
	DD	imagerel $unwind$??$SliderBehaviorT@NNN@ImGui@@YA_NAEBUImRect@@IHPEANNNPEBDHPEAU1@@Z
xdata	ENDS
;	COMDAT xdata
xdata	SEGMENT
$unwind$??$SliderBehaviorT@NNN@ImGui@@YA_NAEBUImRect@@IHPEANNNPEBDHPEAU1@@Z DQ 00007e847000f4701r ; 1.09965e-308
	DQ	0000c98390009c841r		; 1.7515e-308
	DQ	0000f6814000e7827r		; 2.14255e-308
	DQ	0d007e00900220110r		; -3.45569e+77
	DD	0c005H
xdata	ENDS
;	COMDAT xdata
xdata	SEGMENT
$unwind$??$ImAtoi@H@@YAPEBDPEBDPEAH@Z DQ 00001340500020501r ; 1.67326e-309
xdata	ENDS
;	COMDAT xdata
xdata	SEGMENT
$unwind$??$RoundScalarWithFormatT@H@ImGui@@YAHPEBDHH@Z DQ 00012010900031b19r ; 2.50377e-308
	DD	03002H
	DD	imagerel __GSHandlerCheck
	DD	080H
xdata	ENDS
;	COMDAT xdata
xdata	SEGMENT
$unwind$??$RoundScalarWithFormatT@I@ImGui@@YAIPEBDHI@Z DQ 00012010900031b19r ; 2.50377e-308
	DD	03002H
	DD	imagerel __GSHandlerCheck
	DD	080H
xdata	ENDS
;	COMDAT xdata
xdata	SEGMENT
$unwind$??$RoundScalarWithFormatT@_J@ImGui@@YA_JPEBDH_J@Z DQ 00012010900031b19r ; 2.50377e-308
	DD	03002H
	DD	imagerel __GSHandlerCheck
	DD	080H
xdata	ENDS
;	COMDAT xdata
xdata	SEGMENT
$unwind$??$RoundScalarWithFormatT@_K@ImGui@@YA_KPEBDH_K@Z DQ 00012010900031b19r ; 2.50377e-308
	DD	03002H
	DD	imagerel __GSHandlerCheck
	DD	080H
xdata	ENDS
;	COMDAT xdata
xdata	SEGMENT
$unwind$??$RoundScalarWithFormatT@M@ImGui@@YAMPEBDHM@Z DQ 00013010700021919r ; 2.64283e-308
	DD	imagerel __GSHandlerCheck
	DD	080H
xdata	ENDS
;	COMDAT xdata
xdata	SEGMENT
$unwind$??$RoundScalarWithFormatT@N@ImGui@@YANPEBDHN@Z DQ 00013010700021919r ; 2.64283e-308
	DD	imagerel __GSHandlerCheck
	DD	080H
; Function compile flags: /Ogtpy
; File C:\dev\Photo Studio\Photo Studio\Dependencies\imgui\imgui_widgets.cpp
; File C:\dev\Photo Studio\Photo Studio\Dependencies\imgui\imgui_internal.h
; File C:\dev\Photo Studio\Photo Studio\Dependencies\imgui\imgui_widgets.cpp
; File C:\dev\Photo Studio\Photo Studio\Dependencies\imgui\imgui_internal.h
; File C:\dev\Photo Studio\Photo Studio\Dependencies\imgui\imgui_widgets.cpp
; File C:\dev\Photo Studio\Photo Studio\Dependencies\imgui\imgui_internal.h
; File C:\dev\Photo Studio\Photo Studio\Dependencies\imgui\imgui_widgets.cpp
; File C:\dev\Photo Studio\Photo Studio\Dependencies\imgui\imgui.h
; File C:\dev\Photo Studio\Photo Studio\Dependencies\imgui\imgui_widgets.cpp
; File C:\dev\Photo Studio\Photo Studio\Dependencies\imgui\imgui.cpp
; File C:\dev\Photo Studio\Photo Studio\Dependencies\imgui\imgui_widgets.cpp
; File C:\dev\Photo Studio\Photo Studio\Dependencies\imgui\imgui.cpp
; File C:\dev\Photo Studio\Photo Studio\Dependencies\imgui\imgui_widgets.cpp
; File C:\dev\Photo Studio\Photo Studio\Dependencies\imgui\imgui.cpp
; File C:\dev\Photo Studio\Photo Studio\Dependencies\imgui\imgui_widgets.cpp
; File C:\dev\Photo Studio\Photo Studio\Dependencies\imgui\imgui.cpp
; File C:\dev\Photo Studio\Photo Studio\Dependencies\imgui\imgui_widgets.cpp
; File C:\dev\Photo Studio\Photo Studio\Dependencies\imgui\imgui.cpp
; File C:\dev\Photo Studio\Photo Studio\Dependencies\imgui\imgui_internal.h
; File C:\dev\Photo Studio\Photo Studio\Dependencies\imgui\imgui_widgets.cpp
; File C:\dev\Photo Studio\Photo Studio\Dependencies\imgui\imgui_internal.h
; File C:\dev\Photo Studio\Photo Studio\Dependencies\imgui\imgui_widgets.cpp
; File C:\dev\Photo Studio\Photo Studio\Dependencies\imgui\imgui_internal.h
; File C:\dev\Photo Studio\Photo Studio\Dependencies\imgui\imgui_widgets.cpp
; File C:\dev\Photo Studio\Photo Studio\Dependencies\imgui\imgui.h
; File C:\dev\Photo Studio\Photo Studio\Dependencies\imgui\imgui_widgets.cpp
; File C:\dev\Photo Studio\Photo Studio\Dependencies\imgui\imgui.h
; File C:\dev\Photo Studio\Photo Studio\Dependencies\imgui\imgui_widgets.cpp
; File C:\dev\Photo Studio\Photo Studio\Dependencies\imgui\imgui.h
; File C:\dev\Photo Studio\Photo Studio\Dependencies\imgui\imgui_widgets.cpp
; File C:\dev\Photo Studio\Photo Studio\Dependencies\imgui\imgui.h
; File C:\dev\Photo Studio\Photo Studio\Dependencies\imgui\imgui_widgets.cpp
; File C:\dev\Photo Studio\Photo Studio\Dependencies\imgui\imgui.h
; File C:\dev\Photo Studio\Photo Studio\Dependencies\imgui\imgui_widgets.cpp
; File C:\dev\Photo Studio\Photo Studio\Dependencies\imgui\imgui.h
; File C:\dev\Photo Studio\Photo Studio\Dependencies\imgui\imgui_widgets.cpp
; File C:\dev\Photo Studio\Photo Studio\Dependencies\imgui\imgui.h
; File C:\dev\Photo Studio\Photo Studio\Dependencies\imgui\imgui_widgets.cpp
; File C:\dev\Photo Studio\Photo Studio\Dependencies\imgui\imgui.cpp
; File C:\dev\Photo Studio\Photo Studio\Dependencies\imgui\imgui_internal.h
; File C:\dev\Photo Studio\Photo Studio\Dependencies\imgui\imgui.cpp
; File C:\dev\Photo Studio\Photo Studio\Dependencies\imgui\imgui_internal.h
; File C:\dev\Photo Studio\Photo Studio\Dependencies\imgui\imgui.cpp
; File C:\dev\Photo Studio\Photo Studio\Dependencies\imgui\imgui_internal.h
; File C:\dev\Photo Studio\Photo Studio\Dependencies\imgui\imgui.cpp
; File C:\dev\Photo Studio\Photo Studio\Dependencies\imgui\imgui_widgets.cpp
; File C:\dev\Photo Studio\Photo Studio\Dependencies\imgui\imgui.cpp
; File C:\Program Files (x86)\Windows Kits\10\Include\10.0.22000.0\ucrt\corecrt_math.h
; File C:\dev\Photo Studio\Photo Studio\Dependencies\imgui\imgui.cpp
; File C:\Program Files (x86)\Windows Kits\10\Include\10.0.22000.0\ucrt\corecrt_math.h
; File C:\dev\Photo Studio\Photo Studio\Dependencies\imgui\imgui_widgets.cpp
; File C:\dev\Photo Studio\Photo Studio\Dependencies\imgui\imgui.h
; File C:\dev\Photo Studio\Photo Studio\Dependencies\imgui\imgui_widgets.cpp
; File C:\dev\Photo Studio\Photo Studio\Dependencies\imgui\imgui.cpp
; File C:\dev\Photo Studio\Photo Studio\Dependencies\imgui\imgui_widgets.cpp
; File C:\dev\Photo Studio\Photo Studio\Dependencies\imgui\imgui.cpp
; File C:\dev\Photo Studio\Photo Studio\Dependencies\imgui\imgui_widgets.cpp
; File C:\dev\Photo Studio\Photo Studio\Dependencies\imgui\imgui.h
; File C:\dev\Photo Studio\Photo Studio\Dependencies\imgui\imgui_widgets.cpp
; File C:\dev\Photo Studio\Photo Studio\Dependencies\imgui\imgui.h
; File C:\dev\Photo Studio\Photo Studio\Dependencies\imgui\imgui_widgets.cpp
; File C:\dev\Photo Studio\Photo Studio\Dependencies\imgui\imgui.h
; File C:\dev\Photo Studio\Photo Studio\Dependencies\imgui\imgui_widgets.cpp
; File C:\dev\Photo Studio\Photo Studio\Dependencies\imgui\imgui.h
; File C:\dev\Photo Studio\Photo Studio\Dependencies\imgui\imgui_widgets.cpp
; File C:\dev\Photo Studio\Photo Studio\Dependencies\imgui\imgui.h
; File C:\dev\Photo Studio\Photo Studio\Dependencies\imgui\imgui_widgets.cpp
; File C:\dev\Photo Studio\Photo Studio\Dependencies\imgui\imgui.h
; File C:\dev\Photo Studio\Photo Studio\Dependencies\imgui\imgui_widgets.cpp
; File C:\dev\Photo Studio\Photo Studio\Dependencies\imgui\imgui.cpp
; File C:\dev\Photo Studio\Photo Studio\Dependencies\imgui\imgui_widgets.cpp
; File C:\dev\Photo Studio\Photo Studio\Dependencies\imgui\imgui.h
; File C:\dev\Photo Studio\Photo Studio\Dependencies\imgui\imgui_widgets.cpp
; File C:\dev\Photo Studio\Photo Studio\Dependencies\imgui\imgui.h
; File C:\dev\Photo Studio\Photo Studio\Dependencies\imgui\imgui_widgets.cpp
; File C:\dev\Photo Studio\Photo Studio\Dependencies\imgui\imgui.h
; File C:\dev\Photo Studio\Photo Studio\Dependencies\imgui\imgui_internal.h
; File C:\dev\Photo Studio\Photo Studio\Dependencies\imgui\imgui.h
; File C:\dev\Photo Studio\Photo Studio\Dependencies\imgui\imgui_internal.h
; File C:\dev\Photo Studio\Photo Studio\Dependencies\imgui\imgui.h
; File C:\dev\Photo Studio\Photo Studio\Dependencies\imgui\imgui_widgets.cpp
; File C:\dev\Photo Studio\Photo Studio\Dependencies\imgui\imgui_internal.h
; File C:\dev\Photo Studio\Photo Studio\Dependencies\imgui\imgui.h
; File C:\dev\Photo Studio\Photo Studio\Dependencies\imgui\imgui_widgets.cpp
; File C:\dev\Photo Studio\Photo Studio\Dependencies\imgui\imgui.cpp
; File C:\dev\Photo Studio\Photo Studio\Dependencies\imgui\imgui_internal.h
; File C:\dev\Photo Studio\Photo Studio\Dependencies\imgui\imgui.cpp
; File C:\dev\Photo Studio\Photo Studio\Dependencies\imgui\imgui_internal.h
; File C:\dev\Photo Studio\Photo Studio\Dependencies\imgui\imgui_widgets.cpp
; File C:\dev\Photo Studio\Photo Studio\Dependencies\imgui\imgui_internal.h
; File C:\dev\Photo Studio\Photo Studio\Dependencies\imgui\imgui_widgets.cpp
; File C:\dev\Photo Studio\Photo Studio\Dependencies\imgui\imgui_internal.h
; File C:\dev\Photo Studio\Photo Studio\Dependencies\imgui\imgui_widgets.cpp
; File C:\dev\Photo Studio\Photo Studio\Dependencies\imgui\imgui.cpp
; File C:\dev\Photo Studio\Photo Studio\Dependencies\imgui\imgui_internal.h
; File C:\dev\Photo Studio\Photo Studio\Dependencies\imgui\imgui.h
; File C:\dev\Photo Studio\Photo Studio\Dependencies\imgui\imgui.cpp
; File C:\dev\Photo Studio\Photo Studio\Dependencies\imgui\imgui_internal.h
; File C:\dev\Photo Studio\Photo Studio\Dependencies\imgui\imgui.h
; File C:\dev\Photo Studio\Photo Studio\Dependencies\imgui\imgui.cpp
; File C:\dev\Photo Studio\Photo Studio\Dependencies\imgui\imgui_internal.h
; File C:\dev\Photo Studio\Photo Studio\Dependencies\imgui\imgui.h
; File C:\dev\Photo Studio\Photo Studio\Dependencies\imgui\imgui.cpp
; File C:\dev\Photo Studio\Photo Studio\Dependencies\imgui\imgui_internal.h
; File C:\dev\Photo Studio\Photo Studio\Dependencies\imgui\imgui.h
; File C:\dev\Photo Studio\Photo Studio\Dependencies\imgui\imgui_internal.h
; File C:\dev\Photo Studio\Photo Studio\Dependencies\imgui\imgui.cpp
; File C:\dev\Photo Studio\Photo Studio\Dependencies\imgui\imgui.h
; File C:\dev\Photo Studio\Photo Studio\Dependencies\imgui\imgui.cpp
; File C:\dev\Photo Studio\Photo Studio\Dependencies\imgui\imgui.h
; File C:\dev\Photo Studio\Photo Studio\Dependencies\imgui\imgui.cpp
; File C:\dev\Photo Studio\Photo Studio\Dependencies\imgui\imgui.h
; File C:\dev\Photo Studio\Photo Studio\Dependencies\imgui\imgui.cpp
; File C:\dev\Photo Studio\Photo Studio\Dependencies\imgui\imgui_widgets.cpp
; File C:\dev\Photo Studio\Photo Studio\Dependencies\imgui\imgui.h
; File C:\dev\Photo Studio\Photo Studio\Dependencies\imgui\imgui_internal.h
; File C:\dev\Photo Studio\Photo Studio\Dependencies\imgui\imgui.h
; File C:\dev\Photo Studio\Photo Studio\Dependencies\imgui\imgui_internal.h
; File C:\dev\Photo Studio\Photo Studio\Dependencies\imgui\imgui.h
; File C:\dev\Photo Studio\Photo Studio\Dependencies\imgui\imgui.cpp
; File C:\dev\Photo Studio\Photo Studio\Dependencies\imgui\imgui.h
; File C:\dev\Photo Studio\Photo Studio\Dependencies\imgui\imgui.cpp
; File C:\dev\Photo Studio\Photo Studio\Dependencies\imgui\imgui_internal.h
; File C:\dev\Photo Studio\Photo Studio\Dependencies\imgui\imgui.cpp
; File C:\dev\Photo Studio\Photo Studio\Dependencies\imgui\imgui_internal.h
; File C:\dev\Photo Studio\Photo Studio\Dependencies\imgui\imgui_widgets.cpp
; File C:\dev\Photo Studio\Photo Studio\Dependencies\imgui\imgui_internal.h
; File C:\dev\Photo Studio\Photo Studio\Dependencies\imgui\imgui_widgets.cpp
; File C:\dev\Photo Studio\Photo Studio\Dependencies\imgui\imgui.cpp
; File C:\dev\Photo Studio\Photo Studio\Dependencies\imgui\imgui_widgets.cpp
; File C:\dev\Photo Studio\Photo Studio\Dependencies\imgui\imgui.h
; File C:\dev\Photo Studio\Photo Studio\Dependencies\imgui\imgui_widgets.cpp
; File C:\dev\Photo Studio\Photo Studio\Dependencies\imgui\imgui.h
; File C:\dev\Photo Studio\Photo Studio\Dependencies\imgui\imgui_widgets.cpp
; File C:\dev\Photo Studio\Photo Studio\Dependencies\imgui\imgui.cpp
; File C:\dev\Photo Studio\Photo Studio\Dependencies\imgui\imgui_widgets.cpp
; File C:\dev\Photo Studio\Photo Studio\Dependencies\imgui\imgui_internal.h
; File C:\dev\Photo Studio\Photo Studio\Dependencies\imgui\imgui_widgets.cpp
; File C:\dev\Photo Studio\Photo Studio\Dependencies\imgui\imgui_internal.h
; File C:\dev\Photo Studio\Photo Studio\Dependencies\imgui\imgui_widgets.cpp
; File C:\dev\Photo Studio\Photo Studio\Dependencies\imgui\imgui.h
; File C:\dev\Photo Studio\Photo Studio\Dependencies\imgui\imgui_widgets.cpp
; File C:\dev\Photo Studio\Photo Studio\Dependencies\imgui\imgui.h
; File C:\dev\Photo Studio\Photo Studio\Dependencies\imgui\imgui_widgets.cpp
; File C:\dev\Photo Studio\Photo Studio\Dependencies\imgui\imgui_internal.h
; File C:\dev\Photo Studio\Photo Studio\Dependencies\imgui\imgui_widgets.cpp
; File C:\dev\Photo Studio\Photo Studio\Dependencies\imgui\imgui.h
; File C:\dev\Photo Studio\Photo Studio\Dependencies\imgui\imgui_internal.h
; File C:\dev\Photo Studio\Photo Studio\Dependencies\imgui\imgui_widgets.cpp
; File C:\dev\Photo Studio\Photo Studio\Dependencies\imgui\imgui.cpp
; File C:\dev\Photo Studio\Photo Studio\Dependencies\imgui\imgui.h
; File C:\dev\Photo Studio\Photo Studio\Dependencies\imgui\imgui.cpp
; File C:\dev\Photo Studio\Photo Studio\Dependencies\imgui\imgui_widgets.cpp
; File C:\dev\Photo Studio\Photo Studio\Dependencies\imgui\imgui.cpp
; File C:\dev\Photo Studio\Photo Studio\Dependencies\imgui\imgui_widgets.cpp
; File C:\dev\Photo Studio\Photo Studio\Dependencies\imgui\imgui_internal.h
; File C:\dev\Photo Studio\Photo Studio\Dependencies\imgui\imgui_widgets.cpp
; File C:\dev\Photo Studio\Photo Studio\Dependencies\imgui\imgui_internal.h
; File C:\dev\Photo Studio\Photo Studio\Dependencies\imgui\imgui_widgets.cpp
; File C:\dev\Photo Studio\Photo Studio\Dependencies\imgui\imgui.cpp
; File C:\dev\Photo Studio\Photo Studio\Dependencies\imgui\imgui_widgets.cpp
; File C:\dev\Photo Studio\Photo Studio\Dependencies\imgui\imgui.h
; File C:\dev\Photo Studio\Photo Studio\Dependencies\imgui\imgui_internal.h
; File C:\dev\Photo Studio\Photo Studio\Dependencies\imgui\imgui.cpp
; File C:\dev\Photo Studio\Photo Studio\Dependencies\imgui\imgui_widgets.cpp
; File C:\dev\Photo Studio\Photo Studio\Dependencies\imgui\imgui.cpp
; File C:\dev\Photo Studio\Photo Studio\Dependencies\imgui\imgui_widgets.cpp
; File C:\dev\Photo Studio\Photo Studio\Dependencies\imgui\imgui_internal.h
; File C:\dev\Photo Studio\Photo Studio\Dependencies\imgui\imgui_widgets.cpp
; File C:\dev\Photo Studio\Photo Studio\Dependencies\imgui\imgui.h
; File C:\dev\Photo Studio\Photo Studio\Dependencies\imgui\imgui.cpp
; File C:\dev\Photo Studio\Photo Studio\Dependencies\imgui\imgui.h
; File C:\dev\Photo Studio\Photo Studio\Dependencies\imgui\imgui.cpp
; File C:\dev\Photo Studio\Photo Studio\Dependencies\imgui\imgui_widgets.cpp
; File C:\dev\Photo Studio\Photo Studio\Dependencies\imgui\imgui.h
; File C:\dev\Photo Studio\Photo Studio\Dependencies\imgui\imgui_widgets.cpp
; File C:\dev\Photo Studio\Photo Studio\Dependencies\imgui\imgui.cpp
; File C:\dev\Photo Studio\Photo Studio\Dependencies\imgui\imgui_widgets.cpp
; File C:\dev\Photo Studio\Photo Studio\Dependencies\imgui\imgui.cpp
; File C:\dev\Photo Studio\Photo Studio\Dependencies\imgui\imgui_internal.h
; File C:\dev\Photo Studio\Photo Studio\Dependencies\imgui\imgui.cpp
; File C:\dev\Photo Studio\Photo Studio\Dependencies\imgui\imgui_internal.h
; File C:\dev\Photo Studio\Photo Studio\Dependencies\imgui\imgui.cpp
; File C:\dev\Photo Studio\Photo Studio\Dependencies\imgui\imgui_internal.h
; File C:\dev\Photo Studio\Photo Studio\Dependencies\imgui\imgui.cpp
; File C:\dev\Photo Studio\Photo Studio\Dependencies\imgui\imgui_widgets.cpp
; File C:\dev\Photo Studio\Photo Studio\Dependencies\imgui\imgui.cpp
; File C:\Program Files (x86)\Windows Kits\10\Include\10.0.22000.0\ucrt\corecrt_math.h
; File C:\dev\Photo Studio\Photo Studio\Dependencies\imgui\imgui.cpp
; File C:\Program Files (x86)\Windows Kits\10\Include\10.0.22000.0\ucrt\corecrt_math.h
; File C:\dev\Photo Studio\Photo Studio\Dependencies\imgui\imgui.cpp
; File C:\dev\Photo Studio\Photo Studio\Dependencies\imgui\imgui_widgets.cpp
; File C:\dev\Photo Studio\Photo Studio\Dependencies\imgui\imgui.h
; File C:\dev\Photo Studio\Photo Studio\Dependencies\imgui\imgui_widgets.cpp
; File C:\dev\Photo Studio\Photo Studio\Dependencies\imgui\imgui_internal.h
; File C:\dev\Photo Studio\Photo Studio\Dependencies\imgui\imgui_widgets.cpp
; File C:\dev\Photo Studio\Photo Studio\Dependencies\imgui\imgui.h
; File C:\dev\Photo Studio\Photo Studio\Dependencies\imgui\imgui_widgets.cpp
; File C:\dev\Photo Studio\Photo Studio\Dependencies\imgui\imgui.h
; File C:\dev\Photo Studio\Photo Studio\Dependencies\imgui\imgui_widgets.cpp
; File C:\dev\Photo Studio\Photo Studio\Dependencies\imgui\imgui.h
; File C:\dev\Photo Studio\Photo Studio\Dependencies\imgui\imgui_widgets.cpp
; File C:\dev\Photo Studio\Photo Studio\Dependencies\imgui\imgui.h
; File C:\dev\Photo Studio\Photo Studio\Dependencies\imgui\imgui_widgets.cpp
; File C:\dev\Photo Studio\Photo Studio\Dependencies\imgui\imgui.h
; File C:\dev\Photo Studio\Photo Studio\Dependencies\imgui\imgui_widgets.cpp
; File C:\dev\Photo Studio\Photo Studio\Dependencies\imgui\imgui.h
; File C:\dev\Photo Studio\Photo Studio\Dependencies\imgui\imgui_widgets.cpp
; File C:\dev\Photo Studio\Photo Studio\Dependencies\imgui\imgui.h
; File C:\dev\Photo Studio\Photo Studio\Dependencies\imgui\imgui_widgets.cpp
; File C:\dev\Photo Studio\Photo Studio\Dependencies\imgui\imgui.h
; File C:\dev\Photo Studio\Photo Studio\Dependencies\imgui\imgui_widgets.cpp
; File C:\dev\Photo Studio\Photo Studio\Dependencies\imgui\imgui_internal.h
; File C:\dev\Photo Studio\Photo Studio\Dependencies\imgui\imgui_widgets.cpp
; File C:\dev\Photo Studio\Photo Studio\Dependencies\imgui\imgui.h
; File C:\dev\Photo Studio\Photo Studio\Dependencies\imgui\imgui_widgets.cpp
; File C:\dev\Photo Studio\Photo Studio\Dependencies\imgui\imgui.h
; File C:\dev\Photo Studio\Photo Studio\Dependencies\imgui\imgui_widgets.cpp
; File C:\dev\Photo Studio\Photo Studio\Dependencies\imgui\imgui.h
; File C:\dev\Photo Studio\Photo Studio\Dependencies\imgui\imgui_widgets.cpp
; File C:\dev\Photo Studio\Photo Studio\Dependencies\imgui\imgui_draw.cpp
; File C:\dev\Photo Studio\Photo Studio\Dependencies\imgui\imgui_widgets.cpp
; File C:\dev\Photo Studio\Photo Studio\Dependencies\imgui\imgui_draw.cpp
; File C:\dev\Photo Studio\Photo Studio\Dependencies\imgui\imgui_internal.h
; File C:\dev\Photo Studio\Photo Studio\Dependencies\imgui\imgui_draw.cpp
; File C:\dev\Photo Studio\Photo Studio\Dependencies\imgui\imgui.h
; File C:\dev\Photo Studio\Photo Studio\Dependencies\imgui\imgui_draw.cpp
; File C:\dev\Photo Studio\Photo Studio\Dependencies\imgui\imgui_widgets.cpp
; File C:\dev\Photo Studio\Photo Studio\Dependencies\imgui\imgui_draw.cpp
; File C:\dev\Photo Studio\Photo Studio\Dependencies\imgui\imgui_widgets.cpp
; File C:\dev\Photo Studio\Photo Studio\Dependencies\imgui\imgui_draw.cpp
; File C:\dev\Photo Studio\Photo Studio\Dependencies\imgui\imgui_internal.h
; File C:\dev\Photo Studio\Photo Studio\Dependencies\imgui\imgui_draw.cpp
; File C:\dev\Photo Studio\Photo Studio\Dependencies\imgui\imgui.h
; File C:\dev\Photo Studio\Photo Studio\Dependencies\imgui\imgui_draw.cpp
; File C:\dev\Photo Studio\Photo Studio\Dependencies\imgui\imgui_internal.h
; File C:\dev\Photo Studio\Photo Studio\Dependencies\imgui\imgui_draw.cpp
; File C:\dev\Photo Studio\Photo Studio\Dependencies\imgui\imgui.h
; File C:\dev\Photo Studio\Photo Studio\Dependencies\imgui\imgui_internal.h
; File C:\dev\Photo Studio\Photo Studio\Dependencies\imgui\imgui.cpp
; File C:\dev\Photo Studio\Photo Studio\Dependencies\imgui\imgui_widgets.cpp
; File C:\dev\Photo Studio\Photo Studio\Dependencies\imgui\imgui.h
; File C:\dev\Photo Studio\Photo Studio\Dependencies\imgui\imgui_internal.h
; File C:\dev\Photo Studio\Photo Studio\Dependencies\imgui\imgui_widgets.cpp
; File C:\dev\Photo Studio\Photo Studio\Dependencies\imgui\imgui_internal.h
; File C:\dev\Photo Studio\Photo Studio\Dependencies\imgui\imgui_widgets.cpp
; File C:\dev\Photo Studio\Photo Studio\Dependencies\imgui\imgui.h
; File C:\dev\Photo Studio\Photo Studio\Dependencies\imgui\imgui_internal.h
; File C:\dev\Photo Studio\Photo Studio\Dependencies\imgui\imgui.cpp
; File C:\dev\Photo Studio\Photo Studio\Dependencies\imgui\imgui_internal.h
; File C:\dev\Photo Studio\Photo Studio\Dependencies\imgui\imgui.h
; File C:\dev\Photo Studio\Photo Studio\Dependencies\imgui\imgui_internal.h
; File C:\dev\Photo Studio\Photo Studio\Dependencies\imgui\imgui.h
; File C:\dev\Photo Studio\Photo Studio\Dependencies\imgui\imgui_internal.h
; File C:\dev\Photo Studio\Photo Studio\Dependencies\imgui\imgui.h
; File C:\dev\Photo Studio\Photo Studio\Dependencies\imgui\imgui_internal.h
; File C:\dev\Photo Studio\Photo Studio\Dependencies\imgui\imgui.h
; File C:\dev\Photo Studio\Photo Studio\Dependencies\imgui\imgui.cpp
; File C:\dev\Photo Studio\Photo Studio\Dependencies\imgui\imgui.h
; File C:\dev\Photo Studio\Photo Studio\Dependencies\imgui\imgui_widgets.cpp
; File C:\dev\Photo Studio\Photo Studio\Dependencies\imgui\imgui.h
; File C:\dev\Photo Studio\Photo Studio\Dependencies\imgui\imgui_draw.cpp
; File C:\dev\Photo Studio\Photo Studio\Dependencies\imgui\imgui.h
; File C:\dev\Photo Studio\Photo Studio\Dependencies\imgui\imgui_widgets.cpp
; File C:\dev\Photo Studio\Photo Studio\Dependencies\imgui\imgui_internal.h
; File C:\dev\Photo Studio\Photo Studio\Dependencies\imgui\imgui_widgets.cpp
; File C:\dev\Photo Studio\Photo Studio\Dependencies\imgui\imgui_internal.h
; File C:\dev\Photo Studio\Photo Studio\Dependencies\imgui\imgui_widgets.cpp
; File C:\dev\Photo Studio\Photo Studio\Dependencies\imgui\imgui_internal.h
; File C:\dev\Photo Studio\Photo Studio\Dependencies\imgui\imgui_widgets.cpp
; File C:\dev\Photo Studio\Photo Studio\Dependencies\imgui\imgui_internal.h
; File C:\dev\Photo Studio\Photo Studio\Dependencies\imgui\imgui_widgets.cpp
; File C:\dev\Photo Studio\Photo Studio\Dependencies\imgui\imgui.h
; File C:\dev\Photo Studio\Photo Studio\Dependencies\imgui\imgui_widgets.cpp
; File C:\dev\Photo Studio\Photo Studio\Dependencies\imgui\imgui.h
; File C:\dev\Photo Studio\Photo Studio\Dependencies\imgui\imgui_widgets.cpp
; File C:\dev\Photo Studio\Photo Studio\Dependencies\imgui\imgui.h
; File C:\dev\Photo Studio\Photo Studio\Dependencies\imgui\imgui_widgets.cpp
; File C:\dev\Photo Studio\Photo Studio\Dependencies\imgui\imgui.h
; File C:\dev\Photo Studio\Photo Studio\Dependencies\imgui\imgui_widgets.cpp
; File C:\dev\Photo Studio\Photo Studio\Dependencies\imgui\imgui.h
; File C:\dev\Photo Studio\Photo Studio\Dependencies\imgui\imgui_widgets.cpp
; File C:\dev\Photo Studio\Photo Studio\Dependencies\imgui\imgui.h
; File C:\dev\Photo Studio\Photo Studio\Dependencies\imgui\imgui_widgets.cpp
; File C:\dev\Photo Studio\Photo Studio\Dependencies\imgui\imgui_internal.h
; File C:\dev\Photo Studio\Photo Studio\Dependencies\imgui\imgui_widgets.cpp
; File C:\dev\Photo Studio\Photo Studio\Dependencies\imgui\imgui_internal.h
; File C:\dev\Photo Studio\Photo Studio\Dependencies\imgui\imgui_widgets.cpp
; File C:\dev\Photo Studio\Photo Studio\Dependencies\imgui\imgui_internal.h
; File C:\dev\Photo Studio\Photo Studio\Dependencies\imgui\imgui_widgets.cpp
; File C:\dev\Photo Studio\Photo Studio\Dependencies\imgui\imgui_internal.h
; File C:\dev\Photo Studio\Photo Studio\Dependencies\imgui\imgui_widgets.cpp
; File C:\dev\Photo Studio\Photo Studio\Dependencies\imgui\imgui_internal.h
; File C:\dev\Photo Studio\Photo Studio\Dependencies\imgui\imgui.h
; File C:\dev\Photo Studio\Photo Studio\Dependencies\imgui\imgui_widgets.cpp
; File C:\dev\Photo Studio\Photo Studio\Dependencies\imgui\imgui.h
; File C:\dev\Photo Studio\Photo Studio\Dependencies\imgui\imgui_widgets.cpp
; File C:\dev\Photo Studio\Photo Studio\Dependencies\imgui\imgui.h
; File C:\dev\Photo Studio\Photo Studio\Dependencies\imgui\imgui_widgets.cpp
; File C:\dev\Photo Studio\Photo Studio\Dependencies\imgui\imgui.h
; File C:\dev\Photo Studio\Photo Studio\Dependencies\imgui\imgui_widgets.cpp
; File C:\dev\Photo Studio\Photo Studio\Dependencies\imgui\imgui_draw.cpp
; File C:\dev\Photo Studio\Photo Studio\Dependencies\imgui\imgui_internal.h
; File C:\dev\Photo Studio\Photo Studio\Dependencies\imgui\imgui_draw.cpp
; File C:\dev\Photo Studio\Photo Studio\Dependencies\imgui\imgui.h
; File C:\dev\Photo Studio\Photo Studio\Dependencies\imgui\imgui_widgets.cpp
; File C:\dev\Photo Studio\Photo Studio\Dependencies\imgui\imgui_draw.cpp
; File C:\dev\Photo Studio\Photo Studio\Dependencies\imgui\imgui_internal.h
; File C:\dev\Photo Studio\Photo Studio\Dependencies\imgui\imgui_draw.cpp
; File C:\dev\Photo Studio\Photo Studio\Dependencies\imgui\imgui.h
; File C:\dev\Photo Studio\Photo Studio\Dependencies\imgui\imgui_draw.cpp
; File C:\dev\Photo Studio\Photo Studio\Dependencies\imgui\imgui_internal.h
; File C:\dev\Photo Studio\Photo Studio\Dependencies\imgui\imgui_draw.cpp
; File C:\dev\Photo Studio\Photo Studio\Dependencies\imgui\imgui.h
; File C:\dev\Photo Studio\Photo Studio\Dependencies\imgui\imgui_widgets.cpp
; File C:\dev\Photo Studio\Photo Studio\Dependencies\imgui\imgui_internal.h
; File C:\dev\Photo Studio\Photo Studio\Dependencies\imgui\imgui_widgets.cpp
; File C:\dev\Photo Studio\Photo Studio\Dependencies\imgui\imgui.cpp
; File C:\dev\Photo Studio\Photo Studio\Dependencies\imgui\imgui_widgets.cpp
; File C:\dev\Photo Studio\Photo Studio\Dependencies\imgui\imgui.cpp
; File C:\dev\Photo Studio\Photo Studio\Dependencies\imgui\imgui_widgets.cpp
; File C:\dev\Photo Studio\Photo Studio\Dependencies\imgui\imgui.h
; File C:\dev\Photo Studio\Photo Studio\Dependencies\imgui\imgui_widgets.cpp
;	COMDAT ?ColorPicker4PS@ImGui@@YA_NPEBDQEAMHPEBM@Z
_TEXT	SEGMENT
value_changed_sv$1$ = 64
value_changed$1$ = 65
value_changed_h$1$ = 66
H$1$ = 68
V$1$ = 72
S$1$ = 76
$T22 = 80
$T9 = 80
trb$65 = 80
$T23 = 80
hue_color_f$ = 80
$T21 = 80
$T14 = 80
$T11 = 80
$T7 = 80
triangle_pb$ = 80
sv_cursor_pos$ = 96
R$ = 96
B$ = 104
trc$2$ = 108
square_sz$1$ = 112
hue_color32$1$ = 116
G$ = 116
$T43 = 120
$T37 = 120
$T35 = 120
tra$66 = 120
wheel_center$ = 120
flags$GSCopy$1$ = 128
sv_picker_size$1$ = 132
trc$67 = 136
triangle_pa$ = 136
triangle_pc$1$ = 144
triangle_pb$2$ = 148
col_white$1$ = 152
tv6246 = 152
wheel_center$2$ = 156
wheel_center$1$ = 160
mx$1$ = 164
tv6539 = 168
tv6242 = 168
$T1 = 168
hue_cursor_pos$68 = 168
col_black$1$ = 184
tv6237 = 184
current_off_unrotated$69 = 184
user_col32_striped_of_alpha$1$ = 192
tv6238 = 192
sin_hue_angle$1$ = 196
tv6165 = 196
cos_hue_angle$1$ = 200
tv6164 = 200
$T6 = 200
$T3 = 200
wheel_r_inner$1$ = 208
tv6140 = 216
$T42 = 216
picker_pos$ = 216
$T70 = 224
$T71 = 232
$T72 = 236
sv_height$1$ = 240
wheel_r_outer$1$ = 244
tv6253 = 248
$T73 = 256
tv6304 = 264
picker_pos$3$ = 272
tv6330 = 280
triangle_pc$ = 288
col_hues$ = 296
tv6360 = 336
?m_Color@WindowData@@2U?$vec@$03M$0A@@glm@@A$7 = 352
g$1$ = 368
tv6362 = 384
bar1_bb$74 = 384
backup_initial_col$ = 400
__$ArrayPad$ = 416
label$dead$ = 640
col$dead$ = 648
flags$dead$ = 656
ref_col$dead$ = 664
?ColorPicker4PS@ImGui@@YA_NPEBDQEAMHPEBM@Z PROC		; ImGui::ColorPicker4PS, COMDAT

; 5797 : {

$LN1201:
	push	rbp
	push	r13
	push	r14
	lea	rbp, QWORD PTR [rsp-352]
	sub	rsp, 608				; 00000260H
	mov	rax, QWORD PTR __security_cookie
	xor	rax, rsp
	mov	QWORD PTR __$ArrayPad$[rbp-256], rax

; 5798 :     ImGuiContext& g = *GImGui;

	mov	r13, QWORD PTR ?GImGui@@3PEAUImGuiContext@@EA ; GImGui
	mov	QWORD PTR g$1$[rbp-256], r13
; File C:\dev\Photo Studio\Photo Studio\Dependencies\imgui\imgui_internal.h

; 3237 :     inline    ImGuiWindow*  GetCurrentWindow()          { ImGuiContext& g = *GImGui; g.CurrentWindow->WriteAccessed = true; return g.CurrentWindow; }

	mov	rax, QWORD PTR [r13+16704]
	mov	BYTE PTR [rax+245], 1
	mov	r14, QWORD PTR [r13+16704]
; File C:\dev\Photo Studio\Photo Studio\Dependencies\imgui\imgui_widgets.cpp

; 5800 :     if (window->SkipItems)

	cmp	BYTE PTR [r14+248], 0
	je	SHORT $LN8@ColorPicke

; 5801 :         return false;

	xor	al, al
	jmp	$LN1@ColorPicke
$LN8@ColorPicke:
	mov	QWORD PTR [rsp+640], rbx
	mov	QWORD PTR [rsp+648], rsi

; 5802 : 
; 5803 :     ImDrawList* draw_list = window->DrawList;

	mov	rsi, QWORD PTR [r14+736]
	mov	QWORD PTR [rsp+656], rdi
	mov	QWORD PTR [rsp+600], r12
	mov	QWORD PTR [rsp+592], r15
	movaps	XMMWORD PTR [rsp+576], xmm6
	movaps	XMMWORD PTR [rsp+560], xmm7
	movaps	XMMWORD PTR [rsp+544], xmm8
	movaps	XMMWORD PTR [rsp+528], xmm9
	movaps	XMMWORD PTR [rsp+512], xmm10
	movaps	XMMWORD PTR [rsp+496], xmm11
	movaps	XMMWORD PTR [rsp+480], xmm12
	movaps	XMMWORD PTR [rsp+464], xmm13
	movaps	XMMWORD PTR [rsp+448], xmm14
	movaps	XMMWORD PTR [rsp+432], xmm15

; 5804 :     ImGuiStyle& style = g.Style;
; 5805 :     ImGuiIO& io = g.IO;
; 5806 : 
; 5807 :     const float width = CalcItemWidth();

	call	?CalcItemWidth@ImGui@@YAMXZ		; ImGui::CalcItemWidth

; 5808 :     const bool is_readonly = ((g.NextItemData.ItemFlags | g.CurrentItemFlags) & ImGuiItemFlags_ReadOnly) != 0;

	mov	edi, DWORD PTR [r13+19156]

; 5809 :     g.NextItemData.ClearFlags();
; 5810 : 
; 5811 :     PushID(label);

	lea	rcx, OFFSET FLAT:??_C@_0N@HENPPCEP@?$CD?$CDMyColor?$CD?$CD5@
	mov	eax, DWORD PTR [r13+19140]
; File C:\dev\Photo Studio\Photo Studio\Dependencies\imgui\imgui_internal.h

; 1198 :     inline void ClearFlags()    { Flags = ImGuiNextItemDataFlags_None; ItemFlags = ImGuiItemFlags_None; } // Also cleared manually by ItemAdd()!

	xor	r15d, r15d
; File C:\dev\Photo Studio\Photo Studio\Dependencies\imgui\imgui_widgets.cpp

; 5808 :     const bool is_readonly = ((g.NextItemData.ItemFlags | g.CurrentItemFlags) & ImGuiItemFlags_ReadOnly) != 0;

	shr	eax, 7
	movaps	xmm6, xmm0
	shr	edi, 7
	or	dil, al
; File C:\dev\Photo Studio\Photo Studio\Dependencies\imgui\imgui_internal.h

; 1198 :     inline void ClearFlags()    { Flags = ImGuiNextItemDataFlags_None; ItemFlags = ImGuiItemFlags_None; } // Also cleared manually by ItemAdd()!

	mov	QWORD PTR [r13+19152], r15
; File C:\dev\Photo Studio\Photo Studio\Dependencies\imgui\imgui_widgets.cpp

; 5808 :     const bool is_readonly = ((g.NextItemData.ItemFlags | g.CurrentItemFlags) & ImGuiItemFlags_ReadOnly) != 0;

	and	dil, 1

; 5809 :     g.NextItemData.ClearFlags();
; 5810 : 
; 5811 :     PushID(label);

	call	?PushID@ImGui@@YAXPEBD@Z		; ImGui::PushID

; 5812 :     const bool set_current_color_edit_id = (g.ColorEditCurrentID == 0);

	mov	eax, DWORD PTR [r13+24600]
	mov	DWORD PTR tv6304[rbp-256], eax

; 5813 :     if (set_current_color_edit_id)

	test	eax, eax
	jne	SHORT $LN9@ColorPicke
; File C:\dev\Photo Studio\Photo Studio\Dependencies\imgui\imgui.h

; 2032 :     inline T&           back()                              { IM_ASSERT(Size > 0); return Data[Size - 1]; }

	movsxd	rcx, DWORD PTR [r14+304]
; File C:\dev\Photo Studio\Photo Studio\Dependencies\imgui\imgui_widgets.cpp

; 5814 :         g.ColorEditCurrentID = window->IDStack.back();

	mov	rax, QWORD PTR [r14+312]
	mov	ecx, DWORD PTR [rax+rcx*4-4]
	mov	DWORD PTR [r13+24600], ecx
$LN9@ColorPicke:

; 5815 :     BeginGroup();

	call	?BeginGroup@ImGui@@YAXXZ		; ImGui::BeginGroup

; 5816 : 
; 5817 :     if (!(flags & ImGuiColorEditFlags_NoSidePreview))
; 5818 :         flags |= ImGuiColorEditFlags_NoSmallPreview;
; 5819 : 
; 5820 :     // Context menu: display and store options.
; 5821 :     if (!(flags & ImGuiColorEditFlags_NoOptions))
; 5822 :         ColorPickerOptionsPopup(col, flags);

	mov	edx, 288				; 00000120H
	lea	rcx, OFFSET FLAT:?m_Color@WindowData@@2U?$vec@$03M$0A@@glm@@A ; WindowData::m_Color
	call	?ColorPickerOptionsPopup@ImGui@@YAXPEBMH@Z ; ImGui::ColorPickerOptionsPopup

; 5826 :         flags |= ((g.ColorEditOptions & ImGuiColorEditFlags_PickerMask_) ? g.ColorEditOptions : ImGuiColorEditFlags_DefaultOptions_) & ImGuiColorEditFlags_PickerMask_;

	mov	ecx, DWORD PTR [r13+24596]
	mov	eax, 177209344				; 0a900000H

; 5833 : 
; 5834 :     // Setup
; 5835 :     int components = (flags & ImGuiColorEditFlags_NoAlpha) ? 3 : 4;
; 5836 :     bool alpha_bar = (flags & ImGuiColorEditFlags_AlphaBar) && !(flags & ImGuiColorEditFlags_NoAlpha);
; 5837 :     ImVec2 picker_pos = window->DC.CursorPos;

	movsd	xmm2, QWORD PTR [r14+320]
	test	ecx, 100663296				; 06000000H

; 5840 :     float sv_picker_size = ImMax(bars_width * 1, width - (alpha_bar ? 2 : 1) * (bars_width + style.ItemInnerSpacing.x)); // Saturation/Value picking box

	movss	xmm3, DWORD PTR [r13+14924]
	mov	edx, eax
; File C:\dev\Photo Studio\Photo Studio\Dependencies\imgui\imgui.cpp

; 10903:     ImGuiContext& g = *GImGui;

	mov	rbx, QWORD PTR ?GImGui@@3PEAUImGuiContext@@EA ; GImGui
; File C:\dev\Photo Studio\Photo Studio\Dependencies\imgui\imgui_widgets.cpp

; 5826 :         flags |= ((g.ColorEditOptions & ImGuiColorEditFlags_PickerMask_) ? g.ColorEditOptions : ImGuiColorEditFlags_DefaultOptions_) & ImGuiColorEditFlags_PickerMask_;

	cmovne	edx, ecx

; 5848 : 
; 5849 :     float wheel_thickness = 15.0f; // sv_picker_size * 0.08f;
; 5850 :     float wheel_r_outer = sv_picker_size * 0.50f;

	movss	xmm9, DWORD PTR __real@3f000000
	and	edx, 100663296				; 06000000H
	test	ecx, 402653184				; 18000000H
	movsd	QWORD PTR picker_pos$3$[rbp-256], xmm2
	movaps	xmm0, xmm3
	movsd	QWORD PTR picker_pos$[rbp-256], xmm2
; File C:\dev\Photo Studio\Photo Studio\Dependencies\imgui\imgui.cpp

; 10904:     return g.FontSize + g.Style.FramePadding.y * 2.0f;

	movss	xmm7, DWORD PTR [rbx+14904]
; File C:\dev\Photo Studio\Photo Studio\Dependencies\imgui\imgui_widgets.cpp

; 5828 :         flags |= ((g.ColorEditOptions & ImGuiColorEditFlags_InputMask_) ? g.ColorEditOptions : ImGuiColorEditFlags_DefaultOptions_) & ImGuiColorEditFlags_InputMask_;

	cmovne	eax, ecx
	and	eax, 402653184				; 18000000H
; File C:\dev\Photo Studio\Photo Studio\Dependencies\imgui\imgui.cpp

; 10904:     return g.FontSize + g.Style.FramePadding.y * 2.0f;

	addss	xmm7, xmm7
; File C:\dev\Photo Studio\Photo Studio\Dependencies\imgui\imgui_widgets.cpp

; 5828 :         flags |= ((g.ColorEditOptions & ImGuiColorEditFlags_InputMask_) ? g.ColorEditOptions : ImGuiColorEditFlags_DefaultOptions_) & ImGuiColorEditFlags_InputMask_;

	or	edx, eax

; 5829 :     IM_ASSERT(ImIsPowerOfTwo(flags & ImGuiColorEditFlags_PickerMask_)); // Check that only 1 is selected
; 5830 :     IM_ASSERT(ImIsPowerOfTwo(flags & ImGuiColorEditFlags_InputMask_));  // Check that only 1 is selected
; 5831 :     if (!(flags & ImGuiColorEditFlags_NoOptions))
; 5832 :         flags |= (g.ColorEditOptions & ImGuiColorEditFlags_AlphaBar);

	and	ecx, 65536				; 00010000H
	or	edx, ecx

; 5840 :     float sv_picker_size = ImMax(bars_width * 1, width - (alpha_bar ? 2 : 1) * (bars_width + style.ItemInnerSpacing.x)); // Saturation/Value picking box

	mov	eax, r15d
	mov	ecx, edx
	mov	DWORD PTR flags$GSCopy$1$[rbp-256], edx
	and	ecx, 65538				; 00010002H

; 5852 :     ImVec2 wheel_center(picker_pos.x + (sv_picker_size + bars_width) * 0.5f, picker_pos.y + sv_picker_size * 0.5f);

	movaps	xmm14, xmm2
; File C:\dev\Photo Studio\Photo Studio\Dependencies\imgui\imgui.cpp

; 10904:     return g.FontSize + g.Style.FramePadding.y * 2.0f;

	addss	xmm7, DWORD PTR [rbx+15992]
; File C:\dev\Photo Studio\Photo Studio\Dependencies\imgui\imgui_widgets.cpp

; 5840 :     float sv_picker_size = ImMax(bars_width * 1, width - (alpha_bar ? 2 : 1) * (bars_width + style.ItemInnerSpacing.x)); // Saturation/Value picking box

	cmp	ecx, 65536				; 00010000H

; 5852 :     ImVec2 wheel_center(picker_pos.x + (sv_picker_size + bars_width) * 0.5f, picker_pos.y + sv_picker_size * 0.5f);

	shufps	xmm14, xmm14, 85			; 00000055H
	mov	DWORD PTR tv6253[rbp-256], ecx
	sete	al
	movsd	QWORD PTR tv6330[rbp-256], xmm14
	inc	eax
	addss	xmm0, xmm7
; File C:\dev\Photo Studio\Photo Studio\Dependencies\imgui\imgui.cpp

; 10904:     return g.FontSize + g.Style.FramePadding.y * 2.0f;

	movss	DWORD PTR square_sz$1$[rsp], xmm7
; File C:\dev\Photo Studio\Photo Studio\Dependencies\imgui\imgui_internal.h

; 474  : template<typename T> static inline T ImMax(T lhs, T rhs)                        { return lhs >= rhs ? lhs : rhs; }

	movaps	xmm5, xmm7
	movd	xmm1, eax
; File C:\dev\Photo Studio\Photo Studio\Dependencies\imgui\imgui_widgets.cpp

; 5840 :     float sv_picker_size = ImMax(bars_width * 1, width - (alpha_bar ? 2 : 1) * (bars_width + style.ItemInnerSpacing.x)); // Saturation/Value picking box

	cvtdq2ps xmm1, xmm1
	mulss	xmm1, xmm0

; 5842 :     float bar0_pos_x = picker_pos.x + sv_picker_size + style.ItemInnerSpacing.x;

	movaps	xmm0, xmm2
	subss	xmm6, xmm1
; File C:\dev\Photo Studio\Photo Studio\Dependencies\imgui\imgui_internal.h

; 474  : template<typename T> static inline T ImMax(T lhs, T rhs)                        { return lhs >= rhs ? lhs : rhs; }

	maxss	xmm5, xmm6
; File C:\dev\Photo Studio\Photo Studio\Dependencies\imgui\imgui_widgets.cpp

; 5841 :     float sv_height = window->Size.y - 14;

	movss	xmm6, DWORD PTR [r14+100]
	subss	xmm6, DWORD PTR __real@41600000

; 5842 :     float bar0_pos_x = picker_pos.x + sv_picker_size + style.ItemInnerSpacing.x;

	addss	xmm0, xmm5
; File C:\dev\Photo Studio\Photo Studio\Dependencies\imgui\imgui_internal.h

; 474  : template<typename T> static inline T ImMax(T lhs, T rhs)                        { return lhs >= rhs ? lhs : rhs; }

	movss	DWORD PTR sv_picker_size$1$[rbp-256], xmm5
; File C:\dev\Photo Studio\Photo Studio\Dependencies\imgui\imgui_widgets.cpp

; 5852 :     ImVec2 wheel_center(picker_pos.x + (sv_picker_size + bars_width) * 0.5f, picker_pos.y + sv_picker_size * 0.5f);

	movaps	xmm4, xmm5
	movss	DWORD PTR sv_height$1$[rbp-256], xmm6
	addss	xmm4, xmm7
	movaps	xmm15, xmm0
	movss	DWORD PTR mx$1$[rbp-256], xmm0
	addss	xmm15, xmm3
	mulss	xmm4, xmm9
	movaps	xmm0, xmm15
	movss	DWORD PTR $T73[rbp-256], xmm15
	addss	xmm0, xmm7
	addss	xmm4, xmm2
	addss	xmm3, xmm0
	movss	DWORD PTR $T72[rbp-256], xmm0
	movaps	xmm0, xmm7
	movss	DWORD PTR wheel_center$2$[rbp-256], xmm4
	mulss	xmm0, DWORD PTR __real@3e4ccccd
; File C:\dev\Photo Studio\Photo Studio\Dependencies\imgui\imgui.h

; 279  :     constexpr ImVec2(float _x, float _y)    : x(_x), y(_y) { }

	movss	DWORD PTR wheel_center$[rsp], xmm4
; File C:\dev\Photo Studio\Photo Studio\Dependencies\imgui\imgui_widgets.cpp

; 5843 :     float bar1_pos_x = bar0_pos_x + bars_width + style.ItemInnerSpacing.x;

	movss	DWORD PTR $T70[rbp-256], xmm3

; 5844 :     float bars_triangles_half_sz = IM_TRUNC(bars_width * 0.20f);
; 5845 : 
; 5846 :     float backup_initial_col[4];
; 5847 :     memcpy(backup_initial_col, col, components * sizeof(float));

	movups	xmm3, XMMWORD PTR ?m_Color@WindowData@@2U?$vec@$03M$0A@@glm@@A
	cvttss2si eax, xmm0
	movups	XMMWORD PTR ?m_Color@WindowData@@2U?$vec@$03M$0A@@glm@@A$7[rbp-256], xmm3
	movups	XMMWORD PTR backup_initial_col$[rbp-256], xmm3
	movd	xmm0, eax
	cvtdq2ps xmm0, xmm0
	movss	DWORD PTR $T71[rbp-256], xmm0

; 5848 : 
; 5849 :     float wheel_thickness = 15.0f; // sv_picker_size * 0.08f;
; 5850 :     float wheel_r_outer = sv_picker_size * 0.50f;

	movaps	xmm0, xmm5
	mulss	xmm0, xmm9

; 5851 :     float wheel_r_inner = wheel_r_outer - wheel_thickness;

	movaps	xmm1, xmm0
	movss	DWORD PTR wheel_r_outer$1$[rbp-256], xmm0
	subss	xmm1, DWORD PTR __real@41700000
	movss	DWORD PTR wheel_r_inner$1$[rbp-256], xmm1

; 5862 :     if (flags & ImGuiColorEditFlags_InputRGB)

	movss	xmm7, DWORD PTR __real@1e3ce508
	addss	xmm0, xmm14
	movss	xmm12, DWORD PTR __real@3f800000
	movaps	xmm4, xmm3
	shufps	xmm4, xmm3, 85				; 00000055H
	xorps	xmm11, xmm11
	movss	DWORD PTR H$1$[rsp], xmm3
	movaps	xmm10, xmm3
	movss	DWORD PTR S$1$[rsp], xmm4
	movaps	xmm13, xmm4
	movss	DWORD PTR wheel_center$1$[rbp-256], xmm0
; File C:\dev\Photo Studio\Photo Studio\Dependencies\imgui\imgui.h

; 279  :     constexpr ImVec2(float _x, float _y)    : x(_x), y(_y) { }

	movss	DWORD PTR wheel_center$[rsp+4], xmm0
; File C:\dev\Photo Studio\Photo Studio\Dependencies\imgui\imgui_widgets.cpp

; 5855 :     float triangle_r = wheel_r_inner - (int)(sv_picker_size * 0.027f);

	movaps	xmm0, xmm5
	mulss	xmm0, DWORD PTR __real@3cdd2f1b

; 5860 :     float H = col[0], S = col[1], V = col[2];

	movaps	xmm5, xmm3
; File C:\dev\Photo Studio\Photo Studio\Dependencies\imgui\imgui.h

; 279  :     constexpr ImVec2(float _x, float _y)    : x(_x), y(_y) { }

	mov	DWORD PTR triangle_pa$[rbp-252], r15d
; File C:\dev\Photo Studio\Photo Studio\Dependencies\imgui\imgui_widgets.cpp

; 5860 :     float H = col[0], S = col[1], V = col[2];

	shufps	xmm5, xmm3, 170				; 000000aaH
	movss	DWORD PTR V$1$[rsp], xmm5
	movaps	xmm8, xmm5
	cvttss2si eax, xmm0

; 5861 :     float R = col[0], G = col[1], B = col[2];

	movss	DWORD PTR R$[rsp], xmm3
	movss	DWORD PTR G$[rsp], xmm4
	movss	DWORD PTR B$[rsp], xmm5
	movaps	XMMWORD PTR tv6362[rbp-256], xmm4
	movd	xmm0, eax

; 5862 :     if (flags & ImGuiColorEditFlags_InputRGB)

	mov	eax, edx
	cvtdq2ps xmm0, xmm0
	and	eax, 134217728				; 08000000H
	mov	DWORD PTR tv6246[rbp-256], eax
	movaps	XMMWORD PTR tv6360[rbp-256], xmm5
	subss	xmm1, xmm0
	movaps	xmm0, xmm1
; File C:\dev\Photo Studio\Photo Studio\Dependencies\imgui\imgui.h

; 279  :     constexpr ImVec2(float _x, float _y)    : x(_x), y(_y) { }

	movss	DWORD PTR triangle_pa$[rbp-256], xmm1
; File C:\dev\Photo Studio\Photo Studio\Dependencies\imgui\imgui_widgets.cpp

; 5857 :     ImVec2 triangle_pb = ImVec2(triangle_r * -0.5f, triangle_r * -0.866025f); // Black point.

	mulss	xmm0, DWORD PTR __real@bf000000
	movaps	xmm2, xmm1
	mulss	xmm2, DWORD PTR __real@bf5db3d0
	movss	DWORD PTR triangle_pc$1$[rbp-256], xmm0
; File C:\dev\Photo Studio\Photo Studio\Dependencies\imgui\imgui.h

; 279  :     constexpr ImVec2(float _x, float _y)    : x(_x), y(_y) { }

	movss	DWORD PTR triangle_pb$[rsp], xmm0
	movss	DWORD PTR triangle_pc$[rbp-256], xmm0
; File C:\dev\Photo Studio\Photo Studio\Dependencies\imgui\imgui_widgets.cpp

; 5858 :     ImVec2 triangle_pc = ImVec2(triangle_r * -0.5f, triangle_r * +0.866025f); // White point.

	movaps	xmm0, xmm1
	mulss	xmm0, DWORD PTR __real@3f5db3d0
	movss	DWORD PTR triangle_pb$2$[rbp-256], xmm2
; File C:\dev\Photo Studio\Photo Studio\Dependencies\imgui\imgui.h

; 279  :     constexpr ImVec2(float _x, float _y)    : x(_x), y(_y) { }

	movss	DWORD PTR triangle_pb$[rsp+4], xmm2
; File C:\dev\Photo Studio\Photo Studio\Dependencies\imgui\imgui_widgets.cpp

; 5858 :     ImVec2 triangle_pc = ImVec2(triangle_r * -0.5f, triangle_r * +0.866025f); // White point.

	movss	DWORD PTR trc$2$[rsp], xmm0
; File C:\dev\Photo Studio\Photo Studio\Dependencies\imgui\imgui.h

; 279  :     constexpr ImVec2(float _x, float _y)    : x(_x), y(_y) { }

	movss	DWORD PTR triangle_pc$[rbp-252], xmm0
; File C:\dev\Photo Studio\Photo Studio\Dependencies\imgui\imgui_widgets.cpp

; 5862 :     if (flags & ImGuiColorEditFlags_InputRGB)

	je	$LN15@ColorPicke
; File C:\dev\Photo Studio\Photo Studio\Dependencies\imgui\imgui.cpp

; 2428 :     if (g < b)

	comiss	xmm5, xmm4
	xorps	xmm1, xmm1

; 2427 :     float K = 0.f;

	movaps	xmm2, xmm5
	movaps	xmm10, xmm4

; 2428 :     if (g < b)

	jbe	SHORT $LN401@ColorPicke

; 2429 :     {
; 2430 :         ImSwap(g, b);
; 2431 :         K = -1.f;

	movss	xmm1, DWORD PTR __real@bf800000
; File C:\dev\Photo Studio\Photo Studio\Dependencies\imgui\imgui_internal.h

; 477  : template<typename T> static inline void ImSwap(T& a, T& b)                      { T tmp = a; a = b; b = tmp; }

	movaps	xmm10, xmm5
	movaps	xmm2, xmm4
$LN401@ColorPicke:
; File C:\dev\Photo Studio\Photo Studio\Dependencies\imgui\imgui.cpp

; 2433 :     if (r < g)

	comiss	xmm10, xmm3
	movss	DWORD PTR V$1$[rsp], xmm3
	movaps	xmm8, xmm3
	jbe	SHORT $LN402@ColorPicke

; 2436 :         K = -2.f / 6.f - K;

	movss	xmm0, DWORD PTR __real@beaaaaab
; File C:\dev\Photo Studio\Photo Studio\Dependencies\imgui\imgui_internal.h

; 477  : template<typename T> static inline void ImSwap(T& a, T& b)                      { T tmp = a; a = b; b = tmp; }

	movaps	xmm8, xmm10
; File C:\dev\Photo Studio\Photo Studio\Dependencies\imgui\imgui.cpp

; 2436 :         K = -2.f / 6.f - K;

	subss	xmm0, xmm1
; File C:\dev\Photo Studio\Photo Studio\Dependencies\imgui\imgui_internal.h

; 477  : template<typename T> static inline void ImSwap(T& a, T& b)                      { T tmp = a; a = b; b = tmp; }

	movss	DWORD PTR V$1$[rsp], xmm10
	movaps	xmm10, xmm3
; File C:\dev\Photo Studio\Photo Studio\Dependencies\imgui\imgui.cpp

; 2436 :         K = -2.f / 6.f - K;

	movaps	xmm1, xmm0
$LN402@ColorPicke:
; File C:\dev\Photo Studio\Photo Studio\Dependencies\imgui\imgui_widgets.cpp

; 5136 :     if (g.ColorEditSavedID != g.ColorEditCurrentID || g.ColorEditSavedColor != ImGui::ColorConvertFloat4ToU32(ImVec4(col[0], col[1], col[2], 0)))

	mov	eax, DWORD PTR [rbx+24600]
; File C:\dev\Photo Studio\Photo Studio\Dependencies\imgui\imgui.cpp

; 2439 :     const float chroma = r - (g < b ? g : b);

	movaps	xmm0, xmm10
	minss	xmm0, xmm2
	movaps	xmm13, xmm8

; 2440 :     out_h = ImFabs(K + (g - b) / (6.f * chroma + 1e-20f));

	subss	xmm10, xmm2
	subss	xmm13, xmm0
	movaps	xmm0, xmm13
	mulss	xmm0, DWORD PTR __real@40c00000
	addss	xmm0, xmm7
	divss	xmm10, xmm0

; 2441 :     out_s = chroma / (r + 1e-20f);

	movaps	xmm0, xmm8
	addss	xmm0, xmm7
	addss	xmm10, xmm1
	divss	xmm13, xmm0
; File C:\Program Files (x86)\Windows Kits\10\Include\10.0.22000.0\ucrt\corecrt_math.h

; 676  :             return (float)fabs(_X);

	andps	xmm10, DWORD PTR __xmm@7fffffff7fffffff7fffffff7fffffff
; File C:\dev\Photo Studio\Photo Studio\Dependencies\imgui\imgui.cpp

; 2441 :     out_s = chroma / (r + 1e-20f);

	movss	DWORD PTR S$1$[rsp], xmm13
; File C:\Program Files (x86)\Windows Kits\10\Include\10.0.22000.0\ucrt\corecrt_math.h

; 676  :             return (float)fabs(_X);

	movss	DWORD PTR H$1$[rsp], xmm10
; File C:\dev\Photo Studio\Photo Studio\Dependencies\imgui\imgui_widgets.cpp

; 5136 :     if (g.ColorEditSavedID != g.ColorEditCurrentID || g.ColorEditSavedColor != ImGui::ColorConvertFloat4ToU32(ImVec4(col[0], col[1], col[2], 0)))

	cmp	DWORD PTR [rbx+24604], eax
	jne	$LN17@ColorPicke
	lea	rcx, QWORD PTR $T1[rbp-256]
; File C:\dev\Photo Studio\Photo Studio\Dependencies\imgui\imgui.h

; 292  :     constexpr ImVec4(float _x, float _y, float _z, float _w)  : x(_x), y(_y), z(_z), w(_w) { }

	movss	DWORD PTR $T1[rbp-256], xmm3
	movss	DWORD PTR $T1[rbp-252], xmm4
	movss	DWORD PTR $T1[rbp-248], xmm5
	mov	DWORD PTR $T1[rbp-244], r15d
; File C:\dev\Photo Studio\Photo Studio\Dependencies\imgui\imgui_widgets.cpp

; 5136 :     if (g.ColorEditSavedID != g.ColorEditCurrentID || g.ColorEditSavedColor != ImGui::ColorConvertFloat4ToU32(ImVec4(col[0], col[1], col[2], 0)))

	call	?ColorConvertFloat4ToU32@ImGui@@YAIAEBUImVec4@@@Z ; ImGui::ColorConvertFloat4ToU32
	cmp	DWORD PTR [rbx+24616], eax
	jne	$LN17@ColorPicke

; 5137 :         return;
; 5138 : 
; 5139 :     // When S == 0, H is undefined.
; 5140 :     // When H == 1 it wraps around to 0.
; 5141 :     if (*S == 0.0f || (*H == 0.0f && g.ColorEditSavedHue == 1))

	ucomiss	xmm13, xmm11
	jp	SHORT $LN1060@ColorPicke
	je	SHORT $LN1046@ColorPicke
$LN1060@ColorPicke:
	ucomiss	xmm10, xmm11
	jp	SHORT $LN415@ColorPicke
	jne	SHORT $LN415@ColorPicke
	movss	xmm0, DWORD PTR [rbx+24608]
	ucomiss	xmm0, xmm12
	jp	SHORT $LN415@ColorPicke
	jne	SHORT $LN415@ColorPicke
$LN1046@ColorPicke:

; 5142 :         *H = g.ColorEditSavedHue;

	movss	xmm10, DWORD PTR [rbx+24608]
	movss	DWORD PTR H$1$[rsp], xmm10
$LN415@ColorPicke:

; 5143 : 
; 5144 :     // When V == 0, S is undefined.
; 5145 :     if (*V == 0.0f)

	ucomiss	xmm8, xmm11
	jp	SHORT $LN17@ColorPicke
	jne	SHORT $LN17@ColorPicke

; 5146 :         *S = g.ColorEditSavedSat;

	movss	xmm13, DWORD PTR [rbx+24612]
	movss	DWORD PTR S$1$[rsp], xmm13

; 5863 :     {
; 5864 :         // Hue is lost when converting from grayscale rgb (saturation=0). Restore it.
; 5865 :         ColorConvertRGBtoHSV(R, G, B, H, S, V);
; 5866 :         ColorEditRestoreHS(col, &H, &S, &V);
; 5867 :     }

	jmp	SHORT $LN17@ColorPicke
$LN15@ColorPicke:

; 5868 :     else if (flags & ImGuiColorEditFlags_InputHSV)

	bt	edx, 28
	jae	SHORT $LN17@ColorPicke

; 5869 :     {
; 5870 :         ColorConvertHSVtoRGB(H, S, V, R, G, B);

	lea	rax, QWORD PTR B$[rsp]
	movaps	xmm2, xmm5
	mov	QWORD PTR [rsp+40], rax
	lea	r9, QWORD PTR R$[rsp]
	lea	rax, QWORD PTR G$[rsp]
	movaps	xmm1, xmm4
	movaps	xmm0, xmm3
	mov	QWORD PTR [rsp+32], rax
	call	?ColorConvertHSVtoRGB@ImGui@@YAXMMMAEAM00@Z ; ImGui::ColorConvertHSVtoRGB
	movss	xmm0, DWORD PTR R$[rsp]
	movss	xmm1, DWORD PTR G$[rsp]
	movups	XMMWORD PTR ?m_Color@WindowData@@2U?$vec@$03M$0A@@glm@@A$7[rbp-256], xmm0
	movss	xmm0, DWORD PTR B$[rsp]
	movaps	XMMWORD PTR tv6360[rbp-256], xmm0
	movaps	XMMWORD PTR tv6362[rbp-256], xmm1
$LN17@ColorPicke:
; File C:\dev\Photo Studio\Photo Studio\Dependencies\imgui\imgui.cpp

; 7889 :     g.CurrentItemFlags = item_flags;

	mov	r15d, DWORD PTR [rbx+19140]

; 7890 :     g.ItemFlagsStack.push_back(item_flags);

	lea	r14, QWORD PTR [rbx+19496]
; File C:\dev\Photo Studio\Photo Studio\Dependencies\imgui\imgui_widgets.cpp

; 5873 :     bool value_changed = false, value_changed_h = false, value_changed_sv = false;

	xor	cl, cl
; File C:\dev\Photo Studio\Photo Studio\Dependencies\imgui\imgui.cpp

; 7889 :     g.CurrentItemFlags = item_flags;

	or	r15d, 8
	mov	DWORD PTR [rbx+19140], r15d
; File C:\dev\Photo Studio\Photo Studio\Dependencies\imgui\imgui_widgets.cpp

; 5873 :     bool value_changed = false, value_changed_h = false, value_changed_sv = false;

	xor	r12b, r12b
; File C:\dev\Photo Studio\Photo Studio\Dependencies\imgui\imgui.h

; 2044 :     inline void         push_back(const T& v)               { if (Size == Capacity) reserve(_grow_capacity(Size + 1)); memcpy(&Data[Size], &v, sizeof(v)); Size++; }

	mov	r8d, DWORD PTR [r14]
; File C:\dev\Photo Studio\Photo Studio\Dependencies\imgui\imgui_widgets.cpp

; 5873 :     bool value_changed = false, value_changed_h = false, value_changed_sv = false;

	xor	al, al
	mov	BYTE PTR value_changed_sv$1$[rsp], cl
; File C:\dev\Photo Studio\Photo Studio\Dependencies\imgui\imgui.h

; 2044 :     inline void         push_back(const T& v)               { if (Size == Capacity) reserve(_grow_capacity(Size + 1)); memcpy(&Data[Size], &v, sizeof(v)); Size++; }

	mov	ecx, DWORD PTR [r14+4]
; File C:\dev\Photo Studio\Photo Studio\Dependencies\imgui\imgui_widgets.cpp

; 5873 :     bool value_changed = false, value_changed_h = false, value_changed_sv = false;

	mov	BYTE PTR value_changed$1$[rsp], r12b
	mov	BYTE PTR value_changed_h$1$[rsp], al
; File C:\dev\Photo Studio\Photo Studio\Dependencies\imgui\imgui.h

; 2044 :     inline void         push_back(const T& v)               { if (Size == Capacity) reserve(_grow_capacity(Size + 1)); memcpy(&Data[Size], &v, sizeof(v)); Size++; }

	cmp	r8d, ecx
	jne	SHORT $LN343@ColorPicke
	inc	r8d

; 2036 :     inline int          _grow_capacity(int sz) const        { int new_capacity = Capacity ? (Capacity + Capacity / 2) : 8; return new_capacity > sz ? new_capacity : sz; }

	test	ecx, ecx
	je	SHORT $LN347@ColorPicke
	mov	eax, ecx
	cdq
	sub	eax, edx
	sar	eax, 1
	add	eax, ecx
	jmp	SHORT $LN348@ColorPicke
$LN347@ColorPicke:
	mov	eax, 8
$LN348@ColorPicke:
	cmp	eax, r8d

; 2044 :     inline void         push_back(const T& v)               { if (Size == Capacity) reserve(_grow_capacity(Size + 1)); memcpy(&Data[Size], &v, sizeof(v)); Size++; }

	mov	rcx, r14

; 2036 :     inline int          _grow_capacity(int sz) const        { int new_capacity = Capacity ? (Capacity + Capacity / 2) : 8; return new_capacity > sz ? new_capacity : sz; }

	cmovg	r8d, eax

; 2044 :     inline void         push_back(const T& v)               { if (Size == Capacity) reserve(_grow_capacity(Size + 1)); memcpy(&Data[Size], &v, sizeof(v)); Size++; }

	mov	edx, r8d
	call	?reserve@?$ImVector@H@@QEAAXH@Z		; ImVector<int>::reserve
	mov	rbx, QWORD PTR ?GImGui@@3PEAUImGuiContext@@EA ; GImGui
$LN343@ColorPicke:
	movsxd	rcx, DWORD PTR [r14]
	mov	rax, QWORD PTR [r14+8]
; File C:\dev\Photo Studio\Photo Studio\Dependencies\imgui\imgui_widgets.cpp

; 5876 :     if (flags & ImGuiColorEditFlags_PickerHueWheel)

	movss	xmm7, DWORD PTR __real@40490fdb
; File C:\dev\Photo Studio\Photo Studio\Dependencies\imgui\imgui.h

; 2044 :     inline void         push_back(const T& v)               { if (Size == Capacity) reserve(_grow_capacity(Size + 1)); memcpy(&Data[Size], &v, sizeof(v)); Size++; }

	mov	DWORD PTR [rax+rcx*4], r15d
	inc	DWORD PTR [r14]
; File C:\dev\Photo Studio\Photo Studio\Dependencies\imgui\imgui_widgets.cpp

; 5876 :     if (flags & ImGuiColorEditFlags_PickerHueWheel)

	mov	r14d, DWORD PTR flags$GSCopy$1$[rbp-256]
	mov	eax, r14d
	and	eax, 67108864				; 04000000H
	mov	DWORD PTR tv6242[rbp-256], eax
	je	$LN18@ColorPicke

; 5879 :         InvisibleButton("hsv", ImVec2(sv_picker_size + style.ItemInnerSpacing.x + bars_width, sv_picker_size));

	movss	xmm1, DWORD PTR sv_picker_size$1$[rbp-256]
	lea	rdx, QWORD PTR $T3[rbp-256]
	movaps	xmm0, xmm1
; File C:\dev\Photo Studio\Photo Studio\Dependencies\imgui\imgui.h

; 279  :     constexpr ImVec2(float _x, float _y)    : x(_x), y(_y) { }

	movss	DWORD PTR $T3[rbp-252], xmm1
; File C:\dev\Photo Studio\Photo Studio\Dependencies\imgui\imgui_widgets.cpp

; 5879 :         InvisibleButton("hsv", ImVec2(sv_picker_size + style.ItemInnerSpacing.x + bars_width, sv_picker_size));

	addss	xmm0, DWORD PTR [r13+14924]
	lea	rcx, OFFSET FLAT:??_C@_03PPLPHHG@hsv@
	addss	xmm0, DWORD PTR square_sz$1$[rsp]
; File C:\dev\Photo Studio\Photo Studio\Dependencies\imgui\imgui.h

; 279  :     constexpr ImVec2(float _x, float _y)    : x(_x), y(_y) { }

	movss	DWORD PTR $T3[rbp-256], xmm0
; File C:\dev\Photo Studio\Photo Studio\Dependencies\imgui\imgui_widgets.cpp

; 5879 :         InvisibleButton("hsv", ImVec2(sv_picker_size + style.ItemInnerSpacing.x + bars_width, sv_picker_size));

	call	?InvisibleButton@ImGui@@YA_NPEBDAEBUImVec2@@H@Z ; ImGui::InvisibleButton
; File C:\dev\Photo Studio\Photo Studio\Dependencies\imgui\imgui.cpp

; 5501 :     ImGuiContext& g = *GImGui;

	mov	rax, QWORD PTR ?GImGui@@3PEAUImGuiContext@@EA ; GImGui

; 5502 :     if (g.ActiveId)

	mov	ecx, DWORD PTR [rax+16804]
	test	ecx, ecx
	je	$LN23@ColorPicke
; File C:\dev\Photo Studio\Photo Studio\Dependencies\imgui\imgui_widgets.cpp

; 5880 :         if (IsItemActive() && !is_readonly)

	cmp	ecx, DWORD PTR [rax+19184]
	jne	$LN23@ColorPicke
	test	dil, dil
	jne	$LN23@ColorPicke
; File C:\dev\Photo Studio\Photo Studio\Dependencies\imgui\imgui.h

; 2635 : static inline ImVec2  operator-(const ImVec2& lhs, const ImVec2& rhs)   { return ImVec2(lhs.x - rhs.x, lhs.y - rhs.y); }

	movss	xmm14, DWORD PTR [r13+14364]
	movss	xmm15, DWORD PTR [r13+14368]
	subss	xmm14, DWORD PTR wheel_center$2$[rbp-256]
	subss	xmm15, DWORD PTR wheel_center$1$[rbp-256]
; File C:\dev\Photo Studio\Photo Studio\Dependencies\imgui\imgui_widgets.cpp

; 5885 :             if (initial_dist2 >= (wheel_r_inner - 1) * (wheel_r_inner - 1) && initial_dist2 <= (wheel_r_outer + 1) * (wheel_r_outer + 1))

	movss	xmm1, DWORD PTR wheel_r_inner$1$[rbp-256]
; File C:\dev\Photo Studio\Photo Studio\Dependencies\imgui\imgui.h

; 2635 : static inline ImVec2  operator-(const ImVec2& lhs, const ImVec2& rhs)   { return ImVec2(lhs.x - rhs.x, lhs.y - rhs.y); }

	movss	xmm3, DWORD PTR [r13+3656]
; File C:\dev\Photo Studio\Photo Studio\Dependencies\imgui\imgui_widgets.cpp

; 5885 :             if (initial_dist2 >= (wheel_r_inner - 1) * (wheel_r_inner - 1) && initial_dist2 <= (wheel_r_outer + 1) * (wheel_r_outer + 1))

	subss	xmm1, xmm12
; File C:\dev\Photo Studio\Photo Studio\Dependencies\imgui\imgui.h

; 2635 : static inline ImVec2  operator-(const ImVec2& lhs, const ImVec2& rhs)   { return ImVec2(lhs.x - rhs.x, lhs.y - rhs.y); }

	movss	xmm4, DWORD PTR [r13+3660]
	subss	xmm3, DWORD PTR wheel_center$2$[rbp-256]
	subss	xmm4, DWORD PTR wheel_center$1$[rbp-256]
; File C:\dev\Photo Studio\Photo Studio\Dependencies\imgui\imgui_internal.h

; 488  : static inline float  ImLengthSqr(const ImVec2& lhs)                             { return (lhs.x * lhs.x) + (lhs.y * lhs.y); }

	movaps	xmm2, xmm15
; File C:\dev\Photo Studio\Photo Studio\Dependencies\imgui\imgui.h

; 279  :     constexpr ImVec2(float _x, float _y)    : x(_x), y(_y) { }

	movaps	xmm0, xmm14
; File C:\dev\Photo Studio\Photo Studio\Dependencies\imgui\imgui_internal.h

; 488  : static inline float  ImLengthSqr(const ImVec2& lhs)                             { return (lhs.x * lhs.x) + (lhs.y * lhs.y); }

	mulss	xmm2, xmm15
; File C:\dev\Photo Studio\Photo Studio\Dependencies\imgui\imgui.h

; 279  :     constexpr ImVec2(float _x, float _y)    : x(_x), y(_y) { }

	mulss	xmm0, xmm14
; File C:\dev\Photo Studio\Photo Studio\Dependencies\imgui\imgui_widgets.cpp

; 5885 :             if (initial_dist2 >= (wheel_r_inner - 1) * (wheel_r_inner - 1) && initial_dist2 <= (wheel_r_outer + 1) * (wheel_r_outer + 1))

	mulss	xmm1, xmm1
; File C:\dev\Photo Studio\Photo Studio\Dependencies\imgui\imgui_internal.h

; 488  : static inline float  ImLengthSqr(const ImVec2& lhs)                             { return (lhs.x * lhs.x) + (lhs.y * lhs.y); }

	addss	xmm2, xmm0
; File C:\dev\Photo Studio\Photo Studio\Dependencies\imgui\imgui.h

; 2635 : static inline ImVec2  operator-(const ImVec2& lhs, const ImVec2& rhs)   { return ImVec2(lhs.x - rhs.x, lhs.y - rhs.y); }

	movss	DWORD PTR tv6238[rbp-256], xmm3
	movss	DWORD PTR tv6237[rbp-256], xmm4
; File C:\dev\Photo Studio\Photo Studio\Dependencies\imgui\imgui_widgets.cpp

; 5885 :             if (initial_dist2 >= (wheel_r_inner - 1) * (wheel_r_inner - 1) && initial_dist2 <= (wheel_r_outer + 1) * (wheel_r_outer + 1))

	comiss	xmm2, xmm1
	jb	SHORT $LN21@ColorPicke
	movss	xmm0, DWORD PTR wheel_r_outer$1$[rbp-256]
	addss	xmm0, xmm12
	mulss	xmm0, xmm0
	comiss	xmm0, xmm2
	jb	SHORT $LN21@ColorPicke

; 5886 :             {
; 5887 :                 // Interactive with Hue wheel
; 5888 :                 H = ImAtan2(current_off.y, current_off.x) / IM_PI * 0.5f;

	movaps	xmm1, xmm3
	movaps	xmm0, xmm4
	call	atan2f
	movaps	xmm10, xmm0
	divss	xmm10, xmm7
	mulss	xmm10, xmm9

; 5889 :                 if (H < 0.0f)

	comiss	xmm11, xmm10
	movss	DWORD PTR H$1$[rsp], xmm10
	jbe	SHORT $LN22@ColorPicke

; 5890 :                     H += 1.0f;

	addss	xmm10, xmm12
	movss	DWORD PTR H$1$[rsp], xmm10
$LN22@ColorPicke:

; 5891 :                 value_changed = value_changed_h = true;

	mov	r12b, 1
	mov	BYTE PTR value_changed$1$[rsp], r12b
$LN21@ColorPicke:

; 5892 :             }
; 5893 :             float cos_hue_angle = ImCos(-H * 2.0f * IM_PI);

	movaps	xmm6, xmm10
	mov	BYTE PTR value_changed_h$1$[rsp], r12b
	xorps	xmm6, DWORD PTR __xmm@80000000800000008000000080000000
	addss	xmm6, xmm6
	mulss	xmm6, xmm7
	movaps	xmm0, xmm6
	call	cosf
	movaps	xmm7, xmm0

; 5894 :             float sin_hue_angle = ImSin(-H * 2.0f * IM_PI);

	movaps	xmm0, xmm6
	call	sinf
; File C:\dev\Photo Studio\Photo Studio\Dependencies\imgui\imgui.cpp

; 1796 :     bool b1 = ((p.x - b.x) * (a.y - b.y) - (p.y - b.y) * (a.x - b.x)) < 0.0f;

	movss	xmm5, DWORD PTR triangle_pa$[rbp-256]
; File C:\dev\Photo Studio\Photo Studio\Dependencies\imgui\imgui_internal.h

; 497  : static inline ImVec2 ImRotate(const ImVec2& v, float cos_a, float sin_a)        { return ImVec2(v.x * cos_a - v.y * sin_a, v.x * sin_a + v.y * cos_a); }

	movaps	xmm1, xmm0
; File C:\dev\Photo Studio\Photo Studio\Dependencies\imgui\imgui.cpp

; 1796 :     bool b1 = ((p.x - b.x) * (a.y - b.y) - (p.y - b.y) * (a.x - b.x)) < 0.0f;

	subss	xmm5, DWORD PTR triangle_pc$1$[rbp-256]
; File C:\dev\Photo Studio\Photo Studio\Dependencies\imgui\imgui_internal.h

; 497  : static inline ImVec2 ImRotate(const ImVec2& v, float cos_a, float sin_a)        { return ImVec2(v.x * cos_a - v.y * sin_a, v.x * sin_a + v.y * cos_a); }

	mulss	xmm1, xmm15
; File C:\dev\Photo Studio\Photo Studio\Dependencies\imgui\imgui_widgets.cpp

; 5894 :             float sin_hue_angle = ImSin(-H * 2.0f * IM_PI);

	movaps	xmm6, xmm0
; File C:\dev\Photo Studio\Photo Studio\Dependencies\imgui\imgui_internal.h

; 497  : static inline ImVec2 ImRotate(const ImVec2& v, float cos_a, float sin_a)        { return ImVec2(v.x * cos_a - v.y * sin_a, v.x * sin_a + v.y * cos_a); }

	movaps	xmm4, xmm7
; File C:\dev\Photo Studio\Photo Studio\Dependencies\imgui\imgui_widgets.cpp

; 5894 :             float sin_hue_angle = ImSin(-H * 2.0f * IM_PI);

	movaps	xmm3, xmm7
; File C:\dev\Photo Studio\Photo Studio\Dependencies\imgui\imgui_internal.h

; 497  : static inline ImVec2 ImRotate(const ImVec2& v, float cos_a, float sin_a)        { return ImVec2(v.x * cos_a - v.y * sin_a, v.x * sin_a + v.y * cos_a); }

	mulss	xmm4, xmm15
; File C:\dev\Photo Studio\Photo Studio\Dependencies\imgui\imgui_widgets.cpp

; 5894 :             float sin_hue_angle = ImSin(-H * 2.0f * IM_PI);

	mulss	xmm3, xmm14
; File C:\dev\Photo Studio\Photo Studio\Dependencies\imgui\imgui.cpp

; 1796 :     bool b1 = ((p.x - b.x) * (a.y - b.y) - (p.y - b.y) * (a.x - b.x)) < 0.0f;

	movss	DWORD PTR tv6164[rbp-256], xmm5
; File C:\dev\Photo Studio\Photo Studio\Dependencies\imgui\imgui_internal.h

; 497  : static inline ImVec2 ImRotate(const ImVec2& v, float cos_a, float sin_a)        { return ImVec2(v.x * cos_a - v.y * sin_a, v.x * sin_a + v.y * cos_a); }

	subss	xmm3, xmm1
; File C:\dev\Photo Studio\Photo Studio\Dependencies\imgui\imgui.h

; 279  :     constexpr ImVec2(float _x, float _y)    : x(_x), y(_y) { }

	movaps	xmm1, xmm0
	movss	xmm0, DWORD PTR triangle_pc$1$[rbp-256]
	mulss	xmm1, xmm14
; File C:\dev\Photo Studio\Photo Studio\Dependencies\imgui\imgui.cpp

; 1797 :     bool b2 = ((p.x - c.x) * (b.y - c.y) - (p.y - c.y) * (b.x - c.x)) < 0.0f;

	movaps	xmm15, xmm0
	movss	xmm14, DWORD PTR triangle_pb$2$[rbp-256]
	subss	xmm15, xmm0
	subss	xmm14, DWORD PTR trc$2$[rsp]
; File C:\dev\Photo Studio\Photo Studio\Dependencies\imgui\imgui_internal.h

; 497  : static inline ImVec2 ImRotate(const ImVec2& v, float cos_a, float sin_a)        { return ImVec2(v.x * cos_a - v.y * sin_a, v.x * sin_a + v.y * cos_a); }

	addss	xmm4, xmm1
; File C:\dev\Photo Studio\Photo Studio\Dependencies\imgui\imgui.h

; 279  :     constexpr ImVec2(float _x, float _y)    : x(_x), y(_y) { }

	movaps	xmm2, xmm3
	subss	xmm2, xmm0
; File C:\dev\Photo Studio\Photo Studio\Dependencies\imgui\imgui.cpp

; 1797 :     bool b2 = ((p.x - c.x) * (b.y - c.y) - (p.y - c.y) * (b.x - c.x)) < 0.0f;

	movaps	xmm0, xmm4
	subss	xmm0, DWORD PTR trc$2$[rsp]
	movaps	xmm1, xmm2
	mulss	xmm1, xmm14
	mulss	xmm0, xmm15
	subss	xmm1, xmm0
	xorps	xmm0, xmm0

; 1796 :     bool b1 = ((p.x - b.x) * (a.y - b.y) - (p.y - b.y) * (a.x - b.x)) < 0.0f;

	subss	xmm0, DWORD PTR triangle_pb$2$[rbp-256]

; 1797 :     bool b2 = ((p.x - c.x) * (b.y - c.y) - (p.y - c.y) * (b.x - c.x)) < 0.0f;

	comiss	xmm11, xmm1
	movaps	xmm1, xmm0
	movss	DWORD PTR tv6165[rbp-256], xmm0
	movaps	xmm0, xmm4
	mulss	xmm1, xmm2
	seta	cl
	subss	xmm0, DWORD PTR triangle_pb$2$[rbp-256]
	mulss	xmm0, xmm5
	subss	xmm1, xmm0
	comiss	xmm11, xmm1
	seta	al

; 1799 :     return ((b1 == b2) && (b2 == b3));

	cmp	al, cl
	jne	$LN975@ColorPicke

; 1798 :     bool b3 = ((p.x - a.x) * (c.y - a.y) - (p.y - a.y) * (c.x - a.x)) < 0.0f;

	subss	xmm3, DWORD PTR triangle_pa$[rbp-256]
	movss	xmm0, DWORD PTR trc$2$[rsp]
	subss	xmm4, xmm11
	movss	xmm1, DWORD PTR triangle_pc$1$[rbp-256]
	subss	xmm0, xmm11
	subss	xmm1, DWORD PTR triangle_pa$[rbp-256]
	mulss	xmm3, xmm0
	mulss	xmm1, xmm4
	subss	xmm3, xmm1
	comiss	xmm11, xmm3
	seta	al

; 1799 :     return ((b1 == b2) && (b2 == b3));

	cmp	cl, al
	jne	$LN975@ColorPicke
; File C:\dev\Photo Studio\Photo Studio\Dependencies\imgui\imgui_internal.h

; 497  : static inline ImVec2 ImRotate(const ImVec2& v, float cos_a, float sin_a)        { return ImVec2(v.x * cos_a - v.y * sin_a, v.x * sin_a + v.y * cos_a); }

	movss	xmm2, DWORD PTR tv6237[rbp-256]
	movaps	xmm5, xmm7
	mulss	xmm5, DWORD PTR tv6238[rbp-256]
	movaps	xmm0, xmm6
	mulss	xmm6, DWORD PTR tv6238[rbp-256]
; File C:\dev\Photo Studio\Photo Studio\Dependencies\imgui\imgui.h

; 279  :     constexpr ImVec2(float _x, float _y)    : x(_x), y(_y) { }

	movss	xmm8, DWORD PTR triangle_pc$1$[rbp-256]
; File C:\dev\Photo Studio\Photo Studio\Dependencies\imgui\imgui.cpp

; 1799 :     return ((b1 == b2) && (b2 == b3));

	movss	xmm13, DWORD PTR triangle_pa$[rbp-256]
; File C:\dev\Photo Studio\Photo Studio\Dependencies\imgui\imgui_internal.h

; 497  : static inline ImVec2 ImRotate(const ImVec2& v, float cos_a, float sin_a)        { return ImVec2(v.x * cos_a - v.y * sin_a, v.x * sin_a + v.y * cos_a); }

	mulss	xmm0, xmm2
; File C:\dev\Photo Studio\Photo Studio\Dependencies\imgui\imgui.h

; 279  :     constexpr ImVec2(float _x, float _y)    : x(_x), y(_y) { }

	mulss	xmm7, xmm2
; File C:\dev\Photo Studio\Photo Studio\Dependencies\imgui\imgui_internal.h

; 497  : static inline ImVec2 ImRotate(const ImVec2& v, float cos_a, float sin_a)        { return ImVec2(v.x * cos_a - v.y * sin_a, v.x * sin_a + v.y * cos_a); }

	subss	xmm5, xmm0
	addss	xmm7, xmm6
; File C:\dev\Photo Studio\Photo Studio\Dependencies\imgui\imgui.cpp

; 1797 :     bool b2 = ((p.x - c.x) * (b.y - c.y) - (p.y - c.y) * (b.x - c.x)) < 0.0f;

	movss	xmm6, DWORD PTR trc$2$[rsp]
; File C:\dev\Photo Studio\Photo Studio\Dependencies\imgui\imgui.h

; 279  :     constexpr ImVec2(float _x, float _y)    : x(_x), y(_y) { }

	movaps	xmm1, xmm5
	movss	DWORD PTR current_off_unrotated$69[rbp-256], xmm5
	subss	xmm1, xmm8
	movaps	xmm2, xmm5
; File C:\dev\Photo Studio\Photo Studio\Dependencies\imgui\imgui.cpp

; 1797 :     bool b2 = ((p.x - c.x) * (b.y - c.y) - (p.y - c.y) * (b.x - c.x)) < 0.0f;

	movaps	xmm0, xmm7
; File C:\dev\Photo Studio\Photo Studio\Dependencies\imgui\imgui.h

; 279  :     constexpr ImVec2(float _x, float _y)    : x(_x), y(_y) { }

	movss	DWORD PTR current_off_unrotated$69[rbp-252], xmm7
; File C:\dev\Photo Studio\Photo Studio\Dependencies\imgui\imgui.cpp

; 1797 :     bool b2 = ((p.x - c.x) * (b.y - c.y) - (p.y - c.y) * (b.x - c.x)) < 0.0f;

	subss	xmm0, xmm6
; File C:\dev\Photo Studio\Photo Studio\Dependencies\imgui\imgui.h

; 279  :     constexpr ImVec2(float _x, float _y)    : x(_x), y(_y) { }

	subss	xmm2, xmm8
; File C:\dev\Photo Studio\Photo Studio\Dependencies\imgui\imgui.cpp

; 1797 :     bool b2 = ((p.x - c.x) * (b.y - c.y) - (p.y - c.y) * (b.x - c.x)) < 0.0f;

	mulss	xmm1, xmm14
	movss	xmm14, DWORD PTR triangle_pb$2$[rbp-256]
	mulss	xmm2, DWORD PTR tv6165[rbp-256]
	mulss	xmm0, xmm15
	subss	xmm1, xmm0
	movaps	xmm0, xmm7
	subss	xmm0, xmm14
	comiss	xmm11, xmm1
	mulss	xmm0, DWORD PTR tv6164[rbp-256]
	seta	cl
	subss	xmm2, xmm0
	comiss	xmm11, xmm2
	seta	al

; 1799 :     return ((b1 == b2) && (b2 == b3));

	cmp	al, cl
	jne	SHORT $LN1057@ColorPicke

; 1798 :     bool b3 = ((p.x - a.x) * (c.y - a.y) - (p.y - a.y) * (c.x - a.x)) < 0.0f;

	movaps	xmm0, xmm6
	movaps	xmm2, xmm5
	subss	xmm0, xmm11
	movaps	xmm1, xmm8
	subss	xmm2, xmm13
	subss	xmm1, xmm13
	mulss	xmm2, xmm0
	movaps	xmm0, xmm7
	subss	xmm0, xmm11
	mulss	xmm1, xmm0
	subss	xmm2, xmm1
	comiss	xmm11, xmm2
	seta	al

; 1799 :     return ((b1 == b2) && (b2 == b3));

	cmp	cl, al
	je	SHORT $LN24@ColorPicke
$LN1057@ColorPicke:
; File C:\dev\Photo Studio\Photo Studio\Dependencies\imgui\imgui_widgets.cpp

; 5900 :                     current_off_unrotated = ImTriangleClosestPoint(triangle_pa, triangle_pb, triangle_pc, current_off_unrotated);

	lea	rax, QWORD PTR current_off_unrotated$69[rbp-256]
	lea	r9, QWORD PTR triangle_pc$[rbp-256]
	mov	QWORD PTR [rsp+32], rax
	lea	r8, QWORD PTR triangle_pb$[rsp]
	lea	rdx, QWORD PTR triangle_pa$[rbp-256]
	lea	rcx, QWORD PTR $T6[rbp-256]
	call	?ImTriangleClosestPoint@@YA?AUImVec2@@AEBU1@000@Z ; ImTriangleClosestPoint
	movsd	xmm1, QWORD PTR [rax]
	movaps	xmm0, xmm1
	movsd	QWORD PTR current_off_unrotated$69[rbp-256], xmm1
	shufps	xmm0, xmm0, 85				; 00000055H
	movaps	xmm5, xmm1
	movaps	xmm7, xmm0
$LN24@ColorPicke:
; File C:\dev\Photo Studio\Photo Studio\Dependencies\imgui\imgui.h

; 2635 : static inline ImVec2  operator-(const ImVec2& lhs, const ImVec2& rhs)   { return ImVec2(lhs.x - rhs.x, lhs.y - rhs.y); }

	subss	xmm5, xmm13
	movaps	xmm4, xmm14
	subss	xmm7, xmm11
	movaps	xmm3, xmm6
	subss	xmm3, xmm11
	movaps	xmm1, xmm8
	subss	xmm1, xmm13
; File C:\dev\Photo Studio\Photo Studio\Dependencies\imgui\imgui_internal.h

; 475  : template<typename T> static inline T ImClamp(T v, T mn, T mx)                   { return (v < mn) ? mn : (v > mx) ? mx : v; }

	movss	xmm13, DWORD PTR __real@38d1b717
; File C:\dev\Photo Studio\Photo Studio\Dependencies\imgui\imgui.h

; 2635 : static inline ImVec2  operator-(const ImVec2& lhs, const ImVec2& rhs)   { return ImVec2(lhs.x - rhs.x, lhs.y - rhs.y); }

	subss	xmm4, xmm11
; File C:\dev\Photo Studio\Photo Studio\Dependencies\imgui\imgui_internal.h

; 475  : template<typename T> static inline T ImClamp(T v, T mn, T mx)                   { return (v < mn) ? mn : (v > mx) ? mx : v; }

	movss	DWORD PTR S$1$[rsp], xmm13
; File C:\dev\Photo Studio\Photo Studio\Dependencies\imgui\imgui.h

; 279  :     constexpr ImVec2(float _x, float _y)    : x(_x), y(_y) { }

	movaps	xmm2, xmm3
; File C:\dev\Photo Studio\Photo Studio\Dependencies\imgui\imgui.cpp

; 1807 :     const float denom = v0.x * v1.y - v1.x * v0.y;

	mulss	xmm3, xmm5

; 1808 :     out_v = (v2.x * v1.y - v1.x * v2.y) / denom;

	mulss	xmm7, xmm1
	movaps	xmm0, xmm4
	mulss	xmm0, xmm1
; File C:\dev\Photo Studio\Photo Studio\Dependencies\imgui\imgui.h

; 279  :     constexpr ImVec2(float _x, float _y)    : x(_x), y(_y) { }

	mulss	xmm2, xmm1
; File C:\dev\Photo Studio\Photo Studio\Dependencies\imgui\imgui.cpp

; 1808 :     out_v = (v2.x * v1.y - v1.x * v2.y) / denom;

	subss	xmm3, xmm7

; 1809 :     out_w = (v0.x * v2.y - v2.x * v0.y) / denom;

	mulss	xmm5, xmm4

; 1810 :     out_u = 1.0f - out_v - out_w;

	movaps	xmm1, xmm12
	subss	xmm2, xmm0
	subss	xmm7, xmm5
	divss	xmm3, xmm2
	divss	xmm7, xmm2
	subss	xmm1, xmm3
; File C:\dev\Photo Studio\Photo Studio\Dependencies\imgui\imgui_internal.h

; 475  : template<typename T> static inline T ImClamp(T v, T mn, T mx)                   { return (v < mn) ? mn : (v > mx) ? mx : v; }

	comiss	xmm13, xmm1
; File C:\dev\Photo Studio\Photo Studio\Dependencies\imgui\imgui.cpp

; 1810 :     out_u = 1.0f - out_v - out_w;

	movaps	xmm0, xmm1
	subss	xmm0, xmm7
; File C:\dev\Photo Studio\Photo Studio\Dependencies\imgui\imgui_internal.h

; 475  : template<typename T> static inline T ImClamp(T v, T mn, T mx)                   { return (v < mn) ? mn : (v > mx) ? mx : v; }

	jbe	SHORT $LN1011@ColorPicke
	movaps	xmm8, xmm13
	jmp	SHORT $LN1195@ColorPicke
$LN1011@ColorPicke:
	movaps	xmm8, xmm12
	minss	xmm8, xmm1
$LN1195@ColorPicke:
; File C:\dev\Photo Studio\Photo Studio\Dependencies\imgui\imgui_widgets.cpp

; 5904 :                 S = ImClamp(uu / V, 0.0001f, 1.0f);

	divss	xmm0, xmm8
	movss	DWORD PTR V$1$[rsp], xmm8
; File C:\dev\Photo Studio\Photo Studio\Dependencies\imgui\imgui_internal.h

; 475  : template<typename T> static inline T ImClamp(T v, T mn, T mx)                   { return (v < mn) ? mn : (v > mx) ? mx : v; }

	comiss	xmm13, xmm0
	ja	SHORT $LN1018@ColorPicke
	movaps	xmm13, xmm12
	minss	xmm13, xmm0
	movss	DWORD PTR S$1$[rsp], xmm13
$LN1018@ColorPicke:
; File C:\dev\Photo Studio\Photo Studio\Dependencies\imgui\imgui_widgets.cpp

; 5905 :                 value_changed = value_changed_sv = true;

	mov	r12b, 1
	mov	BYTE PTR value_changed_sv$1$[rsp], 1
	mov	BYTE PTR value_changed$1$[rsp], r12b
	jmp	SHORT $LN1196@ColorPicke
$LN975@ColorPicke:
; File C:\dev\Photo Studio\Photo Studio\Dependencies\imgui\imgui.cpp

; 1799 :     return ((b1 == b2) && (b2 == b3));

	mov	BYTE PTR value_changed_h$1$[rsp], r12b
$LN1196@ColorPicke:
; File C:\dev\Photo Studio\Photo Studio\Dependencies\imgui\imgui_widgets.cpp

; 5909 :             OpenPopupOnItemClick("context", ImGuiPopupFlags_MouseButtonRight);

	movsd	xmm14, QWORD PTR tv6330[rbp-256]
$LN23@ColorPicke:
	call	?OpenPopupOnItemClick@ImGui@@YAXPEBDH@Z	; ImGui::OpenPopupOnItemClick

; 5910 :     }

	mov	rbx, QWORD PTR ?GImGui@@3PEAUImGuiContext@@EA ; GImGui
	movss	xmm7, DWORD PTR sv_picker_size$1$[rbp-256]
	movss	xmm15, DWORD PTR square_sz$1$[rsp]
	movzx	edi, BYTE PTR value_changed_h$1$[rsp]
	movzx	r15d, BYTE PTR value_changed_sv$1$[rsp]
	jmp	$LN29@ColorPicke
$LN18@ColorPicke:

; 5911 :     else if (flags & ImGuiColorEditFlags_PickerHueBar)

	movss	xmm7, DWORD PTR sv_picker_size$1$[rbp-256]
	bt	r14d, 25
	jae	$LN1067@ColorPicke

; 5914 :         InvisibleButton("sv", ImVec2(sv_picker_size, sv_picker_size));

	lea	rdx, QWORD PTR $T7[rsp]
; File C:\dev\Photo Studio\Photo Studio\Dependencies\imgui\imgui.h

; 279  :     constexpr ImVec2(float _x, float _y)    : x(_x), y(_y) { }

	movss	DWORD PTR $T7[rsp], xmm7
; File C:\dev\Photo Studio\Photo Studio\Dependencies\imgui\imgui_widgets.cpp

; 5914 :         InvisibleButton("sv", ImVec2(sv_picker_size, sv_picker_size));

	lea	rcx, OFFSET FLAT:??_C@_02CPGMCOJE@sv@
; File C:\dev\Photo Studio\Photo Studio\Dependencies\imgui\imgui.h

; 279  :     constexpr ImVec2(float _x, float _y)    : x(_x), y(_y) { }

	movss	DWORD PTR $T7[rsp+4], xmm7
; File C:\dev\Photo Studio\Photo Studio\Dependencies\imgui\imgui_widgets.cpp

; 5914 :         InvisibleButton("sv", ImVec2(sv_picker_size, sv_picker_size));

	call	?InvisibleButton@ImGui@@YA_NPEBDAEBUImVec2@@H@Z ; ImGui::InvisibleButton
; File C:\dev\Photo Studio\Photo Studio\Dependencies\imgui\imgui.cpp

; 5501 :     ImGuiContext& g = *GImGui;

	mov	r8, QWORD PTR ?GImGui@@3PEAUImGuiContext@@EA ; GImGui

; 5502 :     if (g.ActiveId)

	mov	eax, DWORD PTR [r8+16804]
	test	eax, eax
	je	$LN27@ColorPicke
; File C:\dev\Photo Studio\Photo Studio\Dependencies\imgui\imgui_widgets.cpp

; 5915 :         if (IsItemActive() && !is_readonly)

	cmp	eax, DWORD PTR [r8+19184]
	jne	$LN27@ColorPicke
	test	dil, dil
	jne	$LN27@ColorPicke

; 5916 :         {
; 5917 :             S = ImSaturate((io.MousePos.x - picker_pos.x) / (sv_picker_size - 1));

	movss	xmm1, DWORD PTR [r13+3656]
	movaps	xmm0, xmm7
	subss	xmm1, DWORD PTR picker_pos$3$[rbp-256]
	subss	xmm0, xmm12
	divss	xmm1, xmm0
; File C:\dev\Photo Studio\Photo Studio\Dependencies\imgui\imgui_internal.h

; 487  : static inline float  ImSaturate(float f)                                        { return (f < 0.0f) ? 0.0f : (f > 1.0f) ? 1.0f : f; }

	comiss	xmm11, xmm1
	jbe	SHORT $LN1023@ColorPicke
	xorps	xmm13, xmm13
	jmp	SHORT $LN1197@ColorPicke
$LN1023@ColorPicke:
	movaps	xmm13, xmm12
	minss	xmm13, xmm1
$LN1197@ColorPicke:
; File C:\dev\Photo Studio\Photo Studio\Dependencies\imgui\imgui_widgets.cpp

; 5918 :             V = 1.0f - ImSaturate((io.MousePos.y - picker_pos.y) / (sv_height - 1));

	movss	xmm1, DWORD PTR [r13+3660]
	movaps	xmm0, xmm6
	subss	xmm1, xmm14
	movss	DWORD PTR S$1$[rsp], xmm13
	subss	xmm0, xmm12
	divss	xmm1, xmm0
; File C:\dev\Photo Studio\Photo Studio\Dependencies\imgui\imgui_internal.h

; 487  : static inline float  ImSaturate(float f)                                        { return (f < 0.0f) ? 0.0f : (f > 1.0f) ? 1.0f : f; }

	comiss	xmm11, xmm1
	jbe	SHORT $LN987@ColorPicke
	xorps	xmm0, xmm0
	jmp	SHORT $LN988@ColorPicke
$LN987@ColorPicke:
	movaps	xmm0, xmm12
	minss	xmm0, xmm1
$LN988@ColorPicke:
; File C:\dev\Photo Studio\Photo Studio\Dependencies\imgui\imgui_widgets.cpp

; 5125 :     if (g.ColorEditSavedID != g.ColorEditCurrentID || g.ColorEditSavedColor != ImGui::ColorConvertFloat4ToU32(ImVec4(col[0], col[1], col[2], 0)))

	mov	eax, DWORD PTR [r8+24600]

; 5918 :             V = 1.0f - ImSaturate((io.MousePos.y - picker_pos.y) / (sv_height - 1));

	movaps	xmm8, xmm12
	subss	xmm8, xmm0
	movss	DWORD PTR V$1$[rsp], xmm8

; 5125 :     if (g.ColorEditSavedID != g.ColorEditCurrentID || g.ColorEditSavedColor != ImGui::ColorConvertFloat4ToU32(ImVec4(col[0], col[1], col[2], 0)))

	cmp	DWORD PTR [r8+24604], eax
	jne	SHORT $LN1027@ColorPicke
; File C:\dev\Photo Studio\Photo Studio\Dependencies\imgui\imgui.h

; 292  :     constexpr ImVec4(float _x, float _y, float _z, float _w)  : x(_x), y(_y), z(_z), w(_w) { }

	movss	xmm0, DWORD PTR ?m_Color@WindowData@@2U?$vec@$03M$0A@@glm@@A
; File C:\dev\Photo Studio\Photo Studio\Dependencies\imgui\imgui_widgets.cpp

; 5125 :     if (g.ColorEditSavedID != g.ColorEditCurrentID || g.ColorEditSavedColor != ImGui::ColorConvertFloat4ToU32(ImVec4(col[0], col[1], col[2], 0)))

	lea	rcx, QWORD PTR $T9[rsp]
; File C:\dev\Photo Studio\Photo Studio\Dependencies\imgui\imgui.h

; 292  :     constexpr ImVec4(float _x, float _y, float _z, float _w)  : x(_x), y(_y), z(_z), w(_w) { }

	movss	xmm1, DWORD PTR ?m_Color@WindowData@@2U?$vec@$03M$0A@@glm@@A+4
	movss	DWORD PTR $T9[rsp], xmm0
	movss	xmm0, DWORD PTR ?m_Color@WindowData@@2U?$vec@$03M$0A@@glm@@A+8
	movss	DWORD PTR $T9[rsp+8], xmm0
	movss	DWORD PTR $T9[rsp+4], xmm1
	mov	DWORD PTR $T9[rsp+12], 0
; File C:\dev\Photo Studio\Photo Studio\Dependencies\imgui\imgui_widgets.cpp

; 5125 :     if (g.ColorEditSavedID != g.ColorEditCurrentID || g.ColorEditSavedColor != ImGui::ColorConvertFloat4ToU32(ImVec4(col[0], col[1], col[2], 0)))

	call	?ColorConvertFloat4ToU32@ImGui@@YAIAEBUImVec4@@@Z ; ImGui::ColorConvertFloat4ToU32
	cmp	DWORD PTR [r8+24616], eax
	jne	SHORT $LN1027@ColorPicke

; 5126 :         return;
; 5127 :     *H = g.ColorEditSavedHue;

	movss	xmm10, DWORD PTR [r8+24608]
	movss	DWORD PTR H$1$[rsp], xmm10
$LN1027@ColorPicke:

; 5919 :             ColorEditRestoreH(col, &H); // Greatly reduces hue jitter and reset to 0 when hue == 255 and color is rapidly modified using SV square.
; 5920 :             value_changed = value_changed_sv = true;

	mov	r12b, 1
	mov	BYTE PTR value_changed$1$[rsp], r12b
$LN27@ColorPicke:

; 5921 :         }
; 5922 :         if (!(flags & ImGuiColorEditFlags_NoOptions))

	movzx	r15d, r12b
	mov	BYTE PTR value_changed_sv$1$[rsp], r12b
	movzx	r14d, r12b

; 5923 :             OpenPopupOnItemClick("context", ImGuiPopupFlags_MouseButtonRight);

	call	?OpenPopupOnItemClick@ImGui@@YAXPEBDH@Z	; ImGui::OpenPopupOnItemClick
; File C:\dev\Photo Studio\Photo Studio\Dependencies\imgui\imgui_internal.h

; 3237 :     inline    ImGuiWindow*  GetCurrentWindow()          { ImGuiContext& g = *GImGui; g.CurrentWindow->WriteAccessed = true; return g.CurrentWindow; }

	mov	rcx, QWORD PTR ?GImGui@@3PEAUImGuiContext@@EA ; GImGui
; File C:\dev\Photo Studio\Photo Studio\Dependencies\imgui\imgui_widgets.cpp

; 5927 :         InvisibleButton("hue", ImVec2(bars_width, sv_height));

	lea	rdx, QWORD PTR $T11[rsp]
; File C:\dev\Photo Studio\Photo Studio\Dependencies\imgui\imgui.h

; 279  :     constexpr ImVec2(float _x, float _y)    : x(_x), y(_y) { }

	movss	DWORD PTR $T11[rsp+4], xmm6
; File C:\dev\Photo Studio\Photo Studio\Dependencies\imgui\imgui_internal.h

; 3237 :     inline    ImGuiWindow*  GetCurrentWindow()          { ImGuiContext& g = *GImGui; g.CurrentWindow->WriteAccessed = true; return g.CurrentWindow; }

	mov	rax, QWORD PTR [rcx+16704]
	mov	BYTE PTR [rax+245], 1
	mov	rax, QWORD PTR [rcx+16704]
; File C:\dev\Photo Studio\Photo Studio\Dependencies\imgui\imgui_widgets.cpp

; 5927 :         InvisibleButton("hue", ImVec2(bars_width, sv_height));

	lea	rcx, OFFSET FLAT:??_C@_03GKJJMKFG@hue@
; File C:\dev\Photo Studio\Photo Studio\Dependencies\imgui\imgui.cpp

; 10728:     window->DC.CursorPos = pos;

	movss	DWORD PTR [rax+320], xmm15
; File C:\dev\Photo Studio\Photo Studio\Dependencies\imgui\imgui.h

; 279  :     constexpr ImVec2(float _x, float _y)    : x(_x), y(_y) { }

	movss	xmm15, DWORD PTR square_sz$1$[rsp]
	movss	DWORD PTR $T11[rsp], xmm15
; File C:\dev\Photo Studio\Photo Studio\Dependencies\imgui\imgui.cpp

; 10728:     window->DC.CursorPos = pos;

	movss	DWORD PTR [rax+324], xmm14

; 10729:     //window->DC.CursorMaxPos = ImMax(window->DC.CursorMaxPos, window->DC.CursorPos);
; 10730:     window->DC.IsSetPos = true;

	mov	BYTE PTR [rax+385], 1
; File C:\dev\Photo Studio\Photo Studio\Dependencies\imgui\imgui_widgets.cpp

; 5927 :         InvisibleButton("hue", ImVec2(bars_width, sv_height));

	call	?InvisibleButton@ImGui@@YA_NPEBDAEBUImVec2@@H@Z ; ImGui::InvisibleButton
; File C:\dev\Photo Studio\Photo Studio\Dependencies\imgui\imgui.cpp

; 5501 :     ImGuiContext& g = *GImGui;

	mov	rbx, QWORD PTR ?GImGui@@3PEAUImGuiContext@@EA ; GImGui

; 5502 :     if (g.ActiveId)

	mov	eax, DWORD PTR [rbx+16804]
	test	eax, eax
	je	SHORT $LN1070@ColorPicke
; File C:\dev\Photo Studio\Photo Studio\Dependencies\imgui\imgui_widgets.cpp

; 5928 :         if (IsItemActive() && !is_readonly)

	mov	BYTE PTR value_changed_sv$1$[rsp], r12b
	cmp	eax, DWORD PTR [rbx+19184]
	jne	SHORT $LN1070@ColorPicke
	mov	BYTE PTR value_changed_sv$1$[rsp], r12b
	test	dil, dil
	jne	SHORT $LN1070@ColorPicke

; 5929 :         {
; 5930 :             H = ImSaturate((io.MousePos.y - picker_pos.y) / (sv_height - 1));

	movss	xmm1, DWORD PTR [r13+3660]
	movaps	xmm0, xmm6
	subss	xmm1, xmm14
	subss	xmm0, xmm12
	divss	xmm1, xmm0
; File C:\dev\Photo Studio\Photo Studio\Dependencies\imgui\imgui_internal.h

; 487  : static inline float  ImSaturate(float f)                                        { return (f < 0.0f) ? 0.0f : (f > 1.0f) ? 1.0f : f; }

	comiss	xmm11, xmm1
	jbe	SHORT $LN981@ColorPicke
	xorps	xmm10, xmm10
	jmp	SHORT $LN1198@ColorPicke
$LN981@ColorPicke:
	movaps	xmm10, xmm12
	minss	xmm10, xmm1
$LN1198@ColorPicke:
; File C:\dev\Photo Studio\Photo Studio\Dependencies\imgui\imgui_widgets.cpp

; 5931 :             value_changed = value_changed_h = true;

	mov	dil, 1
	movss	DWORD PTR H$1$[rsp], xmm10
	mov	BYTE PTR value_changed_h$1$[rsp], dil
	movzx	r12d, dil
	mov	BYTE PTR value_changed$1$[rsp], dil
	mov	BYTE PTR value_changed_sv$1$[rsp], r14b
	jmp	SHORT $LN1199@ColorPicke
$LN1067@ColorPicke:

; 5911 :     else if (flags & ImGuiColorEditFlags_PickerHueBar)

	movss	xmm15, DWORD PTR square_sz$1$[rsp]
	xor	dil, dil
	xor	r15b, r15b
	jmp	SHORT $LN29@ColorPicke
$LN1070@ColorPicke:

; 5932 :         }
; 5933 :     }
; 5934 : 
; 5935 :     // Alpha bar logic
; 5936 :     if (alpha_bar)

	xor	dil, dil
$LN1199@ColorPicke:
	mov	r14d, DWORD PTR flags$GSCopy$1$[rbp-256]
$LN29@ColorPicke:
	cmp	DWORD PTR tv6253[rbp-256], 65536	; 00010000H
	jne	$LN31@ColorPicke
; File C:\dev\Photo Studio\Photo Studio\Dependencies\imgui\imgui_internal.h

; 3237 :     inline    ImGuiWindow*  GetCurrentWindow()          { ImGuiContext& g = *GImGui; g.CurrentWindow->WriteAccessed = true; return g.CurrentWindow; }

	mov	rax, QWORD PTR [rbx+16704]
; File C:\dev\Photo Studio\Photo Studio\Dependencies\imgui\imgui_widgets.cpp

; 5939 :         InvisibleButton("alpha", ImVec2(bars_width, sv_picker_size));

	lea	rdx, QWORD PTR $T14[rsp]
; File C:\dev\Photo Studio\Photo Studio\Dependencies\imgui\imgui.cpp

; 10728:     window->DC.CursorPos = pos;

	movss	xmm0, DWORD PTR $T70[rbp-256]
; File C:\dev\Photo Studio\Photo Studio\Dependencies\imgui\imgui_widgets.cpp

; 5939 :         InvisibleButton("alpha", ImVec2(bars_width, sv_picker_size));

	lea	rcx, OFFSET FLAT:??_C@_05IAEKHIAN@alpha@
; File C:\dev\Photo Studio\Photo Studio\Dependencies\imgui\imgui.h

; 279  :     constexpr ImVec2(float _x, float _y)    : x(_x), y(_y) { }

	movss	DWORD PTR $T14[rsp], xmm15
	movss	DWORD PTR $T14[rsp+4], xmm7
; File C:\dev\Photo Studio\Photo Studio\Dependencies\imgui\imgui_internal.h

; 3237 :     inline    ImGuiWindow*  GetCurrentWindow()          { ImGuiContext& g = *GImGui; g.CurrentWindow->WriteAccessed = true; return g.CurrentWindow; }

	mov	BYTE PTR [rax+245], 1
	mov	rax, QWORD PTR [rbx+16704]
; File C:\dev\Photo Studio\Photo Studio\Dependencies\imgui\imgui.cpp

; 10728:     window->DC.CursorPos = pos;

	movss	DWORD PTR [rax+320], xmm0
	movss	DWORD PTR [rax+324], xmm14

; 10729:     //window->DC.CursorMaxPos = ImMax(window->DC.CursorMaxPos, window->DC.CursorPos);
; 10730:     window->DC.IsSetPos = true;

	mov	BYTE PTR [rax+385], 1
; File C:\dev\Photo Studio\Photo Studio\Dependencies\imgui\imgui_widgets.cpp

; 5939 :         InvisibleButton("alpha", ImVec2(bars_width, sv_picker_size));

	call	?InvisibleButton@ImGui@@YA_NPEBDAEBUImVec2@@H@Z ; ImGui::InvisibleButton
; File C:\dev\Photo Studio\Photo Studio\Dependencies\imgui\imgui.cpp

; 5501 :     ImGuiContext& g = *GImGui;

	mov	rbx, QWORD PTR ?GImGui@@3PEAUImGuiContext@@EA ; GImGui

; 5502 :     if (g.ActiveId)

	mov	eax, DWORD PTR [rbx+16804]
	test	eax, eax
	je	SHORT $LN31@ColorPicke
; File C:\dev\Photo Studio\Photo Studio\Dependencies\imgui\imgui_widgets.cpp

; 5940 :         if (IsItemActive())

	cmp	eax, DWORD PTR [rbx+19184]
	jne	SHORT $LN31@ColorPicke

; 5942 :             col[3] = 1.0f - ImSaturate((io.MousePos.y - picker_pos.y) / (sv_picker_size - 1));

	movss	xmm1, DWORD PTR [r13+3660]
	movaps	xmm0, xmm7
	subss	xmm1, xmm14
	subss	xmm0, xmm12
	divss	xmm1, xmm0
; File C:\dev\Photo Studio\Photo Studio\Dependencies\imgui\imgui_internal.h

; 487  : static inline float  ImSaturate(float f)                                        { return (f < 0.0f) ? 0.0f : (f > 1.0f) ? 1.0f : f; }

	comiss	xmm11, xmm1
	jbe	SHORT $LN873@ColorPicke
	xorps	xmm2, xmm2
	jmp	SHORT $LN874@ColorPicke
$LN873@ColorPicke:
	movaps	xmm2, xmm12
	minss	xmm2, xmm1
$LN874@ColorPicke:
; File C:\dev\Photo Studio\Photo Studio\Dependencies\imgui\imgui_widgets.cpp

; 5942 :             col[3] = 1.0f - ImSaturate((io.MousePos.y - picker_pos.y) / (sv_picker_size - 1));

	movaps	xmm0, xmm12

; 5943 :             value_changed = true;

	mov	r12b, 1
	subss	xmm0, xmm2
	mov	BYTE PTR value_changed$1$[rsp], r12b
	movss	DWORD PTR ?m_Color@WindowData@@2U?$vec@$03M$0A@@glm@@A+12, xmm0
$LN31@ColorPicke:
; File C:\dev\Photo Studio\Photo Studio\Dependencies\imgui\imgui.h

; 2045 :     inline void         pop_back()                          { IM_ASSERT(Size > 0); Size--; }

	movsxd	rcx, DWORD PTR [rbx+19496]
; File C:\dev\Photo Studio\Photo Studio\Dependencies\imgui\imgui.cpp

; 3339 :     const char* text_display_end = text;

	lea	r9, OFFSET FLAT:??_C@_0N@HENPPCEP@?$CD?$CDMyColor?$CD?$CD5@
	mov	rdx, r9
; File C:\dev\Photo Studio\Photo Studio\Dependencies\imgui\imgui.h

; 2045 :     inline void         pop_back()                          { IM_ASSERT(Size > 0); Size--; }

	lea	eax, DWORD PTR [rcx-1]
	mov	DWORD PTR [rbx+19496], eax
; File C:\dev\Photo Studio\Photo Studio\Dependencies\imgui\imgui.cpp

; 7898 :     g.CurrentItemFlags = g.ItemFlagsStack.back();

	mov	rax, QWORD PTR [rbx+19504]
	mov	ecx, DWORD PTR [rax+rcx*4-8]
	mov	DWORD PTR [rbx+19140], ecx

; 3343 :     while (text_display_end < text_end && *text_display_end != '\0' && (text_display_end[0] != '#' || text_display_end[1] != '#'))

	cmp	r9, -1
	jae	SHORT $LN34@ColorPicke
$LL435@ColorPicke:
	movzx	ecx, BYTE PTR [rdx]
	test	cl, cl
	je	SHORT $LN436@ColorPicke
	lea	rax, QWORD PTR [rdx+1]
	cmp	cl, 35					; 00000023H
	jne	SHORT $LN1054@ColorPicke
	cmp	BYTE PTR [rax], cl
	je	SHORT $LN436@ColorPicke
$LN1054@ColorPicke:

; 3344 :         text_display_end++;

	mov	rdx, rax
	cmp	rax, -1
	jb	SHORT $LL435@ColorPicke
$LN436@ColorPicke:
; File C:\dev\Photo Studio\Photo Studio\Dependencies\imgui\imgui_widgets.cpp

; 5957 :         if (label != label_display_end)

	cmp	r9, rdx
	je	SHORT $LN34@ColorPicke

; 5958 :         {
; 5959 :             if ((flags & ImGuiColorEditFlags_NoSidePreview))
; 5960 :                 SameLine(0, style.ItemInnerSpacing.x);

	movss	xmm1, DWORD PTR [r13+14924]
	movaps	xmm0, xmm11
	call	?SameLine@ImGui@@YAXMM@Z		; ImGui::SameLine

; 5961 :             TextEx(label, label_display_end);

	mov	rcx, r9
	xor	r8d, r8d
	call	?TextEx@ImGui@@YAXPEBD0H@Z		; ImGui::TextEx
	mov	rbx, QWORD PTR ?GImGui@@3PEAUImGuiContext@@EA ; GImGui
$LN34@ColorPicke:

; 5962 :         }
; 5963 :     }
; 5964 : 
; 5965 :     if (!(flags & ImGuiColorEditFlags_NoSidePreview))
; 5966 :     {
; 5967 :         PushItemFlag(ImGuiItemFlags_NoNavDefaultFocus, true);
; 5968 :         ImVec4 col_v4(col[0], col[1], col[2], (flags & ImGuiColorEditFlags_NoAlpha) ? 1.0f : col[3]);
; 5969 :         if ((flags & ImGuiColorEditFlags_NoLabel))
; 5970 :             Text("Current");
; 5971 : 
; 5972 :         ImGuiColorEditFlags sub_flags_to_forward = ImGuiColorEditFlags_InputMask_ | ImGuiColorEditFlags_HDR | ImGuiColorEditFlags_AlphaPreview | ImGuiColorEditFlags_AlphaPreviewHalf | ImGuiColorEditFlags_NoTooltip;
; 5973 :         ColorButton("##current", col_v4, (flags & sub_flags_to_forward), ImVec2(square_sz * 3, square_sz * 2));
; 5974 :         if (ref_col != NULL)
; 5975 :         {
; 5976 :             Text("Original");
; 5977 :             ImVec4 ref_col_v4(ref_col[0], ref_col[1], ref_col[2], (flags & ImGuiColorEditFlags_NoAlpha) ? 1.0f : ref_col[3]);
; 5978 :             if (ColorButton("##original", ref_col_v4, (flags & sub_flags_to_forward), ImVec2(square_sz * 3, square_sz * 2)))
; 5979 :             {
; 5980 :                 memcpy(col, ref_col, components * sizeof(float));
; 5981 :                 value_changed = true;
; 5982 :             }
; 5983 :         }
; 5984 :         PopItemFlag();
; 5985 :         EndGroup();
; 5986 :     }
; 5987 : 
; 5988 :     // Convert back color to RGB
; 5989 :     if (value_changed_h || value_changed_sv)

	test	dil, dil
	jne	SHORT $LN41@ColorPicke
	test	r15b, r15b
	je	$LN1071@ColorPicke
$LN41@ColorPicke:

; 5990 :     {
; 5991 :         if (flags & ImGuiColorEditFlags_InputRGB)

	mov	edi, DWORD PTR tv6246[rbp-256]
	test	edi, edi
	je	$LN42@ColorPicke

; 5992 :         {
; 5993 :             ColorConvertHSVtoRGB(H, S, V, col[0], col[1], col[2]);

	lea	rax, OFFSET FLAT:?m_Color@WindowData@@2U?$vec@$03M$0A@@glm@@A+8
	movaps	xmm2, xmm8
	mov	QWORD PTR [rsp+40], rax
	lea	r9, OFFSET FLAT:?m_Color@WindowData@@2U?$vec@$03M$0A@@glm@@A ; WindowData::m_Color
	lea	rax, OFFSET FLAT:?m_Color@WindowData@@2U?$vec@$03M$0A@@glm@@A+4
	movaps	xmm1, xmm13
	movaps	xmm0, xmm10
	mov	QWORD PTR [rsp+32], rax
	call	?ColorConvertHSVtoRGB@ImGui@@YAXMMMAEAM00@Z ; ImGui::ColorConvertHSVtoRGB

; 5994 :             g.ColorEditSavedHue = H;
; 5995 :             g.ColorEditSavedSat = S;
; 5996 :             g.ColorEditSavedID = g.ColorEditCurrentID;

	mov	eax, DWORD PTR [r13+24600]

; 5997 :             g.ColorEditSavedColor = ColorConvertFloat4ToU32(ImVec4(col[0], col[1], col[2], 0));

	lea	rcx, QWORD PTR $T21[rsp]
	mov	DWORD PTR [r13+24604], eax
	movss	DWORD PTR [r13+24608], xmm10
	movss	DWORD PTR [r13+24612], xmm13
; File C:\dev\Photo Studio\Photo Studio\Dependencies\imgui\imgui.h

; 292  :     constexpr ImVec4(float _x, float _y, float _z, float _w)  : x(_x), y(_y), z(_z), w(_w) { }

	movss	xmm0, DWORD PTR ?m_Color@WindowData@@2U?$vec@$03M$0A@@glm@@A
	movss	xmm1, DWORD PTR ?m_Color@WindowData@@2U?$vec@$03M$0A@@glm@@A+4
	movss	DWORD PTR $T21[rsp], xmm0
	movss	xmm0, DWORD PTR ?m_Color@WindowData@@2U?$vec@$03M$0A@@glm@@A+8
	movss	DWORD PTR $T21[rsp+8], xmm0
	movss	DWORD PTR $T21[rsp+4], xmm1
	mov	DWORD PTR $T21[rsp+12], 0
; File C:\dev\Photo Studio\Photo Studio\Dependencies\imgui\imgui_widgets.cpp

; 5997 :             g.ColorEditSavedColor = ColorConvertFloat4ToU32(ImVec4(col[0], col[1], col[2], 0));

	call	?ColorConvertFloat4ToU32@ImGui@@YAIAEBUImVec4@@@Z ; ImGui::ColorConvertFloat4ToU32
	mov	DWORD PTR [r13+24616], eax

; 5998 :         }

	jmp	SHORT $LN1061@ColorPicke
$LN42@ColorPicke:

; 5999 :         else if (flags & ImGuiColorEditFlags_InputHSV)

	bt	r14d, 28
	jae	SHORT $LN1061@ColorPicke

; 6000 :         {
; 6001 :             col[0] = H;

	movaps	xmm1, xmm10

; 6002 :             col[1] = S;

	movaps	xmm3, xmm13

; 6003 :             col[2] = V;

	movaps	xmm2, xmm8
	movss	DWORD PTR ?m_Color@WindowData@@2U?$vec@$03M$0A@@glm@@A, xmm1
	movss	DWORD PTR ?m_Color@WindowData@@2U?$vec@$03M$0A@@glm@@A+4, xmm3
	movss	DWORD PTR ?m_Color@WindowData@@2U?$vec@$03M$0A@@glm@@A+8, xmm2
	jmp	SHORT $LN44@ColorPicke
$LN1071@ColorPicke:

; 5962 :         }
; 5963 :     }
; 5964 : 
; 5965 :     if (!(flags & ImGuiColorEditFlags_NoSidePreview))
; 5966 :     {
; 5967 :         PushItemFlag(ImGuiItemFlags_NoNavDefaultFocus, true);
; 5968 :         ImVec4 col_v4(col[0], col[1], col[2], (flags & ImGuiColorEditFlags_NoAlpha) ? 1.0f : col[3]);
; 5969 :         if ((flags & ImGuiColorEditFlags_NoLabel))
; 5970 :             Text("Current");
; 5971 : 
; 5972 :         ImGuiColorEditFlags sub_flags_to_forward = ImGuiColorEditFlags_InputMask_ | ImGuiColorEditFlags_HDR | ImGuiColorEditFlags_AlphaPreview | ImGuiColorEditFlags_AlphaPreviewHalf | ImGuiColorEditFlags_NoTooltip;
; 5973 :         ColorButton("##current", col_v4, (flags & sub_flags_to_forward), ImVec2(square_sz * 3, square_sz * 2));
; 5974 :         if (ref_col != NULL)
; 5975 :         {
; 5976 :             Text("Original");
; 5977 :             ImVec4 ref_col_v4(ref_col[0], ref_col[1], ref_col[2], (flags & ImGuiColorEditFlags_NoAlpha) ? 1.0f : ref_col[3]);
; 5978 :             if (ColorButton("##original", ref_col_v4, (flags & sub_flags_to_forward), ImVec2(square_sz * 3, square_sz * 2)))
; 5979 :             {
; 5980 :                 memcpy(col, ref_col, components * sizeof(float));
; 5981 :                 value_changed = true;
; 5982 :             }
; 5983 :         }
; 5984 :         PopItemFlag();
; 5985 :         EndGroup();
; 5986 :     }
; 5987 : 
; 5988 :     // Convert back color to RGB
; 5989 :     if (value_changed_h || value_changed_sv)

	mov	edi, DWORD PTR tv6246[rbp-256]
$LN1061@ColorPicke:

; 6004 :         }
; 6005 :     }
; 6006 : 
; 6007 :     // R,G,B and H,S,V slider color editor
; 6008 :     bool value_changed_fix_hue_wrap = false;
; 6009 :     if ((flags & ImGuiColorEditFlags_NoInputs) == 0)
; 6010 :     {
; 6011 :         PushItemWidth((alpha_bar ? bar1_pos_x : bar0_pos_x) + bars_width - picker_pos.x);
; 6012 :         ImGuiColorEditFlags sub_flags_to_forward = ImGuiColorEditFlags_DataTypeMask_ | ImGuiColorEditFlags_InputMask_ | ImGuiColorEditFlags_HDR | ImGuiColorEditFlags_NoAlpha | ImGuiColorEditFlags_NoOptions | ImGuiColorEditFlags_NoTooltip | ImGuiColorEditFlags_NoSmallPreview | ImGuiColorEditFlags_AlphaPreview | ImGuiColorEditFlags_AlphaPreviewHalf;
; 6013 :         ImGuiColorEditFlags sub_flags = (flags & sub_flags_to_forward) | ImGuiColorEditFlags_NoPicker;
; 6014 :         if (flags & ImGuiColorEditFlags_DisplayRGB || (flags & ImGuiColorEditFlags_DisplayMask_) == 0)
; 6015 :             if (ColorEdit4("##rgb", col, sub_flags | ImGuiColorEditFlags_DisplayRGB))
; 6016 :             {
; 6017 :                 // FIXME: Hackily differentiating using the DragInt (ActiveId != 0 && !ActiveIdAllowOverlap) vs. using the InputText or DropTarget.
; 6018 :                 // For the later we don't want to run the hue-wrap canceling code. If you are well versed in HSV picker please provide your input! (See #2050)
; 6019 :                 value_changed_fix_hue_wrap = (g.ActiveId != 0 && !g.ActiveIdAllowOverlap);
; 6020 :                 value_changed = true;
; 6021 :             }
; 6022 :         if (flags & ImGuiColorEditFlags_DisplayHSV || (flags & ImGuiColorEditFlags_DisplayMask_) == 0)
; 6023 :             value_changed |= ColorEdit4("##hsv", col, sub_flags | ImGuiColorEditFlags_DisplayHSV);
; 6024 :         if (flags & ImGuiColorEditFlags_DisplayHex || (flags & ImGuiColorEditFlags_DisplayMask_) == 0)
; 6025 :             value_changed |= ColorEdit4("##hex", col, sub_flags | ImGuiColorEditFlags_DisplayHex);
; 6026 :         PopItemWidth();
; 6027 :     }
; 6028 : 
; 6029 :     // Try to cancel hue wrap (after ColorEdit4 call), if any
; 6030 :     if (value_changed_fix_hue_wrap && (flags & ImGuiColorEditFlags_InputRGB))
; 6031 :     {
; 6032 :         float new_H, new_S, new_V;
; 6033 :         ColorConvertRGBtoHSV(col[0], col[1], col[2], new_H, new_S, new_V);
; 6034 :         if (new_H <= 0 && H > 0)
; 6035 :         {
; 6036 :             if (new_V <= 0 && V != new_V)
; 6037 :                 ColorConvertHSVtoRGB(H, S, new_V <= 0 ? V * 0.5f : new_V, col[0], col[1], col[2]);
; 6038 :             else if (new_S <= 0)
; 6039 :                 ColorConvertHSVtoRGB(H, new_S <= 0 ? S * 0.5f : new_S, new_V, col[0], col[1], col[2]);
; 6040 :         }
; 6041 :     }
; 6042 : 
; 6043 :     if (value_changed)

	movss	xmm1, DWORD PTR ?m_Color@WindowData@@2U?$vec@$03M$0A@@glm@@A
	movss	xmm3, DWORD PTR ?m_Color@WindowData@@2U?$vec@$03M$0A@@glm@@A+4
	movss	xmm2, DWORD PTR ?m_Color@WindowData@@2U?$vec@$03M$0A@@glm@@A+8
$LN44@ColorPicke:
	test	r12b, r12b
	je	$LN1063@ColorPicke

; 6044 :     {
; 6045 :         if (flags & ImGuiColorEditFlags_InputRGB)

	test	edi, edi
	je	$LN59@ColorPicke
; File C:\dev\Photo Studio\Photo Studio\Dependencies\imgui\imgui.cpp

; 2428 :     if (g < b)

	comiss	xmm2, xmm3
; File C:\dev\Photo Studio\Photo Studio\Dependencies\imgui\imgui_widgets.cpp

; 6049 :             B = col[2];

	movss	DWORD PTR tv6360[rbp-256], xmm2
	movaps	xmm8, xmm1
	movaps	xmm15, xmm3
; File C:\dev\Photo Studio\Photo Studio\Dependencies\imgui\imgui.cpp

; 2427 :     float K = 0.f;

	movaps	xmm4, xmm11
	movaps	xmm5, xmm2
	movaps	xmm10, xmm3

; 2428 :     if (g < b)

	jbe	SHORT $LN944@ColorPicke

; 2429 :     {
; 2430 :         ImSwap(g, b);
; 2431 :         K = -1.f;

	movss	xmm4, DWORD PTR __real@bf800000
; File C:\dev\Photo Studio\Photo Studio\Dependencies\imgui\imgui_internal.h

; 477  : template<typename T> static inline void ImSwap(T& a, T& b)                      { T tmp = a; a = b; b = tmp; }

	movaps	xmm10, xmm2
	movaps	xmm5, xmm3
$LN944@ColorPicke:
; File C:\dev\Photo Studio\Photo Studio\Dependencies\imgui\imgui.cpp

; 2433 :     if (r < g)

	comiss	xmm10, xmm1
	movss	DWORD PTR V$1$[rsp], xmm1
	movaps	xmm6, xmm1
	jbe	SHORT $LN945@ColorPicke

; 2436 :         K = -2.f / 6.f - K;

	movss	xmm0, DWORD PTR __real@beaaaaab
; File C:\dev\Photo Studio\Photo Studio\Dependencies\imgui\imgui_internal.h

; 477  : template<typename T> static inline void ImSwap(T& a, T& b)                      { T tmp = a; a = b; b = tmp; }

	movaps	xmm6, xmm10
; File C:\dev\Photo Studio\Photo Studio\Dependencies\imgui\imgui.cpp

; 2436 :         K = -2.f / 6.f - K;

	subss	xmm0, xmm4
; File C:\dev\Photo Studio\Photo Studio\Dependencies\imgui\imgui_internal.h

; 477  : template<typename T> static inline void ImSwap(T& a, T& b)                      { T tmp = a; a = b; b = tmp; }

	movss	DWORD PTR V$1$[rsp], xmm6
	movaps	xmm10, xmm1
; File C:\dev\Photo Studio\Photo Studio\Dependencies\imgui\imgui.cpp

; 2436 :         K = -2.f / 6.f - K;

	movaps	xmm4, xmm0
$LN945@ColorPicke:
; File C:\dev\Photo Studio\Photo Studio\Dependencies\imgui\imgui_widgets.cpp

; 5136 :     if (g.ColorEditSavedID != g.ColorEditCurrentID || g.ColorEditSavedColor != ImGui::ColorConvertFloat4ToU32(ImVec4(col[0], col[1], col[2], 0)))

	mov	eax, DWORD PTR [rbx+24600]
; File C:\dev\Photo Studio\Photo Studio\Dependencies\imgui\imgui.cpp

; 2439 :     const float chroma = r - (g < b ? g : b);

	movaps	xmm0, xmm10
	minss	xmm0, xmm5
	movaps	xmm13, xmm6

; 2440 :     out_h = ImFabs(K + (g - b) / (6.f * chroma + 1e-20f));

	subss	xmm10, xmm5
	subss	xmm13, xmm0
	movaps	xmm0, xmm13
	mulss	xmm0, DWORD PTR __real@40c00000
	addss	xmm0, DWORD PTR __real@1e3ce508
	divss	xmm10, xmm0

; 2441 :     out_s = chroma / (r + 1e-20f);

	movaps	xmm0, xmm6
	addss	xmm10, xmm4
	addss	xmm0, DWORD PTR __real@1e3ce508
; File C:\Program Files (x86)\Windows Kits\10\Include\10.0.22000.0\ucrt\corecrt_math.h

; 676  :             return (float)fabs(_X);

	andps	xmm10, DWORD PTR __xmm@7fffffff7fffffff7fffffff7fffffff
; File C:\dev\Photo Studio\Photo Studio\Dependencies\imgui\imgui.cpp

; 2441 :     out_s = chroma / (r + 1e-20f);

	divss	xmm13, xmm0
; File C:\Program Files (x86)\Windows Kits\10\Include\10.0.22000.0\ucrt\corecrt_math.h

; 676  :             return (float)fabs(_X);

	movss	DWORD PTR H$1$[rsp], xmm10
; File C:\dev\Photo Studio\Photo Studio\Dependencies\imgui\imgui.cpp

; 2441 :     out_s = chroma / (r + 1e-20f);

	movss	DWORD PTR S$1$[rsp], xmm13
; File C:\dev\Photo Studio\Photo Studio\Dependencies\imgui\imgui_widgets.cpp

; 5136 :     if (g.ColorEditSavedID != g.ColorEditCurrentID || g.ColorEditSavedColor != ImGui::ColorConvertFloat4ToU32(ImVec4(col[0], col[1], col[2], 0)))

	cmp	DWORD PTR [rbx+24604], eax
	jne	$LN61@ColorPicke
	lea	rcx, QWORD PTR $T22[rsp]
; File C:\dev\Photo Studio\Photo Studio\Dependencies\imgui\imgui.h

; 292  :     constexpr ImVec4(float _x, float _y, float _z, float _w)  : x(_x), y(_y), z(_z), w(_w) { }

	movss	DWORD PTR $T22[rsp], xmm1
	movss	DWORD PTR $T22[rsp+4], xmm3
	movss	DWORD PTR $T22[rsp+8], xmm2
	mov	DWORD PTR $T22[rsp+12], 0
; File C:\dev\Photo Studio\Photo Studio\Dependencies\imgui\imgui_widgets.cpp

; 5136 :     if (g.ColorEditSavedID != g.ColorEditCurrentID || g.ColorEditSavedColor != ImGui::ColorConvertFloat4ToU32(ImVec4(col[0], col[1], col[2], 0)))

	call	?ColorConvertFloat4ToU32@ImGui@@YAIAEBUImVec4@@@Z ; ImGui::ColorConvertFloat4ToU32
	cmp	DWORD PTR [rbx+24616], eax
	jne	$LN61@ColorPicke

; 5137 :         return;
; 5138 : 
; 5139 :     // When S == 0, H is undefined.
; 5140 :     // When H == 1 it wraps around to 0.
; 5141 :     if (*S == 0.0f || (*H == 0.0f && g.ColorEditSavedHue == 1))

	ucomiss	xmm13, xmm11
	jp	SHORT $LN1059@ColorPicke
	je	SHORT $LN1048@ColorPicke
$LN1059@ColorPicke:
	ucomiss	xmm10, xmm11
	jp	SHORT $LN925@ColorPicke
	jne	SHORT $LN925@ColorPicke
	movss	xmm0, DWORD PTR [rbx+24608]
	ucomiss	xmm0, xmm12
	jp	SHORT $LN925@ColorPicke
	jne	SHORT $LN925@ColorPicke
$LN1048@ColorPicke:

; 5142 :         *H = g.ColorEditSavedHue;

	movss	xmm10, DWORD PTR [rbx+24608]
	movss	DWORD PTR H$1$[rsp], xmm10
$LN925@ColorPicke:

; 5143 : 
; 5144 :     // When V == 0, S is undefined.
; 5145 :     if (*V == 0.0f)

	ucomiss	xmm6, xmm11
	jp	$LN61@ColorPicke
	jne	$LN61@ColorPicke

; 5146 :         *S = g.ColorEditSavedSat;

	movss	xmm13, DWORD PTR [rbx+24612]
	movss	DWORD PTR S$1$[rsp], xmm13

; 6050 :             ColorConvertRGBtoHSV(R, G, B, H, S, V);
; 6051 :             ColorEditRestoreHS(col, &H, &S, &V);   // Fix local Hue as display below will use it immediately.
; 6052 :         }

	jmp	SHORT $LN61@ColorPicke
$LN59@ColorPicke:

; 6053 :         else if (flags & ImGuiColorEditFlags_InputHSV)

	bt	r14d, 28
	jae	SHORT $LN1063@ColorPicke

; 6054 :         {
; 6055 :             H = col[0];

	movaps	xmm10, xmm1

; 6056 :             S = col[1];

	movss	DWORD PTR S$1$[rsp], xmm3

; 6057 :             V = col[2];
; 6058 :             ColorConvertHSVtoRGB(H, S, V, R, G, B);

	lea	rax, QWORD PTR B$[rsp]
	movss	DWORD PTR H$1$[rsp], xmm10
	mov	QWORD PTR [rsp+40], rax
	lea	r9, QWORD PTR R$[rsp]
	lea	rax, QWORD PTR G$[rsp]
	movss	DWORD PTR V$1$[rsp], xmm2
	movaps	xmm1, xmm3
	mov	QWORD PTR [rsp+32], rax
	movaps	xmm0, xmm10
	movaps	xmm13, xmm3
	movaps	xmm6, xmm2
	call	?ColorConvertHSVtoRGB@ImGui@@YAXMMMAEAM00@Z ; ImGui::ColorConvertHSVtoRGB
	movss	xmm0, DWORD PTR B$[rsp]
	movss	xmm8, DWORD PTR R$[rsp]
	movss	xmm15, DWORD PTR G$[rsp]
	movaps	XMMWORD PTR tv6360[rbp-256], xmm0
	jmp	SHORT $LN61@ColorPicke
$LN1063@ColorPicke:

; 6062 :     const int style_alpha8 = IM_F32_TO_INT8_SAT(style.Alpha);

	movaps	xmm15, XMMWORD PTR tv6362[rbp-256]
	movups	xmm8, XMMWORD PTR ?m_Color@WindowData@@2U?$vec@$03M$0A@@glm@@A$7[rbp-256]
	movss	xmm6, DWORD PTR V$1$[rsp]
$LN61@ColorPicke:
	movss	xmm7, DWORD PTR [r13+14840]
; File C:\dev\Photo Studio\Photo Studio\Dependencies\imgui\imgui_internal.h

; 487  : static inline float  ImSaturate(float f)                                        { return (f < 0.0f) ? 0.0f : (f > 1.0f) ? 1.0f : f; }

	comiss	xmm11, xmm7
	jbe	SHORT $LN353@ColorPicke
	movaps	xmm0, xmm11
	jmp	SHORT $LN354@ColorPicke
$LN353@ColorPicke:
	movaps	xmm0, xmm12
	minss	xmm0, xmm7
$LN354@ColorPicke:
; File C:\dev\Photo Studio\Photo Studio\Dependencies\imgui\imgui_widgets.cpp

; 6062 :     const int style_alpha8 = IM_F32_TO_INT8_SAT(style.Alpha);

	mulss	xmm0, DWORD PTR __real@437f0000

; 6068 :     ImVec4 hue_color_f(1, 1, 1, style.Alpha); ColorConvertHSVtoRGB(H, 1, 1, hue_color_f.x, hue_color_f.y, hue_color_f.z);

	lea	r9, QWORD PTR hue_color_f$[rsp]
; File C:\dev\Photo Studio\Photo Studio\Dependencies\imgui\imgui.h

; 292  :     constexpr ImVec4(float _x, float _y, float _z, float _w)  : x(_x), y(_y), z(_z), w(_w) { }

	mov	DWORD PTR hue_color_f$[rsp], 1065353216	; 3f800000H
; File C:\dev\Photo Studio\Photo Studio\Dependencies\imgui\imgui_widgets.cpp

; 6068 :     ImVec4 hue_color_f(1, 1, 1, style.Alpha); ColorConvertHSVtoRGB(H, 1, 1, hue_color_f.x, hue_color_f.y, hue_color_f.z);

	movaps	xmm2, xmm12
; File C:\dev\Photo Studio\Photo Studio\Dependencies\imgui\imgui.h

; 292  :     constexpr ImVec4(float _x, float _y, float _z, float _w)  : x(_x), y(_y), z(_z), w(_w) { }

	movss	DWORD PTR hue_color_f$[rsp+12], xmm7
; File C:\dev\Photo Studio\Photo Studio\Dependencies\imgui\imgui_widgets.cpp

; 6068 :     ImVec4 hue_color_f(1, 1, 1, style.Alpha); ColorConvertHSVtoRGB(H, 1, 1, hue_color_f.x, hue_color_f.y, hue_color_f.z);

	movaps	xmm1, xmm12
; File C:\dev\Photo Studio\Photo Studio\Dependencies\imgui\imgui.h

; 292  :     constexpr ImVec4(float _x, float _y, float _z, float _w)  : x(_x), y(_y), z(_z), w(_w) { }

	mov	DWORD PTR hue_color_f$[rsp+4], 1065353216 ; 3f800000H
; File C:\dev\Photo Studio\Photo Studio\Dependencies\imgui\imgui_widgets.cpp

; 6062 :     const int style_alpha8 = IM_F32_TO_INT8_SAT(style.Alpha);

	addss	xmm0, xmm9
; File C:\dev\Photo Studio\Photo Studio\Dependencies\imgui\imgui.h

; 292  :     constexpr ImVec4(float _x, float _y, float _z, float _w)  : x(_x), y(_y), z(_z), w(_w) { }

	mov	DWORD PTR hue_color_f$[rsp+8], 1065353216 ; 3f800000H
; File C:\dev\Photo Studio\Photo Studio\Dependencies\imgui\imgui_widgets.cpp

; 6062 :     const int style_alpha8 = IM_F32_TO_INT8_SAT(style.Alpha);

	cvttss2si ebx, xmm0

; 6068 :     ImVec4 hue_color_f(1, 1, 1, style.Alpha); ColorConvertHSVtoRGB(H, 1, 1, hue_color_f.x, hue_color_f.y, hue_color_f.z);

	movaps	xmm0, xmm10
	shl	ebx, 24
	mov	eax, ebx
	mov	DWORD PTR col_black$1$[rbp-256], ebx
	or	eax, 65535				; 0000ffffH
	mov	r12d, ebx
	mov	DWORD PTR col_hues$[rbp-252], eax
	mov	r15d, ebx
	mov	eax, ebx
	or	r15d, 255				; 000000ffH
	or	eax, 65280				; 0000ff00H
	mov	DWORD PTR col_hues$[rbp-256], r15d
	mov	DWORD PTR col_hues$[rbp-248], eax
	or	r12d, 16777215				; 00ffffffH
	mov	eax, ebx
	mov	DWORD PTR col_white$1$[rbp-256], r12d
	or	eax, 16776960				; 00ffff00H
	mov	DWORD PTR col_hues$[rbp-232], r15d
	mov	DWORD PTR col_hues$[rbp-244], eax
	mov	r14d, ebx
	mov	eax, ebx
	or	r14d, 8421504				; 00808080H
	or	eax, 16711680				; 00ff0000H
	mov	DWORD PTR col_hues$[rbp-240], eax
	mov	eax, ebx
	or	eax, 16711935				; 00ff00ffH
	mov	DWORD PTR col_hues$[rbp-236], eax
	lea	rax, QWORD PTR hue_color_f$[rsp+8]
	mov	QWORD PTR [rsp+40], rax
	lea	rax, QWORD PTR hue_color_f$[rsp+4]
	mov	QWORD PTR [rsp+32], rax
	call	?ColorConvertHSVtoRGB@ImGui@@YAXMMMAEAM00@Z ; ImGui::ColorConvertHSVtoRGB

; 6069 :     ImU32 hue_color32 = ColorConvertFloat4ToU32(hue_color_f);

	lea	rcx, QWORD PTR hue_color_f$[rsp]
	call	?ColorConvertFloat4ToU32@ImGui@@YAIAEBUImVec4@@@Z ; ImGui::ColorConvertFloat4ToU32
; File C:\dev\Photo Studio\Photo Studio\Dependencies\imgui\imgui.h

; 292  :     constexpr ImVec4(float _x, float _y, float _z, float _w)  : x(_x), y(_y), z(_z), w(_w) { }

	movaps	xmm0, XMMWORD PTR tv6360[rbp-256]
; File C:\dev\Photo Studio\Photo Studio\Dependencies\imgui\imgui_widgets.cpp

; 6070 :     ImU32 user_col32_striped_of_alpha = ColorConvertFloat4ToU32(ImVec4(R, G, B, style.Alpha)); // Important: this is still including the main rendering/style alpha!!

	lea	rcx, QWORD PTR $T23[rsp]
; File C:\dev\Photo Studio\Photo Studio\Dependencies\imgui\imgui.h

; 292  :     constexpr ImVec4(float _x, float _y, float _z, float _w)  : x(_x), y(_y), z(_z), w(_w) { }

	movss	DWORD PTR $T23[rsp+8], xmm0
; File C:\dev\Photo Studio\Photo Studio\Dependencies\imgui\imgui_widgets.cpp

; 6069 :     ImU32 hue_color32 = ColorConvertFloat4ToU32(hue_color_f);

	mov	r8d, eax
; File C:\dev\Photo Studio\Photo Studio\Dependencies\imgui\imgui.h

; 292  :     constexpr ImVec4(float _x, float _y, float _z, float _w)  : x(_x), y(_y), z(_z), w(_w) { }

	movss	DWORD PTR $T23[rsp], xmm8
	movss	DWORD PTR $T23[rsp+4], xmm15
	movss	DWORD PTR $T23[rsp+12], xmm7
; File C:\dev\Photo Studio\Photo Studio\Dependencies\imgui\imgui_widgets.cpp

; 6069 :     ImU32 hue_color32 = ColorConvertFloat4ToU32(hue_color_f);

	mov	DWORD PTR hue_color32$1$[rsp], eax

; 6070 :     ImU32 user_col32_striped_of_alpha = ColorConvertFloat4ToU32(ImVec4(R, G, B, style.Alpha)); // Important: this is still including the main rendering/style alpha!!

	call	?ColorConvertFloat4ToU32@ImGui@@YAIAEBUImVec4@@@Z ; ImGui::ColorConvertFloat4ToU32

; 6074 :     if (flags & ImGuiColorEditFlags_PickerHueWheel)

	cmp	DWORD PTR tv6242[rbp-256], 0
	mov	edi, 3
	movss	xmm15, DWORD PTR __real@41040000
	mov	edx, 512				; 00000200H
	movss	xmm7, DWORD PTR __real@40c90fdb
	movss	xmm8, DWORD PTR __real@40000000
	mov	DWORD PTR user_col32_striped_of_alpha$1$[rbp-256], eax
; File C:\dev\Photo Studio\Photo Studio\Dependencies\imgui\imgui.h

; 278  :     constexpr ImVec2()                      : x(0.0f), y(0.0f) { }

	mov	QWORD PTR sv_cursor_pos$[rsp], 0
; File C:\dev\Photo Studio\Photo Studio\Dependencies\imgui\imgui_widgets.cpp

; 6074 :     if (flags & ImGuiColorEditFlags_PickerHueWheel)

	je	$LN62@ColorPicke

; 6077 :         const float aeps = 0.5f / wheel_r_outer; // Half a pixel arc length in radians (2pi cancels out).

	movss	xmm0, DWORD PTR wheel_r_outer$1$[rbp-256]
	lea	rbx, QWORD PTR col_hues$[rbp-256]
	movss	xmm14, DWORD PTR wheel_r_inner$1$[rbp-256]

; 6078 :         const int segment_per_arc = ImMax(4, (int)wheel_r_outer / 12);

	mov	eax, 715827883				; 2aaaaaabH
	movss	xmm13, DWORD PTR wheel_center$2$[rbp-256]
	addss	xmm14, xmm0
	movss	xmm10, DWORD PTR wheel_center$1$[rbp-256]
	movaps	xmm11, xmm9
	cvttss2si ecx, xmm0
	movaps	xmm15, xmm14
	movss	DWORD PTR tv6539[rbp-256], xmm14
	movss	xmm14, DWORD PTR wheel_r_inner$1$[rbp-256]
	imul	ecx
	divss	xmm11, xmm0
	mov	r12d, edx
	sar	r12d, 1
	mov	eax, r12d
	shr	eax, 31
	add	r12d, eax
; File C:\dev\Photo Studio\Photo Studio\Dependencies\imgui\imgui_internal.h

; 474  : template<typename T> static inline T ImMax(T lhs, T rhs)                        { return lhs >= rhs ? lhs : rhs; }

	mov	eax, 4
	cmp	r12d, eax
	cmovle	r12d, eax
; File C:\dev\Photo Studio\Photo Studio\Dependencies\imgui\imgui_widgets.cpp

; 6077 :         const float aeps = 0.5f / wheel_r_outer; // Half a pixel arc length in radians (2pi cancels out).

	xor	r13d, r13d
	mulss	xmm15, xmm9
$LL4@ColorPicke:

; 6079 :         for (int n = 0; n < 6; n++)
; 6080 :         {
; 6081 :             const float a0 = (n) / 6.0f * 2.0f * IM_PI - aeps;
; 6082 :             const float a1 = (n + 1.0f) / 6.0f * 2.0f * IM_PI + aeps;
; 6083 :             const int vert_start_idx = draw_list->VtxBuffer.Size;

	mov	edi, DWORD PTR [rsi+32]

; 6084 :             draw_list->PathArcTo(wheel_center, (wheel_r_inner + wheel_r_outer) * 0.5f, a0, a1, segment_per_arc);

	lea	rdx, QWORD PTR wheel_center$[rsp]
	movd	xmm9, r13d
	movaps	xmm2, xmm15
	cvtdq2ps xmm9, xmm9
	mov	DWORD PTR [rsp+40], r12d
	mov	rcx, rsi
	movaps	xmm6, xmm9
	addss	xmm9, xmm12
	divss	xmm6, DWORD PTR __real@40c00000
	divss	xmm9, DWORD PTR __real@40c00000
	addss	xmm6, xmm6
	addss	xmm9, xmm9
	mulss	xmm6, DWORD PTR __real@40490fdb
	mulss	xmm9, DWORD PTR __real@40490fdb
	subss	xmm6, xmm11
	addss	xmm9, xmm11
	movaps	xmm3, xmm6
	movss	DWORD PTR [rsp+32], xmm9
	call	?PathArcTo@ImDrawList@@QEAAXAEBUImVec2@@MMMH@Z ; ImDrawList::PathArcTo
; File C:\dev\Photo Studio\Photo Studio\Dependencies\imgui\imgui.h

; 2917 :     inline    void  PathStroke(ImU32 col, ImDrawFlags flags = 0, float thickness = 1.0f) { AddPolyline(_Path.Data, _Path.Size, col, flags, thickness); _Path.Size = 0; }

	movss	xmm0, DWORD PTR __real@41700000
	mov	rcx, rsi
	mov	r9d, DWORD PTR col_white$1$[rbp-256]
	mov	r8d, DWORD PTR [rsi+120]
	mov	rdx, QWORD PTR [rsi+128]
	movss	DWORD PTR [rsp+40], xmm0
	mov	DWORD PTR [rsp+32], 0
	call	?AddPolyline@ImDrawList@@QEAAXPEBUImVec2@@HIHM@Z ; ImDrawList::AddPolyline
; File C:\dev\Photo Studio\Photo Studio\Dependencies\imgui\imgui_widgets.cpp

; 6089 :             ImVec2 gradient_p0(wheel_center.x + ImCos(a0) * wheel_r_inner, wheel_center.y + ImSin(a0) * wheel_r_inner);

	movaps	xmm0, xmm6
; File C:\dev\Photo Studio\Photo Studio\Dependencies\imgui\imgui.h

; 2917 :     inline    void  PathStroke(ImU32 col, ImDrawFlags flags = 0, float thickness = 1.0f) { AddPolyline(_Path.Data, _Path.Size, col, flags, thickness); _Path.Size = 0; }

	mov	DWORD PTR [rsi+120], 0
; File C:\dev\Photo Studio\Photo Studio\Dependencies\imgui\imgui_widgets.cpp

; 6089 :             ImVec2 gradient_p0(wheel_center.x + ImCos(a0) * wheel_r_inner, wheel_center.y + ImSin(a0) * wheel_r_inner);

	call	cosf
	movaps	xmm8, xmm0
	movaps	xmm0, xmm6
	mulss	xmm8, xmm14
	addss	xmm8, xmm13
	call	sinf
	movaps	xmm7, xmm0

; 6090 :             ImVec2 gradient_p1(wheel_center.x + ImCos(a1) * wheel_r_inner, wheel_center.y + ImSin(a1) * wheel_r_inner);

	movaps	xmm0, xmm9
	mulss	xmm7, xmm14
	addss	xmm7, xmm10
	call	cosf
	movaps	xmm6, xmm0
	movaps	xmm0, xmm9
	mulss	xmm6, xmm14
	addss	xmm6, xmm13
	call	sinf

; 6091 :             ShadeVertsLinearColorGradientKeepAlpha(draw_list, vert_start_idx, vert_end_idx, gradient_p0, gradient_p1, col_hues[n], col_hues[n + 1]);

	mov	r8d, DWORD PTR [rsi+32]
	add	rbx, 4
	mulss	xmm0, xmm14
	movaps	xmm1, xmm6
	mov	QWORD PTR tv6140[rbp-256], rbx
	mov	edx, edi
	mov	rcx, rsi
	mov	ebx, DWORD PTR [rbx]
	addss	xmm0, xmm10
	mov	DWORD PTR [rsp+48], ebx
	mov	DWORD PTR [rsp+40], r15d
	unpcklps xmm1, xmm0
	movaps	xmm0, xmm8
	unpcklps xmm0, xmm7
	movq	r9, xmm0
	movsd	QWORD PTR [rsp+32], xmm1
	call	?ShadeVertsLinearColorGradientKeepAlpha@ImGui@@YAXPEAUImDrawList@@HHUImVec2@@1II@Z ; ImGui::ShadeVertsLinearColorGradientKeepAlpha
	inc	r13d
	mov	r15d, ebx
	mov	rbx, QWORD PTR tv6140[rbp-256]
	cmp	r13d, 6
	jl	$LL4@ColorPicke

; 6092 :         }
; 6093 : 
; 6094 :         // Render Cursor + preview on Hue Wheel
; 6095 :         float cos_hue_angle = ImCos(H * 2.0f * IM_PI);

	movss	xmm10, DWORD PTR H$1$[rsp]
	addss	xmm10, xmm10
	mulss	xmm10, DWORD PTR __real@40490fdb
	movaps	xmm0, xmm10
	call	cosf
	movaps	xmm6, xmm0

; 6096 :         float sin_hue_angle = ImSin(H * 2.0f * IM_PI);

	movaps	xmm0, xmm10
	movss	DWORD PTR cos_hue_angle$1$[rbp-256], xmm6
	call	sinf

; 6098 :         float hue_cursor_rad = value_changed_h ? wheel_thickness * 0.65f : wheel_thickness * 0.55f;

	cmp	BYTE PTR value_changed_h$1$[rsp], 0
	movaps	xmm10, xmm0
	movss	xmm14, DWORD PTR tv6539[rbp-256]
	movss	xmm7, DWORD PTR __real@3f000000
	movaps	xmm1, xmm14
	movss	xmm15, DWORD PTR __real@41040000
	mulss	xmm1, xmm6
	mulss	xmm14, xmm10
	mulss	xmm1, xmm7
	mulss	xmm14, xmm7
	addss	xmm1, DWORD PTR wheel_center$2$[rbp-256]
	movss	DWORD PTR sin_hue_angle$1$[rbp-256], xmm10
	addss	xmm14, DWORD PTR wheel_center$1$[rbp-256]
; File C:\dev\Photo Studio\Photo Studio\Dependencies\imgui\imgui.h

; 279  :     constexpr ImVec2(float _x, float _y)    : x(_x), y(_y) { }

	movss	DWORD PTR hue_cursor_pos$68[rbp-256], xmm1
	movss	DWORD PTR hue_cursor_pos$68[rbp-252], xmm14
; File C:\dev\Photo Studio\Photo Studio\Dependencies\imgui\imgui_widgets.cpp

; 6098 :         float hue_cursor_rad = value_changed_h ? wheel_thickness * 0.65f : wheel_thickness * 0.55f;

	je	SHORT $LN88@ColorPicke
	movss	xmm6, DWORD PTR __real@411c0000
	jmp	SHORT $LN89@ColorPicke
$LN88@ColorPicke:
	movaps	xmm6, xmm15
$LN89@ColorPicke:

; 6099 :         int hue_cursor_segments = draw_list->_CalcCircleAutoSegmentCount(hue_cursor_rad); // Lock segment count so the +1 one matches others.

	movaps	xmm1, xmm6
	mov	rcx, rsi
	call	?_CalcCircleAutoSegmentCount@ImDrawList@@QEBAHM@Z ; ImDrawList::_CalcCircleAutoSegmentCount
; File C:\dev\Photo Studio\Photo Studio\Dependencies\imgui\imgui_draw.cpp

; 1520 :     if ((col & IM_COL32_A_MASK) == 0 || radius < 0.5f)

	mov	edi, DWORD PTR hue_color32$1$[rsp]
; File C:\dev\Photo Studio\Photo Studio\Dependencies\imgui\imgui_widgets.cpp

; 6099 :         int hue_cursor_segments = draw_list->_CalcCircleAutoSegmentCount(hue_cursor_rad); // Lock segment count so the +1 one matches others.

	mov	ebx, eax
; File C:\dev\Photo Studio\Photo Studio\Dependencies\imgui\imgui_draw.cpp

; 1520 :     if ((col & IM_COL32_A_MASK) == 0 || radius < 0.5f)

	movss	xmm13, DWORD PTR S$1$[rsp]
	xorps	xmm11, xmm11
	mov	r13, QWORD PTR g$1$[rbp-256]
	test	edi, -16777216				; ff000000H
	je	$LN1065@ColorPicke
	comiss	xmm7, xmm6
	ja	$LN1065@ColorPicke

; 1521 :         return;
; 1522 : 
; 1523 :     if (num_segments <= 0)

	test	eax, eax
	jg	SHORT $LN175@ColorPicke

; 1524 :     {
; 1525 :         // Use arc with automatic segment count
; 1526 :         _PathArcToFastEx(center, radius, 0, IM_DRAWLIST_ARCFAST_SAMPLE_MAX, 0);

	xor	r9d, r9d
	mov	DWORD PTR [rsp+32], 48			; 00000030H
	movaps	xmm2, xmm6
	lea	rdx, QWORD PTR hue_cursor_pos$68[rbp-256]
	mov	rcx, rsi
	call	?_PathArcToFastEx@ImDrawList@@QEAAXAEBUImVec2@@MHHH@Z ; ImDrawList::_PathArcToFastEx

; 1527 :         _Path.Size--;

	dec	DWORD PTR [rsi+120]

; 1528 :     }

	mov	r12d, 512				; 00000200H
	movss	xmm8, DWORD PTR __real@40c90fdb
	jmp	SHORT $LN176@ColorPicke
$LN175@ColorPicke:
; File C:\dev\Photo Studio\Photo Studio\Dependencies\imgui\imgui_internal.h

; 475  : template<typename T> static inline T ImClamp(T v, T mn, T mx)                   { return (v < mn) ? mn : (v > mx) ? mx : v; }

	mov	r12d, 512				; 00000200H
	cmp	ebx, 3
	jge	SHORT $LN182@ColorPicke
	mov	eax, 3
	jmp	SHORT $LN183@ColorPicke
$LN182@ColorPicke:
	cmp	ebx, r12d
	cmovg	eax, r12d
$LN183@ColorPicke:
; File C:\dev\Photo Studio\Photo Studio\Dependencies\imgui\imgui_draw.cpp

; 1535 :         const float a_max = (IM_PI * 2.0f) * ((float)num_segments - 1.0f) / (float)num_segments;

	movss	xmm8, DWORD PTR __real@40c90fdb

; 1536 :         PathArcTo(center, radius, 0.0f, a_max, num_segments - 1);

	lea	rdx, QWORD PTR hue_cursor_pos$68[rbp-256]
	movd	xmm0, eax
	xorps	xmm3, xmm3

; 1535 :         const float a_max = (IM_PI * 2.0f) * ((float)num_segments - 1.0f) / (float)num_segments;

	cvtdq2ps xmm0, xmm0

; 1536 :         PathArcTo(center, radius, 0.0f, a_max, num_segments - 1);

	dec	eax
	mov	rcx, rsi
	mov	DWORD PTR [rsp+40], eax
	movaps	xmm2, xmm6
	movaps	xmm1, xmm0
	subss	xmm1, xmm12
	mulss	xmm1, xmm8
	divss	xmm1, xmm0
	movss	DWORD PTR [rsp+32], xmm1
	call	?PathArcTo@ImDrawList@@QEAAXAEBUImVec2@@MMMH@Z ; ImDrawList::PathArcTo
$LN176@ColorPicke:
; File C:\dev\Photo Studio\Photo Studio\Dependencies\imgui\imgui.h

; 2915 :     inline    void  PathFillConvex(ImU32 col)                                   { AddConvexPolyFilled(_Path.Data, _Path.Size, col); _Path.Size = 0; }

	mov	r8d, DWORD PTR [rsi+120]
	mov	r9d, edi
	mov	rdx, QWORD PTR [rsi+128]
	mov	rcx, rsi
	call	?AddConvexPolyFilled@ImDrawList@@QEAAXPEBUImVec2@@HI@Z ; ImDrawList::AddConvexPolyFilled
	mov	DWORD PTR [rsi+120], 0
; File C:\dev\Photo Studio\Photo Studio\Dependencies\imgui\imgui_draw.cpp

; 1520 :     if ((col & IM_COL32_A_MASK) == 0 || radius < 0.5f)

	jmp	SHORT $LN174@ColorPicke
$LN1065@ColorPicke:
; File C:\dev\Photo Studio\Photo Studio\Dependencies\imgui\imgui_widgets.cpp

; 6101 :         draw_list->AddCircle(hue_cursor_pos, hue_cursor_rad + 1, col_midgrey, hue_cursor_segments);

	movss	xmm8, DWORD PTR __real@40c90fdb
	mov	r12d, 512				; 00000200H
$LN174@ColorPicke:
; File C:\dev\Photo Studio\Photo Studio\Dependencies\imgui\imgui_draw.cpp

; 1496 :     if ((col & IM_COL32_A_MASK) == 0 || radius < 0.5f)

	mov	r15d, r14d
; File C:\dev\Photo Studio\Photo Studio\Dependencies\imgui\imgui_widgets.cpp

; 6101 :         draw_list->AddCircle(hue_cursor_pos, hue_cursor_rad + 1, col_midgrey, hue_cursor_segments);

	movaps	xmm2, xmm6
	addss	xmm2, xmm12
; File C:\dev\Photo Studio\Photo Studio\Dependencies\imgui\imgui_draw.cpp

; 1496 :     if ((col & IM_COL32_A_MASK) == 0 || radius < 0.5f)

	and	r15d, -16777216				; ff000000H
	je	$LN272@ColorPicke
	comiss	xmm7, xmm2
	ja	$LN272@ColorPicke

; 1497 :         return;
; 1498 : 
; 1499 :     if (num_segments <= 0)

	test	ebx, ebx
	jg	SHORT $LN273@ColorPicke

; 1500 :     {
; 1501 :         // Use arc with automatic segment count
; 1502 :         _PathArcToFastEx(center, radius - 0.5f, 0, IM_DRAWLIST_ARCFAST_SAMPLE_MAX, 0);

	subss	xmm2, xmm7
	mov	DWORD PTR [rsp+32], 48			; 00000030H
	xor	r9d, r9d
	lea	rdx, QWORD PTR hue_cursor_pos$68[rbp-256]
	mov	rcx, rsi
	call	?_PathArcToFastEx@ImDrawList@@QEAAXAEBUImVec2@@MHHH@Z ; ImDrawList::_PathArcToFastEx

; 1503 :         _Path.Size--;

	dec	DWORD PTR [rsi+120]

; 1504 :     }

	jmp	SHORT $LN274@ColorPicke
$LN273@ColorPicke:
; File C:\dev\Photo Studio\Photo Studio\Dependencies\imgui\imgui_internal.h

; 475  : template<typename T> static inline T ImClamp(T v, T mn, T mx)                   { return (v < mn) ? mn : (v > mx) ? mx : v; }

	cmp	ebx, 3
	jge	SHORT $LN280@ColorPicke
	mov	eax, 3
	jmp	SHORT $LN281@ColorPicke
$LN280@ColorPicke:
	cmp	ebx, r12d
	mov	eax, ebx
	cmovg	eax, r12d
$LN281@ColorPicke:
	movd	xmm0, eax
; File C:\dev\Photo Studio\Photo Studio\Dependencies\imgui\imgui_draw.cpp

; 1512 :         PathArcTo(center, radius - 0.5f, 0.0f, a_max, num_segments - 1);

	subss	xmm2, xmm7
	cvtdq2ps xmm0, xmm0
	dec	eax
	lea	rdx, QWORD PTR hue_cursor_pos$68[rbp-256]
	mov	DWORD PTR [rsp+40], eax
	mov	rcx, rsi
	xorps	xmm3, xmm3

; 1505 :     else
; 1506 :     {
; 1507 :         // Explicit segment count (still clamp to avoid drawing insanely tessellated shapes)
; 1508 :         num_segments = ImClamp(num_segments, 3, IM_DRAWLIST_CIRCLE_AUTO_SEGMENT_MAX);
; 1509 : 
; 1510 :         // Because we are filling a closed shape we remove 1 from the count of segments/points
; 1511 :         const float a_max = (IM_PI * 2.0f) * ((float)num_segments - 1.0f) / (float)num_segments;

	movaps	xmm1, xmm0
	subss	xmm1, xmm12
	mulss	xmm1, xmm8
	divss	xmm1, xmm0

; 1512 :         PathArcTo(center, radius - 0.5f, 0.0f, a_max, num_segments - 1);

	movss	DWORD PTR [rsp+32], xmm1
	call	?PathArcTo@ImDrawList@@QEAAXAEBUImVec2@@MMMH@Z ; ImDrawList::PathArcTo
$LN274@ColorPicke:
; File C:\dev\Photo Studio\Photo Studio\Dependencies\imgui\imgui.h

; 2917 :     inline    void  PathStroke(ImU32 col, ImDrawFlags flags = 0, float thickness = 1.0f) { AddPolyline(_Path.Data, _Path.Size, col, flags, thickness); _Path.Size = 0; }

	mov	r8d, DWORD PTR [rsi+120]
	mov	r9d, r14d
	mov	rdx, QWORD PTR [rsi+128]
	mov	rcx, rsi
	movss	DWORD PTR [rsp+40], xmm12
	mov	DWORD PTR [rsp+32], 1
	call	?AddPolyline@ImDrawList@@QEAAXPEBUImVec2@@HIHM@Z ; ImDrawList::AddPolyline
	mov	DWORD PTR [rsi+120], 0
$LN272@ColorPicke:
; File C:\dev\Photo Studio\Photo Studio\Dependencies\imgui\imgui_draw.cpp

; 1496 :     if ((col & IM_COL32_A_MASK) == 0 || radius < 0.5f)

	mov	r12d, DWORD PTR col_white$1$[rbp-256]
	test	r12d, -16777216				; ff000000H
	je	$LN260@ColorPicke
	comiss	xmm7, xmm6
	ja	$LN260@ColorPicke

; 1497 :         return;
; 1498 : 
; 1499 :     if (num_segments <= 0)

	test	ebx, ebx
	jg	SHORT $LN261@ColorPicke

; 1500 :     {
; 1501 :         // Use arc with automatic segment count
; 1502 :         _PathArcToFastEx(center, radius - 0.5f, 0, IM_DRAWLIST_ARCFAST_SAMPLE_MAX, 0);

	subss	xmm6, xmm7
	mov	DWORD PTR [rsp+32], 48			; 00000030H
	xor	r9d, r9d
	lea	rdx, QWORD PTR hue_cursor_pos$68[rbp-256]
	mov	rcx, rsi
	movaps	xmm2, xmm6
	call	?_PathArcToFastEx@ImDrawList@@QEAAXAEBUImVec2@@MHHH@Z ; ImDrawList::_PathArcToFastEx

; 1503 :         _Path.Size--;

	dec	DWORD PTR [rsi+120]

; 1504 :     }

	jmp	SHORT $LN262@ColorPicke
$LN261@ColorPicke:
; File C:\dev\Photo Studio\Photo Studio\Dependencies\imgui\imgui_internal.h

; 475  : template<typename T> static inline T ImClamp(T v, T mn, T mx)                   { return (v < mn) ? mn : (v > mx) ? mx : v; }

	cmp	ebx, 3
	jge	SHORT $LN268@ColorPicke
	mov	ebx, 3
	jmp	SHORT $LN269@ColorPicke
$LN268@ColorPicke:
	mov	eax, 512				; 00000200H
	cmp	ebx, eax
	cmovg	ebx, eax
$LN269@ColorPicke:
	movd	xmm0, ebx
; File C:\dev\Photo Studio\Photo Studio\Dependencies\imgui\imgui_draw.cpp

; 1512 :         PathArcTo(center, radius - 0.5f, 0.0f, a_max, num_segments - 1);

	subss	xmm6, xmm7
	cvtdq2ps xmm0, xmm0
	lea	eax, DWORD PTR [rbx-1]
	mov	rcx, rsi
	mov	DWORD PTR [rsp+40], eax
	lea	rdx, QWORD PTR hue_cursor_pos$68[rbp-256]
	xorps	xmm3, xmm3
	movaps	xmm2, xmm6
	movaps	xmm1, xmm0
	subss	xmm1, xmm12
	mulss	xmm1, xmm8
	divss	xmm1, xmm0
	movss	DWORD PTR [rsp+32], xmm1
	call	?PathArcTo@ImDrawList@@QEAAXAEBUImVec2@@MMMH@Z ; ImDrawList::PathArcTo
$LN262@ColorPicke:
; File C:\dev\Photo Studio\Photo Studio\Dependencies\imgui\imgui.h

; 2917 :     inline    void  PathStroke(ImU32 col, ImDrawFlags flags = 0, float thickness = 1.0f) { AddPolyline(_Path.Data, _Path.Size, col, flags, thickness); _Path.Size = 0; }

	mov	r8d, DWORD PTR [rsi+120]
	mov	r9d, r12d
	mov	rdx, QWORD PTR [rsi+128]
	mov	rcx, rsi
	movss	DWORD PTR [rsp+40], xmm12
	mov	DWORD PTR [rsp+32], 1
	call	?AddPolyline@ImDrawList@@QEAAXPEBUImVec2@@HIHM@Z ; ImDrawList::AddPolyline
	mov	DWORD PTR [rsi+120], 0
$LN260@ColorPicke:
; File C:\dev\Photo Studio\Photo Studio\Dependencies\imgui\imgui_internal.h

; 497  : static inline ImVec2 ImRotate(const ImVec2& v, float cos_a, float sin_a)        { return ImVec2(v.x * cos_a - v.y * sin_a, v.x * sin_a + v.y * cos_a); }

	movss	xmm3, DWORD PTR cos_hue_angle$1$[rbp-256]
	movaps	xmm0, xmm10
	movss	xmm4, DWORD PTR trc$2$[rsp]
	movaps	xmm9, xmm10
	mulss	xmm9, DWORD PTR triangle_pa$[rbp-256]
	movaps	xmm1, xmm10
; File C:\dev\Photo Studio\Photo Studio\Dependencies\imgui\imgui.cpp

; 8417 :     return GImGui->DrawListSharedData.TexUvWhitePixel;

	mov	rax, QWORD PTR ?GImGui@@3PEAUImGuiContext@@EA ; GImGui
; File C:\dev\Photo Studio\Photo Studio\Dependencies\imgui\imgui_widgets.cpp

; 6109 :         draw_list->PrimReserve(3, 3);

	mov	edi, 3
; File C:\dev\Photo Studio\Photo Studio\Dependencies\imgui\imgui.h

; 2634 : static inline ImVec2  operator+(const ImVec2& lhs, const ImVec2& rhs)   { return ImVec2(lhs.x + rhs.x, lhs.y + rhs.y); }

	movss	xmm5, DWORD PTR wheel_center$2$[rbp-256]
; File C:\dev\Photo Studio\Photo Studio\Dependencies\imgui\imgui_internal.h

; 497  : static inline ImVec2 ImRotate(const ImVec2& v, float cos_a, float sin_a)        { return ImVec2(v.x * cos_a - v.y * sin_a, v.x * sin_a + v.y * cos_a); }

	movaps	xmm2, xmm3
	mulss	xmm2, DWORD PTR triangle_pc$1$[rbp-256]
	movaps	xmm8, xmm3
; File C:\dev\Photo Studio\Photo Studio\Dependencies\imgui\imgui_widgets.cpp

; 6109 :         draw_list->PrimReserve(3, 3);

	mov	r8d, edi
	mov	edx, edi
; File C:\dev\Photo Studio\Photo Studio\Dependencies\imgui\imgui_internal.h

; 497  : static inline ImVec2 ImRotate(const ImVec2& v, float cos_a, float sin_a)        { return ImVec2(v.x * cos_a - v.y * sin_a, v.x * sin_a + v.y * cos_a); }

	mulss	xmm8, DWORD PTR triangle_pa$[rbp-256]
; File C:\dev\Photo Studio\Photo Studio\Dependencies\imgui\imgui_widgets.cpp

; 6109 :         draw_list->PrimReserve(3, 3);

	mov	rcx, rsi
; File C:\dev\Photo Studio\Photo Studio\Dependencies\imgui\imgui.h

; 2634 : static inline ImVec2  operator+(const ImVec2& lhs, const ImVec2& rhs)   { return ImVec2(lhs.x + rhs.x, lhs.y + rhs.y); }

	movss	xmm6, DWORD PTR wheel_center$1$[rbp-256]
; File C:\dev\Photo Studio\Photo Studio\Dependencies\imgui\imgui_internal.h

; 497  : static inline ImVec2 ImRotate(const ImVec2& v, float cos_a, float sin_a)        { return ImVec2(v.x * cos_a - v.y * sin_a, v.x * sin_a + v.y * cos_a); }

	movaps	xmm14, xmm2
	mulss	xmm1, DWORD PTR triangle_pc$1$[rbp-256]
; File C:\dev\Photo Studio\Photo Studio\Dependencies\imgui\imgui.cpp

; 8417 :     return GImGui->DrawListSharedData.TexUvWhitePixel;

	movss	xmm7, DWORD PTR [rax+16004]
; File C:\dev\Photo Studio\Photo Studio\Dependencies\imgui\imgui_internal.h

; 497  : static inline ImVec2 ImRotate(const ImVec2& v, float cos_a, float sin_a)        { return ImVec2(v.x * cos_a - v.y * sin_a, v.x * sin_a + v.y * cos_a); }

	mulss	xmm0, xmm11
	subss	xmm8, xmm0
	movaps	xmm0, xmm3
	mulss	xmm0, xmm11
	addss	xmm9, xmm0
	movaps	xmm0, xmm10
	mulss	xmm0, DWORD PTR triangle_pb$2$[rbp-256]
; File C:\dev\Photo Studio\Photo Studio\Dependencies\imgui\imgui.h

; 2634 : static inline ImVec2  operator+(const ImVec2& lhs, const ImVec2& rhs)   { return ImVec2(lhs.x + rhs.x, lhs.y + rhs.y); }

	addss	xmm8, xmm5
; File C:\dev\Photo Studio\Photo Studio\Dependencies\imgui\imgui_internal.h

; 497  : static inline ImVec2 ImRotate(const ImVec2& v, float cos_a, float sin_a)        { return ImVec2(v.x * cos_a - v.y * sin_a, v.x * sin_a + v.y * cos_a); }

	movaps	xmm10, xmm3
	mulss	xmm10, DWORD PTR triangle_pb$2$[rbp-256]
	subss	xmm14, xmm0
	movaps	xmm0, xmm4
; File C:\dev\Photo Studio\Photo Studio\Dependencies\imgui\imgui.h

; 2634 : static inline ImVec2  operator+(const ImVec2& lhs, const ImVec2& rhs)   { return ImVec2(lhs.x + rhs.x, lhs.y + rhs.y); }

	addss	xmm9, xmm6

; 279  :     constexpr ImVec2(float _x, float _y)    : x(_x), y(_y) { }

	movss	DWORD PTR tra$66[rsp], xmm8
; File C:\dev\Photo Studio\Photo Studio\Dependencies\imgui\imgui_internal.h

; 497  : static inline ImVec2 ImRotate(const ImVec2& v, float cos_a, float sin_a)        { return ImVec2(v.x * cos_a - v.y * sin_a, v.x * sin_a + v.y * cos_a); }

	mulss	xmm0, DWORD PTR sin_hue_angle$1$[rbp-256]
	addss	xmm10, xmm1
	mulss	xmm4, xmm3
	subss	xmm2, xmm0
; File C:\dev\Photo Studio\Photo Studio\Dependencies\imgui\imgui.h

; 279  :     constexpr ImVec2(float _x, float _y)    : x(_x), y(_y) { }

	movss	DWORD PTR tra$66[rsp+4], xmm9
	addss	xmm10, xmm6
; File C:\dev\Photo Studio\Photo Studio\Dependencies\imgui\imgui_internal.h

; 497  : static inline ImVec2 ImRotate(const ImVec2& v, float cos_a, float sin_a)        { return ImVec2(v.x * cos_a - v.y * sin_a, v.x * sin_a + v.y * cos_a); }

	addss	xmm4, xmm1
; File C:\dev\Photo Studio\Photo Studio\Dependencies\imgui\imgui.h

; 279  :     constexpr ImVec2(float _x, float _y)    : x(_x), y(_y) { }

	addss	xmm14, xmm5

; 2634 : static inline ImVec2  operator+(const ImVec2& lhs, const ImVec2& rhs)   { return ImVec2(lhs.x + rhs.x, lhs.y + rhs.y); }

	addss	xmm2, xmm5

; 279  :     constexpr ImVec2(float _x, float _y)    : x(_x), y(_y) { }

	movss	DWORD PTR trb$65[rsp+4], xmm10

; 2634 : static inline ImVec2  operator+(const ImVec2& lhs, const ImVec2& rhs)   { return ImVec2(lhs.x + rhs.x, lhs.y + rhs.y); }

	addss	xmm4, xmm6
; File C:\dev\Photo Studio\Photo Studio\Dependencies\imgui\imgui.cpp

; 8417 :     return GImGui->DrawListSharedData.TexUvWhitePixel;

	movss	xmm6, DWORD PTR [rax+16000]
; File C:\dev\Photo Studio\Photo Studio\Dependencies\imgui\imgui.h

; 279  :     constexpr ImVec2(float _x, float _y)    : x(_x), y(_y) { }

	movss	DWORD PTR trb$65[rsp], xmm14
	movss	DWORD PTR trc$67[rbp-256], xmm2

; 2634 : static inline ImVec2  operator+(const ImVec2& lhs, const ImVec2& rhs)   { return ImVec2(lhs.x + rhs.x, lhs.y + rhs.y); }

	movss	DWORD PTR trc$2$[rsp], xmm4

; 279  :     constexpr ImVec2(float _x, float _y)    : x(_x), y(_y) { }

	movss	DWORD PTR trc$67[rbp-252], xmm4
; File C:\dev\Photo Studio\Photo Studio\Dependencies\imgui\imgui_widgets.cpp

; 6109 :         draw_list->PrimReserve(3, 3);

	call	?PrimReserve@ImDrawList@@QEAAXHH@Z	; ImDrawList::PrimReserve
; File C:\dev\Photo Studio\Photo Studio\Dependencies\imgui\imgui.h

; 2949 :     inline    void  PrimWriteIdx(ImDrawIdx idx)                                     { *_IdxWritePtr = idx; _IdxWritePtr++; }

	mov	rcx, QWORD PTR [rsi+80]
	movzx	eax, WORD PTR [rsi+52]
	mov	WORD PTR [rcx], ax

; 2948 :     inline    void  PrimWriteVtx(const ImVec2& pos, const ImVec2& uv, ImU32 col)    { _VtxWritePtr->pos = pos; _VtxWritePtr->uv = uv; _VtxWritePtr->col = col; _VtxWritePtr++; _VtxCurrentIdx++; }

	mov	rax, QWORD PTR [rsi+72]

; 2949 :     inline    void  PrimWriteIdx(ImDrawIdx idx)                                     { *_IdxWritePtr = idx; _IdxWritePtr++; }

	add	QWORD PTR [rsi+80], 2

; 2948 :     inline    void  PrimWriteVtx(const ImVec2& pos, const ImVec2& uv, ImU32 col)    { _VtxWritePtr->pos = pos; _VtxWritePtr->uv = uv; _VtxWritePtr->col = col; _VtxWritePtr++; _VtxCurrentIdx++; }

	mov	ecx, DWORD PTR hue_color32$1$[rsp]
	movss	DWORD PTR [rax], xmm8
	movss	DWORD PTR [rax+4], xmm9
	mov	rax, QWORD PTR [rsi+72]
	movss	DWORD PTR [rax+8], xmm6
	movss	DWORD PTR [rax+12], xmm7
	mov	rax, QWORD PTR [rsi+72]
	mov	DWORD PTR [rax+16], ecx
	add	QWORD PTR [rsi+72], 20

; 2949 :     inline    void  PrimWriteIdx(ImDrawIdx idx)                                     { *_IdxWritePtr = idx; _IdxWritePtr++; }

	mov	rax, QWORD PTR [rsi+80]

; 2948 :     inline    void  PrimWriteVtx(const ImVec2& pos, const ImVec2& uv, ImU32 col)    { _VtxWritePtr->pos = pos; _VtxWritePtr->uv = uv; _VtxWritePtr->col = col; _VtxWritePtr++; _VtxCurrentIdx++; }

	inc	DWORD PTR [rsi+52]
	mov	ecx, DWORD PTR [rsi+52]

; 2949 :     inline    void  PrimWriteIdx(ImDrawIdx idx)                                     { *_IdxWritePtr = idx; _IdxWritePtr++; }

	mov	WORD PTR [rax], cx

; 2948 :     inline    void  PrimWriteVtx(const ImVec2& pos, const ImVec2& uv, ImU32 col)    { _VtxWritePtr->pos = pos; _VtxWritePtr->uv = uv; _VtxWritePtr->col = col; _VtxWritePtr++; _VtxCurrentIdx++; }

	mov	rax, QWORD PTR [rsi+72]

; 2949 :     inline    void  PrimWriteIdx(ImDrawIdx idx)                                     { *_IdxWritePtr = idx; _IdxWritePtr++; }

	add	QWORD PTR [rsi+80], 2

; 2948 :     inline    void  PrimWriteVtx(const ImVec2& pos, const ImVec2& uv, ImU32 col)    { _VtxWritePtr->pos = pos; _VtxWritePtr->uv = uv; _VtxWritePtr->col = col; _VtxWritePtr++; _VtxCurrentIdx++; }

	mov	ecx, DWORD PTR col_black$1$[rbp-256]
	movss	DWORD PTR [rax], xmm14
	movss	DWORD PTR [rax+4], xmm10
	mov	rax, QWORD PTR [rsi+72]
	movss	DWORD PTR [rax+8], xmm6
	movss	DWORD PTR [rax+12], xmm7
	mov	rax, QWORD PTR [rsi+72]
	mov	DWORD PTR [rax+16], ecx
	add	QWORD PTR [rsi+72], 20
	inc	DWORD PTR [rsi+52]

; 2949 :     inline    void  PrimWriteIdx(ImDrawIdx idx)                                     { *_IdxWritePtr = idx; _IdxWritePtr++; }

	mov	rax, QWORD PTR [rsi+80]

; 2948 :     inline    void  PrimWriteVtx(const ImVec2& pos, const ImVec2& uv, ImU32 col)    { _VtxWritePtr->pos = pos; _VtxWritePtr->uv = uv; _VtxWritePtr->col = col; _VtxWritePtr++; _VtxCurrentIdx++; }

	mov	ecx, DWORD PTR [rsi+52]
	movss	xmm2, DWORD PTR trc$67[rbp-256]
	movss	xmm3, DWORD PTR trc$2$[rsp]

; 2949 :     inline    void  PrimWriteIdx(ImDrawIdx idx)                                     { *_IdxWritePtr = idx; _IdxWritePtr++; }

	mov	WORD PTR [rax], cx

; 2948 :     inline    void  PrimWriteVtx(const ImVec2& pos, const ImVec2& uv, ImU32 col)    { _VtxWritePtr->pos = pos; _VtxWritePtr->uv = uv; _VtxWritePtr->col = col; _VtxWritePtr++; _VtxCurrentIdx++; }

	mov	rax, QWORD PTR [rsi+72]

; 2949 :     inline    void  PrimWriteIdx(ImDrawIdx idx)                                     { *_IdxWritePtr = idx; _IdxWritePtr++; }

	add	QWORD PTR [rsi+80], 2

; 2948 :     inline    void  PrimWriteVtx(const ImVec2& pos, const ImVec2& uv, ImU32 col)    { _VtxWritePtr->pos = pos; _VtxWritePtr->uv = uv; _VtxWritePtr->col = col; _VtxWritePtr++; _VtxCurrentIdx++; }

	movss	DWORD PTR [rax], xmm2
	movss	DWORD PTR [rax+4], xmm3
	mov	rax, QWORD PTR [rsi+72]
	movss	DWORD PTR [rax+8], xmm6
	movss	DWORD PTR [rax+12], xmm7
	mov	rax, QWORD PTR [rsi+72]
	mov	DWORD PTR [rax+16], r12d
	add	QWORD PTR [rsi+72], 20
	inc	DWORD PTR [rsi+52]
; File C:\dev\Photo Studio\Photo Studio\Dependencies\imgui\imgui_draw.cpp

; 1474 :     if ((col & IM_COL32_A_MASK) == 0)

	test	r15d, r15d
	je	$LN218@ColorPicke
; File C:\dev\Photo Studio\Photo Studio\Dependencies\imgui\imgui.h

; 2044 :     inline void         push_back(const T& v)               { if (Size == Capacity) reserve(_grow_capacity(Size + 1)); memcpy(&Data[Size], &v, sizeof(v)); Size++; }

	mov	ecx, DWORD PTR [rsi+124]
	mov	r8d, DWORD PTR [rsi+120]
	cmp	r8d, ecx
	jne	SHORT $LN224@ColorPicke
	inc	r8d

; 2036 :     inline int          _grow_capacity(int sz) const        { int new_capacity = Capacity ? (Capacity + Capacity / 2) : 8; return new_capacity > sz ? new_capacity : sz; }

	test	ecx, ecx
	je	SHORT $LN228@ColorPicke
	mov	eax, ecx
	cdq
	sub	eax, edx
	sar	eax, 1
	add	eax, ecx
	jmp	SHORT $LN229@ColorPicke
$LN228@ColorPicke:
	mov	eax, 8
$LN229@ColorPicke:
	cmp	eax, r8d

; 2044 :     inline void         push_back(const T& v)               { if (Size == Capacity) reserve(_grow_capacity(Size + 1)); memcpy(&Data[Size], &v, sizeof(v)); Size++; }

	lea	rcx, QWORD PTR [rsi+120]

; 2036 :     inline int          _grow_capacity(int sz) const        { int new_capacity = Capacity ? (Capacity + Capacity / 2) : 8; return new_capacity > sz ? new_capacity : sz; }

	cmovg	r8d, eax

; 2044 :     inline void         push_back(const T& v)               { if (Size == Capacity) reserve(_grow_capacity(Size + 1)); memcpy(&Data[Size], &v, sizeof(v)); Size++; }

	mov	edx, r8d
	call	?reserve@?$ImVector@UImVec2@@@@QEAAXH@Z	; ImVector<ImVec2>::reserve
$LN224@ColorPicke:
	movsxd	rdx, DWORD PTR [rsi+120]
	mov	rcx, QWORD PTR [rsi+128]
	mov	rax, QWORD PTR tra$66[rsp]
	mov	QWORD PTR [rcx+rdx*8], rax
	mov	r8d, DWORD PTR [rsi+120]
	inc	r8d
	mov	DWORD PTR [rsi+120], r8d
	mov	ecx, DWORD PTR [rsi+124]
	cmp	r8d, ecx
	jne	SHORT $LN233@ColorPicke
	inc	r8d

; 2036 :     inline int          _grow_capacity(int sz) const        { int new_capacity = Capacity ? (Capacity + Capacity / 2) : 8; return new_capacity > sz ? new_capacity : sz; }

	test	ecx, ecx
	je	SHORT $LN237@ColorPicke
	mov	eax, ecx
	cdq
	sub	eax, edx
	sar	eax, 1
	add	eax, ecx
	jmp	SHORT $LN238@ColorPicke
$LN237@ColorPicke:
	mov	eax, 8
$LN238@ColorPicke:
	cmp	eax, r8d

; 2044 :     inline void         push_back(const T& v)               { if (Size == Capacity) reserve(_grow_capacity(Size + 1)); memcpy(&Data[Size], &v, sizeof(v)); Size++; }

	lea	rcx, QWORD PTR [rsi+120]

; 2036 :     inline int          _grow_capacity(int sz) const        { int new_capacity = Capacity ? (Capacity + Capacity / 2) : 8; return new_capacity > sz ? new_capacity : sz; }

	cmovg	r8d, eax

; 2044 :     inline void         push_back(const T& v)               { if (Size == Capacity) reserve(_grow_capacity(Size + 1)); memcpy(&Data[Size], &v, sizeof(v)); Size++; }

	mov	edx, r8d
	call	?reserve@?$ImVector@UImVec2@@@@QEAAXH@Z	; ImVector<ImVec2>::reserve
$LN233@ColorPicke:
	movsxd	rdx, DWORD PTR [rsi+120]
	mov	rcx, QWORD PTR [rsi+128]
	mov	rax, QWORD PTR trb$65[rsp]
	mov	QWORD PTR [rcx+rdx*8], rax
	mov	r8d, DWORD PTR [rsi+120]
	inc	r8d
	mov	DWORD PTR [rsi+120], r8d
	mov	ecx, DWORD PTR [rsi+124]
	cmp	r8d, ecx
	jne	SHORT $LN242@ColorPicke
	inc	r8d

; 2036 :     inline int          _grow_capacity(int sz) const        { int new_capacity = Capacity ? (Capacity + Capacity / 2) : 8; return new_capacity > sz ? new_capacity : sz; }

	test	ecx, ecx
	je	SHORT $LN246@ColorPicke
	mov	eax, ecx
	cdq
	sub	eax, edx
	sar	eax, 1
	add	eax, ecx
	jmp	SHORT $LN247@ColorPicke
$LN246@ColorPicke:
	mov	eax, 8
$LN247@ColorPicke:
	cmp	eax, r8d

; 2044 :     inline void         push_back(const T& v)               { if (Size == Capacity) reserve(_grow_capacity(Size + 1)); memcpy(&Data[Size], &v, sizeof(v)); Size++; }

	lea	rcx, QWORD PTR [rsi+120]

; 2036 :     inline int          _grow_capacity(int sz) const        { int new_capacity = Capacity ? (Capacity + Capacity / 2) : 8; return new_capacity > sz ? new_capacity : sz; }

	cmovg	r8d, eax

; 2044 :     inline void         push_back(const T& v)               { if (Size == Capacity) reserve(_grow_capacity(Size + 1)); memcpy(&Data[Size], &v, sizeof(v)); Size++; }

	mov	edx, r8d
	call	?reserve@?$ImVector@UImVec2@@@@QEAAXH@Z	; ImVector<ImVec2>::reserve
$LN242@ColorPicke:
	movsxd	rdx, DWORD PTR [rsi+120]

; 2917 :     inline    void  PathStroke(ImU32 col, ImDrawFlags flags = 0, float thickness = 1.0f) { AddPolyline(_Path.Data, _Path.Size, col, flags, thickness); _Path.Size = 0; }

	mov	r9d, r14d

; 2044 :     inline void         push_back(const T& v)               { if (Size == Capacity) reserve(_grow_capacity(Size + 1)); memcpy(&Data[Size], &v, sizeof(v)); Size++; }

	mov	rcx, QWORD PTR [rsi+128]
	mov	rax, QWORD PTR trc$67[rbp-256]

; 2917 :     inline    void  PathStroke(ImU32 col, ImDrawFlags flags = 0, float thickness = 1.0f) { AddPolyline(_Path.Data, _Path.Size, col, flags, thickness); _Path.Size = 0; }

	movss	xmm0, DWORD PTR __real@3fc00000
	movss	DWORD PTR [rsp+40], xmm0

; 2044 :     inline void         push_back(const T& v)               { if (Size == Capacity) reserve(_grow_capacity(Size + 1)); memcpy(&Data[Size], &v, sizeof(v)); Size++; }

	mov	QWORD PTR [rcx+rdx*8], rax

; 2917 :     inline    void  PathStroke(ImU32 col, ImDrawFlags flags = 0, float thickness = 1.0f) { AddPolyline(_Path.Data, _Path.Size, col, flags, thickness); _Path.Size = 0; }

	mov	rcx, rsi

; 2044 :     inline void         push_back(const T& v)               { if (Size == Capacity) reserve(_grow_capacity(Size + 1)); memcpy(&Data[Size], &v, sizeof(v)); Size++; }

	inc	DWORD PTR [rsi+120]

; 2917 :     inline    void  PathStroke(ImU32 col, ImDrawFlags flags = 0, float thickness = 1.0f) { AddPolyline(_Path.Data, _Path.Size, col, flags, thickness); _Path.Size = 0; }

	mov	r8d, DWORD PTR [rsi+120]
	mov	rdx, QWORD PTR [rsi+128]
	mov	DWORD PTR [rsp+32], 1
	call	?AddPolyline@ImDrawList@@QEAAXPEBUImVec2@@HIHM@Z ; ImDrawList::AddPolyline
	movss	xmm2, DWORD PTR trc$67[rbp-256]
	movss	xmm3, DWORD PTR trc$2$[rsp]
	mov	DWORD PTR [rsi+120], 0
$LN218@ColorPicke:
; File C:\dev\Photo Studio\Photo Studio\Dependencies\imgui\imgui_widgets.cpp

; 6114 :         sv_cursor_pos = ImLerp(ImLerp(trc, tra, ImSaturate(S)), trb, ImSaturate(1 - V));

	movaps	xmm0, xmm12
	subss	xmm0, DWORD PTR V$1$[rsp]
; File C:\dev\Photo Studio\Photo Studio\Dependencies\imgui\imgui_internal.h

; 487  : static inline float  ImSaturate(float f)                                        { return (f < 0.0f) ? 0.0f : (f > 1.0f) ? 1.0f : f; }

	comiss	xmm11, xmm0
	jbe	SHORT $LN168@ColorPicke
	xorps	xmm1, xmm1
	jmp	SHORT $LN169@ColorPicke
$LN168@ColorPicke:
	movaps	xmm1, xmm12
	minss	xmm1, xmm0
$LN169@ColorPicke:
	comiss	xmm11, xmm13
	jbe	SHORT $LN162@ColorPicke
	xorps	xmm0, xmm0
	jmp	SHORT $LN163@ColorPicke
$LN162@ColorPicke:
	movaps	xmm0, xmm12
	minss	xmm0, xmm13
$LN163@ColorPicke:
; File C:\dev\Photo Studio\Photo Studio\Dependencies\imgui\imgui_widgets.cpp

; 6115 :     }

	movss	xmm7, DWORD PTR __real@40c90fdb
; File C:\dev\Photo Studio\Photo Studio\Dependencies\imgui\imgui_internal.h

; 484  : static inline ImVec2 ImLerp(const ImVec2& a, const ImVec2& b, float t)          { return ImVec2(a.x + (b.x - a.x) * t, a.y + (b.y - a.y) * t); }

	subss	xmm9, xmm3
	subss	xmm8, xmm2
; File C:\dev\Photo Studio\Photo Studio\Dependencies\imgui\imgui_widgets.cpp

; 6115 :     }

	mov	edx, 512				; 00000200H
; File C:\dev\Photo Studio\Photo Studio\Dependencies\imgui\imgui_internal.h

; 484  : static inline ImVec2 ImLerp(const ImVec2& a, const ImVec2& b, float t)          { return ImVec2(a.x + (b.x - a.x) * t, a.y + (b.y - a.y) * t); }

	mulss	xmm9, xmm0
	mulss	xmm8, xmm0
	addss	xmm9, xmm3
	addss	xmm8, xmm2
	subss	xmm10, xmm9
	subss	xmm14, xmm8
	mulss	xmm10, xmm1
	mulss	xmm14, xmm1
	addss	xmm10, xmm9
; File C:\dev\Photo Studio\Photo Studio\Dependencies\imgui\imgui_widgets.cpp

; 6115 :     }

	movss	xmm9, DWORD PTR __real@3f000000
; File C:\dev\Photo Studio\Photo Studio\Dependencies\imgui\imgui_internal.h

; 484  : static inline ImVec2 ImLerp(const ImVec2& a, const ImVec2& b, float t)          { return ImVec2(a.x + (b.x - a.x) * t, a.y + (b.y - a.y) * t); }

	addss	xmm14, xmm8
; File C:\dev\Photo Studio\Photo Studio\Dependencies\imgui\imgui_widgets.cpp

; 6114 :         sv_cursor_pos = ImLerp(ImLerp(trc, tra, ImSaturate(S)), trb, ImSaturate(1 - V));

	movss	DWORD PTR sv_cursor_pos$[rsp+4], xmm10
	movss	DWORD PTR sv_cursor_pos$[rsp], xmm14
$LN1068@ColorPicke:

; 6131 :     }
; 6132 : 
; 6133 :     // Render cursor/preview circle (clamp S/V within 0..1 range because floating points colors may lead HSV values to be out of range)
; 6134 :     float sv_cursor_rad = value_changed_sv ? wheel_thickness * 0.55f : wheel_thickness * 0.40f;

	movss	xmm14, DWORD PTR square_sz$1$[rsp]
$LN64@ColorPicke:
	cmp	BYTE PTR value_changed_sv$1$[rsp], 0
	je	$LN90@ColorPicke
	mov	eax, 9
	jmp	$LN1056@ColorPicke
$LN62@ColorPicke:

; 6116 :     else if (flags & ImGuiColorEditFlags_PickerHueBar)

	test	DWORD PTR flags$GSCopy$1$[rbp-256], 33554432 ; 02000000H
	je	SHORT $LN1068@ColorPicke
; File C:\dev\Photo Studio\Photo Studio\Dependencies\imgui\imgui.h

; 279  :     constexpr ImVec2(float _x, float _y)    : x(_x), y(_y) { }

	movss	xmm0, DWORD PTR mx$1$[rbp-256]
; File C:\dev\Photo Studio\Photo Studio\Dependencies\imgui\imgui_widgets.cpp

; 6119 :         draw_list->AddRectFilledMultiColor(picker_pos, picker_pos + ImVec2(sv_picker_size, sv_height), col_white, hue_color32, hue_color32, col_white);

	lea	rdx, QWORD PTR picker_pos$[rbp-256]
; File C:\dev\Photo Studio\Photo Studio\Dependencies\imgui\imgui.h

; 279  :     constexpr ImVec2(float _x, float _y)    : x(_x), y(_y) { }

	movaps	xmm7, xmm14
; File C:\dev\Photo Studio\Photo Studio\Dependencies\imgui\imgui_widgets.cpp

; 6119 :         draw_list->AddRectFilledMultiColor(picker_pos, picker_pos + ImVec2(sv_picker_size, sv_height), col_white, hue_color32, hue_color32, col_white);

	mov	DWORD PTR [rsp+48], r12d
; File C:\dev\Photo Studio\Photo Studio\Dependencies\imgui\imgui.h

; 279  :     constexpr ImVec2(float _x, float _y)    : x(_x), y(_y) { }

	addss	xmm7, DWORD PTR sv_height$1$[rbp-256]
; File C:\dev\Photo Studio\Photo Studio\Dependencies\imgui\imgui_widgets.cpp

; 6119 :         draw_list->AddRectFilledMultiColor(picker_pos, picker_pos + ImVec2(sv_picker_size, sv_height), col_white, hue_color32, hue_color32, col_white);

	mov	DWORD PTR [rsp+40], r8d
	mov	r9d, r12d
	mov	DWORD PTR [rsp+32], r8d
	mov	rcx, rsi
	lea	r8, QWORD PTR $T35[rsp]
; File C:\dev\Photo Studio\Photo Studio\Dependencies\imgui\imgui.h

; 279  :     constexpr ImVec2(float _x, float _y)    : x(_x), y(_y) { }

	movss	DWORD PTR $T35[rsp], xmm0
	movss	DWORD PTR $T35[rsp+4], xmm7
; File C:\dev\Photo Studio\Photo Studio\Dependencies\imgui\imgui_widgets.cpp

; 6119 :         draw_list->AddRectFilledMultiColor(picker_pos, picker_pos + ImVec2(sv_picker_size, sv_height), col_white, hue_color32, hue_color32, col_white);

	call	?AddRectFilledMultiColor@ImDrawList@@QEAAXAEBUImVec2@@0IIII@Z ; ImDrawList::AddRectFilledMultiColor
; File C:\dev\Photo Studio\Photo Studio\Dependencies\imgui\imgui.h

; 279  :     constexpr ImVec2(float _x, float _y)    : x(_x), y(_y) { }

	movss	xmm0, DWORD PTR mx$1$[rbp-256]
; File C:\dev\Photo Studio\Photo Studio\Dependencies\imgui\imgui_widgets.cpp

; 6120 :         draw_list->AddRectFilledMultiColor(picker_pos, picker_pos + ImVec2(sv_picker_size, sv_height), 0, 0, col_black, col_black);

	lea	r8, QWORD PTR $T37[rsp]
	mov	DWORD PTR [rsp+48], ebx
	lea	rdx, QWORD PTR picker_pos$[rbp-256]
	mov	DWORD PTR [rsp+40], ebx
	xor	r9d, r9d
	mov	rcx, rsi
; File C:\dev\Photo Studio\Photo Studio\Dependencies\imgui\imgui.h

; 279  :     constexpr ImVec2(float _x, float _y)    : x(_x), y(_y) { }

	movss	DWORD PTR $T37[rsp], xmm0
	movss	DWORD PTR $T37[rsp+4], xmm7
; File C:\dev\Photo Studio\Photo Studio\Dependencies\imgui\imgui_widgets.cpp

; 6120 :         draw_list->AddRectFilledMultiColor(picker_pos, picker_pos + ImVec2(sv_picker_size, sv_height), 0, 0, col_black, col_black);

	mov	DWORD PTR [rsp+32], 0
	call	?AddRectFilledMultiColor@ImDrawList@@QEAAXAEBUImVec2@@0IIII@Z ; ImDrawList::AddRectFilledMultiColor

; 6121 :         RenderFrameBorder(picker_pos, picker_pos + ImVec2(sv_picker_size, sv_height), 0.0f);

	movss	xmm0, DWORD PTR mx$1$[rbp-256]
	movaps	xmm2, xmm11
	mov	rcx, QWORD PTR picker_pos$3$[rbp-256]
	unpcklps xmm0, xmm7
	movq	rdx, xmm0
	call	?RenderFrameBorder@ImGui@@YAXUImVec2@@0M@Z ; ImGui::RenderFrameBorder
; File C:\dev\Photo Studio\Photo Studio\Dependencies\imgui\imgui_internal.h

; 487  : static inline float  ImSaturate(float f)                                        { return (f < 0.0f) ? 0.0f : (f > 1.0f) ? 1.0f : f; }

	comiss	xmm11, xmm13
; File C:\dev\Photo Studio\Photo Studio\Dependencies\imgui\imgui_widgets.cpp

; 6122 :         sv_cursor_pos.x = ImClamp(IM_ROUND(picker_pos.x + ImSaturate(S) * sv_picker_size), picker_pos.x + 2, picker_pos.x + sv_picker_size - 2); // Sneakily prevent the circle to stick out too much

	movsd	xmm2, QWORD PTR picker_pos$3$[rbp-256]
	movss	xmm3, DWORD PTR mx$1$[rbp-256]
	movaps	xmm1, xmm2
	addss	xmm1, xmm8
	subss	xmm3, xmm8
; File C:\dev\Photo Studio\Photo Studio\Dependencies\imgui\imgui_internal.h

; 487  : static inline float  ImSaturate(float f)                                        { return (f < 0.0f) ? 0.0f : (f > 1.0f) ? 1.0f : f; }

	jbe	SHORT $LN908@ColorPicke
	movaps	xmm0, xmm11
	jmp	SHORT $LN909@ColorPicke
$LN908@ColorPicke:
	movaps	xmm0, xmm12
	minss	xmm0, xmm13
$LN909@ColorPicke:
; File C:\dev\Photo Studio\Photo Studio\Dependencies\imgui\imgui_widgets.cpp

; 6122 :         sv_cursor_pos.x = ImClamp(IM_ROUND(picker_pos.x + ImSaturate(S) * sv_picker_size), picker_pos.x + 2, picker_pos.x + sv_picker_size - 2); // Sneakily prevent the circle to stick out too much

	mulss	xmm0, DWORD PTR sv_picker_size$1$[rbp-256]
	addss	xmm0, xmm2
	addss	xmm0, xmm9
	cvttss2si eax, xmm0
	movd	xmm2, eax
	cvtdq2ps xmm2, xmm2
; File C:\dev\Photo Studio\Photo Studio\Dependencies\imgui\imgui_internal.h

; 475  : template<typename T> static inline T ImClamp(T v, T mn, T mx)                   { return (v < mn) ? mn : (v > mx) ? mx : v; }

	comiss	xmm1, xmm2
	jbe	SHORT $LN879@ColorPicke
	movss	DWORD PTR sv_cursor_pos$[rsp], xmm1
	jmp	SHORT $LN878@ColorPicke
$LN879@ColorPicke:
	comiss	xmm2, xmm3
	jbe	SHORT $LN877@ColorPicke
	movss	DWORD PTR sv_cursor_pos$[rsp], xmm3
	jmp	SHORT $LN878@ColorPicke
$LN877@ColorPicke:
	movss	DWORD PTR sv_cursor_pos$[rsp], xmm2
$LN878@ColorPicke:
; File C:\dev\Photo Studio\Photo Studio\Dependencies\imgui\imgui_widgets.cpp

; 6123 :         sv_cursor_pos.y = ImClamp(IM_ROUND(picker_pos.y + ImSaturate(1 - V) * sv_height), picker_pos.y + 2, picker_pos.y + sv_height - 2);

	movaps	xmm1, xmm12
	subss	xmm1, xmm6
; File C:\dev\Photo Studio\Photo Studio\Dependencies\imgui\imgui_internal.h

; 487  : static inline float  ImSaturate(float f)                                        { return (f < 0.0f) ? 0.0f : (f > 1.0f) ? 1.0f : f; }

	comiss	xmm11, xmm1
	jbe	SHORT $LN914@ColorPicke
	movaps	xmm0, xmm11
	jmp	SHORT $LN915@ColorPicke
$LN914@ColorPicke:
	movaps	xmm0, xmm12
	minss	xmm0, xmm1
$LN915@ColorPicke:
; File C:\dev\Photo Studio\Photo Studio\Dependencies\imgui\imgui_widgets.cpp

; 6123 :         sv_cursor_pos.y = ImClamp(IM_ROUND(picker_pos.y + ImSaturate(1 - V) * sv_height), picker_pos.y + 2, picker_pos.y + sv_height - 2);

	movss	xmm13, DWORD PTR sv_height$1$[rbp-256]
	movaps	xmm2, xmm14
	mulss	xmm0, xmm13
	addss	xmm2, xmm8
	movaps	xmm1, xmm7
	subss	xmm1, xmm8
	addss	xmm0, xmm14
	addss	xmm0, xmm9
	cvttss2si eax, xmm0
	movd	xmm3, eax
	cvtdq2ps xmm3, xmm3
; File C:\dev\Photo Studio\Photo Studio\Dependencies\imgui\imgui_internal.h

; 475  : template<typename T> static inline T ImClamp(T v, T mn, T mx)                   { return (v < mn) ? mn : (v > mx) ? mx : v; }

	comiss	xmm2, xmm3
	jbe	SHORT $LN920@ColorPicke
	movss	DWORD PTR sv_cursor_pos$[rsp+4], xmm2
	jmp	SHORT $LN919@ColorPicke
$LN920@ColorPicke:
	comiss	xmm3, xmm1
	jbe	SHORT $LN918@ColorPicke
	movss	DWORD PTR sv_cursor_pos$[rsp+4], xmm1
	jmp	SHORT $LN919@ColorPicke
$LN918@ColorPicke:
	movss	DWORD PTR sv_cursor_pos$[rsp+4], xmm3
$LN919@ColorPicke:
; File C:\dev\Photo Studio\Photo Studio\Dependencies\imgui\imgui.h

; 279  :     constexpr ImVec2(float _x, float _y)    : x(_x), y(_y) { }

	movss	xmm0, DWORD PTR $T72[rbp-256]
; File C:\dev\Photo Studio\Photo Studio\Dependencies\imgui\imgui_widgets.cpp

; 6126 :         for (int i = 0; i < 6; ++i)

	lea	rdi, QWORD PTR col_hues$[rbp-256]
; File C:\dev\Photo Studio\Photo Studio\Dependencies\imgui\imgui.h

; 279  :     constexpr ImVec2(float _x, float _y)    : x(_x), y(_y) { }

	movss	DWORD PTR $T42[rbp-256], xmm0
	movaps	xmm6, xmm13
	movss	xmm0, DWORD PTR $T73[rbp-256]
; File C:\dev\Photo Studio\Photo Studio\Dependencies\imgui\imgui_widgets.cpp

; 6126 :         for (int i = 0; i < 6; ++i)

	xor	eax, eax
	divss	xmm6, DWORD PTR __real@40c00000
; File C:\dev\Photo Studio\Photo Studio\Dependencies\imgui\imgui.h

; 279  :     constexpr ImVec2(float _x, float _y)    : x(_x), y(_y) { }

	movss	DWORD PTR $T43[rsp], xmm0
	npad	10
$LL7@ColorPicke:
; File C:\dev\Photo Studio\Photo Studio\Dependencies\imgui\imgui_widgets.cpp

; 6127 :             draw_list->AddRectFilledMultiColor(ImVec2(bar0_pos_x, picker_pos.y + i * (sv_height / 6)), ImVec2(bar0_pos_x + bars_width, picker_pos.y + (i + 1) * (sv_height / 6)), col_hues[i], col_hues[i], col_hues[i + 1], col_hues[i + 1]);

	mov	r9d, r15d
	movd	xmm1, eax
	mov	r15d, DWORD PTR [rdi+4]
	lea	ebx, DWORD PTR [rax+1]
	cvtdq2ps xmm1, xmm1
	lea	r8, QWORD PTR $T42[rbp-256]
	mov	DWORD PTR [rsp+48], r15d
	lea	rdx, QWORD PTR $T43[rsp]
	add	rdi, 4
	mov	rcx, rsi
	mov	DWORD PTR [rsp+40], r15d
	mov	DWORD PTR [rsp+32], r9d
	movd	xmm0, ebx
	cvtdq2ps xmm0, xmm0
	mulss	xmm1, xmm6
	mulss	xmm0, xmm6
	addss	xmm1, xmm14
	addss	xmm0, xmm14
; File C:\dev\Photo Studio\Photo Studio\Dependencies\imgui\imgui.h

; 279  :     constexpr ImVec2(float _x, float _y)    : x(_x), y(_y) { }

	movss	DWORD PTR $T43[rsp+4], xmm1
	movss	DWORD PTR $T42[rbp-252], xmm0
; File C:\dev\Photo Studio\Photo Studio\Dependencies\imgui\imgui_widgets.cpp

; 6127 :             draw_list->AddRectFilledMultiColor(ImVec2(bar0_pos_x, picker_pos.y + i * (sv_height / 6)), ImVec2(bar0_pos_x + bars_width, picker_pos.y + (i + 1) * (sv_height / 6)), col_hues[i], col_hues[i], col_hues[i + 1], col_hues[i + 1]);

	call	?AddRectFilledMultiColor@ImDrawList@@QEAAXAEBUImVec2@@0IIII@Z ; ImDrawList::AddRectFilledMultiColor
	mov	eax, ebx
	cmp	ebx, 6
	jl	SHORT $LL7@ColorPicke

; 6128 :         float bar0_line_y = IM_ROUND(picker_pos.y + H * sv_height);
; 6129 :         RenderFrameBorder(ImVec2(bar0_pos_x, picker_pos.y), ImVec2(bar0_pos_x + bars_width, picker_pos.y + sv_height), 0.0f);

	movss	xmm0, DWORD PTR $T72[rbp-256]
	movaps	xmm2, xmm11
	movss	xmm6, DWORD PTR $T73[rbp-256]
	movaps	xmm1, xmm6
	unpcklps xmm0, xmm7
	unpcklps xmm1, xmm14
	movq	rdx, xmm0
	movq	rcx, xmm1
	call	?RenderFrameBorder@ImGui@@YAXUImVec2@@0M@Z ; ImGui::RenderFrameBorder

; 6130 :         RenderArrowsForVerticalBar(draw_list, ImVec2(bar0_pos_x - 1, bar0_line_y), ImVec2(bars_triangles_half_sz + 1, bars_triangles_half_sz), bars_width + 2.0f, style.Alpha);

	movss	xmm4, DWORD PTR $T71[rbp-256]
	subss	xmm6, xmm12
	movss	xmm0, DWORD PTR [r13+14840]
	movaps	xmm1, xmm4
	mulss	xmm10, xmm13
	addss	xmm1, xmm12
	mov	rcx, rsi
	movss	DWORD PTR [rsp+32], xmm0
	movaps	xmm0, xmm6
	addss	xmm10, xmm14
	movss	xmm14, DWORD PTR square_sz$1$[rsp]
	movaps	xmm3, xmm14
	unpcklps xmm1, xmm4
	addss	xmm3, xmm8
	movq	r8, xmm1
	addss	xmm10, xmm9
	cvttss2si eax, xmm10
	movd	xmm2, eax
	cvtdq2ps xmm2, xmm2
	unpcklps xmm0, xmm2
	movq	rdx, xmm0
	call	?RenderArrowsForVerticalBar@@YAXPEAUImDrawList@@UImVec2@@1MM@Z ; RenderArrowsForVerticalBar
	movss	xmm7, DWORD PTR __real@40c90fdb
	mov	edx, 512				; 00000200H
	mov	edi, 3
	jmp	$LN64@ColorPicke
$LN90@ColorPicke:

; 6131 :     }
; 6132 : 
; 6133 :     // Render cursor/preview circle (clamp S/V within 0..1 range because floating points colors may lead HSV values to be out of range)
; 6134 :     float sv_cursor_rad = value_changed_sv ? wheel_thickness * 0.55f : wheel_thickness * 0.40f;

	movss	xmm15, DWORD PTR __real@40c00000
	mov	eax, 6
$LN1056@ColorPicke:
; File C:\dev\Photo Studio\Photo Studio\Dependencies\imgui\imgui_draw.cpp

; 1520 :     if ((col & IM_COL32_A_MASK) == 0 || radius < 0.5f)

	mov	r15d, DWORD PTR user_col32_striped_of_alpha$1$[rbp-256]

; 572  :         return _Data->CircleSegmentCounts[radius_idx]; // Use cached value

	movsxd	rcx, eax
	mov	rax, QWORD PTR [rsi+56]
	movzx	ebx, BYTE PTR [rcx+rax+452]

; 1520 :     if ((col & IM_COL32_A_MASK) == 0 || radius < 0.5f)

	test	r15d, -16777216				; ff000000H
	je	$LN130@ColorPicke
	comiss	xmm9, xmm15
	ja	$LN130@ColorPicke

; 1521 :         return;
; 1522 : 
; 1523 :     if (num_segments <= 0)

	test	ebx, ebx
	jg	SHORT $LN131@ColorPicke

; 1524 :     {
; 1525 :         // Use arc with automatic segment count
; 1526 :         _PathArcToFastEx(center, radius, 0, IM_DRAWLIST_ARCFAST_SAMPLE_MAX, 0);

	xor	r9d, r9d
	mov	DWORD PTR [rsp+32], 48			; 00000030H
	movaps	xmm2, xmm15
	lea	rdx, QWORD PTR sv_cursor_pos$[rsp]
	mov	rcx, rsi
	call	?_PathArcToFastEx@ImDrawList@@QEAAXAEBUImVec2@@MHHH@Z ; ImDrawList::_PathArcToFastEx

; 1527 :         _Path.Size--;

	dec	DWORD PTR [rsi+120]

; 1528 :     }

	jmp	SHORT $LN132@ColorPicke
$LN131@ColorPicke:
; File C:\dev\Photo Studio\Photo Studio\Dependencies\imgui\imgui_internal.h

; 475  : template<typename T> static inline T ImClamp(T v, T mn, T mx)                   { return (v < mn) ? mn : (v > mx) ? mx : v; }

	cmp	ebx, 3
	jge	SHORT $LN138@ColorPicke
	mov	eax, edi
	jmp	SHORT $LN139@ColorPicke
$LN138@ColorPicke:
	cmp	ebx, edx
	mov	eax, ebx
	cmovg	eax, edx
$LN139@ColorPicke:
	movd	xmm0, eax
; File C:\dev\Photo Studio\Photo Studio\Dependencies\imgui\imgui_draw.cpp

; 1536 :         PathArcTo(center, radius, 0.0f, a_max, num_segments - 1);

	lea	rdx, QWORD PTR sv_cursor_pos$[rsp]
	cvtdq2ps xmm0, xmm0
	dec	eax
	mov	rcx, rsi
	mov	DWORD PTR [rsp+40], eax
	movaps	xmm3, xmm11
	movaps	xmm2, xmm15
	movaps	xmm1, xmm0
	subss	xmm1, xmm12
	mulss	xmm1, xmm7
	divss	xmm1, xmm0
	movss	DWORD PTR [rsp+32], xmm1
	call	?PathArcTo@ImDrawList@@QEAAXAEBUImVec2@@MMMH@Z ; ImDrawList::PathArcTo
$LN132@ColorPicke:
; File C:\dev\Photo Studio\Photo Studio\Dependencies\imgui\imgui.h

; 2915 :     inline    void  PathFillConvex(ImU32 col)                                   { AddConvexPolyFilled(_Path.Data, _Path.Size, col); _Path.Size = 0; }

	mov	r8d, DWORD PTR [rsi+120]
	mov	r9d, r15d
	mov	rdx, QWORD PTR [rsi+128]
	mov	rcx, rsi
	call	?AddConvexPolyFilled@ImDrawList@@QEAAXPEBUImVec2@@HI@Z ; ImDrawList::AddConvexPolyFilled
	mov	DWORD PTR [rsi+120], 0
$LN130@ColorPicke:
; File C:\dev\Photo Studio\Photo Studio\Dependencies\imgui\imgui_widgets.cpp

; 6137 :     draw_list->AddCircle(sv_cursor_pos, sv_cursor_rad + 1, col_midgrey, sv_cursor_segments);

	movaps	xmm2, xmm15
	addss	xmm2, xmm12
; File C:\dev\Photo Studio\Photo Studio\Dependencies\imgui\imgui_draw.cpp

; 1496 :     if ((col & IM_COL32_A_MASK) == 0 || radius < 0.5f)

	test	r14d, -16777216				; ff000000H
	je	$LN1073@ColorPicke
	comiss	xmm9, xmm2
	ja	$LN1073@ColorPicke

; 1497 :         return;
; 1498 : 
; 1499 :     if (num_segments <= 0)

	test	ebx, ebx
	jg	SHORT $LN107@ColorPicke

; 1500 :     {
; 1501 :         // Use arc with automatic segment count
; 1502 :         _PathArcToFastEx(center, radius - 0.5f, 0, IM_DRAWLIST_ARCFAST_SAMPLE_MAX, 0);

	subss	xmm2, xmm9
	mov	DWORD PTR [rsp+32], 48			; 00000030H
	xor	r9d, r9d
	lea	rdx, QWORD PTR sv_cursor_pos$[rsp]
	mov	rcx, rsi
	call	?_PathArcToFastEx@ImDrawList@@QEAAXAEBUImVec2@@MHHH@Z ; ImDrawList::_PathArcToFastEx

; 1503 :         _Path.Size--;

	dec	DWORD PTR [rsi+120]

; 1504 :     }

	jmp	SHORT $LN108@ColorPicke
$LN107@ColorPicke:
; File C:\dev\Photo Studio\Photo Studio\Dependencies\imgui\imgui_internal.h

; 475  : template<typename T> static inline T ImClamp(T v, T mn, T mx)                   { return (v < mn) ? mn : (v > mx) ? mx : v; }

	cmp	ebx, 3
	jge	SHORT $LN114@ColorPicke
	mov	eax, edi
	jmp	SHORT $LN115@ColorPicke
$LN114@ColorPicke:
	mov	ecx, 512				; 00000200H
	mov	eax, ebx
	cmp	ebx, ecx
	cmovg	eax, ecx
$LN115@ColorPicke:
	movd	xmm0, eax
; File C:\dev\Photo Studio\Photo Studio\Dependencies\imgui\imgui_draw.cpp

; 1512 :         PathArcTo(center, radius - 0.5f, 0.0f, a_max, num_segments - 1);

	subss	xmm2, xmm9
	cvtdq2ps xmm0, xmm0
	dec	eax
	lea	rdx, QWORD PTR sv_cursor_pos$[rsp]
	mov	DWORD PTR [rsp+40], eax
	mov	rcx, rsi
	movaps	xmm3, xmm11
	movaps	xmm1, xmm0
	subss	xmm1, xmm12
	mulss	xmm1, xmm7
	divss	xmm1, xmm0
	movss	DWORD PTR [rsp+32], xmm1
	call	?PathArcTo@ImDrawList@@QEAAXAEBUImVec2@@MMMH@Z ; ImDrawList::PathArcTo
$LN108@ColorPicke:
; File C:\dev\Photo Studio\Photo Studio\Dependencies\imgui\imgui.h

; 2917 :     inline    void  PathStroke(ImU32 col, ImDrawFlags flags = 0, float thickness = 1.0f) { AddPolyline(_Path.Data, _Path.Size, col, flags, thickness); _Path.Size = 0; }

	mov	r8d, DWORD PTR [rsi+120]
	mov	r9d, r14d
	mov	rdx, QWORD PTR [rsi+128]
	mov	rcx, rsi
	movss	DWORD PTR [rsp+40], xmm12
	mov	DWORD PTR [rsp+32], 1
	call	?AddPolyline@ImDrawList@@QEAAXPEBUImVec2@@HIHM@Z ; ImDrawList::AddPolyline
	xor	r14d, r14d
	mov	DWORD PTR [rsi+120], r14d
; File C:\dev\Photo Studio\Photo Studio\Dependencies\imgui\imgui_draw.cpp

; 1496 :     if ((col & IM_COL32_A_MASK) == 0 || radius < 0.5f)

	jmp	SHORT $LN106@ColorPicke
$LN1073@ColorPicke:
	xor	r14d, r14d
$LN106@ColorPicke:
	test	r12d, -16777216				; ff000000H
	je	$LN94@ColorPicke
	comiss	xmm9, xmm15
	ja	$LN94@ColorPicke

; 1497 :         return;
; 1498 : 
; 1499 :     if (num_segments <= 0)

	test	ebx, ebx
	jg	SHORT $LN95@ColorPicke

; 1500 :     {
; 1501 :         // Use arc with automatic segment count
; 1502 :         _PathArcToFastEx(center, radius - 0.5f, 0, IM_DRAWLIST_ARCFAST_SAMPLE_MAX, 0);

	subss	xmm15, xmm9
	mov	DWORD PTR [rsp+32], 48			; 00000030H
	xor	r9d, r9d
	lea	rdx, QWORD PTR sv_cursor_pos$[rsp]
	mov	rcx, rsi
	movaps	xmm2, xmm15
	call	?_PathArcToFastEx@ImDrawList@@QEAAXAEBUImVec2@@MHHH@Z ; ImDrawList::_PathArcToFastEx

; 1503 :         _Path.Size--;

	dec	DWORD PTR [rsi+120]

; 1504 :     }

	jmp	SHORT $LN96@ColorPicke
$LN95@ColorPicke:
; File C:\dev\Photo Studio\Photo Studio\Dependencies\imgui\imgui_internal.h

; 475  : template<typename T> static inline T ImClamp(T v, T mn, T mx)                   { return (v < mn) ? mn : (v > mx) ? mx : v; }

	cmp	ebx, 3
	jl	SHORT $LN103@ColorPicke
	mov	eax, 512				; 00000200H
	mov	edi, ebx
	cmp	ebx, eax
	cmovg	edi, eax
$LN103@ColorPicke:
	movd	xmm0, edi
; File C:\dev\Photo Studio\Photo Studio\Dependencies\imgui\imgui_draw.cpp

; 1512 :         PathArcTo(center, radius - 0.5f, 0.0f, a_max, num_segments - 1);

	subss	xmm15, xmm9
	cvtdq2ps xmm0, xmm0
	lea	eax, DWORD PTR [rdi-1]
	mov	rcx, rsi
	mov	DWORD PTR [rsp+40], eax
	lea	rdx, QWORD PTR sv_cursor_pos$[rsp]
	movaps	xmm3, xmm11
	movaps	xmm2, xmm15
	movaps	xmm1, xmm0
	subss	xmm1, xmm12
	mulss	xmm1, xmm7
	divss	xmm1, xmm0
	movss	DWORD PTR [rsp+32], xmm1
	call	?PathArcTo@ImDrawList@@QEAAXAEBUImVec2@@MMMH@Z ; ImDrawList::PathArcTo
$LN96@ColorPicke:
; File C:\dev\Photo Studio\Photo Studio\Dependencies\imgui\imgui.h

; 2917 :     inline    void  PathStroke(ImU32 col, ImDrawFlags flags = 0, float thickness = 1.0f) { AddPolyline(_Path.Data, _Path.Size, col, flags, thickness); _Path.Size = 0; }

	mov	r8d, DWORD PTR [rsi+120]
	mov	r9d, r12d
	mov	rdx, QWORD PTR [rsi+128]
	mov	rcx, rsi
	movss	DWORD PTR [rsp+40], xmm12
	mov	DWORD PTR [rsp+32], 1
	call	?AddPolyline@ImDrawList@@QEAAXPEBUImVec2@@HIHM@Z ; ImDrawList::AddPolyline
	mov	DWORD PTR [rsi+120], r14d
$LN94@ColorPicke:
; File C:\dev\Photo Studio\Photo Studio\Dependencies\imgui\imgui_widgets.cpp

; 6141 :     if (alpha_bar)

	cmp	DWORD PTR tv6253[rbp-256], 65536	; 00010000H
	mov	r12, QWORD PTR [rsp+600]
	mov	rdi, QWORD PTR [rsp+656]
	mov	rbx, QWORD PTR [rsp+640]
	jne	$LN65@ColorPicke

; 6142 :     {
; 6143 :         float alpha = ImSaturate(col[3]);

	movss	xmm0, DWORD PTR ?m_Color@WindowData@@2U?$vec@$03M$0A@@glm@@A+12
; File C:\dev\Photo Studio\Photo Studio\Dependencies\imgui\imgui_internal.h

; 487  : static inline float  ImSaturate(float f)                                        { return (f < 0.0f) ? 0.0f : (f > 1.0f) ? 1.0f : f; }

	comiss	xmm11, xmm0
	jbe	SHORT $LN292@ColorPicke
	movaps	xmm8, xmm11
	jmp	SHORT $LN293@ColorPicke
$LN292@ColorPicke:
	movaps	xmm8, xmm12
	minss	xmm8, xmm0
$LN293@ColorPicke:
; File C:\dev\Photo Studio\Photo Studio\Dependencies\imgui\imgui_widgets.cpp

; 6144 :         ImRect bar1_bb(bar1_pos_x, picker_pos.y, bar1_pos_x + bars_width, picker_pos.y + sv_picker_size);

	movss	xmm15, DWORD PTR $T70[rbp-256]

; 6145 :         RenderColorRectWithAlphaCheckerboard(draw_list, bar1_bb.Min, bar1_bb.Max, 0, bar1_bb.GetWidth() / 2.0f, ImVec2(0.0f, 0.0f));

	movaps	xmm0, xmm11
	movsd	xmm10, QWORD PTR tv6330[rbp-256]
	movaps	xmm3, xmm15
	addss	xmm3, xmm14
	mov	DWORD PTR [rsp+56], r14d
	movss	DWORD PTR [rsp+48], xmm11
	movaps	xmm2, xmm10
	addss	xmm2, DWORD PTR sv_picker_size$1$[rbp-256]
	movaps	xmm6, xmm15
	unpcklps xmm0, xmm11
	unpcklps xmm6, xmm10
	xor	r9d, r9d
	movaps	xmm1, xmm3
	movsd	QWORD PTR [rsp+40], xmm0
	subss	xmm1, xmm15
	movsd	QWORD PTR bar1_bb$74[rbp-256], xmm6
	movaps	xmm7, xmm3
	movq	rdx, xmm6
	unpcklps xmm7, xmm2
	mov	rcx, rsi
	movq	r8, xmm7
	movsd	QWORD PTR bar1_bb$74[rbp-248], xmm7
	mulss	xmm1, xmm9
	movss	DWORD PTR [rsp+32], xmm1
	call	?RenderColorRectWithAlphaCheckerboard@ImGui@@YAXPEAUImDrawList@@UImVec2@@1IM1MH@Z ; ImGui::RenderColorRectWithAlphaCheckerboard

; 6146 :         draw_list->AddRectFilledMultiColor(bar1_bb.Min, bar1_bb.Max, user_col32_striped_of_alpha, user_col32_striped_of_alpha, user_col32_striped_of_alpha & ~IM_COL32_A_MASK, user_col32_striped_of_alpha & ~IM_COL32_A_MASK);

	mov	eax, r15d
	lea	r8, QWORD PTR bar1_bb$74[rbp-248]
	and	eax, 16777215				; 00ffffffH
	lea	rdx, QWORD PTR bar1_bb$74[rbp-256]
	mov	DWORD PTR [rsp+48], eax
	mov	r9d, r15d
	mov	DWORD PTR [rsp+40], eax
	mov	rcx, rsi
	mov	DWORD PTR [rsp+32], r15d
	call	?AddRectFilledMultiColor@ImDrawList@@QEAAXAEBUImVec2@@0IIII@Z ; ImDrawList::AddRectFilledMultiColor

; 6147 :         float bar1_line_y = IM_ROUND(picker_pos.y + (1.0f - alpha) * sv_picker_size);
; 6148 :         RenderFrameBorder(bar1_bb.Min, bar1_bb.Max, 0.0f);

	movaps	xmm2, xmm11
	movq	rdx, xmm7
	movq	rcx, xmm6
	call	?RenderFrameBorder@ImGui@@YAXUImVec2@@0M@Z ; ImGui::RenderFrameBorder

; 6149 :         RenderArrowsForVerticalBar(draw_list, ImVec2(bar1_pos_x - 1, bar1_line_y), ImVec2(bars_triangles_half_sz + 1, bars_triangles_half_sz), bars_width + 2.0f, style.Alpha);

	movss	xmm4, DWORD PTR $T71[rbp-256]
	subss	xmm15, xmm12
	movss	xmm0, DWORD PTR [r13+14840]
	movaps	xmm1, xmm4
	addss	xmm14, DWORD PTR __real@40000000
	addss	xmm1, xmm12
	movss	DWORD PTR [rsp+32], xmm0
	subss	xmm12, xmm8
	mov	rcx, rsi
	movaps	xmm0, xmm15
	movaps	xmm3, xmm14
	unpcklps xmm1, xmm4
	mulss	xmm12, DWORD PTR sv_picker_size$1$[rbp-256]
	movq	r8, xmm1
	addss	xmm12, xmm10
	addss	xmm12, xmm9
	cvttss2si eax, xmm12
	movd	xmm2, eax
	cvtdq2ps xmm2, xmm2
	unpcklps xmm0, xmm2
	movq	rdx, xmm0
	call	?RenderArrowsForVerticalBar@@YAXPEAUImDrawList@@UImVec2@@1MM@Z ; RenderArrowsForVerticalBar
$LN65@ColorPicke:

; 6150 :     }
; 6151 : 
; 6152 :     EndGroup();

	call	?EndGroup@ImGui@@YAXXZ			; ImGui::EndGroup

; 6153 : 
; 6154 :     if (value_changed && memcmp(backup_initial_col, col, components * sizeof(float)) == 0)

	movzx	r8d, BYTE PTR value_changed$1$[rsp]
	mov	rcx, QWORD PTR ?GImGui@@3PEAUImGuiContext@@EA ; GImGui
	movaps	xmm15, XMMWORD PTR [rsp+432]
	movaps	xmm14, XMMWORD PTR [rsp+448]
	movaps	xmm13, XMMWORD PTR [rsp+464]
	movaps	xmm12, XMMWORD PTR [rsp+480]
	movaps	xmm11, XMMWORD PTR [rsp+496]
	movaps	xmm10, XMMWORD PTR [rsp+512]
	movaps	xmm9, XMMWORD PTR [rsp+528]
	movaps	xmm8, XMMWORD PTR [rsp+544]
	movaps	xmm7, XMMWORD PTR [rsp+560]
	movaps	xmm6, XMMWORD PTR [rsp+576]
	mov	r15, QWORD PTR [rsp+592]
	mov	rsi, QWORD PTR [rsp+648]
	test	r8b, r8b
	je	SHORT $LN363@ColorPicke
	mov	rax, QWORD PTR backup_initial_col$[rbp-256]
	cmp	rax, QWORD PTR ?m_Color@WindowData@@2U?$vec@$03M$0A@@glm@@A
	jne	SHORT $LN66@ColorPicke
	mov	rax, QWORD PTR backup_initial_col$[rbp-248]
	cmp	rax, QWORD PTR ?m_Color@WindowData@@2U?$vec@$03M$0A@@glm@@A+8
	jne	SHORT $LN66@ColorPicke

; 6155 :         value_changed = false;

	xor	r8b, r8b

; 6156 :     if (value_changed && g.LastItemData.ID != 0) // In case of ID collision, the second EndGroup() won't catch g.ActiveId

	jmp	SHORT $LN363@ColorPicke
$LN66@ColorPicke:
	mov	eax, DWORD PTR [r13+19184]
	test	eax, eax
	je	SHORT $LN363@ColorPicke
; File C:\dev\Photo Studio\Photo Studio\Dependencies\imgui\imgui.cpp

; 4005 :     if (g.LockMarkEdited > 0)

	cmp	WORD PTR [rcx+24734], 0
	jg	SHORT $LN363@ColorPicke

; 4006 :         return;
; 4007 :     if (g.ActiveId == id || g.ActiveId == 0)

	mov	edx, DWORD PTR [rcx+16804]
	cmp	edx, eax
	je	SHORT $LN366@ColorPicke
	test	edx, edx
	jne	SHORT $LN365@ColorPicke
$LN366@ColorPicke:

; 4008 :     {
; 4009 :         g.ActiveIdHasBeenEditedThisFrame = true;
; 4010 :         g.ActiveIdHasBeenEditedBefore = true;

	mov	WORD PTR [rcx+16820], 257		; 00000101H
$LN365@ColorPicke:

; 4011 :     }
; 4012 : 
; 4013 :     // We accept a MarkItemEdited() on drag and drop targets (see https://github.com/ocornut/imgui/issues/1875#issuecomment-978243343)
; 4014 :     // We accept 'ActiveIdPreviousFrame == id' for InputText() returning an edit after it has been taken ActiveId away (#4714)
; 4015 :     IM_ASSERT(g.DragDropActive || g.ActiveId == id || g.ActiveId == 0 || g.ActiveIdPreviousFrame == id);
; 4016 : 
; 4017 :     //IM_ASSERT(g.CurrentWindow->DC.LastItemId == id);
; 4018 :     g.LastItemData.StatusFlags |= ImGuiItemStatusFlags_Edited;

	or	DWORD PTR [rcx+19192], 4
$LN363@ColorPicke:
; File C:\dev\Photo Studio\Photo Studio\Dependencies\imgui\imgui_widgets.cpp

; 6159 :     if (set_current_color_edit_id)

	cmp	DWORD PTR tv6304[rbp-256], 0
	jne	SHORT $LN68@ColorPicke

; 6160 :         g.ColorEditCurrentID = 0;

	mov	DWORD PTR [r13+24600], r14d
$LN68@ColorPicke:
; File C:\dev\Photo Studio\Photo Studio\Dependencies\imgui\imgui.cpp

; 8705 :     window->IDStack.pop_back();

	mov	rcx, QWORD PTR [rcx+16704]
; File C:\dev\Photo Studio\Photo Studio\Dependencies\imgui\imgui_widgets.cpp

; 6163 :     return value_changed;

	movzx	eax, r8b
; File C:\dev\Photo Studio\Photo Studio\Dependencies\imgui\imgui.h

; 2045 :     inline void         pop_back()                          { IM_ASSERT(Size > 0); Size--; }

	dec	DWORD PTR [rcx+304]
$LN1@ColorPicke:
; File C:\dev\Photo Studio\Photo Studio\Dependencies\imgui\imgui_widgets.cpp

; 6164 : }

	mov	rcx, QWORD PTR __$ArrayPad$[rbp-256]
	xor	rcx, rsp
	call	__security_check_cookie
	add	rsp, 608				; 00000260H
	pop	r14
	pop	r13
	pop	rbp
	ret	0
?ColorPicker4PS@ImGui@@YA_NPEBDQEAMHPEBM@Z ENDP		; ImGui::ColorPicker4PS
_TEXT	ENDS
END
