; Listing generated by Microsoft (R) Optimizing Compiler Version 19.36.32534.0 

include listing.inc

INCLUDELIB OLDNAMES

PUBLIC	??_C@_0M@LODKKDJJ@?$CD?$CDInstances@		; `string'
PUBLIC	??_C@_01DNKMNLPK@?$HM@				; `string'
PUBLIC	??_C@_0BA@HPJOFHBN@?$CD?$CDAngledHeaders@	; `string'
PUBLIC	??_C@_0O@BMOANCPA@?$CD?$CDContextMenu@		; `string'
PUBLIC	??_C@_09MGFHLAFE@?$DMUnknown?$DO@		; `string'
PUBLIC	??_C@_09BDLBIGPI@0x?$CF08X?0?$CFd@		; `string'
PUBLIC	??_C@_0M@LAOOHBLO@RefScale?$DN?$CFf@		; `string'
PUBLIC	??_C@_0M@JOECNJOM@Column?5?$CFd?$CFn@		; `string'
PUBLIC	??_C@_0BA@KAIOJKEL@UserID?$DN0x?$CF08X?$CFn@	; `string'
PUBLIC	??_C@_0L@LJLKPCDP@Width?$DN?$CFd?$CFn@		; `string'
PUBLIC	??_C@_0M@IJODOCHC@Weight?$DN?$CFf?$CFn@		; `string'
PUBLIC	??_C@_0N@EKALHFOF@Visible?$DN?$CFd?$CFn@	; `string'
PUBLIC	??_C@_0L@BHOFPJL@Order?$DN?$CFd?$CFn@		; `string'
PUBLIC	??_C@_0M@KGHCDDIO@Sort?$DN?$CFd?$CFc?$CFn@	; `string'
PUBLIC	??_C@_0BB@PGHPBJD@?$FL?$CFs?$FN?$FL0x?$CF08X?0?$CFd?$FN?6@ ; `string'
PUBLIC	??_C@_0N@NHEEPCEH@RefScale?$DN?$CFg?6@		; `string'
PUBLIC	??_C@_0M@JLNIJDCE@Column?5?$CF?92d@		; `string'
PUBLIC	??_C@_0N@PGBEGIHP@?5UserID?$DN?$CF08X@		; `string'
PUBLIC	??_C@_0N@MFKBBKPH@?5Weight?$DN?$CF?44f@		; `string'
PUBLIC	??_C@_09PBOBBCAP@?5Width?$DN?$CFd@		; `string'
PUBLIC	??_C@_0M@CIPDPODB@?5Visible?$DN?$CFd@		; `string'
PUBLIC	??_C@_09CFPCIBAG@?5Order?$DN?$CFd@		; `string'
PUBLIC	??_C@_0L@EAJILIBD@?5Sort?$DN?$CFd?$CFc@		; `string'
PUBLIC	??_C@_08CCPMLANI@FixedFit@			; `string'
PUBLIC	??_C@_09OOODJBFG@FixedSame@			; `string'
PUBLIC	??_C@_0M@IGAOBHEB@StretchProp@			; `string'
PUBLIC	??_C@_0M@LHDDKHJK@StretchSame@			; `string'
PUBLIC	??_C@_0CF@DAHKPIHJ@Table?50x?$CF08X?5?$CI?$CFd?5columns?0?5in?5?8?$CF@ ; `string'
PUBLIC	??_C@_0EM@JLKLPOOK@?$CK?$CK?5?$CFd?5instances?5of?5same?5table?$CB?5@ ; `string'
PUBLIC	??_C@_0BA@KDHINKIA@in?5BeginTable?$CI?$CJ@	; `string'
PUBLIC	??_C@_0P@MDFKNKGM@Clear?5settings@		; `string'
PUBLIC	??_C@_0DL@BMMMGOOI@OuterRect?3?5Pos?3?5?$CI?$CF?41f?0?$CF?41f?$CJ?5Siz@ ; `string'
PUBLIC	??_C@_07IOPDKCEG@?5?$CIauto?$CJ@		; `string'
PUBLIC	??_C@_0EH@GODPECNO@ColumnsGivenWidth?3?5?$CF?41f?0?5Column@ ; `string'
PUBLIC	??_C@_0EB@FOKPBOFF@CellPaddingX?3?5?$CF?41f?0?5CellSpacing@ ; `string'
PUBLIC	??_C@_0CP@NOMNLPPG@HoveredColumnBody?3?5?$CFd?0?5HoveredC@ ; `string'
PUBLIC	??_C@_0DL@PBPICJCB@ResizedColumn?3?5?$CFd?0?5ReorderColum@ ; `string'
PUBLIC	??_C@_0DD@FILHJAIB@Instance?5?$CFd?3?5HoveredRow?3?5?$CFd?0?5La@ ; `string'
PUBLIC	??_C@_09BHNPHONE@NoResize?5@			; `string'
PUBLIC	??_C@_0M@IGDNFKMD@WidthFixed?5@			; `string'
PUBLIC	??_C@_0O@PEPBBILL@WidthStretch?5@		; `string'
PUBLIC	??_C@_06FEBPAKFP@?5?$CIAsc?$CJ@			; `string'
PUBLIC	??_C@_06PFKLCOBM@?5?$CIDes?$CJ@			; `string'
PUBLIC	??_C@_09LODDIFJL@?5?$CIFrozen?$CJ@		; `string'
PUBLIC	??_C@_0BHH@CNHMONCM@Column?5?$CFd?5order?5?$CFd?5?8?$CFs?8?3?5offset@ ; `string'
PUBLIC	??_C@_0BN@LNKMILO@Settings?50x?$CF08X?5?$CI?$CFd?5columns?$CJ@ ; `string'
PUBLIC	??_C@_0BC@LJHOAHJA@SaveFlags?3?50x?$CF08X@	; `string'
PUBLIC	??_C@_0BK@OLKPLDMA@ColumnsCount?3?5?$CFd?5?$CImax?5?$CFd?$CJ@ ; `string'
PUBLIC	??_C@_06ODJMJFLN@Weight@			; `string'
PUBLIC	??_C@_06PALFPBFG@Width?5@			; `string'
PUBLIC	??_C@_03OFHEPBNG@Asc@				; `string'
PUBLIC	??_C@_03IAMDMMHH@Des@				; `string'
PUBLIC	??_C@_03JMFMNIFM@?9?9?9@			; `string'
PUBLIC	??_C@_0EB@CNABLLAJ@Column?5?$CFd?5Order?5?$CFd?5SortOrder?5?$CFd@ ; `string'
PUBLIC	??_C@_07HIFEPIJN@columns@			; `string'
;	COMDAT ??_C@_07HIFEPIJN@columns@
CONST	SEGMENT
??_C@_07HIFEPIJN@columns@ DB 'columns', 00H		; `string'
CONST	ENDS
;	COMDAT ??_C@_0EB@CNABLLAJ@Column?5?$CFd?5Order?5?$CFd?5SortOrder?5?$CFd@
CONST	SEGMENT
??_C@_0EB@CNABLLAJ@Column?5?$CFd?5Order?5?$CFd?5SortOrder?5?$CFd@ DB 'Col'
	DB	'umn %d Order %d SortOrder %d %s Vis %d %s %7.3f UserID 0x%08X'
	DB	00H						; `string'
CONST	ENDS
;	COMDAT ??_C@_03JMFMNIFM@?9?9?9@
CONST	SEGMENT
??_C@_03JMFMNIFM@?9?9?9@ DB '---', 00H			; `string'
CONST	ENDS
;	COMDAT ??_C@_03IAMDMMHH@Des@
CONST	SEGMENT
??_C@_03IAMDMMHH@Des@ DB 'Des', 00H			; `string'
CONST	ENDS
;	COMDAT ??_C@_03OFHEPBNG@Asc@
CONST	SEGMENT
??_C@_03OFHEPBNG@Asc@ DB 'Asc', 00H			; `string'
CONST	ENDS
;	COMDAT ??_C@_06PALFPBFG@Width?5@
CONST	SEGMENT
??_C@_06PALFPBFG@Width?5@ DB 'Width ', 00H		; `string'
CONST	ENDS
;	COMDAT ??_C@_06ODJMJFLN@Weight@
CONST	SEGMENT
??_C@_06ODJMJFLN@Weight@ DB 'Weight', 00H		; `string'
CONST	ENDS
;	COMDAT ??_C@_0BK@OLKPLDMA@ColumnsCount?3?5?$CFd?5?$CImax?5?$CFd?$CJ@
CONST	SEGMENT
??_C@_0BK@OLKPLDMA@ColumnsCount?3?5?$CFd?5?$CImax?5?$CFd?$CJ@ DB 'Columns'
	DB	'Count: %d (max %d)', 00H			; `string'
CONST	ENDS
;	COMDAT ??_C@_0BC@LJHOAHJA@SaveFlags?3?50x?$CF08X@
CONST	SEGMENT
??_C@_0BC@LJHOAHJA@SaveFlags?3?50x?$CF08X@ DB 'SaveFlags: 0x%08X', 00H ; `string'
CONST	ENDS
;	COMDAT ??_C@_0BN@LNKMILO@Settings?50x?$CF08X?5?$CI?$CFd?5columns?$CJ@
CONST	SEGMENT
??_C@_0BN@LNKMILO@Settings?50x?$CF08X?5?$CI?$CFd?5columns?$CJ@ DB 'Settin'
	DB	'gs 0x%08X (%d columns)', 00H		; `string'
CONST	ENDS
;	COMDAT ??_C@_0BHH@CNHMONCM@Column?5?$CFd?5order?5?$CFd?5?8?$CFs?8?3?5offset@
CONST	SEGMENT
??_C@_0BHH@CNHMONCM@Column?5?$CFd?5order?5?$CFd?5?8?$CFs?8?3?5offset@ DB 'C'
	DB	'olumn %d order %d ''%s'': offset %+.2f to %+.2f%s', 0aH, 'Ena'
	DB	'bled: %d, VisibleX/Y: %d/%d, RequestOutput: %d, SkipItems: %d'
	DB	', DrawChannels: %d,%d', 0aH, 'WidthGiven: %.1f, Request/Auto:'
	DB	' %.1f/%.1f, StretchWeight: %.3f (%.1f%%)', 0aH, 'MinX: %.1f, '
	DB	'MaxX: %.1f (%+.1f), ClipRect: %.1f to %.1f (+%.1f)', 0aH, 'Co'
	DB	'ntentWidth: %.1f,%.1f, HeadersUsed/Ideal %.1f/%.1f', 0aH, 'So'
	DB	'rt: %d%s, UserID: 0x%08X, Flags: 0x%04X: %s%s%s..', 00H ; `string'
CONST	ENDS
;	COMDAT ??_C@_09LODDIFJL@?5?$CIFrozen?$CJ@
CONST	SEGMENT
??_C@_09LODDIFJL@?5?$CIFrozen?$CJ@ DB ' (Frozen)', 00H	; `string'
CONST	ENDS
;	COMDAT ??_C@_06PFKLCOBM@?5?$CIDes?$CJ@
CONST	SEGMENT
??_C@_06PFKLCOBM@?5?$CIDes?$CJ@ DB ' (Des)', 00H	; `string'
CONST	ENDS
;	COMDAT ??_C@_06FEBPAKFP@?5?$CIAsc?$CJ@
CONST	SEGMENT
??_C@_06FEBPAKFP@?5?$CIAsc?$CJ@ DB ' (Asc)', 00H	; `string'
CONST	ENDS
;	COMDAT ??_C@_0O@PEPBBILL@WidthStretch?5@
CONST	SEGMENT
??_C@_0O@PEPBBILL@WidthStretch?5@ DB 'WidthStretch ', 00H ; `string'
CONST	ENDS
;	COMDAT ??_C@_0M@IGDNFKMD@WidthFixed?5@
CONST	SEGMENT
??_C@_0M@IGDNFKMD@WidthFixed?5@ DB 'WidthFixed ', 00H	; `string'
CONST	ENDS
;	COMDAT ??_C@_09BHNPHONE@NoResize?5@
CONST	SEGMENT
??_C@_09BHNPHONE@NoResize?5@ DB 'NoResize ', 00H	; `string'
CONST	ENDS
;	COMDAT ??_C@_0DD@FILHJAIB@Instance?5?$CFd?3?5HoveredRow?3?5?$CFd?0?5La@
CONST	SEGMENT
??_C@_0DD@FILHJAIB@Instance?5?$CFd?3?5HoveredRow?3?5?$CFd?0?5La@ DB 'Inst'
	DB	'ance %d: HoveredRow: %d, LastOuterHeight: %.2f', 00H ; `string'
CONST	ENDS
;	COMDAT ??_C@_0DL@PBPICJCB@ResizedColumn?3?5?$CFd?0?5ReorderColum@
CONST	SEGMENT
??_C@_0DL@PBPICJCB@ResizedColumn?3?5?$CFd?0?5ReorderColum@ DB 'ResizedCol'
	DB	'umn: %d, ReorderColumn: %d, HeldHeaderColumn: %d', 00H ; `string'
CONST	ENDS
;	COMDAT ??_C@_0CP@NOMNLPPG@HoveredColumnBody?3?5?$CFd?0?5HoveredC@
CONST	SEGMENT
??_C@_0CP@NOMNLPPG@HoveredColumnBody?3?5?$CFd?0?5HoveredC@ DB 'HoveredCol'
	DB	'umnBody: %d, HoveredColumnBorder: %d', 00H	; `string'
CONST	ENDS
;	COMDAT ??_C@_0EB@FOKPBOFF@CellPaddingX?3?5?$CF?41f?0?5CellSpacing@
CONST	SEGMENT
??_C@_0EB@FOKPBOFF@CellPaddingX?3?5?$CF?41f?0?5CellSpacing@ DB 'CellPaddi'
	DB	'ngX: %.1f, CellSpacingX: %.1f/%.1f, OuterPaddingX: %.1f', 00H ; `string'
CONST	ENDS
;	COMDAT ??_C@_0EH@GODPECNO@ColumnsGivenWidth?3?5?$CF?41f?0?5Column@
CONST	SEGMENT
??_C@_0EH@GODPECNO@ColumnsGivenWidth?3?5?$CF?41f?0?5Column@ DB 'ColumnsGi'
	DB	'venWidth: %.1f, ColumnsAutoFitWidth: %.1f, InnerWidth: %.1f%s'
	DB	00H						; `string'
CONST	ENDS
;	COMDAT ??_C@_07IOPDKCEG@?5?$CIauto?$CJ@
CONST	SEGMENT
??_C@_07IOPDKCEG@?5?$CIauto?$CJ@ DB ' (auto)', 00H	; `string'
CONST	ENDS
;	COMDAT ??_C@_0DL@BMMMGOOI@OuterRect?3?5Pos?3?5?$CI?$CF?41f?0?$CF?41f?$CJ?5Siz@
CONST	SEGMENT
??_C@_0DL@BMMMGOOI@OuterRect?3?5Pos?3?5?$CI?$CF?41f?0?$CF?41f?$CJ?5Siz@ DB 'O'
	DB	'uterRect: Pos: (%.1f,%.1f) Size: (%.1f,%.1f) Sizing: ''%s''', 00H ; `string'
CONST	ENDS
;	COMDAT ??_C@_0P@MDFKNKGM@Clear?5settings@
CONST	SEGMENT
??_C@_0P@MDFKNKGM@Clear?5settings@ DB 'Clear settings', 00H ; `string'
CONST	ENDS
;	COMDAT ??_C@_0BA@KDHINKIA@in?5BeginTable?$CI?$CJ@
CONST	SEGMENT
??_C@_0BA@KDHINKIA@in?5BeginTable?$CI?$CJ@ DB 'in BeginTable()', 00H ; `string'
CONST	ENDS
;	COMDAT ??_C@_0EM@JLKLPOOK@?$CK?$CK?5?$CFd?5instances?5of?5same?5table?$CB?5@
CONST	SEGMENT
??_C@_0EM@JLKLPOOK@?$CK?$CK?5?$CFd?5instances?5of?5same?5table?$CB?5@ DB '*'
	DB	'* %d instances of same table! Some data below will refer to l'
	DB	'ast instance.', 00H				; `string'
CONST	ENDS
;	COMDAT ??_C@_0CF@DAHKPIHJ@Table?50x?$CF08X?5?$CI?$CFd?5columns?0?5in?5?8?$CF@
CONST	SEGMENT
??_C@_0CF@DAHKPIHJ@Table?50x?$CF08X?5?$CI?$CFd?5columns?0?5in?5?8?$CF@ DB 'T'
	DB	'able 0x%08X (%d columns, in ''%s'')%s', 00H	; `string'
CONST	ENDS
;	COMDAT ??_C@_0M@LHDDKHJK@StretchSame@
CONST	SEGMENT
??_C@_0M@LHDDKHJK@StretchSame@ DB 'StretchSame', 00H	; `string'
CONST	ENDS
;	COMDAT ??_C@_0M@IGAOBHEB@StretchProp@
CONST	SEGMENT
??_C@_0M@IGAOBHEB@StretchProp@ DB 'StretchProp', 00H	; `string'
CONST	ENDS
;	COMDAT ??_C@_09OOODJBFG@FixedSame@
CONST	SEGMENT
??_C@_09OOODJBFG@FixedSame@ DB 'FixedSame', 00H		; `string'
CONST	ENDS
;	COMDAT ??_C@_08CCPMLANI@FixedFit@
CONST	SEGMENT
??_C@_08CCPMLANI@FixedFit@ DB 'FixedFit', 00H		; `string'
CONST	ENDS
;	COMDAT ??_C@_0L@EAJILIBD@?5Sort?$DN?$CFd?$CFc@
CONST	SEGMENT
??_C@_0L@EAJILIBD@?5Sort?$DN?$CFd?$CFc@ DB ' Sort=%d%c', 00H ; `string'
CONST	ENDS
;	COMDAT ??_C@_09CFPCIBAG@?5Order?$DN?$CFd@
CONST	SEGMENT
??_C@_09CFPCIBAG@?5Order?$DN?$CFd@ DB ' Order=%d', 00H	; `string'
CONST	ENDS
;	COMDAT ??_C@_0M@CIPDPODB@?5Visible?$DN?$CFd@
CONST	SEGMENT
??_C@_0M@CIPDPODB@?5Visible?$DN?$CFd@ DB ' Visible=%d', 00H ; `string'
CONST	ENDS
;	COMDAT ??_C@_09PBOBBCAP@?5Width?$DN?$CFd@
CONST	SEGMENT
??_C@_09PBOBBCAP@?5Width?$DN?$CFd@ DB ' Width=%d', 00H	; `string'
CONST	ENDS
;	COMDAT ??_C@_0N@MFKBBKPH@?5Weight?$DN?$CF?44f@
CONST	SEGMENT
??_C@_0N@MFKBBKPH@?5Weight?$DN?$CF?44f@ DB ' Weight=%.4f', 00H ; `string'
CONST	ENDS
;	COMDAT ??_C@_0N@PGBEGIHP@?5UserID?$DN?$CF08X@
CONST	SEGMENT
??_C@_0N@PGBEGIHP@?5UserID?$DN?$CF08X@ DB ' UserID=%08X', 00H ; `string'
CONST	ENDS
;	COMDAT ??_C@_0M@JLNIJDCE@Column?5?$CF?92d@
CONST	SEGMENT
??_C@_0M@JLNIJDCE@Column?5?$CF?92d@ DB 'Column %-2d', 00H ; `string'
CONST	ENDS
;	COMDAT ??_C@_0N@NHEEPCEH@RefScale?$DN?$CFg?6@
CONST	SEGMENT
??_C@_0N@NHEEPCEH@RefScale?$DN?$CFg?6@ DB 'RefScale=%g', 0aH, 00H ; `string'
CONST	ENDS
;	COMDAT ??_C@_0BB@PGHPBJD@?$FL?$CFs?$FN?$FL0x?$CF08X?0?$CFd?$FN?6@
CONST	SEGMENT
??_C@_0BB@PGHPBJD@?$FL?$CFs?$FN?$FL0x?$CF08X?0?$CFd?$FN?6@ DB '[%s][0x%08'
	DB	'X,%d]', 0aH, 00H				; `string'
CONST	ENDS
;	COMDAT ??_C@_0M@KGHCDDIO@Sort?$DN?$CFd?$CFc?$CFn@
CONST	SEGMENT
??_C@_0M@KGHCDDIO@Sort?$DN?$CFd?$CFc?$CFn@ DB 'Sort=%d%c%n', 00H ; `string'
CONST	ENDS
;	COMDAT ??_C@_0L@BHOFPJL@Order?$DN?$CFd?$CFn@
CONST	SEGMENT
??_C@_0L@BHOFPJL@Order?$DN?$CFd?$CFn@ DB 'Order=%d%n', 00H ; `string'
CONST	ENDS
;	COMDAT ??_C@_0N@EKALHFOF@Visible?$DN?$CFd?$CFn@
CONST	SEGMENT
??_C@_0N@EKALHFOF@Visible?$DN?$CFd?$CFn@ DB 'Visible=%d%n', 00H ; `string'
CONST	ENDS
;	COMDAT ??_C@_0M@IJODOCHC@Weight?$DN?$CFf?$CFn@
CONST	SEGMENT
??_C@_0M@IJODOCHC@Weight?$DN?$CFf?$CFn@ DB 'Weight=%f%n', 00H ; `string'
CONST	ENDS
;	COMDAT ??_C@_0L@LJLKPCDP@Width?$DN?$CFd?$CFn@
CONST	SEGMENT
??_C@_0L@LJLKPCDP@Width?$DN?$CFd?$CFn@ DB 'Width=%d%n', 00H ; `string'
CONST	ENDS
;	COMDAT ??_C@_0BA@KAIOJKEL@UserID?$DN0x?$CF08X?$CFn@
CONST	SEGMENT
??_C@_0BA@KAIOJKEL@UserID?$DN0x?$CF08X?$CFn@ DB 'UserID=0x%08X%n', 00H ; `string'
CONST	ENDS
;	COMDAT ??_C@_0M@JOECNJOM@Column?5?$CFd?$CFn@
CONST	SEGMENT
??_C@_0M@JOECNJOM@Column?5?$CFd?$CFn@ DB 'Column %d%n', 00H ; `string'
CONST	ENDS
;	COMDAT ??_C@_0M@LAOOHBLO@RefScale?$DN?$CFf@
CONST	SEGMENT
??_C@_0M@LAOOHBLO@RefScale?$DN?$CFf@ DB 'RefScale=%f', 00H ; `string'
CONST	ENDS
;	COMDAT ??_C@_09BDLBIGPI@0x?$CF08X?0?$CFd@
CONST	SEGMENT
??_C@_09BDLBIGPI@0x?$CF08X?0?$CFd@ DB '0x%08X,%d', 00H	; `string'
CONST	ENDS
;	COMDAT ??_C@_09MGFHLAFE@?$DMUnknown?$DO@
CONST	SEGMENT
??_C@_09MGFHLAFE@?$DMUnknown?$DO@ DB '<Unknown>', 00H	; `string'
CONST	ENDS
;	COMDAT ??_C@_0O@BMOANCPA@?$CD?$CDContextMenu@
CONST	SEGMENT
??_C@_0O@BMOANCPA@?$CD?$CDContextMenu@ DB '##ContextMenu', 00H ; `string'
CONST	ENDS
;	COMDAT ??_C@_0BA@HPJOFHBN@?$CD?$CDAngledHeaders@
CONST	SEGMENT
??_C@_0BA@HPJOFHBN@?$CD?$CDAngledHeaders@ DB '##AngledHeaders', 00H ; `string'
CONST	ENDS
;	COMDAT ??_C@_01DNKMNLPK@?$HM@
CONST	SEGMENT
??_C@_01DNKMNLPK@?$HM@ DB '|', 00H			; `string'
CONST	ENDS
;	COMDAT ??_C@_0M@LODKKDJJ@?$CD?$CDInstances@
CONST	SEGMENT
??_C@_0M@LODKKDJJ@?$CD?$CDInstances@ DB '##Instances', 00H ; `string'
