; Listing generated by Microsoft (R) Optimizing Compiler Version 19.32.31332.0 

include listing.inc

INCLUDELIB OLDNAMES

PUBLIC	??$__DIGIT_TABLE@D@std@@3QBDB			; std::__DIGIT_TABLE<char>
PUBLIC	??_C@_0N@LPFKKEBD@?3AM?3am?3PM?3pm@		; `string'
PUBLIC	??_C@_1BK@MHIKGOKE@?$AA?3?$AAA?$AAM?$AA?3?$AAa?$AAm?$AA?3?$AAP?$AAM?$AA?3?$AAp?$AAm@ ; `string'
EXTRN	__imp_?_Getcvt@_Locinfo@std@@QEBA?AU_Cvtvec@@XZ:PROC
EXTRN	__imp_?_Getdays@_Locinfo@std@@QEBAPEBDXZ:PROC
EXTRN	__imp_?_Getmonths@_Locinfo@std@@QEBAPEBDXZ:PROC
EXTRN	__imp_?_W_Getdays@_Locinfo@std@@QEBAPEBGXZ:PROC
EXTRN	__imp_?_W_Getmonths@_Locinfo@std@@QEBAPEBGXZ:PROC
EXTRN	__imp_?_Xbad_alloc@std@@YAXXZ:PROC
EXTRN	__imp_calloc:PROC
EXTRN	__imp__Mbrtowc:PROC
;	COMDAT ?ScrolledAmount@?1??ProcessMouseWheel@Input@@SAXAEBUSDL_MouseWheelEvent@@@Z@4MA
_BSS	SEGMENT
?ScrolledAmount@?1??ProcessMouseWheel@Input@@SAXAEBUSDL_MouseWheelEvent@@@Z@4MA DD 01H DUP (?) ; `Input::ProcessMouseWheel'::`2'::ScrolledAmount
_BSS	ENDS
;	COMDAT ??_C@_1BK@MHIKGOKE@?$AA?3?$AAA?$AAM?$AA?3?$AAa?$AAm?$AA?3?$AAP?$AAM?$AA?3?$AAp?$AAm@
CONST	SEGMENT
??_C@_1BK@MHIKGOKE@?$AA?3?$AAA?$AAM?$AA?3?$AAa?$AAm?$AA?3?$AAP?$AAM?$AA?3?$AAp?$AAm@ DB ':'
	DB	00H, 'A', 00H, 'M', 00H, ':', 00H, 'a', 00H, 'm', 00H, ':', 00H
	DB	'P', 00H, 'M', 00H, ':', 00H, 'p', 00H, 'm', 00H, 00H, 00H ; `string'
CONST	ENDS
;	COMDAT ??_C@_0N@LPFKKEBD@?3AM?3am?3PM?3pm@
CONST	SEGMENT
??_C@_0N@LPFKKEBD@?3AM?3am?3PM?3pm@ DB ':AM:am:PM:pm', 00H ; `string'
CONST	ENDS
;	COMDAT ??$__DIGIT_TABLE@D@std@@3QBDB
CONST	SEGMENT
??$__DIGIT_TABLE@D@std@@3QBDB DB 030H			; std::__DIGIT_TABLE<char>
	DB	030H
	DB	030H
	DB	031H
	DB	030H
	DB	032H
	DB	030H
	DB	033H
	DB	030H
	DB	034H
	DB	030H
	DB	035H
	DB	030H
	DB	036H
	DB	030H
	DB	037H
	DB	030H
	DB	038H
	DB	030H
	DB	039H
	DB	031H
	DB	030H
	DB	031H
	DB	031H
	DB	031H
	DB	032H
	DB	031H
	DB	033H
	DB	031H
	DB	034H
	DB	031H
	DB	035H
	DB	031H
	DB	036H
	DB	031H
	DB	037H
	DB	031H
	DB	038H
	DB	031H
	DB	039H
	DB	032H
	DB	030H
	DB	032H
	DB	031H
	DB	032H
	DB	032H
	DB	032H
	DB	033H
	DB	032H
	DB	034H
	DB	032H
	DB	035H
	DB	032H
	DB	036H
	DB	032H
	DB	037H
	DB	032H
	DB	038H
	DB	032H
	DB	039H
	DB	033H
	DB	030H
	DB	033H
	DB	031H
	DB	033H
	DB	032H
	DB	033H
	DB	033H
	DB	033H
	DB	034H
	DB	033H
	DB	035H
	DB	033H
	DB	036H
	DB	033H
	DB	037H
	DB	033H
	DB	038H
	DB	033H
	DB	039H
	DB	034H
	DB	030H
	DB	034H
	DB	031H
	DB	034H
	DB	032H
	DB	034H
	DB	033H
	DB	034H
	DB	034H
	DB	034H
	DB	035H
	DB	034H
	DB	036H
	DB	034H
	DB	037H
	DB	034H
	DB	038H
	DB	034H
	DB	039H
	DB	035H
	DB	030H
	DB	035H
	DB	031H
	DB	035H
	DB	032H
	DB	035H
	DB	033H
	DB	035H
	DB	034H
	DB	035H
	DB	035H
	DB	035H
	DB	036H
	DB	035H
	DB	037H
	DB	035H
	DB	038H
	DB	035H
	DB	039H
	DB	036H
	DB	030H
	DB	036H
	DB	031H
	DB	036H
	DB	032H
	DB	036H
	DB	033H
	DB	036H
	DB	034H
	DB	036H
	DB	035H
	DB	036H
	DB	036H
	DB	036H
	DB	037H
	DB	036H
	DB	038H
	DB	036H
	DB	039H
	DB	037H
	DB	030H
	DB	037H
	DB	031H
	DB	037H
	DB	032H
	DB	037H
	DB	033H
	DB	037H
	DB	034H
	DB	037H
	DB	035H
	DB	037H
	DB	036H
	DB	037H
	DB	037H
	DB	037H
	DB	038H
	DB	037H
	DB	039H
	DB	038H
	DB	030H
	DB	038H
	DB	031H
	DB	038H
	DB	032H
	DB	038H
	DB	033H
	DB	038H
	DB	034H
	DB	038H
	DB	035H
	DB	038H
	DB	036H
	DB	038H
	DB	037H
	DB	038H
	DB	038H
	DB	038H
	DB	039H
	DB	039H
	DB	030H
	DB	039H
	DB	031H
	DB	039H
	DB	032H
	DB	039H
	DB	033H
	DB	039H
	DB	034H
	DB	039H
	DB	035H
	DB	039H
	DB	036H
	DB	039H
	DB	037H
	DB	039H
	DB	038H
	DB	039H
	DB	039H
PUBLIC	??$pow@HM$0A@@@YANHM@Z				; pow<int,float,0>
PUBLIC	??$?YM@?$vec@$01M$0A@@glm@@QEAAAEAU01@AEBU01@@Z	; glm::vec<2,float,0>::operator+=<float>
PUBLIC	?ProcessMouseWheel@Input@@SAXAEBUSDL_MouseWheelEvent@@@Z ; Input::ProcessMouseWheel
PUBLIC	?ProcessMouseButton@Input@@SAXAEBUSDL_MouseButtonEvent@@@Z ; Input::ProcessMouseButton
PUBLIC	?ProcessMouseMotion@Input@@SAXAEBUSDL_MouseMotionEvent@@@Z ; Input::ProcessMouseMotion
PUBLIC	?GetInitialScale@Input@@SAMXZ			; Input::GetInitialScale
;	COMDAT pdata
pdata	SEGMENT
$pdata$?ProcessMouseWheel@Input@@SAXAEBUSDL_MouseWheelEvent@@@Z DD imagerel $LN22@ProcessMou
	DD	imagerel $LN22@ProcessMou+65
	DD	imagerel $unwind$?ProcessMouseWheel@Input@@SAXAEBUSDL_MouseWheelEvent@@@Z
pdata	ENDS
;	COMDAT pdata
pdata	SEGMENT
$pdata$0$?ProcessMouseWheel@Input@@SAXAEBUSDL_MouseWheelEvent@@@Z DD imagerel $LN22@ProcessMou+65
	DD	imagerel $LN22@ProcessMou+125
	DD	imagerel $chain$0$?ProcessMouseWheel@Input@@SAXAEBUSDL_MouseWheelEvent@@@Z
pdata	ENDS
;	COMDAT pdata
pdata	SEGMENT
$pdata$1$?ProcessMouseWheel@Input@@SAXAEBUSDL_MouseWheelEvent@@@Z DD imagerel $LN22@ProcessMou+125
	DD	imagerel $LN22@ProcessMou+210
	DD	imagerel $chain$1$?ProcessMouseWheel@Input@@SAXAEBUSDL_MouseWheelEvent@@@Z
;	COMDAT xdata
xdata	SEGMENT
$chain$1$?ProcessMouseWheel@Input@@SAXAEBUSDL_MouseWheelEvent@@@Z DD 021H
	DD	imagerel $LN22@ProcessMou
	DD	imagerel $LN22@ProcessMou+65
	DD	imagerel $unwind$?ProcessMouseWheel@Input@@SAXAEBUSDL_MouseWheelEvent@@@Z
xdata	ENDS
;	COMDAT xdata
xdata	SEGMENT
$chain$0$?ProcessMouseWheel@Input@@SAXAEBUSDL_MouseWheelEvent@@@Z DQ 00002680500020521r ; 3.34641e-309
	DD	imagerel $LN22@ProcessMou
	DD	imagerel $LN22@ProcessMou+65
	DD	imagerel $unwind$?ProcessMouseWheel@Input@@SAXAEBUSDL_MouseWheelEvent@@@Z
xdata	ENDS
;	COMDAT xdata
xdata	SEGMENT
$unwind$?ProcessMouseWheel@Input@@SAXAEBUSDL_MouseWheelEvent@@@Z DQ 00000620400010401r ; 5.32451e-310
END
