; Listing generated by Microsoft (R) Optimizing Compiler Version 19.36.32535.0 

include listing.inc

INCLUDELIB OLDNAMES

PUBLIC	??_C@_06BIFLPOGA@Layer?5@			; `string'
PUBLIC	??_C@_01CLKCMJKC@?5@				; `string'
PUBLIC	??_C@_03LDIMJOGN@?n?$KD?$LE@			; `string'
PUBLIC	??_C@_03KKJHKPCM@?n?$KD?$LF@			; `string'
PUBLIC	??_C@_0BC@KELNKFGO@?5?5?5?5?5?5?5?5?5?5?5?5?5?5?5?5?5@ ; `string'
PUBLIC	??_C@_06IJMNPAPH@Layers@			; `string'
PUBLIC	??_C@_09DJFJMHEJ@LayerList@			; `string'
PUBLIC	??_C@_0BA@MENHHACE@LayerProperties@		; `string'
PUBLIC	??_C@_03EJBBKDIN@?n?$IF?$IF@			; `string'
PUBLIC	??_C@_03OGFCONIF@?n?$KB?$LC@			; `string'
PUBLIC	??_C@_0BJ@DHFDPMIM@invalid?5vector?5subscript@	; `string'
PUBLIC	??_C@_0BP@BKHLLOGL@invalid?5vector?$DMbool?$DO?5subscript@ ; `string'
PUBLIC	??_C@_0BG@EOMJEIFA@vector?$DMbool?$DO?5too?5long@ ; `string'
PUBLIC	??_C@_0BI@CFPLBAOH@invalid?5string?5position@	; `string'
PUBLIC	??_C@_0BA@FOIKENOD@vector?5too?5long@		; `string'
PUBLIC	??_R3?$_Ref_count_obj2@VLayer@@@std@@8		; std::_Ref_count_obj2<Layer>::`RTTI Class Hierarchy Descriptor'
PUBLIC	??_R1A@?0A@EA@_Ref_count_base@std@@8		; std::_Ref_count_base::`RTTI Base Class Descriptor at (0,-1,0,64)'
PUBLIC	??_R1A@?0A@EA@?$_Ref_count_obj2@VLayer@@@std@@8	; std::_Ref_count_obj2<Layer>::`RTTI Base Class Descriptor at (0,-1,0,64)'
PUBLIC	??_R4?$_Ref_count_obj2@VLayer@@@std@@6B@	; std::_Ref_count_obj2<Layer>::`RTTI Complete Object Locator'
PUBLIC	??_R0?AV?$_Ref_count_obj2@VLayer@@@std@@@8	; std::_Ref_count_obj2<Layer> `RTTI Type Descriptor'
PUBLIC	?Pos@Mouse@Input@@2U?$vec@$01M$0A@@glm@@A	; Input::Mouse::Pos
PUBLIC	?m_IconFont@Primitive@@2PEAUImFont@@EA		; Primitive::m_IconFont
PUBLIC	??_R0?AV_Ref_count_base@std@@@8			; std::_Ref_count_base `RTTI Type Descriptor'
PUBLIC	?State@Mouse@Input@@2EA				; Input::Mouse::State
PUBLIC	?Button@Mouse@Input@@2EA			; Input::Mouse::Button
PUBLIC	??_R3_Ref_count_base@std@@8			; std::_Ref_count_base::`RTTI Class Hierarchy Descriptor'
PUBLIC	??_R2_Ref_count_base@std@@8			; std::_Ref_count_base::`RTTI Base Class Array'
PUBLIC	?Rel@Mouse@Input@@2U?$vec@$01M$0A@@glm@@A	; Input::Mouse::Rel
PUBLIC	??_7?$_Ref_count_obj2@VLayer@@@std@@6B@		; std::_Ref_count_obj2<Layer>::`vftable'
PUBLIC	??_R2?$_Ref_count_obj2@VLayer@@@std@@8		; std::_Ref_count_obj2<Layer>::`RTTI Base Class Array'
EXTRN	__imp_SDL_GetWindowPosition:PROC
EXTRN	__imp_SDL_GL_GetCurrentWindow:PROC
EXTRN	atexit:PROC
EXTRN	__imp_?_Xout_of_range@std@@YAXPEBD@Z:PROC
;	COMDAT ?Pos@Mouse@Input@@2U?$vec@$01M$0A@@glm@@A
_BSS	SEGMENT
?Pos@Mouse@Input@@2U?$vec@$01M$0A@@glm@@A DQ 01H DUP (?) ; Input::Mouse::Pos
_BSS	ENDS
;	COMDAT ?m_IconFont@Primitive@@2PEAUImFont@@EA
_BSS	SEGMENT
?m_IconFont@Primitive@@2PEAUImFont@@EA DQ 01H DUP (?)	; Primitive::m_IconFont
_BSS	ENDS
;	COMDAT ?State@Mouse@Input@@2EA
_BSS	SEGMENT
?State@Mouse@Input@@2EA DB 01H DUP (?)			; Input::Mouse::State
_BSS	ENDS
;	COMDAT ?Button@Mouse@Input@@2EA
_BSS	SEGMENT
?Button@Mouse@Input@@2EA DB 01H DUP (?)			; Input::Mouse::Button
_BSS	ENDS
;	COMDAT ?Rel@Mouse@Input@@2U?$vec@$01M$0A@@glm@@A
_BSS	SEGMENT
?Rel@Mouse@Input@@2U?$vec@$01M$0A@@glm@@A DQ 01H DUP (?) ; Input::Mouse::Rel
_BSS	ENDS
;	COMDAT ??_R2?$_Ref_count_obj2@VLayer@@@std@@8
rdata$r	SEGMENT
??_R2?$_Ref_count_obj2@VLayer@@@std@@8 DD imagerel ??_R1A@?0A@EA@?$_Ref_count_obj2@VLayer@@@std@@8 ; std::_Ref_count_obj2<Layer>::`RTTI Base Class Array'
	DD	imagerel ??_R1A@?0A@EA@_Ref_count_base@std@@8
	ORG $+3
rdata$r	ENDS
;	COMDAT ??_7?$_Ref_count_obj2@VLayer@@@std@@6B@
CONST	SEGMENT
??_7?$_Ref_count_obj2@VLayer@@@std@@6B@ DQ FLAT:??_R4?$_Ref_count_obj2@VLayer@@@std@@6B@ ; std::_Ref_count_obj2<Layer>::`vftable'
	DQ	FLAT:?_Destroy@?$_Ref_count_obj2@VLayer@@@std@@EEAAXXZ
	DQ	FLAT:?_Delete_this@?$_Ref_count_obj2@VLayer@@@std@@EEAAXXZ
	DQ	FLAT:??_E?$_Ref_count_obj2@VLayer@@@std@@UEAAPEAXI@Z
	DQ	FLAT:?_Get_deleter@_Ref_count_base@std@@UEBAPEAXAEBVtype_info@@@Z
CONST	ENDS
;	COMDAT ??_R2_Ref_count_base@std@@8
rdata$r	SEGMENT
??_R2_Ref_count_base@std@@8 DD imagerel ??_R1A@?0A@EA@_Ref_count_base@std@@8 ; std::_Ref_count_base::`RTTI Base Class Array'
	ORG $+3
rdata$r	ENDS
;	COMDAT ??_R3_Ref_count_base@std@@8
rdata$r	SEGMENT
??_R3_Ref_count_base@std@@8 DD 00H			; std::_Ref_count_base::`RTTI Class Hierarchy Descriptor'
	DD	00H
	DD	01H
	DD	imagerel ??_R2_Ref_count_base@std@@8
rdata$r	ENDS
;	COMDAT ??_R0?AV_Ref_count_base@std@@@8
data$rs	SEGMENT
??_R0?AV_Ref_count_base@std@@@8 DQ FLAT:??_7type_info@@6B@ ; std::_Ref_count_base `RTTI Type Descriptor'
	DQ	0000000000000000H
	DB	'.?AV_Ref_count_base@std@@', 00H
data$rs	ENDS
;	COMDAT ??_R0?AV?$_Ref_count_obj2@VLayer@@@std@@@8
data$rs	SEGMENT
??_R0?AV?$_Ref_count_obj2@VLayer@@@std@@@8 DQ FLAT:??_7type_info@@6B@ ; std::_Ref_count_obj2<Layer> `RTTI Type Descriptor'
	DQ	0000000000000000H
	DB	'.?AV?$_Ref_count_obj2@VLayer@@@std@@', 00H
data$rs	ENDS
;	COMDAT ??_R4?$_Ref_count_obj2@VLayer@@@std@@6B@
rdata$r	SEGMENT
??_R4?$_Ref_count_obj2@VLayer@@@std@@6B@ DD 01H		; std::_Ref_count_obj2<Layer>::`RTTI Complete Object Locator'
	DD	00H
	DD	00H
	DD	imagerel ??_R0?AV?$_Ref_count_obj2@VLayer@@@std@@@8
	DD	imagerel ??_R3?$_Ref_count_obj2@VLayer@@@std@@8
	DD	imagerel ??_R4?$_Ref_count_obj2@VLayer@@@std@@6B@
rdata$r	ENDS
;	COMDAT ??_R1A@?0A@EA@?$_Ref_count_obj2@VLayer@@@std@@8
rdata$r	SEGMENT
??_R1A@?0A@EA@?$_Ref_count_obj2@VLayer@@@std@@8 DD imagerel ??_R0?AV?$_Ref_count_obj2@VLayer@@@std@@@8 ; std::_Ref_count_obj2<Layer>::`RTTI Base Class Descriptor at (0,-1,0,64)'
	DD	01H
	DD	00H
	DD	0ffffffffH
	DD	00H
	DD	040H
	DD	imagerel ??_R3?$_Ref_count_obj2@VLayer@@@std@@8
rdata$r	ENDS
;	COMDAT ??_R1A@?0A@EA@_Ref_count_base@std@@8
rdata$r	SEGMENT
??_R1A@?0A@EA@_Ref_count_base@std@@8 DD imagerel ??_R0?AV_Ref_count_base@std@@@8 ; std::_Ref_count_base::`RTTI Base Class Descriptor at (0,-1,0,64)'
	DD	00H
	DD	00H
	DD	0ffffffffH
	DD	00H
	DD	040H
	DD	imagerel ??_R3_Ref_count_base@std@@8
rdata$r	ENDS
;	COMDAT ??_R3?$_Ref_count_obj2@VLayer@@@std@@8
rdata$r	SEGMENT
??_R3?$_Ref_count_obj2@VLayer@@@std@@8 DD 00H		; std::_Ref_count_obj2<Layer>::`RTTI Class Hierarchy Descriptor'
	DD	00H
	DD	02H
	DD	imagerel ??_R2?$_Ref_count_obj2@VLayer@@@std@@8
rdata$r	ENDS
;	COMDAT ??_C@_0BA@FOIKENOD@vector?5too?5long@
CONST	SEGMENT
??_C@_0BA@FOIKENOD@vector?5too?5long@ DB 'vector too long', 00H ; `string'
CONST	ENDS
;	COMDAT ??_C@_0BI@CFPLBAOH@invalid?5string?5position@
CONST	SEGMENT
??_C@_0BI@CFPLBAOH@invalid?5string?5position@ DB 'invalid string position'
	DB	00H						; `string'
CONST	ENDS
;	COMDAT ??_C@_0BG@EOMJEIFA@vector?$DMbool?$DO?5too?5long@
CONST	SEGMENT
??_C@_0BG@EOMJEIFA@vector?$DMbool?$DO?5too?5long@ DB 'vector<bool> too lo'
	DB	'ng', 00H					; `string'
CONST	ENDS
;	COMDAT ??_C@_0BP@BKHLLOGL@invalid?5vector?$DMbool?$DO?5subscript@
CONST	SEGMENT
??_C@_0BP@BKHLLOGL@invalid?5vector?$DMbool?$DO?5subscript@ DB 'invalid ve'
	DB	'ctor<bool> subscript', 00H			; `string'
CONST	ENDS
;	COMDAT ??_C@_0BJ@DHFDPMIM@invalid?5vector?5subscript@
CONST	SEGMENT
??_C@_0BJ@DHFDPMIM@invalid?5vector?5subscript@ DB 'invalid vector subscri'
	DB	'pt', 00H					; `string'
CONST	ENDS
;	COMDAT ??_C@_03OGFCONIF@?n?$KB?$LC@
CONST	SEGMENT
??_C@_03OGFCONIF@?n?$KB?$LC@ DB 0eeH, 0a1H, 0b2H, 00H	; `string'
CONST	ENDS
;	COMDAT ??_C@_03EJBBKDIN@?n?$IF?$IF@
CONST	SEGMENT
??_C@_03EJBBKDIN@?n?$IF?$IF@ DB 0eeH, 085H, 085H, 00H	; `string'
CONST	ENDS
;	COMDAT ??_C@_0BA@MENHHACE@LayerProperties@
CONST	SEGMENT
??_C@_0BA@MENHHACE@LayerProperties@ DB 'LayerProperties', 00H ; `string'
CONST	ENDS
;	COMDAT ??_C@_09DJFJMHEJ@LayerList@
CONST	SEGMENT
??_C@_09DJFJMHEJ@LayerList@ DB 'LayerList', 00H		; `string'
CONST	ENDS
;	COMDAT ??_C@_06IJMNPAPH@Layers@
CONST	SEGMENT
??_C@_06IJMNPAPH@Layers@ DB 'Layers', 00H		; `string'
CONST	ENDS
;	COMDAT ??_C@_0BC@KELNKFGO@?5?5?5?5?5?5?5?5?5?5?5?5?5?5?5?5?5@
CONST	SEGMENT
??_C@_0BC@KELNKFGO@?5?5?5?5?5?5?5?5?5?5?5?5?5?5?5?5?5@ DB '              '
	DB	'   ', 00H					; `string'
CONST	ENDS
;	COMDAT ??_C@_03KKJHKPCM@?n?$KD?$LF@
CONST	SEGMENT
??_C@_03KKJHKPCM@?n?$KD?$LF@ DB 0eeH, 0a3H, 0b5H, 00H	; `string'
CONST	ENDS
;	COMDAT ??_C@_03LDIMJOGN@?n?$KD?$LE@
CONST	SEGMENT
??_C@_03LDIMJOGN@?n?$KD?$LE@ DB 0eeH, 0a3H, 0b4H, 00H	; `string'
CONST	ENDS
;	COMDAT ??_C@_01CLKCMJKC@?5@
CONST	SEGMENT
??_C@_01CLKCMJKC@?5@ DB ' ', 00H			; `string'
CONST	ENDS
;	COMDAT ??_C@_06BIFLPOGA@Layer?5@
CONST	SEGMENT
??_C@_06BIFLPOGA@Layer?5@ DB 'Layer ', 00H		; `string'
PUBLIC	??$construct_at@II$0A@@std@@YAPEAIQEAI$$QEAI@Z	; std::construct_at<unsigned int,unsigned int,0>
PUBLIC	??$_Voidify_iter@PEAI@std@@YAPEAXPEAI@Z		; std::_Voidify_iter<unsigned int *>
PUBLIC	??$construct_at@IAEBI$0A@@std@@YAPEAIQEAIAEBI@Z	; std::construct_at<unsigned int,unsigned int const &,0>
PUBLIC	??$construct@II@?$_Default_allocator_traits@V?$allocator@I@std@@@std@@SAXAEAV?$allocator@I@1@QEAI$$QEAI@Z ; std::_Default_allocator_traits<std::allocator<unsigned int> >::construct<unsigned int,unsigned int>
PUBLIC	??$forward@I@std@@YA$$QEAIAEAI@Z		; std::forward<unsigned int>
PUBLIC	??$construct@IAEBI@?$_Default_allocator_traits@V?$allocator@I@std@@@std@@SAXAEAV?$allocator@I@1@QEAIAEBI@Z ; std::_Default_allocator_traits<std::allocator<unsigned int> >::construct<unsigned int,unsigned int const &>
PUBLIC	??$forward@AEBI@std@@YAAEBIAEBI@Z		; std::forward<unsigned int const &>
PUBLIC	??$to_address@I@std@@YAPEAIQEAI@Z		; std::to_address<unsigned int>
PUBLIC	??$_Emplace_back@I@?$_Uninitialized_backout_al@V?$allocator@I@std@@@std@@QEAAX$$QEAI@Z ; std::_Uninitialized_backout_al<std::allocator<unsigned int> >::_Emplace_back<unsigned int>
PUBLIC	??$_Copy_memmove@PEAIPEAI@std@@YAPEAIPEAI00@Z	; std::_Copy_memmove<unsigned int *,unsigned int *>
PUBLIC	??$move@AEAI@std@@YA$$QEAIAEAI@Z		; std::move<unsigned int &>
PUBLIC	??$_Emplace_back@V?$shared_ptr@VLayer@@@std@@@?$_Uninitialized_backout_al@V?$allocator@V?$shared_ptr@VLayer@@@std@@@std@@@std@@QEAAX$$QEAV?$shared_ptr@VLayer@@@1@@Z ; std::_Uninitialized_backout_al<std::allocator<std::shared_ptr<Layer> > >::_Emplace_back<std::shared_ptr<Layer> >
PUBLIC	??$_Voidify_iter@PEAVLayer@@@std@@YAPEAXPEAVLayer@@@Z ; std::_Voidify_iter<Layer *>
PUBLIC	??$construct_at@VLayer@@AEAV?$basic_string@DU?$char_traits@D@std@@V?$allocator@D@2@@std@@AEA_K_K_KAEAU?$vec@$03M$0A@@glm@@$0A@@std@@YAPEAVLayer@@QEAV1@AEAV?$basic_string@DU?$char_traits@D@std@@V?$allocator@D@2@@0@AEA_K$$QEA_K3AEAU?$vec@$03M$0A@@glm@@@Z ; std::construct_at<Layer,std::basic_string<char,std::char_traits<char>,std::allocator<char> > &,unsigned __int64 &,unsigned __int64,unsigned __int64,glm::vec<4,float,0> &,0>
PUBLIC	??$forward@AEBV?$allocator@D@std@@@std@@YAAEBV?$allocator@D@0@AEBV10@@Z ; std::forward<std::allocator<char> const &>
PUBLIC	??$construct_at@V?$shared_ptr@VLayer@@@std@@AEBV12@$0A@@std@@YAPEAV?$shared_ptr@VLayer@@@0@QEAV10@AEBV10@@Z ; std::construct_at<std::shared_ptr<Layer>,std::shared_ptr<Layer> const &,0>
PUBLIC	??0?$_Uninitialized_backout_al@V?$allocator@V?$shared_ptr@VLayer@@@std@@@std@@@std@@QEAA@PEAV?$shared_ptr@VLayer@@@1@AEAV?$allocator@V?$shared_ptr@VLayer@@@std@@@1@@Z ; std::_Uninitialized_backout_al<std::allocator<std::shared_ptr<Layer> > >::_Uninitialized_backout_al<std::allocator<std::shared_ptr<Layer> > >
PUBLIC	??1?$_Uninitialized_backout_al@V?$allocator@V?$shared_ptr@VLayer@@@std@@@std@@@std@@QEAA@XZ ; std::_Uninitialized_backout_al<std::allocator<std::shared_ptr<Layer> > >::~_Uninitialized_backout_al<std::allocator<std::shared_ptr<Layer> > >
PUBLIC	?_Release@?$_Uninitialized_backout_al@V?$allocator@V?$shared_ptr@VLayer@@@std@@@std@@@std@@QEAAPEAV?$shared_ptr@VLayer@@@2@XZ ; std::_Uninitialized_backout_al<std::allocator<std::shared_ptr<Layer> > >::_Release
PUBLIC	?__autoclassinit2@?$_Uninitialized_backout_al@V?$allocator@V?$shared_ptr@VLayer@@@std@@@std@@@std@@QEAAX_K@Z ; std::_Uninitialized_backout_al<std::allocator<std::shared_ptr<Layer> > >::__autoclassinit2
PUBLIC	??$_Get_size_of_n@$0BA@@std@@YA_K_K@Z		; std::_Get_size_of_n<16>
PUBLIC	??$move@AEAPEAV_Ref_count_base@std@@@std@@YA$$QEAPEAV_Ref_count_base@0@AEAPEAV10@@Z ; std::move<std::_Ref_count_base * &>
PUBLIC	??$move@AEAPEAVLayer@@@std@@YA$$QEAPEAVLayer@@AEAPEAV1@@Z ; std::move<Layer * &>
PUBLIC	??$_Emplace_back@AEBI@?$_Uninitialized_backout_al@V?$allocator@I@std@@@std@@QEAAXAEBI@Z ; std::_Uninitialized_backout_al<std::allocator<unsigned int> >::_Emplace_back<unsigned int const &>
PUBLIC	??$_To_address@PEAI@std@@YA?A_PAEBQEAI@Z	; std::_To_address<unsigned int *>
PUBLIC	??$_Fill_zero_memset@PEAI@std@@YAXPEAI_K@Z	; std::_Fill_zero_memset<unsigned int *>
PUBLIC	??$_Unfancy@I@std@@YAPEAIPEAI@Z			; std::_Unfancy<unsigned int>
PUBLIC	??$_Is_all_bits_zero@I@std@@YA_NAEBI@Z		; std::_Is_all_bits_zero<unsigned int>
PUBLIC	??$_Uninitialized_move@PEAIV?$allocator@I@std@@@std@@YAPEAIQEAI0PEAIAEAV?$allocator@I@0@@Z ; std::_Uninitialized_move<unsigned int *,std::allocator<unsigned int> >
PUBLIC	??$_Get_unwrapped@AEBQEAI@std@@YA?A_TAEBQEAI@Z	; std::_Get_unwrapped<unsigned int * const &>
PUBLIC	??$forward@V?$_Vb_iterator@U?$_Wrap_alloc@V?$allocator@I@std@@@std@@@std@@@std@@YA$$QEAV?$_Vb_iterator@U?$_Wrap_alloc@V?$allocator@I@std@@@std@@@0@AEAV10@@Z ; std::forward<std::_Vb_iterator<std::_Wrap_alloc<std::allocator<unsigned int> > > >
PUBLIC	??$_Construct_in_place@V?$shared_ptr@VLayer@@@std@@V12@@std@@YAXAEAV?$shared_ptr@VLayer@@@0@$$QEAV10@@Z ; std::_Construct_in_place<std::shared_ptr<Layer>,std::shared_ptr<Layer> >
PUBLIC	??$_Uninitialized_move@PEAV?$shared_ptr@VLayer@@@std@@V?$allocator@V?$shared_ptr@VLayer@@@std@@@2@@std@@YAPEAV?$shared_ptr@VLayer@@@0@QEAV10@0PEAV10@AEAV?$allocator@V?$shared_ptr@VLayer@@@std@@@0@@Z ; std::_Uninitialized_move<std::shared_ptr<Layer> *,std::allocator<std::shared_ptr<Layer> > >
PUBLIC	??$_Get_unwrapped@AEBQEAV?$shared_ptr@VLayer@@@std@@@std@@YA?A_TAEBQEAV?$shared_ptr@VLayer@@@0@@Z ; std::_Get_unwrapped<std::shared_ptr<Layer> * const &>
PUBLIC	??$_Voidify_iter@PEAV?$shared_ptr@VLayer@@@std@@@std@@YAPEAXPEAV?$shared_ptr@VLayer@@@0@@Z ; std::_Voidify_iter<std::shared_ptr<Layer> *>
PUBLIC	??$construct_at@V?$shared_ptr@VLayer@@@std@@V12@$0A@@std@@YAPEAV?$shared_ptr@VLayer@@@0@QEAV10@$$QEAV10@@Z ; std::construct_at<std::shared_ptr<Layer>,std::shared_ptr<Layer>,0>
PUBLIC	??$_Construct_in_place@V?$shared_ptr@VLayer@@@std@@AEBV12@@std@@YAXAEAV?$shared_ptr@VLayer@@@0@AEBV10@@Z ; std::_Construct_in_place<std::shared_ptr<Layer>,std::shared_ptr<Layer> const &>
PUBLIC	??$_Construct_in_place@VLayer@@AEAV?$basic_string@DU?$char_traits@D@std@@V?$allocator@D@2@@std@@AEA_K_K_KAEAU?$vec@$03M$0A@@glm@@@std@@YAXAEAVLayer@@AEAV?$basic_string@DU?$char_traits@D@std@@V?$allocator@D@2@@0@AEA_K$$QEA_K3AEAU?$vec@$03M$0A@@glm@@@Z ; std::_Construct_in_place<Layer,std::basic_string<char,std::char_traits<char>,std::allocator<char> > &,unsigned __int64 &,unsigned __int64,unsigned __int64,glm::vec<4,float,0> &>
PUBLIC	??$_Construct@$00PEAD@?$basic_string@DU?$char_traits@D@std@@V?$allocator@D@2@@std@@AEAAXQEAD_K@Z ; std::basic_string<char,std::char_traits<char>,std::allocator<char> >::_Construct<1,char *>
PUBLIC	??$?0AEBV?$allocator@D@std@@$$V@?$_Compressed_pair@V?$allocator@D@std@@V?$_String_val@U?$_Simple_types@D@std@@@2@$00@std@@QEAA@U_One_then_variadic_args_t@1@AEBV?$allocator@D@1@@Z ; std::_Compressed_pair<std::allocator<char>,std::_String_val<std::_Simple_types<char> >,1>::_Compressed_pair<std::allocator<char>,std::_String_val<std::_Simple_types<char> >,1><std::allocator<char> const &>
PUBLIC	??$construct@V?$shared_ptr@VLayer@@@std@@AEBV12@@?$_Default_allocator_traits@V?$allocator@V?$shared_ptr@VLayer@@@std@@@std@@@std@@SAXAEAV?$allocator@V?$shared_ptr@VLayer@@@std@@@1@QEAV?$shared_ptr@VLayer@@@1@AEBV31@@Z ; std::_Default_allocator_traits<std::allocator<std::shared_ptr<Layer> > >::construct<std::shared_ptr<Layer>,std::shared_ptr<Layer> const &>
PUBLIC	?_Get_first@?$_Compressed_pair@V?$allocator@V?$shared_ptr@VLayer@@@std@@@std@@V?$_Vector_val@U?$_Simple_types@V?$shared_ptr@VLayer@@@std@@@std@@@2@$00@std@@QEBAAEBV?$allocator@V?$shared_ptr@VLayer@@@std@@@2@XZ ; std::_Compressed_pair<std::allocator<std::shared_ptr<Layer> >,std::_Vector_val<std::_Simple_types<std::shared_ptr<Layer> > >,1>::_Get_first
PUBLIC	?_Dec@?$_Vb_const_iterator@U?$_Wrap_alloc@V?$allocator@I@std@@@std@@@std@@QEAAXXZ ; std::_Vb_const_iterator<std::_Wrap_alloc<std::allocator<unsigned int> > >::_Dec
PUBLIC	?capacity@?$vector@IV?$allocator@I@std@@@std@@QEBA_KXZ ; std::vector<unsigned int,std::allocator<unsigned int> >::capacity
PUBLIC	?max_size@?$_Default_allocator_traits@V?$allocator@V?$shared_ptr@VLayer@@@std@@@std@@@std@@SA_KAEBV?$allocator@V?$shared_ptr@VLayer@@@std@@@2@@Z ; std::_Default_allocator_traits<std::allocator<std::shared_ptr<Layer> > >::max_size
PUBLIC	?capacity@?$vector@V?$shared_ptr@VLayer@@@std@@V?$allocator@V?$shared_ptr@VLayer@@@std@@@2@@std@@QEBA_KXZ ; std::vector<std::shared_ptr<Layer>,std::allocator<std::shared_ptr<Layer> > >::capacity
PUBLIC	?_Getal@?$vector@V?$shared_ptr@VLayer@@@std@@V?$allocator@V?$shared_ptr@VLayer@@@std@@@2@@std@@AEBAAEBV?$allocator@V?$shared_ptr@VLayer@@@std@@@2@XZ ; std::vector<std::shared_ptr<Layer>,std::allocator<std::shared_ptr<Layer> > >::_Getal
PUBLIC	??F?$_Vb_const_iterator@U?$_Wrap_alloc@V?$allocator@I@std@@@std@@@std@@QEAAAEAV01@XZ ; std::_Vb_const_iterator<std::_Wrap_alloc<std::allocator<unsigned int> > >::operator--
PUBLIC	?allocate@?$allocator@I@std@@QEAAPEAI_K@Z	; std::allocator<unsigned int>::allocate
PUBLIC	?_Calculate_growth@?$vector@IV?$allocator@I@std@@@std@@AEBA_K_K@Z ; std::vector<unsigned int,std::allocator<unsigned int> >::_Calculate_growth
PUBLIC	?_Change_array@?$vector@IV?$allocator@I@std@@@std@@AEAAXQEAI_K1@Z ; std::vector<unsigned int,std::allocator<unsigned int> >::_Change_array
PUBLIC	?_Xlength@?$vector@IV?$allocator@I@std@@@std@@CAXXZ ; std::vector<unsigned int,std::allocator<unsigned int> >::_Xlength
PUBLIC	?allocate@?$allocator@V?$shared_ptr@VLayer@@@std@@@std@@QEAAPEAV?$shared_ptr@VLayer@@@2@_K@Z ; std::allocator<std::shared_ptr<Layer> >::allocate
PUBLIC	?max_size@?$vector@V?$shared_ptr@VLayer@@@std@@V?$allocator@V?$shared_ptr@VLayer@@@std@@@2@@std@@QEBA_KXZ ; std::vector<std::shared_ptr<Layer>,std::allocator<std::shared_ptr<Layer> > >::max_size
PUBLIC	?_Calculate_growth@?$vector@V?$shared_ptr@VLayer@@@std@@V?$allocator@V?$shared_ptr@VLayer@@@std@@@2@@std@@AEBA_K_K@Z ; std::vector<std::shared_ptr<Layer>,std::allocator<std::shared_ptr<Layer> > >::_Calculate_growth
PUBLIC	?_Change_array@?$vector@V?$shared_ptr@VLayer@@@std@@V?$allocator@V?$shared_ptr@VLayer@@@std@@@2@@std@@AEAAXQEAV?$shared_ptr@VLayer@@@2@_K1@Z ; std::vector<std::shared_ptr<Layer>,std::allocator<std::shared_ptr<Layer> > >::_Change_array
PUBLIC	?_Xlength@?$vector@V?$shared_ptr@VLayer@@@std@@V?$allocator@V?$shared_ptr@VLayer@@@std@@@2@@std@@CAXXZ ; std::vector<std::shared_ptr<Layer>,std::allocator<std::shared_ptr<Layer> > >::_Xlength
PUBLIC	??4?$_Vb_reference@U?$_Wrap_alloc@V?$allocator@I@std@@@std@@@std@@QEAAAEAV01@AEBV01@@Z ; std::_Vb_reference<std::_Wrap_alloc<std::allocator<unsigned int> > >::operator=
PUBLIC	??F?$_Vb_iterator@U?$_Wrap_alloc@V?$allocator@I@std@@@std@@@std@@QEAAAEAV01@XZ ; std::_Vb_iterator<std::_Wrap_alloc<std::allocator<unsigned int> > >::operator--
PUBLIC	??0?$_Uninitialized_backout_al@V?$allocator@I@std@@@std@@QEAA@PEAIAEAV?$allocator@I@1@@Z ; std::_Uninitialized_backout_al<std::allocator<unsigned int> >::_Uninitialized_backout_al<std::allocator<unsigned int> >
PUBLIC	??1?$_Uninitialized_backout_al@V?$allocator@I@std@@@std@@QEAA@XZ ; std::_Uninitialized_backout_al<std::allocator<unsigned int> >::~_Uninitialized_backout_al<std::allocator<unsigned int> >
PUBLIC	?_Release@?$_Uninitialized_backout_al@V?$allocator@I@std@@@std@@QEAAPEAIXZ ; std::_Uninitialized_backout_al<std::allocator<unsigned int> >::_Release
PUBLIC	??_GLayer@@QEAAPEAXI@Z				; Layer::`scalar deleting destructor'
PUBLIC	?__autoclassinit2@?$_Uninitialized_backout_al@V?$allocator@I@std@@@std@@QEAAX_K@Z ; std::_Uninitialized_backout_al<std::allocator<unsigned int> >::__autoclassinit2
PUBLIC	??_G?$shared_ptr@VLayer@@@std@@QEAAPEAXI@Z	; std::shared_ptr<Layer>::`scalar deleting destructor'
PUBLIC	??$swap@PEAV_Ref_count_base@std@@$0A@@std@@YAXAEAPEAV_Ref_count_base@0@0@Z ; std::swap<std::_Ref_count_base *,0>
PUBLIC	??$swap@PEAVLayer@@$0A@@std@@YAXAEAPEAVLayer@@0@Z ; std::swap<Layer *,0>
PUBLIC	??$_Reallocate_grow_by@V<lambda_1>@?1??insert@?$basic_string@DU?$char_traits@D@std@@V?$allocator@D@2@@std@@QEAAAEAV34@_KQEBD0@Z@_KPEBD_K@?$basic_string@DU?$char_traits@D@std@@V?$allocator@D@2@@std@@AEAAAEAV01@_KV<lambda_1>@?1??insert@01@QEAAAEAV01@0QEBD0@Z@_KPEBD3@Z ; std::basic_string<char,std::char_traits<char>,std::allocator<char> >::_Reallocate_grow_by<`std::basic_string<char,std::char_traits<char>,std::allocator<char> >::insert'::`2'::<lambda_1>,unsigned __int64,char const *,unsigned __int64>
PUBLIC	??$_Get_size_of_n@$03@std@@YA_K_K@Z		; std::_Get_size_of_n<4>
PUBLIC	??$_Move_construct_from@VLayer@@@?$_Ptr_base@VLayer@@@std@@IEAAX$$QEAV01@@Z ; std::_Ptr_base<Layer>::_Move_construct_from<Layer>
PUBLIC	??$_Destroy_in_place@VLayer@@@std@@YAXAEAVLayer@@@Z ; std::_Destroy_in_place<Layer>
PUBLIC	??$_Uninitialized_fill_n@V?$allocator@I@std@@@std@@YAPEAIPEAI_KAEBIAEAV?$allocator@I@0@@Z ; std::_Uninitialized_fill_n<std::allocator<unsigned int> >
PUBLIC	??$_Resize_reallocate@I@?$vector@IV?$allocator@I@std@@@std@@AEAAX_KAEBI@Z ; std::vector<unsigned int,std::allocator<unsigned int> >::_Resize_reallocate<unsigned int>
PUBLIC	??$_Seek_wrapped@V?$_Vb_iterator@U?$_Wrap_alloc@V?$allocator@I@std@@@std@@@std@@V12@@std@@YAXAEAV?$_Vb_iterator@U?$_Wrap_alloc@V?$allocator@I@std@@@std@@@0@$$QEAV10@@Z ; std::_Seek_wrapped<std::_Vb_iterator<std::_Wrap_alloc<std::allocator<unsigned int> > >,std::_Vb_iterator<std::_Wrap_alloc<std::allocator<unsigned int> > > >
PUBLIC	??$_Copy_backward_unchecked@V?$_Vb_iterator@U?$_Wrap_alloc@V?$allocator@I@std@@@std@@@std@@V12@@std@@YA?AV?$_Vb_iterator@U?$_Wrap_alloc@V?$allocator@I@std@@@std@@@0@V10@00@Z ; std::_Copy_backward_unchecked<std::_Vb_iterator<std::_Wrap_alloc<std::allocator<unsigned int> > >,std::_Vb_iterator<std::_Wrap_alloc<std::allocator<unsigned int> > > >
PUBLIC	??$forward@AEBV?$allocator@I@std@@@std@@YAAEBV?$allocator@I@0@AEBV10@@Z ; std::forward<std::allocator<unsigned int> const &>
PUBLIC	??8?$_Vb_const_iterator@U?$_Wrap_alloc@V?$allocator@I@std@@@std@@@std@@QEBA_NAEBV01@@Z ; std::_Vb_const_iterator<std::_Wrap_alloc<std::allocator<unsigned int> > >::operator==
PUBLIC	??$_Fill_vbool@V?$_Vb_iterator@U?$_Wrap_alloc@V?$allocator@I@std@@@std@@@std@@@std@@YAXV?$_Vb_iterator@U?$_Wrap_alloc@V?$allocator@I@std@@@std@@@0@V10@_N@Z ; std::_Fill_vbool<std::_Vb_iterator<std::_Wrap_alloc<std::allocator<unsigned int> > > >
PUBLIC	??$_Adl_verify_range@V?$_Vb_iterator@U?$_Wrap_alloc@V?$allocator@I@std@@@std@@@std@@V12@@std@@YAXAEBV?$_Vb_iterator@U?$_Wrap_alloc@V?$allocator@I@std@@@std@@@0@0@Z ; std::_Adl_verify_range<std::_Vb_iterator<std::_Wrap_alloc<std::allocator<unsigned int> > >,std::_Vb_iterator<std::_Wrap_alloc<std::allocator<unsigned int> > > >
PUBLIC	??$construct_at@PEADAEAPEAD$0A@@std@@YAPEAPEADQEAPEADAEAPEAD@Z ; std::construct_at<char *,char * &,0>
PUBLIC	??$forward@AEAPEAD@std@@YAAEAPEADAEAPEAD@Z	; std::forward<char * &>
PUBLIC	??$_Emplace_reallocate@V?$shared_ptr@VLayer@@@std@@@?$vector@V?$shared_ptr@VLayer@@@std@@V?$allocator@V?$shared_ptr@VLayer@@@std@@@2@@std@@AEAAPEAV?$shared_ptr@VLayer@@@1@QEAV21@$$QEAV21@@Z ; std::vector<std::shared_ptr<Layer>,std::allocator<std::shared_ptr<Layer> > >::_Emplace_reallocate<std::shared_ptr<Layer> >
PUBLIC	??$_Emplace_back_with_unused_capacity@V?$shared_ptr@VLayer@@@std@@@?$vector@V?$shared_ptr@VLayer@@@std@@V?$allocator@V?$shared_ptr@VLayer@@@std@@@2@@std@@AEAAAEAV?$shared_ptr@VLayer@@@1@$$QEAV21@@Z ; std::vector<std::shared_ptr<Layer>,std::allocator<std::shared_ptr<Layer> > >::_Emplace_back_with_unused_capacity<std::shared_ptr<Layer> >
PUBLIC	??$forward@V?$shared_ptr@VLayer@@@std@@@std@@YA$$QEAV?$shared_ptr@VLayer@@@0@AEAV10@@Z ; std::forward<std::shared_ptr<Layer> >
PUBLIC	??$_Emplace_reallocate@AEBV?$shared_ptr@VLayer@@@std@@@?$vector@V?$shared_ptr@VLayer@@@std@@V?$allocator@V?$shared_ptr@VLayer@@@std@@@2@@std@@AEAAPEAV?$shared_ptr@VLayer@@@1@QEAV21@AEBV21@@Z ; std::vector<std::shared_ptr<Layer>,std::allocator<std::shared_ptr<Layer> > >::_Emplace_reallocate<std::shared_ptr<Layer> const &>
PUBLIC	??$_Move_backward_unchecked@PEAV?$shared_ptr@VLayer@@@std@@PEAV12@@std@@YAPEAV?$shared_ptr@VLayer@@@0@PEAV10@00@Z ; std::_Move_backward_unchecked<std::shared_ptr<Layer> *,std::shared_ptr<Layer> *>
PUBLIC	??$construct@V?$shared_ptr@VLayer@@@std@@V12@@?$_Default_allocator_traits@V?$allocator@V?$shared_ptr@VLayer@@@std@@@std@@@std@@SAXAEAV?$allocator@V?$shared_ptr@VLayer@@@std@@@1@QEAV?$shared_ptr@VLayer@@@1@$$QEAV31@@Z ; std::_Default_allocator_traits<std::allocator<std::shared_ptr<Layer> > >::construct<std::shared_ptr<Layer>,std::shared_ptr<Layer> >
PUBLIC	??$addressof@V?$shared_ptr@VLayer@@@std@@@std@@YAPEAV?$shared_ptr@VLayer@@@0@AEAV10@@Z ; std::addressof<std::shared_ptr<Layer> >
PUBLIC	??$?0AEBV?$shared_ptr@VLayer@@@std@@@?$_Alloc_temporary2@V?$allocator@V?$shared_ptr@VLayer@@@std@@@std@@@std@@QEAA@AEAV?$allocator@V?$shared_ptr@VLayer@@@std@@@1@AEBV?$shared_ptr@VLayer@@@1@@Z ; std::_Alloc_temporary2<std::allocator<std::shared_ptr<Layer> > >::_Alloc_temporary2<std::allocator<std::shared_ptr<Layer> > ><std::shared_ptr<Layer> const &>
PUBLIC	??$_Emplace_back_with_unused_capacity@AEBV?$shared_ptr@VLayer@@@std@@@?$vector@V?$shared_ptr@VLayer@@@std@@V?$allocator@V?$shared_ptr@VLayer@@@std@@@2@@std@@AEAAAEAV?$shared_ptr@VLayer@@@1@AEBV21@@Z ; std::vector<std::shared_ptr<Layer>,std::allocator<std::shared_ptr<Layer> > >::_Emplace_back_with_unused_capacity<std::shared_ptr<Layer> const &>
PUBLIC	??$forward@AEBV?$shared_ptr@VLayer@@@std@@@std@@YAAEBV?$shared_ptr@VLayer@@@0@AEBV10@@Z ; std::forward<std::shared_ptr<Layer> const &>
PUBLIC	??$destroy_at@V?$shared_ptr@VLayer@@@std@@@std@@YAXQEAV?$shared_ptr@VLayer@@@0@@Z ; std::destroy_at<std::shared_ptr<Layer> >
PUBLIC	??$_Set_ptr_rep_and_enable_shared@VLayer@@@?$shared_ptr@VLayer@@@std@@AEAAXQEAVLayer@@QEAV_Ref_count_base@1@@Z ; std::shared_ptr<Layer>::_Set_ptr_rep_and_enable_shared<Layer>
PUBLIC	??$addressof@VLayer@@@std@@YAPEAVLayer@@AEAV1@@Z ; std::addressof<Layer>
PUBLIC	??$?0AEAV?$basic_string@DU?$char_traits@D@std@@V?$allocator@D@2@@std@@AEA_K_K_KAEAU?$vec@$03M$0A@@glm@@@?$_Ref_count_obj2@VLayer@@@std@@QEAA@AEAV?$basic_string@DU?$char_traits@D@std@@V?$allocator@D@2@@1@AEA_K$$QEA_K2AEAU?$vec@$03M$0A@@glm@@@Z ; std::_Ref_count_obj2<Layer>::_Ref_count_obj2<Layer><std::basic_string<char,std::char_traits<char>,std::allocator<char> > &,unsigned __int64 &,unsigned __int64,unsigned __int64,glm::vec<4,float,0> &>
PUBLIC	??$forward@AEAU?$vec@$03M$0A@@glm@@@std@@YAAEAU?$vec@$03M$0A@@glm@@AEAU12@@Z ; std::forward<glm::vec<4,float,0> &>
PUBLIC	??$forward@_K@std@@YA$$QEA_KAEA_K@Z		; std::forward<unsigned __int64>
PUBLIC	??$forward@AEA_K@std@@YAAEA_KAEA_K@Z		; std::forward<unsigned __int64 &>
PUBLIC	??$forward@AEAV?$basic_string@DU?$char_traits@D@std@@V?$allocator@D@2@@std@@@std@@YAAEAV?$basic_string@DU?$char_traits@D@std@@V?$allocator@D@2@@0@AEAV10@@Z ; std::forward<std::basic_string<char,std::char_traits<char>,std::allocator<char> > &>
PUBLIC	??$_Get_unwrapped@AEAPEAD@std@@YA?A_TAEAPEAD@Z	; std::_Get_unwrapped<char * &>
PUBLIC	??$?0PEAD$0A@@?$basic_string@DU?$char_traits@D@std@@V?$allocator@D@2@@std@@QEAA@PEAD0AEBV?$allocator@D@1@@Z ; std::basic_string<char,std::char_traits<char>,std::allocator<char> >::basic_string<char,std::char_traits<char>,std::allocator<char> ><char *,0>
PUBLIC	??$_UIntegral_to_buff@DI@std@@YAPEADPEADI@Z	; std::_UIntegral_to_buff<char,unsigned int>
PUBLIC	?_Swap@?$_Ptr_base@VLayer@@@std@@IEAAXAEAV12@@Z	; std::_Ptr_base<Layer>::_Swap
PUBLIC	??R<lambda_1>@?1??insert@?$basic_string@DU?$char_traits@D@std@@V?$allocator@D@2@@std@@QEAAAEAV23@_KQEBD0@Z@QEBA@QEAD10010@Z ; `std::basic_string<char,std::char_traits<char>,std::allocator<char> >::insert'::`2'::<lambda_1>::operator()
PUBLIC	?insert@?$basic_string@DU?$char_traits@D@std@@V?$allocator@D@2@@std@@QEAAAEAV12@_KQEBD0@Z ; std::basic_string<char,std::char_traits<char>,std::allocator<char> >::insert
PUBLIC	?swap@?$shared_ptr@VLayer@@@std@@QEAAXAEAV12@@Z	; std::shared_ptr<Layer>::swap
PUBLIC	??_G?$_Ref_count_obj2@VLayer@@@std@@UEAAPEAXI@Z	; std::_Ref_count_obj2<Layer>::`scalar deleting destructor'
PUBLIC	??0?$allocator@D@std@@QEAA@XZ			; std::allocator<char>::allocator<char>
PUBLIC	??0?$basic_string@DU?$char_traits@D@std@@V?$allocator@D@2@@std@@QEAA@U_String_constructor_concat_tag@1@AEBV01@QEBD_K23@Z ; std::basic_string<char,std::char_traits<char>,std::allocator<char> >::basic_string<char,std::char_traits<char>,std::allocator<char> >
PUBLIC	?insert@?$basic_string@DU?$char_traits@D@std@@V?$allocator@D@2@@std@@QEAAAEAV12@_KQEBD@Z ; std::basic_string<char,std::char_traits<char>,std::allocator<char> >::insert
PUBLIC	?_Orphan_range@?$vector@IV?$allocator@I@std@@@std@@AEBAXPEAI0@Z ; std::vector<unsigned int,std::allocator<unsigned int> >::_Orphan_range
PUBLIC	??0?$_Vector_val@U?$_Simple_types@I@std@@@std@@QEAA@XZ ; std::_Vector_val<std::_Simple_types<unsigned int> >::_Vector_val<std::_Simple_types<unsigned int> >
PUBLIC	??0?$allocator@V?$shared_ptr@VLayer@@@std@@@std@@QEAA@XZ ; std::allocator<std::shared_ptr<Layer> >::allocator<std::shared_ptr<Layer> >
PUBLIC	?_Make_iterator@?$vector@V?$shared_ptr@VLayer@@@std@@V?$allocator@V?$shared_ptr@VLayer@@@std@@@2@@std@@AEAA?AV?$_Vector_iterator@V?$_Vector_val@U?$_Simple_types@V?$shared_ptr@VLayer@@@std@@@std@@@std@@@2@QEAV?$shared_ptr@VLayer@@@2@@Z ; std::vector<std::shared_ptr<Layer>,std::allocator<std::shared_ptr<Layer> > >::_Make_iterator
PUBLIC	??0?$_Vector_val@U?$_Simple_types@V?$shared_ptr@VLayer@@@std@@@std@@@std@@QEAA@XZ ; std::_Vector_val<std::_Simple_types<std::shared_ptr<Layer> > >::_Vector_val<std::_Simple_types<std::shared_ptr<Layer> > >
PUBLIC	?get@?$_Ptr_base@VLayer@@@std@@IEBAPEAVLayer@@XZ ; std::_Ptr_base<Layer>::get
PUBLIC	?_Incref@?$_Ptr_base@VLayer@@@std@@IEBAXXZ	; std::_Ptr_base<Layer>::_Incref
PUBLIC	??0?$shared_ptr@VLayer@@@std@@QEAA@$$QEAV01@@Z	; std::shared_ptr<Layer>::shared_ptr<Layer>
PUBLIC	??4?$shared_ptr@VLayer@@@std@@QEAAAEAV01@$$QEAV01@@Z ; std::shared_ptr<Layer>::operator=
PUBLIC	??1?$_Ref_count_obj2@VLayer@@@std@@UEAA@XZ	; std::_Ref_count_obj2<Layer>::~_Ref_count_obj2<Layer>
PUBLIC	?_Destroy@?$_Ref_count_obj2@VLayer@@@std@@EEAAXXZ ; std::_Ref_count_obj2<Layer>::_Destroy
PUBLIC	?_Delete_this@?$_Ref_count_obj2@VLayer@@@std@@EEAAXXZ ; std::_Ref_count_obj2<Layer>::_Delete_this
PUBLIC	?_Get_value@?$_Alloc_temporary2@V?$allocator@V?$shared_ptr@VLayer@@@std@@@std@@@std@@QEAAAEAV?$shared_ptr@VLayer@@@2@XZ ; std::_Alloc_temporary2<std::allocator<std::shared_ptr<Layer> > >::_Get_value
PUBLIC	??1?$_Alloc_temporary2@V?$allocator@V?$shared_ptr@VLayer@@@std@@@std@@@std@@QEAA@XZ ; std::_Alloc_temporary2<std::allocator<std::shared_ptr<Layer> > >::~_Alloc_temporary2<std::allocator<std::shared_ptr<Layer> > >
PUBLIC	??0?$shared_ptr@VLayer@@@std@@QEAA@XZ		; std::shared_ptr<Layer>::shared_ptr<Layer>
PUBLIC	??$_Resize@I@?$vector@IV?$allocator@I@std@@@std@@AEAAX_KAEBI@Z ; std::vector<unsigned int,std::allocator<unsigned int> >::_Resize<unsigned int>
PUBLIC	??$_Unfancy_maybe_null@I@std@@YAPEAIPEAI@Z	; std::_Unfancy_maybe_null<unsigned int>
PUBLIC	??$_Destroy_range@V?$allocator@I@std@@@std@@YAXPEAIQEAIAEAV?$allocator@I@0@@Z ; std::_Destroy_range<std::allocator<unsigned int> >
PUBLIC	??$_Get_unwrapped_n@AEAV?$_Vb_iterator@U?$_Wrap_alloc@V?$allocator@I@std@@@std@@@std@@_J@std@@YA?A_TAEAV?$_Vb_iterator@U?$_Wrap_alloc@V?$allocator@I@std@@@std@@@0@_J@Z ; std::_Get_unwrapped_n<std::_Vb_iterator<std::_Wrap_alloc<std::allocator<unsigned int> > > &,__int64>
PUBLIC	??$_Idl_distance@V?$_Vb_iterator@U?$_Wrap_alloc@V?$allocator@I@std@@@std@@@std@@V12@@std@@YA?A_PAEBV?$_Vb_iterator@U?$_Wrap_alloc@V?$allocator@I@std@@@std@@@0@0@Z ; std::_Idl_distance<std::_Vb_iterator<std::_Wrap_alloc<std::allocator<unsigned int> > >,std::_Vb_iterator<std::_Wrap_alloc<std::allocator<unsigned int> > > >
PUBLIC	??$_Get_unwrapped@AEAV?$_Vb_iterator@U?$_Wrap_alloc@V?$allocator@I@std@@@std@@@std@@@std@@YA?A_TAEAV?$_Vb_iterator@U?$_Wrap_alloc@V?$allocator@I@std@@@std@@@0@@Z ; std::_Get_unwrapped<std::_Vb_iterator<std::_Wrap_alloc<std::allocator<unsigned int> > > &>
PUBLIC	??$copy_backward@V?$_Vb_iterator@U?$_Wrap_alloc@V?$allocator@I@std@@@std@@@std@@V12@@std@@YA?AV?$_Vb_iterator@U?$_Wrap_alloc@V?$allocator@I@std@@@std@@@0@V10@00@Z ; std::copy_backward<std::_Vb_iterator<std::_Wrap_alloc<std::allocator<unsigned int> > >,std::_Vb_iterator<std::_Wrap_alloc<std::allocator<unsigned int> > > >
PUBLIC	??$addressof@$$CBV?$_String_val@U?$_Simple_types@D@std@@@std@@@std@@YAPEBV?$_String_val@U?$_Simple_types@D@std@@@0@AEBV10@@Z ; std::addressof<std::_String_val<std::_Simple_types<char> > const >
PUBLIC	??$addressof@V?$_String_val@U?$_Simple_types@D@std@@@std@@@std@@YAPEAV?$_String_val@U?$_Simple_types@D@std@@@0@AEAV10@@Z ; std::addressof<std::_String_val<std::_Simple_types<char> > >
PUBLIC	??$?0AEBV?$allocator@I@std@@$$V@?$_Compressed_pair@V?$allocator@I@std@@V?$_Vector_val@U?$_Simple_types@I@std@@@2@$00@std@@QEAA@U_One_then_variadic_args_t@1@AEBV?$allocator@I@1@@Z ; std::_Compressed_pair<std::allocator<unsigned int>,std::_Vector_val<std::_Simple_types<unsigned int> >,1>::_Compressed_pair<std::allocator<unsigned int>,std::_Vector_val<std::_Simple_types<unsigned int> >,1><std::allocator<unsigned int> const &>
PUBLIC	??$fill@V?$_Vb_iterator@U?$_Wrap_alloc@V?$allocator@I@std@@@std@@@std@@_N@std@@YAXV?$_Vb_iterator@U?$_Wrap_alloc@V?$allocator@I@std@@@std@@@0@0AEB_N@Z ; std::fill<std::_Vb_iterator<std::_Wrap_alloc<std::allocator<unsigned int> > >,bool>
PUBLIC	??$_Construct_in_place@PEADAEAPEAD@std@@YAXAEAPEAD0@Z ; std::_Construct_in_place<char *,char * &>
PUBLIC	??$_Reallocate_grow_by@V<lambda_1>@?1??append@?$basic_string@DU?$char_traits@D@std@@V?$allocator@D@2@@std@@QEAAAEAV34@QEBD_K@Z@PEBD_K@?$basic_string@DU?$char_traits@D@std@@V?$allocator@D@2@@std@@AEAAAEAV01@_KV<lambda_1>@?1??append@01@QEAAAEAV01@QEBD0@Z@PEBD_K@Z ; std::basic_string<char,std::char_traits<char>,std::allocator<char> >::_Reallocate_grow_by<`std::basic_string<char,std::char_traits<char>,std::allocator<char> >::append'::`2'::<lambda_1>,char const *,unsigned __int64>
PUBLIC	??$?0_N@?$allocator@I@std@@QEAA@AEBV?$allocator@_N@1@@Z ; std::allocator<unsigned int>::allocator<unsigned int><bool>
PUBLIC	??$_Destroy_range@V?$allocator@V?$shared_ptr@VLayer@@@std@@@std@@@std@@YAXPEAV?$shared_ptr@VLayer@@@0@QEAV10@AEAV?$allocator@V?$shared_ptr@VLayer@@@std@@@0@@Z ; std::_Destroy_range<std::allocator<std::shared_ptr<Layer> > >
PUBLIC	??$move@AEAV?$allocator@D@std@@@std@@YA$$QEAV?$allocator@D@0@AEAV10@@Z ; std::move<std::allocator<char> &>
PUBLIC	??$_Convert_size@_K_K@std@@YA_K_K@Z		; std::_Convert_size<unsigned __int64,unsigned __int64>
PUBLIC	??$move@AEAV?$basic_string@DU?$char_traits@D@std@@V?$allocator@D@2@@std@@@std@@YA$$QEAV?$basic_string@DU?$char_traits@D@std@@V?$allocator@D@2@@0@AEAV10@@Z ; std::move<std::basic_string<char,std::char_traits<char>,std::allocator<char> > &>
PUBLIC	??$?0$$V@?$_Compressed_pair@V?$allocator@V?$shared_ptr@VLayer@@@std@@@std@@V?$_Vector_val@U?$_Simple_types@V?$shared_ptr@VLayer@@@std@@@std@@@2@$00@std@@QEAA@U_Zero_then_variadic_args_t@1@@Z ; std::_Compressed_pair<std::allocator<std::shared_ptr<Layer> >,std::_Vector_val<std::_Simple_types<std::shared_ptr<Layer> > >,1>::_Compressed_pair<std::allocator<std::shared_ptr<Layer> >,std::_Vector_val<std::_Simple_types<std::shared_ptr<Layer> > >,1><>
PUBLIC	??$_Emplace_one_at_back@V?$shared_ptr@VLayer@@@std@@@?$vector@V?$shared_ptr@VLayer@@@std@@V?$allocator@V?$shared_ptr@VLayer@@@std@@@2@@std@@AEAAAEAV?$shared_ptr@VLayer@@@1@$$QEAV21@@Z ; std::vector<std::shared_ptr<Layer>,std::allocator<std::shared_ptr<Layer> > >::_Emplace_one_at_back<std::shared_ptr<Layer> >
PUBLIC	??$emplace@AEBV?$shared_ptr@VLayer@@@std@@@?$vector@V?$shared_ptr@VLayer@@@std@@V?$allocator@V?$shared_ptr@VLayer@@@std@@@2@@std@@QEAA?AV?$_Vector_iterator@V?$_Vector_val@U?$_Simple_types@V?$shared_ptr@VLayer@@@std@@@std@@@std@@@1@V?$_Vector_const_iterator@V?$_Vector_val@U?$_Simple_types@V?$shared_ptr@VLayer@@@std@@@std@@@std@@@1@AEBV?$shared_ptr@VLayer@@@1@@Z ; std::vector<std::shared_ptr<Layer>,std::allocator<std::shared_ptr<Layer> > >::emplace<std::shared_ptr<Layer> const &>
PUBLIC	??$destroy@V?$shared_ptr@VLayer@@@std@@@?$_Default_allocator_traits@V?$allocator@V?$shared_ptr@VLayer@@@std@@@std@@@std@@SAXAEAV?$allocator@V?$shared_ptr@VLayer@@@std@@@1@QEAV?$shared_ptr@VLayer@@@1@@Z ; std::_Default_allocator_traits<std::allocator<std::shared_ptr<Layer> > >::destroy<std::shared_ptr<Layer> >
PUBLIC	??$_Unfancy@V?$shared_ptr@VLayer@@@std@@@std@@YAPEAV?$shared_ptr@VLayer@@@0@PEAV10@@Z ; std::_Unfancy<std::shared_ptr<Layer> >
PUBLIC	??$_Move_unchecked@PEAV?$shared_ptr@VLayer@@@std@@PEAV12@@std@@YAPEAV?$shared_ptr@VLayer@@@0@PEAV10@00@Z ; std::_Move_unchecked<std::shared_ptr<Layer> *,std::shared_ptr<Layer> *>
PUBLIC	??$addressof@V?$_Vector_val@U?$_Simple_types@V?$shared_ptr@VLayer@@@std@@@std@@@std@@@std@@YAPEAV?$_Vector_val@U?$_Simple_types@V?$shared_ptr@VLayer@@@std@@@std@@@0@AEAV10@@Z ; std::addressof<std::_Vector_val<std::_Simple_types<std::shared_ptr<Layer> > > >
PUBLIC	??$_Copy_construct_from@VLayer@@@?$_Ptr_base@VLayer@@@std@@IEAAXAEBV?$shared_ptr@VLayer@@@1@@Z ; std::_Ptr_base<Layer>::_Copy_construct_from<Layer>
PUBLIC	??$?CVLayer@@$0A@@?$shared_ptr@VLayer@@@std@@QEBAPEAVLayer@@XZ ; std::shared_ptr<Layer>::operator-><Layer,0>
PUBLIC	??$move@AEAV?$shared_ptr@VLayer@@@std@@@std@@YA$$QEAV?$shared_ptr@VLayer@@@0@AEAV10@@Z ; std::move<std::shared_ptr<Layer> &>
PUBLIC	??$make_shared@VLayer@@AEAV?$basic_string@DU?$char_traits@D@std@@V?$allocator@D@2@@std@@AEA_K_K_KAEAU?$vec@$03M$0A@@glm@@@std@@YA?AV?$shared_ptr@VLayer@@@0@AEAV?$basic_string@DU?$char_traits@D@std@@V?$allocator@D@2@@0@AEA_K$$QEA_K2AEAU?$vec@$03M$0A@@glm@@@Z ; std::make_shared<Layer,std::basic_string<char,std::char_traits<char>,std::allocator<char> > &,unsigned __int64 &,unsigned __int64,unsigned __int64,glm::vec<4,float,0> &>
PUBLIC	??$?HDU?$char_traits@D@std@@V?$allocator@D@1@@std@@YA?AV?$basic_string@DU?$char_traits@D@std@@V?$allocator@D@2@@0@QEBD$$QEAV10@@Z ; std::operator+<char,std::char_traits<char>,std::allocator<char> >
PUBLIC	??$?HDU?$char_traits@D@std@@V?$allocator@D@1@@std@@YA?AV?$basic_string@DU?$char_traits@D@std@@V?$allocator@D@2@@0@QEBDAEBV10@@Z ; std::operator+<char,std::char_traits<char>,std::allocator<char> >
PUBLIC	??$?0HH@?$vec@$01M$0A@@glm@@QEAA@HH@Z		; glm::vec<2,float,0>::vec<2,float,0><int,int>
PUBLIC	??$_Adl_verify_range@PEADPEAD@std@@YAXAEBQEAD0@Z ; std::_Adl_verify_range<char *,char *>
PUBLIC	??0?$vec@$01M$0A@@glm@@QEAA@MM@Z		; glm::vec<2,float,0>::vec<2,float,0>
PUBLIC	??$end@D$0BF@@std@@YAPEADAEAY0BF@D@Z		; std::end<char,21>
PUBLIC	??$_Integral_to_string@DH@std@@YA?AV?$basic_string@DU?$char_traits@D@std@@V?$allocator@D@2@@0@H@Z ; std::_Integral_to_string<char,int>
PUBLIC	?_Get_first@?$_Compressed_pair@V?$allocator@I@std@@V?$_Vector_val@U?$_Simple_types@I@std@@@2@$00@std@@QEBAAEBV?$allocator@I@2@XZ ; std::_Compressed_pair<std::allocator<unsigned int>,std::_Vector_val<std::_Simple_types<unsigned int> >,1>::_Get_first
PUBLIC	?max_size@?$_Default_allocator_traits@V?$allocator@I@std@@@std@@SA_KAEBV?$allocator@I@2@@Z ; std::_Default_allocator_traits<std::allocator<unsigned int> >::max_size
PUBLIC	?_Getal@?$vector@IV?$allocator@I@std@@@std@@AEBAAEBV?$allocator@I@2@XZ ; std::vector<unsigned int,std::allocator<unsigned int> >::_Getal
PUBLIC	?max_size@?$vector@IV?$allocator@I@std@@@std@@QEBA_KXZ ; std::vector<unsigned int,std::allocator<unsigned int> >::max_size
PUBLIC	?_Get_first@?$_Compressed_pair@V?$allocator@I@std@@V?$_Vector_val@U?$_Simple_types@I@std@@@2@$00@std@@QEAAAEAV?$allocator@I@2@XZ ; std::_Compressed_pair<std::allocator<unsigned int>,std::_Vector_val<std::_Simple_types<unsigned int> >,1>::_Get_first
PUBLIC	?_Compat@?$_Vb_const_iterator@U?$_Wrap_alloc@V?$allocator@I@std@@@std@@@std@@QEBAXAEBV12@@Z ; std::_Vb_const_iterator<std::_Wrap_alloc<std::allocator<unsigned int> > >::_Compat
PUBLIC	?_Xran@?$_String_val@U?$_Simple_types@D@std@@@std@@SAXXZ ; std::_String_val<std::_Simple_types<char> >::_Xran
PUBLIC	?deallocate@?$allocator@I@std@@QEAAXQEAI_K@Z	; std::allocator<unsigned int>::deallocate
PUBLIC	?resize@?$vector@IV?$allocator@I@std@@@std@@QEAAX_KAEBI@Z ; std::vector<unsigned int,std::allocator<unsigned int> >::resize
PUBLIC	?_Getal@?$vector@IV?$allocator@I@std@@@std@@AEAAAEAV?$allocator@I@2@XZ ; std::vector<unsigned int,std::allocator<unsigned int> >::_Getal
PUBLIC	?_Nw@?$_Vb_val@V?$allocator@_N@std@@@std@@SA_K_K@Z ; std::_Vb_val<std::allocator<bool> >::_Nw
PUBLIC	?max_size@?$vector@_NV?$allocator@_N@std@@@std@@QEBA_KXZ ; std::vector<bool,std::allocator<bool> >::max_size
PUBLIC	?empty@?$vector@_NV?$allocator@_N@std@@@std@@QEBA_NXZ ; std::vector<bool,std::allocator<bool> >::empty
PUBLIC	?_Xlen@?$vector@_NV?$allocator@_N@std@@@std@@QEBAXXZ ; std::vector<bool,std::allocator<bool> >::_Xlen
PUBLIC	??0?$_Vb_iter_base@U?$_Wrap_alloc@V?$allocator@I@std@@@std@@@std@@QEAA@PEBI_KPEBU_Container_base0@1@@Z ; std::_Vb_iter_base<std::_Wrap_alloc<std::allocator<unsigned int> > >::_Vb_iter_base<std::_Wrap_alloc<std::allocator<unsigned int> > >
PUBLIC	??Y?$_Vb_const_iterator@U?$_Wrap_alloc@V?$allocator@I@std@@@std@@@std@@QEAAAEAV01@_J@Z ; std::_Vb_const_iterator<std::_Wrap_alloc<std::allocator<unsigned int> > >::operator+=
PUBLIC	??G?$_Vb_const_iterator@U?$_Wrap_alloc@V?$allocator@I@std@@@std@@@std@@QEBA_JAEBV01@@Z ; std::_Vb_const_iterator<std::_Wrap_alloc<std::allocator<unsigned int> > >::operator-
PUBLIC	?_Check_offset@?$_String_val@U?$_Simple_types@D@std@@@std@@QEBAX_K@Z ; std::_String_val<std::_Simple_types<char> >::_Check_offset
PUBLIC	?data@?$vector@IV?$allocator@I@std@@@std@@QEAAPEAIXZ ; std::vector<unsigned int,std::allocator<unsigned int> >::data
PUBLIC	?_Tidy@?$vector@IV?$allocator@I@std@@@std@@AEAAXXZ ; std::vector<unsigned int,std::allocator<unsigned int> >::_Tidy
PUBLIC	?_Insert_x@?$vector@_NV?$allocator@_N@std@@@std@@QEAA_KV?$_Vb_const_iterator@U?$_Wrap_alloc@V?$allocator@I@std@@@std@@@2@_K@Z ; std::vector<bool,std::allocator<bool> >::_Insert_x
PUBLIC	??0?$_Vb_reference@U?$_Wrap_alloc@V?$allocator@I@std@@@std@@@std@@QEAA@AEBV?$_Vb_iter_base@U?$_Wrap_alloc@V?$allocator@I@std@@@std@@@1@@Z ; std::_Vb_reference<std::_Wrap_alloc<std::allocator<unsigned int> > >::_Vb_reference<std::_Wrap_alloc<std::allocator<unsigned int> > >
PUBLIC	?_Verify_offset@?$_Vector_const_iterator@V?$_Vector_val@U?$_Simple_types@V?$shared_ptr@VLayer@@@std@@@std@@@std@@@std@@QEBAX_J@Z ; std::_Vector_const_iterator<std::_Vector_val<std::_Simple_types<std::shared_ptr<Layer> > > >::_Verify_offset
PUBLIC	??0?$_Vb_const_iterator@U?$_Wrap_alloc@V?$allocator@I@std@@@std@@@std@@QEAA@PEBIPEBU_Container_base0@1@@Z ; std::_Vb_const_iterator<std::_Wrap_alloc<std::allocator<unsigned int> > >::_Vb_const_iterator<std::_Wrap_alloc<std::allocator<unsigned int> > >
PUBLIC	??Y?$_Vb_iterator@U?$_Wrap_alloc@V?$allocator@I@std@@@std@@@std@@QEAAAEAV01@_J@Z ; std::_Vb_iterator<std::_Wrap_alloc<std::allocator<unsigned int> > >::operator+=
PUBLIC	?move@?$_Char_traits@DH@std@@SAPEADQEADQEBD_K@Z	; std::_Char_traits<char,int>::move
PUBLIC	?_Memcpy_val_from@?$basic_string@DU?$char_traits@D@std@@V?$allocator@D@2@@std@@AEAAXAEBV12@@Z ; std::basic_string<char,std::char_traits<char>,std::allocator<char> >::_Memcpy_val_from
PUBLIC	?_Swap_proxy_and_iterators@?$basic_string@DU?$char_traits@D@std@@V?$allocator@D@2@@std@@AEAAXAEAV12@@Z ; std::basic_string<char,std::char_traits<char>,std::allocator<char> >::_Swap_proxy_and_iterators
PUBLIC	??0?$vector@IV?$allocator@I@std@@@std@@QEAA@AEBV?$allocator@I@1@@Z ; std::vector<unsigned int,std::allocator<unsigned int> >::vector<unsigned int,std::allocator<unsigned int> >
PUBLIC	??1?$vector@IV?$allocator@I@std@@@std@@QEAA@XZ	; std::vector<unsigned int,std::allocator<unsigned int> >::~vector<unsigned int,std::allocator<unsigned int> >
PUBLIC	??0?$_Vb_iterator@U?$_Wrap_alloc@V?$allocator@I@std@@@std@@@std@@QEAA@PEBIPEBU_Container_base0@1@@Z ; std::_Vb_iterator<std::_Wrap_alloc<std::allocator<unsigned int> > >::_Vb_iterator<std::_Wrap_alloc<std::allocator<unsigned int> > >
PUBLIC	?begin@?$vector@_NV?$allocator@_N@std@@@std@@QEAA?AV?$_Vb_iterator@U?$_Wrap_alloc@V?$allocator@I@std@@@std@@@2@XZ ; std::vector<bool,std::allocator<bool> >::begin
PUBLIC	?_Insert_n@?$vector@_NV?$allocator@_N@std@@@std@@QEAA?AV?$_Vb_iterator@U?$_Wrap_alloc@V?$allocator@I@std@@@std@@@2@V?$_Vb_const_iterator@U?$_Wrap_alloc@V?$allocator@I@std@@@std@@@2@_KAEB_N@Z ; std::vector<bool,std::allocator<bool> >::_Insert_n
PUBLIC	?deallocate@?$allocator@V?$shared_ptr@VLayer@@@std@@@std@@QEAAXQEAV?$shared_ptr@VLayer@@@2@_K@Z ; std::allocator<std::shared_ptr<Layer> >::deallocate
PUBLIC	?_Get_first@?$_Compressed_pair@V?$allocator@V?$shared_ptr@VLayer@@@std@@@std@@V?$_Vector_val@U?$_Simple_types@V?$shared_ptr@VLayer@@@std@@@std@@@2@$00@std@@QEAAAEAV?$allocator@V?$shared_ptr@VLayer@@@std@@@2@XZ ; std::_Compressed_pair<std::allocator<std::shared_ptr<Layer> >,std::_Vector_val<std::_Simple_types<std::shared_ptr<Layer> > >,1>::_Get_first
PUBLIC	?_Advance@?$_Vb_iter_base@U?$_Wrap_alloc@V?$allocator@I@std@@@std@@@std@@QEAAX_K@Z ; std::_Vb_iter_base<std::_Wrap_alloc<std::allocator<unsigned int> > >::_Advance
PUBLIC	??Y?$_Vector_const_iterator@V?$_Vector_val@U?$_Simple_types@V?$shared_ptr@VLayer@@@std@@@std@@@std@@@std@@QEAAAEAV01@_J@Z ; std::_Vector_const_iterator<std::_Vector_val<std::_Simple_types<std::shared_ptr<Layer> > > >::operator+=
PUBLIC	??D?$_Vb_iterator@U?$_Wrap_alloc@V?$allocator@I@std@@@std@@@std@@QEBA?AV?$_Vb_reference@U?$_Wrap_alloc@V?$allocator@I@std@@@std@@@1@XZ ; std::_Vb_iterator<std::_Wrap_alloc<std::allocator<unsigned int> > >::operator*
PUBLIC	??H?$_Vb_iterator@U?$_Wrap_alloc@V?$allocator@I@std@@@std@@@std@@QEBA?AV01@_J@Z ; std::_Vb_iterator<std::_Wrap_alloc<std::allocator<unsigned int> > >::operator+
PUBLIC	??_GCanvasObject@@QEAAPEAXI@Z			; CanvasObject::`scalar deleting destructor'
PUBLIC	??_GShader@@QEAAPEAXI@Z				; Shader::`scalar deleting destructor'
PUBLIC	?__autoclassinit2@?$_Vb_iterator@U?$_Wrap_alloc@V?$allocator@I@std@@@std@@@std@@QEAAX_K@Z ; std::_Vb_iterator<std::_Wrap_alloc<std::allocator<unsigned int> > >::__autoclassinit2
PUBLIC	?length@?$_Narrow_char_traits@DH@std@@SA_KQEBD@Z ; std::_Narrow_char_traits<char,int>::length
PUBLIC	?_Take_contents@?$basic_string@DU?$char_traits@D@std@@V?$allocator@D@2@@std@@AEAAXAEAV12@@Z ; std::basic_string<char,std::char_traits<char>,std::allocator<char> >::_Take_contents
PUBLIC	??R<lambda_1>@?1??append@?$basic_string@DU?$char_traits@D@std@@V?$allocator@D@2@@std@@QEAAAEAV23@QEBD_K@Z@QEBA@QEAD0101@Z ; `std::basic_string<char,std::char_traits<char>,std::allocator<char> >::append'::`2'::<lambda_1>::operator()
PUBLIC	?append@?$basic_string@DU?$char_traits@D@std@@V?$allocator@D@2@@std@@QEAAAEAV12@QEBD_K@Z ; std::basic_string<char,std::char_traits<char>,std::allocator<char> >::append
PUBLIC	?size@?$basic_string@DU?$char_traits@D@std@@V?$allocator@D@2@@std@@QEBA_KXZ ; std::basic_string<char,std::char_traits<char>,std::allocator<char> >::size
PUBLIC	?_Tidy_init@?$basic_string@DU?$char_traits@D@std@@V?$allocator@D@2@@std@@AEAAXXZ ; std::basic_string<char,std::char_traits<char>,std::allocator<char> >::_Tidy_init
PUBLIC	??R?$default_delete@VCanvasObject@@@std@@QEBAXPEAVCanvasObject@@@Z ; std::default_delete<CanvasObject>::operator()
PUBLIC	?_Get_first@?$_Compressed_pair@U?$default_delete@VCanvasObject@@@std@@PEAVCanvasObject@@$00@std@@QEAAAEAU?$default_delete@VCanvasObject@@@2@XZ ; std::_Compressed_pair<std::default_delete<CanvasObject>,CanvasObject *,1>::_Get_first
PUBLIC	??R?$default_delete@VShader@@@std@@QEBAXPEAVShader@@@Z ; std::default_delete<Shader>::operator()
PUBLIC	?_Get_first@?$_Compressed_pair@U?$default_delete@VShader@@@std@@PEAVShader@@$00@std@@QEAAAEAU?$default_delete@VShader@@@2@XZ ; std::_Compressed_pair<std::default_delete<Shader>,Shader *,1>::_Get_first
PUBLIC	??0?$allocator@_N@std@@QEAA@XZ			; std::allocator<bool>::allocator<bool>
PUBLIC	??0?$_Vb_val@V?$allocator@_N@std@@@std@@QEAA@AEBV?$allocator@_N@1@@Z ; std::_Vb_val<std::allocator<bool> >::_Vb_val<std::allocator<bool> >
PUBLIC	??1?$_Vb_val@V?$allocator@_N@std@@@std@@QEAA@XZ	; std::_Vb_val<std::allocator<bool> >::~_Vb_val<std::allocator<bool> >
PUBLIC	?end@?$vector@_NV?$allocator@_N@std@@@std@@QEAA?AV?$_Vb_iterator@U?$_Wrap_alloc@V?$allocator@I@std@@@std@@@2@XZ ; std::vector<bool,std::allocator<bool> >::end
PUBLIC	?size@?$vector@_NV?$allocator@_N@std@@@std@@QEBA_KXZ ; std::vector<bool,std::allocator<bool> >::size
PUBLIC	??A?$vector@_NV?$allocator@_N@std@@@std@@QEAA?AV?$_Vb_reference@U?$_Wrap_alloc@V?$allocator@I@std@@@std@@@1@_K@Z ; std::vector<bool,std::allocator<bool> >::operator[]
PUBLIC	?insert@?$vector@_NV?$allocator@_N@std@@@std@@QEAA?AV?$_Vb_iterator@U?$_Wrap_alloc@V?$allocator@I@std@@@std@@@2@V?$_Vb_const_iterator@U?$_Wrap_alloc@V?$allocator@I@std@@@std@@@2@AEB_N@Z ; std::vector<bool,std::allocator<bool> >::insert
PUBLIC	?_Xran@?$vector@_NV?$allocator@_N@std@@@std@@QEBAXXZ ; std::vector<bool,std::allocator<bool> >::_Xran
PUBLIC	?_Tidy@?$vector@V?$shared_ptr@VLayer@@@std@@V?$allocator@V?$shared_ptr@VLayer@@@std@@@2@@std@@AEAAXXZ ; std::vector<std::shared_ptr<Layer>,std::allocator<std::shared_ptr<Layer> > >::_Tidy
PUBLIC	?_Xrange@?$vector@V?$shared_ptr@VLayer@@@std@@V?$allocator@V?$shared_ptr@VLayer@@@std@@@2@@std@@CAXXZ ; std::vector<std::shared_ptr<Layer>,std::allocator<std::shared_ptr<Layer> > >::_Xrange
PUBLIC	?_Orphan_range@?$vector@V?$shared_ptr@VLayer@@@std@@V?$allocator@V?$shared_ptr@VLayer@@@std@@@2@@std@@AEBAXPEAV?$shared_ptr@VLayer@@@2@0@Z ; std::vector<std::shared_ptr<Layer>,std::allocator<std::shared_ptr<Layer> > >::_Orphan_range
PUBLIC	?_Getal@?$vector@V?$shared_ptr@VLayer@@@std@@V?$allocator@V?$shared_ptr@VLayer@@@std@@@2@@std@@AEAAAEAV?$allocator@V?$shared_ptr@VLayer@@@std@@@2@XZ ; std::vector<std::shared_ptr<Layer>,std::allocator<std::shared_ptr<Layer> > >::_Getal
PUBLIC	?_Decref@?$_Ptr_base@VLayer@@@std@@IEAAXXZ	; std::_Ptr_base<Layer>::_Decref
PUBLIC	?_Getptr@?$_Vb_reference@U?$_Wrap_alloc@V?$allocator@I@std@@@std@@@std@@QEBAPEBIXZ ; std::_Vb_reference<std::_Wrap_alloc<std::allocator<unsigned int> > >::_Getptr
PUBLIC	?_Mask@?$_Vb_reference@U?$_Wrap_alloc@V?$allocator@I@std@@@std@@@std@@IEBAIXZ ; std::_Vb_reference<std::_Wrap_alloc<std::allocator<unsigned int> > >::_Mask
PUBLIC	??0?$_Vector_const_iterator@V?$_Vector_val@U?$_Simple_types@V?$shared_ptr@VLayer@@@std@@@std@@@std@@@std@@QEAA@PEAV?$shared_ptr@VLayer@@@1@PEBU_Container_base0@1@@Z ; std::_Vector_const_iterator<std::_Vector_val<std::_Simple_types<std::shared_ptr<Layer> > > >::_Vector_const_iterator<std::_Vector_val<std::_Simple_types<std::shared_ptr<Layer> > > >
PUBLIC	??Y?$_Vector_iterator@V?$_Vector_val@U?$_Simple_types@V?$shared_ptr@VLayer@@@std@@@std@@@std@@@std@@QEAAAEAV01@_J@Z ; std::_Vector_iterator<std::_Vector_val<std::_Simple_types<std::shared_ptr<Layer> > > >::operator+=
PUBLIC	??0?$_Ptr_base@VLayer@@@std@@IEAA@XZ		; std::_Ptr_base<Layer>::_Ptr_base<Layer>
PUBLIC	?__autoclassinit2@?$_Vector_iterator@V?$_Vector_val@U?$_Simple_types@V?$shared_ptr@VLayer@@@std@@@std@@@std@@@std@@QEAAX_K@Z ; std::_Vector_iterator<std::_Vector_val<std::_Simple_types<std::shared_ptr<Layer> > > >::__autoclassinit2
PUBLIC	??0?$basic_string@DU?$char_traits@D@std@@V?$allocator@D@2@@std@@QEAA@$$QEAV01@@Z ; std::basic_string<char,std::char_traits<char>,std::allocator<char> >::basic_string<char,std::char_traits<char>,std::allocator<char> >
PUBLIC	??Y?$basic_string@DU?$char_traits@D@std@@V?$allocator@D@2@@std@@QEAAAEAV01@QEBD@Z ; std::basic_string<char,std::char_traits<char>,std::allocator<char> >::operator+=
PUBLIC	?append@?$basic_string@DU?$char_traits@D@std@@V?$allocator@D@2@@std@@QEAAAEAV12@QEBD@Z ; std::basic_string<char,std::char_traits<char>,std::allocator<char> >::append
PUBLIC	?c_str@?$basic_string@DU?$char_traits@D@std@@V?$allocator@D@2@@std@@QEBAPEBDXZ ; std::basic_string<char,std::char_traits<char>,std::allocator<char> >::c_str
PUBLIC	?_Myptr@?$_String_val@U?$_Simple_types@D@std@@@std@@QEAAPEADXZ ; std::_String_val<std::_Simple_types<char> >::_Myptr
PUBLIC	??1?$unique_ptr@VCanvasObject@@U?$default_delete@VCanvasObject@@@std@@@std@@QEAA@XZ ; std::unique_ptr<CanvasObject,std::default_delete<CanvasObject> >::~unique_ptr<CanvasObject,std::default_delete<CanvasObject> >
PUBLIC	??1?$unique_ptr@VShader@@U?$default_delete@VShader@@@std@@@std@@QEAA@XZ ; std::unique_ptr<Shader,std::default_delete<Shader> >::~unique_ptr<Shader,std::default_delete<Shader> >
PUBLIC	??0?$vector@_NV?$allocator@_N@std@@@std@@QEAA@XZ ; std::vector<bool,std::allocator<bool> >::vector<bool,std::allocator<bool> >
PUBLIC	??1?$vector@_NV?$allocator@_N@std@@@std@@QEAA@XZ ; std::vector<bool,std::allocator<bool> >::~vector<bool,std::allocator<bool> >
PUBLIC	?at@?$vector@_NV?$allocator@_N@std@@@std@@QEAA?AV?$_Vb_reference@U?$_Wrap_alloc@V?$allocator@I@std@@@std@@@2@_K@Z ; std::vector<bool,std::allocator<bool> >::at
PUBLIC	?push_back@?$vector@_NV?$allocator@_N@std@@@std@@QEAAXAEB_N@Z ; std::vector<bool,std::allocator<bool> >::push_back
PUBLIC	??0?$vector@V?$shared_ptr@VLayer@@@std@@V?$allocator@V?$shared_ptr@VLayer@@@std@@@2@@std@@QEAA@XZ ; std::vector<std::shared_ptr<Layer>,std::allocator<std::shared_ptr<Layer> > >::vector<std::shared_ptr<Layer>,std::allocator<std::shared_ptr<Layer> > >
PUBLIC	??1?$vector@V?$shared_ptr@VLayer@@@std@@V?$allocator@V?$shared_ptr@VLayer@@@std@@@2@@std@@QEAA@XZ ; std::vector<std::shared_ptr<Layer>,std::allocator<std::shared_ptr<Layer> > >::~vector<std::shared_ptr<Layer>,std::allocator<std::shared_ptr<Layer> > >
PUBLIC	?push_back@?$vector@V?$shared_ptr@VLayer@@@std@@V?$allocator@V?$shared_ptr@VLayer@@@std@@@2@@std@@QEAAX$$QEAV?$shared_ptr@VLayer@@@2@@Z ; std::vector<std::shared_ptr<Layer>,std::allocator<std::shared_ptr<Layer> > >::push_back
PUBLIC	?insert@?$vector@V?$shared_ptr@VLayer@@@std@@V?$allocator@V?$shared_ptr@VLayer@@@std@@@2@@std@@QEAA?AV?$_Vector_iterator@V?$_Vector_val@U?$_Simple_types@V?$shared_ptr@VLayer@@@std@@@std@@@std@@@2@V?$_Vector_const_iterator@V?$_Vector_val@U?$_Simple_types@V?$shared_ptr@VLayer@@@std@@@std@@@std@@@2@AEBV?$shared_ptr@VLayer@@@2@@Z ; std::vector<std::shared_ptr<Layer>,std::allocator<std::shared_ptr<Layer> > >::insert
PUBLIC	?erase@?$vector@V?$shared_ptr@VLayer@@@std@@V?$allocator@V?$shared_ptr@VLayer@@@std@@@2@@std@@QEAA?AV?$_Vector_iterator@V?$_Vector_val@U?$_Simple_types@V?$shared_ptr@VLayer@@@std@@@std@@@std@@@2@V?$_Vector_const_iterator@V?$_Vector_val@U?$_Simple_types@V?$shared_ptr@VLayer@@@std@@@std@@@std@@@2@@Z ; std::vector<std::shared_ptr<Layer>,std::allocator<std::shared_ptr<Layer> > >::erase
PUBLIC	??0?$_Vector_iterator@V?$_Vector_val@U?$_Simple_types@V?$shared_ptr@VLayer@@@std@@@std@@@std@@@std@@QEAA@PEAV?$shared_ptr@VLayer@@@1@PEBU_Container_base0@1@@Z ; std::_Vector_iterator<std::_Vector_val<std::_Simple_types<std::shared_ptr<Layer> > > >::_Vector_iterator<std::_Vector_val<std::_Simple_types<std::shared_ptr<Layer> > > >
PUBLIC	?begin@?$vector@V?$shared_ptr@VLayer@@@std@@V?$allocator@V?$shared_ptr@VLayer@@@std@@@2@@std@@QEAA?AV?$_Vector_iterator@V?$_Vector_val@U?$_Simple_types@V?$shared_ptr@VLayer@@@std@@@std@@@std@@@2@XZ ; std::vector<std::shared_ptr<Layer>,std::allocator<std::shared_ptr<Layer> > >::begin
PUBLIC	?size@?$vector@V?$shared_ptr@VLayer@@@std@@V?$allocator@V?$shared_ptr@VLayer@@@std@@@2@@std@@QEBA_KXZ ; std::vector<std::shared_ptr<Layer>,std::allocator<std::shared_ptr<Layer> > >::size
PUBLIC	??A?$vector@V?$shared_ptr@VLayer@@@std@@V?$allocator@V?$shared_ptr@VLayer@@@std@@@2@@std@@QEAAAEAV?$shared_ptr@VLayer@@@1@_K@Z ; std::vector<std::shared_ptr<Layer>,std::allocator<std::shared_ptr<Layer> > >::operator[]
PUBLIC	?at@?$vector@V?$shared_ptr@VLayer@@@std@@V?$allocator@V?$shared_ptr@VLayer@@@std@@@2@@std@@QEAAAEAV?$shared_ptr@VLayer@@@2@_K@Z ; std::vector<std::shared_ptr<Layer>,std::allocator<std::shared_ptr<Layer> > >::at
PUBLIC	??0?$shared_ptr@VLayer@@@std@@QEAA@AEBV01@@Z	; std::shared_ptr<Layer>::shared_ptr<Layer>
PUBLIC	??1?$shared_ptr@VLayer@@@std@@QEAA@XZ		; std::shared_ptr<Layer>::~shared_ptr<Layer>
PUBLIC	??4?$_Vb_reference@U?$_Wrap_alloc@V?$allocator@I@std@@@std@@@std@@QEAAAEAV01@_N@Z ; std::_Vb_reference<std::_Wrap_alloc<std::allocator<unsigned int> > >::operator=
PUBLIC	??B?$_Vb_reference@U?$_Wrap_alloc@V?$allocator@I@std@@@std@@@std@@QEBA_NXZ ; std::_Vb_reference<std::_Wrap_alloc<std::allocator<unsigned int> > >::operator bool
PUBLIC	??H?$_Vector_iterator@V?$_Vector_val@U?$_Simple_types@V?$shared_ptr@VLayer@@@std@@@std@@@std@@@std@@QEBA?AV01@_J@Z ; std::_Vector_iterator<std::_Vector_val<std::_Simple_types<std::shared_ptr<Layer> > > >::operator+
PUBLIC	?DrawLayersWindow@LayerManager@@QEAAXXZ		; LayerManager::DrawLayersWindow
PUBLIC	?DrawLayer@LayerManager@@AEAAXH_NM@Z		; LayerManager::DrawLayer
PUBLIC	?NextLayerDraggable@LayerManager@@AEAAXH@Z	; LayerManager::NextLayerDraggable
PUBLIC	?GetActiveLayer@LayerManager@@QEAA?AV?$shared_ptr@VLayer@@@std@@XZ ; LayerManager::GetActiveLayer
PUBLIC	?UnbindActiveLayer@LayerManager@@QEAAXXZ	; LayerManager::UnbindActiveLayer
PUBLIC	?BindActiveLayer@LayerManager@@QEAAXXZ		; LayerManager::BindActiveLayer
PUBLIC	?__autoclassinit2@?$shared_ptr@VLayer@@@std@@QEAAX_K@Z ; std::shared_ptr<Layer>::__autoclassinit2
PUBLIC	?AddLayer@LayerManager@@QEAA_KV?$basic_string@DU?$char_traits@D@std@@V?$allocator@D@2@@std@@U?$vec@$03M$0A@@glm@@@Z ; LayerManager::AddLayer
PUBLIC	?AddLayer@LayerManager@@QEAA_KV?$basic_string@DU?$char_traits@D@std@@V?$allocator@D@2@@std@@@Z ; LayerManager::AddLayer
PUBLIC	?AddLayer@LayerManager@@QEAA_KXZ		; LayerManager::AddLayer
PUBLIC	?SetActiveLayer@LayerManager@@QEAAX_K@Z		; LayerManager::SetActiveLayer
PUBLIC	??1LayerManager@@QEAA@XZ			; LayerManager::~LayerManager
PUBLIC	??0LayerManager@@QEAA@AEAU?$vec@$01M$0A@@glm@@@Z ; LayerManager::LayerManager
PUBLIC	??$?0HHHH@?$vec@$03M$0A@@glm@@QEAA@HHHH@Z	; glm::vec<4,float,0>::vec<4,float,0><int,int,int,int>
PUBLIC	??_H@YAXPEAX_K1P6APEAX0@Z@Z			; `vector constructor iterator'
PUBLIC	??0ImGuiWindowClass@@QEAA@XZ			; ImGuiWindowClass::ImGuiWindowClass
PUBLIC	??0ImVec4@@QEAA@MMMM@Z				; ImVec4::ImVec4
PUBLIC	??0ImVec2@@QEAA@MM@Z				; ImVec2::ImVec2
PUBLIC	?to_string@std@@YA?AV?$basic_string@DU?$char_traits@D@std@@V?$allocator@D@2@@1@H@Z ; std::to_string
PUBLIC	??0_Ref_count_base@std@@IEAA@XZ			; std::_Ref_count_base::_Ref_count_base
PUBLIC	?_Get_deleter@_Ref_count_base@std@@UEBAPEAXAEBVtype_info@@@Z ; std::_Ref_count_base::_Get_deleter
PUBLIC	?_Decwref@_Ref_count_base@std@@QEAAXXZ		; std::_Ref_count_base::_Decwref
PUBLIC	?_Decref@_Ref_count_base@std@@QEAAXXZ		; std::_Ref_count_base::_Decref
PUBLIC	?_Incref@_Ref_count_base@std@@QEAAXXZ		; std::_Ref_count_base::_Incref
PUBLIC	??1_Ref_count_base@std@@UEAA@XZ			; std::_Ref_count_base::~_Ref_count_base
PUBLIC	?_Getcont@_Iterator_base0@std@@QEBAPEBU_Container_base0@2@XZ ; std::_Iterator_base0::_Getcont
PUBLIC	?_Adopt@_Iterator_base0@std@@QEAAXPEBX@Z	; std::_Iterator_base0::_Adopt
PUBLIC	?_Alloc_proxy@_Container_base0@std@@QEAAXAEBU_Fake_allocator@2@@Z ; std::_Container_base0::_Alloc_proxy
PUBLIC	?_Swap_proxy_and_iterators@_Container_base0@std@@QEAAXAEAU12@@Z ; std::_Container_base0::_Swap_proxy_and_iterators
PUBLIC	?m_CanvasObject@Primitive@@2V?$unique_ptr@VCanvasObject@@U?$default_delete@VCanvasObject@@@std@@@std@@A ; Primitive::m_CanvasObject
PUBLIC	?m_BackgroundShader@Primitive@@2V?$unique_ptr@VShader@@U?$default_delete@VShader@@@std@@@std@@A ; Primitive::m_BackgroundShader
PUBLIC	?m_CanvasShader@Primitive@@2V?$unique_ptr@VShader@@U?$default_delete@VShader@@@std@@@std@@A ; Primitive::m_CanvasShader
PUBLIC	?m_BrushObject@Primitive@@2V?$unique_ptr@VCanvasObject@@U?$default_delete@VCanvasObject@@@std@@@std@@A ; Primitive::m_BrushObject
EXTRN	??_E?$_Ref_count_obj2@VLayer@@@std@@UEAAPEAXI@Z:PROC ; std::_Ref_count_obj2<Layer>::`vector deleting destructor'
;	COMDAT pdata
pdata	SEGMENT
$pdata$??$_Copy_memmove@PEAIPEAI@std@@YAPEAIPEAI00@Z DD imagerel $LN4@Copy_memmo
	DD	imagerel $LN4@Copy_memmo+48
	DD	imagerel $unwind$??$_Copy_memmove@PEAIPEAI@std@@YAPEAIPEAI00@Z
pdata	ENDS
;	COMDAT pdata
pdata	SEGMENT
$pdata$??$construct_at@VLayer@@AEAV?$basic_string@DU?$char_traits@D@std@@V?$allocator@D@2@@std@@AEA_K_K_KAEAU?$vec@$03M$0A@@glm@@$0A@@std@@YAPEAVLayer@@QEAV1@AEAV?$basic_string@DU?$char_traits@D@std@@V?$allocator@D@2@@0@AEA_K$$QEA_K3AEAU?$vec@$03M$0A@@glm@@@Z DD imagerel $LN6@construct_
	DD	imagerel $LN6@construct_+113
	DD	imagerel $unwind$??$construct_at@VLayer@@AEAV?$basic_string@DU?$char_traits@D@std@@V?$allocator@D@2@@std@@AEA_K_K_KAEAU?$vec@$03M$0A@@glm@@$0A@@std@@YAPEAVLayer@@QEAV1@AEAV?$basic_string@DU?$char_traits@D@std@@V?$allocator@D@2@@0@AEA_K$$QEA_K3AEAU?$vec@$03M$0A@@glm@@@Z
pdata	ENDS
;	COMDAT pdata
pdata	SEGMENT
$pdata$??$_Get_size_of_n@$0BA@@std@@YA_K_K@Z DD imagerel $LN7@Get_size_o
	DD	imagerel $LN7@Get_size_o+37
	DD	imagerel $unwind$??$_Get_size_of_n@$0BA@@std@@YA_K_K@Z
pdata	ENDS
;	COMDAT pdata
pdata	SEGMENT
$pdata$??$_Uninitialized_move@PEAIV?$allocator@I@std@@@std@@YAPEAIQEAI0PEAIAEAV?$allocator@I@0@@Z DD imagerel $LN23@Uninitiali
	DD	imagerel $LN23@Uninitiali+52
	DD	imagerel $unwind$??$_Uninitialized_move@PEAIV?$allocator@I@std@@@std@@YAPEAIQEAI0PEAIAEAV?$allocator@I@0@@Z
pdata	ENDS
;	COMDAT pdata
pdata	SEGMENT
$pdata$??$_Uninitialized_move@PEAV?$shared_ptr@VLayer@@@std@@V?$allocator@V?$shared_ptr@VLayer@@@std@@@2@@std@@YAPEAV?$shared_ptr@VLayer@@@0@QEAV10@0PEAV10@AEAV?$allocator@V?$shared_ptr@VLayer@@@std@@@0@@Z DD imagerel $LN41@Uninitiali
	DD	imagerel $LN41@Uninitiali+97
	DD	imagerel $unwind$??$_Uninitialized_move@PEAV?$shared_ptr@VLayer@@@std@@V?$allocator@V?$shared_ptr@VLayer@@@std@@@2@@std@@YAPEAV?$shared_ptr@VLayer@@@0@QEAV10@0PEAV10@AEAV?$allocator@V?$shared_ptr@VLayer@@@std@@@0@@Z
pdata	ENDS
;	COMDAT pdata
pdata	SEGMENT
$pdata$??$_Construct_in_place@VLayer@@AEAV?$basic_string@DU?$char_traits@D@std@@V?$allocator@D@2@@std@@AEA_K_K_KAEAU?$vec@$03M$0A@@glm@@@std@@YAXAEAVLayer@@AEAV?$basic_string@DU?$char_traits@D@std@@V?$allocator@D@2@@0@AEA_K$$QEA_K3AEAU?$vec@$03M$0A@@glm@@@Z DD imagerel $LN11@Construct_
	DD	imagerel $LN11@Construct_+113
	DD	imagerel $unwind$??$_Construct_in_place@VLayer@@AEAV?$basic_string@DU?$char_traits@D@std@@V?$allocator@D@2@@std@@AEA_K_K_KAEAU?$vec@$03M$0A@@glm@@@std@@YAXAEAVLayer@@AEAV?$basic_string@DU?$char_traits@D@std@@V?$allocator@D@2@@0@AEA_K$$QEA_K3AEAU?$vec@$03M$0A@@glm@@@Z
pdata	ENDS
;	COMDAT pdata
pdata	SEGMENT
$pdata$??$_Construct@$00PEAD@?$basic_string@DU?$char_traits@D@std@@V?$allocator@D@2@@std@@AEAAXQEAD_K@Z DD imagerel $LN75@Construct
	DD	imagerel $LN75@Construct+105
	DD	imagerel $unwind$??$_Construct@$00PEAD@?$basic_string@DU?$char_traits@D@std@@V?$allocator@D@2@@std@@AEAAXQEAD_K@Z
pdata	ENDS
;	COMDAT pdata
pdata	SEGMENT
$pdata$0$??$_Construct@$00PEAD@?$basic_string@DU?$char_traits@D@std@@V?$allocator@D@2@@std@@AEAAXQEAD_K@Z DD imagerel $LN75@Construct+105
	DD	imagerel $LN75@Construct+238
	DD	imagerel $chain$0$??$_Construct@$00PEAD@?$basic_string@DU?$char_traits@D@std@@V?$allocator@D@2@@std@@AEAAXQEAD_K@Z
pdata	ENDS
;	COMDAT pdata
pdata	SEGMENT
$pdata$2$??$_Construct@$00PEAD@?$basic_string@DU?$char_traits@D@std@@V?$allocator@D@2@@std@@AEAAXQEAD_K@Z DD imagerel $LN75@Construct+238
	DD	imagerel $LN75@Construct+244
	DD	imagerel $chain$2$??$_Construct@$00PEAD@?$basic_string@DU?$char_traits@D@std@@V?$allocator@D@2@@std@@AEAAXQEAD_K@Z
pdata	ENDS
;	COMDAT pdata
pdata	SEGMENT
$pdata$3$??$_Construct@$00PEAD@?$basic_string@DU?$char_traits@D@std@@V?$allocator@D@2@@std@@AEAAXQEAD_K@Z DD imagerel $LN75@Construct+244
	DD	imagerel $LN75@Construct+250
	DD	imagerel $chain$3$??$_Construct@$00PEAD@?$basic_string@DU?$char_traits@D@std@@V?$allocator@D@2@@std@@AEAAXQEAD_K@Z
pdata	ENDS
;	COMDAT pdata
pdata	SEGMENT
$pdata$?allocate@?$allocator@I@std@@QEAAPEAI_K@Z DD imagerel $LN32@allocate
	DD	imagerel $LN32@allocate+112
	DD	imagerel $unwind$?allocate@?$allocator@I@std@@QEAAPEAI_K@Z
pdata	ENDS
;	COMDAT pdata
pdata	SEGMENT
$pdata$?_Change_array@?$vector@IV?$allocator@I@std@@@std@@AEAAXQEAI_K1@Z DD imagerel $LN30@Change_arr
	DD	imagerel $LN30@Change_arr+136
	DD	imagerel $unwind$?_Change_array@?$vector@IV?$allocator@I@std@@@std@@AEAAXQEAI_K1@Z
pdata	ENDS
;	COMDAT pdata
pdata	SEGMENT
$pdata$?_Xlength@?$vector@IV?$allocator@I@std@@@std@@CAXXZ DD imagerel $LN4@Xlength
	DD	imagerel $LN4@Xlength+18
	DD	imagerel $unwind$?_Xlength@?$vector@IV?$allocator@I@std@@@std@@CAXXZ
pdata	ENDS
;	COMDAT pdata
pdata	SEGMENT
$pdata$?allocate@?$allocator@V?$shared_ptr@VLayer@@@std@@@std@@QEAAPEAV?$shared_ptr@VLayer@@@2@_K@Z DD imagerel $LN32@allocate
	DD	imagerel $LN32@allocate+108
	DD	imagerel $unwind$?allocate@?$allocator@V?$shared_ptr@VLayer@@@std@@@std@@QEAAPEAV?$shared_ptr@VLayer@@@2@_K@Z
pdata	ENDS
;	COMDAT pdata
pdata	SEGMENT
$pdata$?_Change_array@?$vector@V?$shared_ptr@VLayer@@@std@@V?$allocator@V?$shared_ptr@VLayer@@@std@@@2@@std@@AEAAXQEAV?$shared_ptr@VLayer@@@2@_K1@Z DD imagerel $LN30@Change_arr
	DD	imagerel $LN30@Change_arr+154
	DD	imagerel $unwind$?_Change_array@?$vector@V?$shared_ptr@VLayer@@@std@@V?$allocator@V?$shared_ptr@VLayer@@@std@@@2@@std@@AEAAXQEAV?$shared_ptr@VLayer@@@2@_K1@Z
pdata	ENDS
;	COMDAT pdata
pdata	SEGMENT
$pdata$?_Xlength@?$vector@V?$shared_ptr@VLayer@@@std@@V?$allocator@V?$shared_ptr@VLayer@@@std@@@2@@std@@CAXXZ DD imagerel $LN4@Xlength
	DD	imagerel $LN4@Xlength+18
	DD	imagerel $unwind$?_Xlength@?$vector@V?$shared_ptr@VLayer@@@std@@V?$allocator@V?$shared_ptr@VLayer@@@std@@@2@@std@@CAXXZ
pdata	ENDS
;	COMDAT pdata
pdata	SEGMENT
$pdata$??4?$_Vb_reference@U?$_Wrap_alloc@V?$allocator@I@std@@@std@@@std@@QEAAAEAV01@AEBV01@@Z DD imagerel $LN19@operator
	DD	imagerel $LN19@operator+67
	DD	imagerel $unwind$??4?$_Vb_reference@U?$_Wrap_alloc@V?$allocator@I@std@@@std@@@std@@QEAAAEAV01@AEBV01@@Z
pdata	ENDS
;	COMDAT pdata
pdata	SEGMENT
$pdata$??_GLayer@@QEAAPEAXI@Z DD imagerel $LN44@scalar
	DD	imagerel $LN44@scalar+100
	DD	imagerel $unwind$??_GLayer@@QEAAPEAXI@Z
pdata	ENDS
;	COMDAT pdata
pdata	SEGMENT
$pdata$??_G?$shared_ptr@VLayer@@@std@@QEAAPEAXI@Z DD imagerel $LN24@scalar
	DD	imagerel $LN24@scalar+22
	DD	imagerel $unwind$??_G?$shared_ptr@VLayer@@@std@@QEAAPEAXI@Z
pdata	ENDS
;	COMDAT pdata
pdata	SEGMENT
$pdata$0$??_G?$shared_ptr@VLayer@@@std@@QEAAPEAXI@Z DD imagerel $LN24@scalar+22
	DD	imagerel $LN24@scalar+90
	DD	imagerel $chain$0$??_G?$shared_ptr@VLayer@@@std@@QEAAPEAXI@Z
pdata	ENDS
;	COMDAT pdata
pdata	SEGMENT
$pdata$1$??_G?$shared_ptr@VLayer@@@std@@QEAAPEAXI@Z DD imagerel $LN24@scalar+90
	DD	imagerel $LN24@scalar+104
	DD	imagerel $chain$1$??_G?$shared_ptr@VLayer@@@std@@QEAAPEAXI@Z
pdata	ENDS
;	COMDAT pdata
pdata	SEGMENT
$pdata$??$_Reallocate_grow_by@V<lambda_1>@?1??insert@?$basic_string@DU?$char_traits@D@std@@V?$allocator@D@2@@std@@QEAAAEAV34@_KQEBD0@Z@_KPEBD_K@?$basic_string@DU?$char_traits@D@std@@V?$allocator@D@2@@std@@AEAAAEAV01@_KV<lambda_1>@?1??insert@01@QEAAAEAV01@0QEBD0@Z@_KPEBD3@Z DD imagerel $LN148@Reallocate
	DD	imagerel $LN148@Reallocate+61
	DD	imagerel $unwind$??$_Reallocate_grow_by@V<lambda_1>@?1??insert@?$basic_string@DU?$char_traits@D@std@@V?$allocator@D@2@@std@@QEAAAEAV34@_KQEBD0@Z@_KPEBD_K@?$basic_string@DU?$char_traits@D@std@@V?$allocator@D@2@@std@@AEAAAEAV01@_KV<lambda_1>@?1??insert@01@QEAAAEAV01@0QEBD0@Z@_KPEBD3@Z
pdata	ENDS
;	COMDAT pdata
pdata	SEGMENT
$pdata$2$??$_Reallocate_grow_by@V<lambda_1>@?1??insert@?$basic_string@DU?$char_traits@D@std@@V?$allocator@D@2@@std@@QEAAAEAV34@_KQEBD0@Z@_KPEBD_K@?$basic_string@DU?$char_traits@D@std@@V?$allocator@D@2@@std@@AEAAAEAV01@_KV<lambda_1>@?1??insert@01@QEAAAEAV01@0QEBD0@Z@_KPEBD3@Z DD imagerel $LN148@Reallocate+61
	DD	imagerel $LN148@Reallocate+373
	DD	imagerel $chain$2$??$_Reallocate_grow_by@V<lambda_1>@?1??insert@?$basic_string@DU?$char_traits@D@std@@V?$allocator@D@2@@std@@QEAAAEAV34@_KQEBD0@Z@_KPEBD_K@?$basic_string@DU?$char_traits@D@std@@V?$allocator@D@2@@std@@AEAAAEAV01@_KV<lambda_1>@?1??insert@01@QEAAAEAV01@0QEBD0@Z@_KPEBD3@Z
pdata	ENDS
;	COMDAT pdata
pdata	SEGMENT
$pdata$4$??$_Reallocate_grow_by@V<lambda_1>@?1??insert@?$basic_string@DU?$char_traits@D@std@@V?$allocator@D@2@@std@@QEAAAEAV34@_KQEBD0@Z@_KPEBD_K@?$basic_string@DU?$char_traits@D@std@@V?$allocator@D@2@@std@@AEAAAEAV01@_KV<lambda_1>@?1??insert@01@QEAAAEAV01@0QEBD0@Z@_KPEBD3@Z DD imagerel $LN148@Reallocate+373
	DD	imagerel $LN148@Reallocate+379
	DD	imagerel $chain$4$??$_Reallocate_grow_by@V<lambda_1>@?1??insert@?$basic_string@DU?$char_traits@D@std@@V?$allocator@D@2@@std@@QEAAAEAV34@_KQEBD0@Z@_KPEBD_K@?$basic_string@DU?$char_traits@D@std@@V?$allocator@D@2@@std@@AEAAAEAV01@_KV<lambda_1>@?1??insert@01@QEAAAEAV01@0QEBD0@Z@_KPEBD3@Z
pdata	ENDS
;	COMDAT pdata
pdata	SEGMENT
$pdata$5$??$_Reallocate_grow_by@V<lambda_1>@?1??insert@?$basic_string@DU?$char_traits@D@std@@V?$allocator@D@2@@std@@QEAAAEAV34@_KQEBD0@Z@_KPEBD_K@?$basic_string@DU?$char_traits@D@std@@V?$allocator@D@2@@std@@AEAAAEAV01@_KV<lambda_1>@?1??insert@01@QEAAAEAV01@0QEBD0@Z@_KPEBD3@Z DD imagerel $LN148@Reallocate+379
	DD	imagerel $LN148@Reallocate+385
	DD	imagerel $chain$5$??$_Reallocate_grow_by@V<lambda_1>@?1??insert@?$basic_string@DU?$char_traits@D@std@@V?$allocator@D@2@@std@@QEAAAEAV34@_KQEBD0@Z@_KPEBD_K@?$basic_string@DU?$char_traits@D@std@@V?$allocator@D@2@@std@@AEAAAEAV01@_KV<lambda_1>@?1??insert@01@QEAAAEAV01@0QEBD0@Z@_KPEBD3@Z
pdata	ENDS
;	COMDAT pdata
pdata	SEGMENT
$pdata$??$_Get_size_of_n@$03@std@@YA_K_K@Z DD imagerel $LN7@Get_size_o
	DD	imagerel $LN7@Get_size_o+38
	DD	imagerel $unwind$??$_Get_size_of_n@$03@std@@YA_K_K@Z
pdata	ENDS
;	COMDAT pdata
pdata	SEGMENT
$pdata$??$_Destroy_in_place@VLayer@@@std@@YAXAEAVLayer@@@Z DD imagerel $LN47@Destroy_in
	DD	imagerel $LN47@Destroy_in+97
	DD	imagerel $unwind$??$_Destroy_in_place@VLayer@@@std@@YAXAEAVLayer@@@Z
pdata	ENDS
;	COMDAT pdata
pdata	SEGMENT
$pdata$??$_Uninitialized_fill_n@V?$allocator@I@std@@@std@@YAPEAIPEAI_KAEBIAEAV?$allocator@I@0@@Z DD imagerel $LN28@Uninitiali
	DD	imagerel $LN28@Uninitiali+15
	DD	imagerel $unwind$??$_Uninitialized_fill_n@V?$allocator@I@std@@@std@@YAPEAIPEAI_KAEBIAEAV?$allocator@I@0@@Z
pdata	ENDS
;	COMDAT pdata
pdata	SEGMENT
$pdata$0$??$_Uninitialized_fill_n@V?$allocator@I@std@@@std@@YAPEAIPEAI_KAEBIAEAV?$allocator@I@0@@Z DD imagerel $LN28@Uninitiali+15
	DD	imagerel $LN28@Uninitiali+53
	DD	imagerel $chain$0$??$_Uninitialized_fill_n@V?$allocator@I@std@@@std@@YAPEAIPEAI_KAEBIAEAV?$allocator@I@0@@Z
pdata	ENDS
;	COMDAT pdata
pdata	SEGMENT
$pdata$1$??$_Uninitialized_fill_n@V?$allocator@I@std@@@std@@YAPEAIPEAI_KAEBIAEAV?$allocator@I@0@@Z DD imagerel $LN28@Uninitiali+53
	DD	imagerel $LN28@Uninitiali+88
	DD	imagerel $chain$1$??$_Uninitialized_fill_n@V?$allocator@I@std@@@std@@YAPEAIPEAI_KAEBIAEAV?$allocator@I@0@@Z
pdata	ENDS
;	COMDAT pdata
pdata	SEGMENT
$pdata$??$_Resize_reallocate@I@?$vector@IV?$allocator@I@std@@@std@@AEAAX_KAEBI@Z DD imagerel $LN94@Resize_rea
	DD	imagerel $LN94@Resize_rea+37
	DD	imagerel $unwind$??$_Resize_reallocate@I@?$vector@IV?$allocator@I@std@@@std@@AEAAX_KAEBI@Z
pdata	ENDS
;	COMDAT pdata
pdata	SEGMENT
$pdata$0$??$_Resize_reallocate@I@?$vector@IV?$allocator@I@std@@@std@@AEAAX_KAEBI@Z DD imagerel $LN94@Resize_rea+37
	DD	imagerel $LN94@Resize_rea+45
	DD	imagerel $chain$0$??$_Resize_reallocate@I@?$vector@IV?$allocator@I@std@@@std@@AEAAX_KAEBI@Z
pdata	ENDS
;	COMDAT pdata
pdata	SEGMENT
$pdata$1$??$_Resize_reallocate@I@?$vector@IV?$allocator@I@std@@@std@@AEAAX_KAEBI@Z DD imagerel $LN94@Resize_rea+45
	DD	imagerel $LN94@Resize_rea+128
	DD	imagerel $chain$1$??$_Resize_reallocate@I@?$vector@IV?$allocator@I@std@@@std@@AEAAX_KAEBI@Z
pdata	ENDS
;	COMDAT pdata
pdata	SEGMENT
$pdata$2$??$_Resize_reallocate@I@?$vector@IV?$allocator@I@std@@@std@@AEAAX_KAEBI@Z DD imagerel $LN94@Resize_rea+128
	DD	imagerel $LN94@Resize_rea+282
	DD	imagerel $chain$2$??$_Resize_reallocate@I@?$vector@IV?$allocator@I@std@@@std@@AEAAX_KAEBI@Z
pdata	ENDS
;	COMDAT pdata
pdata	SEGMENT
$pdata$4$??$_Resize_reallocate@I@?$vector@IV?$allocator@I@std@@@std@@AEAAX_KAEBI@Z DD imagerel $LN94@Resize_rea+282
	DD	imagerel $LN94@Resize_rea+289
	DD	imagerel $chain$4$??$_Resize_reallocate@I@?$vector@IV?$allocator@I@std@@@std@@AEAAX_KAEBI@Z
pdata	ENDS
;	COMDAT pdata
pdata	SEGMENT
$pdata$5$??$_Resize_reallocate@I@?$vector@IV?$allocator@I@std@@@std@@AEAAX_KAEBI@Z DD imagerel $LN94@Resize_rea+289
	DD	imagerel $LN94@Resize_rea+295
	DD	imagerel $chain$5$??$_Resize_reallocate@I@?$vector@IV?$allocator@I@std@@@std@@AEAAX_KAEBI@Z
pdata	ENDS
;	COMDAT pdata
pdata	SEGMENT
$pdata$??$_Copy_backward_unchecked@V?$_Vb_iterator@U?$_Wrap_alloc@V?$allocator@I@std@@@std@@@std@@V12@@std@@YA?AV?$_Vb_iterator@U?$_Wrap_alloc@V?$allocator@I@std@@@std@@@0@V10@00@Z DD imagerel $LN57@Copy_backw
	DD	imagerel $LN57@Copy_backw+49
	DD	imagerel $unwind$??$_Copy_backward_unchecked@V?$_Vb_iterator@U?$_Wrap_alloc@V?$allocator@I@std@@@std@@@std@@V12@@std@@YA?AV?$_Vb_iterator@U?$_Wrap_alloc@V?$allocator@I@std@@@std@@@0@V10@00@Z
pdata	ENDS
;	COMDAT pdata
pdata	SEGMENT
$pdata$0$??$_Copy_backward_unchecked@V?$_Vb_iterator@U?$_Wrap_alloc@V?$allocator@I@std@@@std@@@std@@V12@@std@@YA?AV?$_Vb_iterator@U?$_Wrap_alloc@V?$allocator@I@std@@@std@@@0@V10@00@Z DD imagerel $LN57@Copy_backw+49
	DD	imagerel $LN57@Copy_backw+168
	DD	imagerel $chain$0$??$_Copy_backward_unchecked@V?$_Vb_iterator@U?$_Wrap_alloc@V?$allocator@I@std@@@std@@@std@@V12@@std@@YA?AV?$_Vb_iterator@U?$_Wrap_alloc@V?$allocator@I@std@@@std@@@0@V10@00@Z
pdata	ENDS
;	COMDAT pdata
pdata	SEGMENT
$pdata$1$??$_Copy_backward_unchecked@V?$_Vb_iterator@U?$_Wrap_alloc@V?$allocator@I@std@@@std@@@std@@V12@@std@@YA?AV?$_Vb_iterator@U?$_Wrap_alloc@V?$allocator@I@std@@@std@@@0@V10@00@Z DD imagerel $LN57@Copy_backw+168
	DD	imagerel $LN57@Copy_backw+185
	DD	imagerel $chain$1$??$_Copy_backward_unchecked@V?$_Vb_iterator@U?$_Wrap_alloc@V?$allocator@I@std@@@std@@@std@@V12@@std@@YA?AV?$_Vb_iterator@U?$_Wrap_alloc@V?$allocator@I@std@@@std@@@0@V10@00@Z
pdata	ENDS
;	COMDAT pdata
pdata	SEGMENT
$pdata$??$_Fill_vbool@V?$_Vb_iterator@U?$_Wrap_alloc@V?$allocator@I@std@@@std@@@std@@@std@@YAXV?$_Vb_iterator@U?$_Wrap_alloc@V?$allocator@I@std@@@std@@@0@V10@_N@Z DD imagerel $LN29@Fill_vbool
	DD	imagerel $LN29@Fill_vbool+55
	DD	imagerel $unwind$??$_Fill_vbool@V?$_Vb_iterator@U?$_Wrap_alloc@V?$allocator@I@std@@@std@@@std@@@std@@YAXV?$_Vb_iterator@U?$_Wrap_alloc@V?$allocator@I@std@@@std@@@0@V10@_N@Z
pdata	ENDS
;	COMDAT pdata
pdata	SEGMENT
$pdata$1$??$_Fill_vbool@V?$_Vb_iterator@U?$_Wrap_alloc@V?$allocator@I@std@@@std@@@std@@@std@@YAXV?$_Vb_iterator@U?$_Wrap_alloc@V?$allocator@I@std@@@std@@@0@V10@_N@Z DD imagerel $LN29@Fill_vbool+55
	DD	imagerel $LN29@Fill_vbool+214
	DD	imagerel $chain$1$??$_Fill_vbool@V?$_Vb_iterator@U?$_Wrap_alloc@V?$allocator@I@std@@@std@@@std@@@std@@YAXV?$_Vb_iterator@U?$_Wrap_alloc@V?$allocator@I@std@@@std@@@0@V10@_N@Z
pdata	ENDS
;	COMDAT pdata
pdata	SEGMENT
$pdata$2$??$_Fill_vbool@V?$_Vb_iterator@U?$_Wrap_alloc@V?$allocator@I@std@@@std@@@std@@@std@@YAXV?$_Vb_iterator@U?$_Wrap_alloc@V?$allocator@I@std@@@std@@@0@V10@_N@Z DD imagerel $LN29@Fill_vbool+214
	DD	imagerel $LN29@Fill_vbool+231
	DD	imagerel $chain$2$??$_Fill_vbool@V?$_Vb_iterator@U?$_Wrap_alloc@V?$allocator@I@std@@@std@@@std@@@std@@YAXV?$_Vb_iterator@U?$_Wrap_alloc@V?$allocator@I@std@@@std@@@0@V10@_N@Z
pdata	ENDS
;	COMDAT pdata
pdata	SEGMENT
$pdata$??$_Emplace_reallocate@V?$shared_ptr@VLayer@@@std@@@?$vector@V?$shared_ptr@VLayer@@@std@@V?$allocator@V?$shared_ptr@VLayer@@@std@@@2@@std@@AEAAPEAV?$shared_ptr@VLayer@@@1@QEAV21@$$QEAV21@@Z DD imagerel $LN199@Emplace_re
	DD	imagerel $LN199@Emplace_re+66
	DD	imagerel $unwind$??$_Emplace_reallocate@V?$shared_ptr@VLayer@@@std@@@?$vector@V?$shared_ptr@VLayer@@@std@@V?$allocator@V?$shared_ptr@VLayer@@@std@@@2@@std@@AEAAPEAV?$shared_ptr@VLayer@@@1@QEAV21@$$QEAV21@@Z
pdata	ENDS
;	COMDAT pdata
pdata	SEGMENT
$pdata$3$??$_Emplace_reallocate@V?$shared_ptr@VLayer@@@std@@@?$vector@V?$shared_ptr@VLayer@@@std@@V?$allocator@V?$shared_ptr@VLayer@@@std@@@2@@std@@AEAAPEAV?$shared_ptr@VLayer@@@1@QEAV21@$$QEAV21@@Z DD imagerel $LN199@Emplace_re+66
	DD	imagerel $LN199@Emplace_re+541
	DD	imagerel $chain$3$??$_Emplace_reallocate@V?$shared_ptr@VLayer@@@std@@@?$vector@V?$shared_ptr@VLayer@@@std@@V?$allocator@V?$shared_ptr@VLayer@@@std@@@2@@std@@AEAAPEAV?$shared_ptr@VLayer@@@1@QEAV21@$$QEAV21@@Z
pdata	ENDS
;	COMDAT pdata
pdata	SEGMENT
$pdata$4$??$_Emplace_reallocate@V?$shared_ptr@VLayer@@@std@@@?$vector@V?$shared_ptr@VLayer@@@std@@V?$allocator@V?$shared_ptr@VLayer@@@std@@@2@@std@@AEAAPEAV?$shared_ptr@VLayer@@@1@QEAV21@$$QEAV21@@Z DD imagerel $LN199@Emplace_re+541
	DD	imagerel $LN199@Emplace_re+547
	DD	imagerel $chain$4$??$_Emplace_reallocate@V?$shared_ptr@VLayer@@@std@@@?$vector@V?$shared_ptr@VLayer@@@std@@V?$allocator@V?$shared_ptr@VLayer@@@std@@@2@@std@@AEAAPEAV?$shared_ptr@VLayer@@@1@QEAV21@$$QEAV21@@Z
pdata	ENDS
;	COMDAT pdata
pdata	SEGMENT
$pdata$5$??$_Emplace_reallocate@V?$shared_ptr@VLayer@@@std@@@?$vector@V?$shared_ptr@VLayer@@@std@@V?$allocator@V?$shared_ptr@VLayer@@@std@@@2@@std@@AEAAPEAV?$shared_ptr@VLayer@@@1@QEAV21@$$QEAV21@@Z DD imagerel $LN199@Emplace_re+547
	DD	imagerel $LN199@Emplace_re+553
	DD	imagerel $chain$5$??$_Emplace_reallocate@V?$shared_ptr@VLayer@@@std@@@?$vector@V?$shared_ptr@VLayer@@@std@@V?$allocator@V?$shared_ptr@VLayer@@@std@@@2@@std@@AEAAPEAV?$shared_ptr@VLayer@@@1@QEAV21@$$QEAV21@@Z
pdata	ENDS
;	COMDAT pdata
pdata	SEGMENT
$pdata$??$_Emplace_reallocate@AEBV?$shared_ptr@VLayer@@@std@@@?$vector@V?$shared_ptr@VLayer@@@std@@V?$allocator@V?$shared_ptr@VLayer@@@std@@@2@@std@@AEAAPEAV?$shared_ptr@VLayer@@@1@QEAV21@AEBV21@@Z DD imagerel $LN210@Emplace_re
	DD	imagerel $LN210@Emplace_re+66
	DD	imagerel $unwind$??$_Emplace_reallocate@AEBV?$shared_ptr@VLayer@@@std@@@?$vector@V?$shared_ptr@VLayer@@@std@@V?$allocator@V?$shared_ptr@VLayer@@@std@@@2@@std@@AEAAPEAV?$shared_ptr@VLayer@@@1@QEAV21@AEBV21@@Z
pdata	ENDS
;	COMDAT pdata
pdata	SEGMENT
$pdata$3$??$_Emplace_reallocate@AEBV?$shared_ptr@VLayer@@@std@@@?$vector@V?$shared_ptr@VLayer@@@std@@V?$allocator@V?$shared_ptr@VLayer@@@std@@@2@@std@@AEAAPEAV?$shared_ptr@VLayer@@@1@QEAV21@AEBV21@@Z DD imagerel $LN210@Emplace_re+66
	DD	imagerel $LN210@Emplace_re+541
	DD	imagerel $chain$3$??$_Emplace_reallocate@AEBV?$shared_ptr@VLayer@@@std@@@?$vector@V?$shared_ptr@VLayer@@@std@@V?$allocator@V?$shared_ptr@VLayer@@@std@@@2@@std@@AEAAPEAV?$shared_ptr@VLayer@@@1@QEAV21@AEBV21@@Z
pdata	ENDS
;	COMDAT pdata
pdata	SEGMENT
$pdata$4$??$_Emplace_reallocate@AEBV?$shared_ptr@VLayer@@@std@@@?$vector@V?$shared_ptr@VLayer@@@std@@V?$allocator@V?$shared_ptr@VLayer@@@std@@@2@@std@@AEAAPEAV?$shared_ptr@VLayer@@@1@QEAV21@AEBV21@@Z DD imagerel $LN210@Emplace_re+541
	DD	imagerel $LN210@Emplace_re+547
	DD	imagerel $chain$4$??$_Emplace_reallocate@AEBV?$shared_ptr@VLayer@@@std@@@?$vector@V?$shared_ptr@VLayer@@@std@@V?$allocator@V?$shared_ptr@VLayer@@@std@@@2@@std@@AEAAPEAV?$shared_ptr@VLayer@@@1@QEAV21@AEBV21@@Z
pdata	ENDS
;	COMDAT pdata
pdata	SEGMENT
$pdata$5$??$_Emplace_reallocate@AEBV?$shared_ptr@VLayer@@@std@@@?$vector@V?$shared_ptr@VLayer@@@std@@V?$allocator@V?$shared_ptr@VLayer@@@std@@@2@@std@@AEAAPEAV?$shared_ptr@VLayer@@@1@QEAV21@AEBV21@@Z DD imagerel $LN210@Emplace_re+547
	DD	imagerel $LN210@Emplace_re+553
	DD	imagerel $chain$5$??$_Emplace_reallocate@AEBV?$shared_ptr@VLayer@@@std@@@?$vector@V?$shared_ptr@VLayer@@@std@@V?$allocator@V?$shared_ptr@VLayer@@@std@@@2@@std@@AEAAPEAV?$shared_ptr@VLayer@@@1@QEAV21@AEBV21@@Z
pdata	ENDS
;	COMDAT pdata
pdata	SEGMENT
$pdata$??$_Move_backward_unchecked@PEAV?$shared_ptr@VLayer@@@std@@PEAV12@@std@@YAPEAV?$shared_ptr@VLayer@@@0@PEAV10@00@Z DD imagerel $LN45@Move_backw
	DD	imagerel $LN45@Move_backw+29
	DD	imagerel $unwind$??$_Move_backward_unchecked@PEAV?$shared_ptr@VLayer@@@std@@PEAV12@@std@@YAPEAV?$shared_ptr@VLayer@@@0@PEAV10@00@Z
pdata	ENDS
;	COMDAT pdata
pdata	SEGMENT
$pdata$1$??$_Move_backward_unchecked@PEAV?$shared_ptr@VLayer@@@std@@PEAV12@@std@@YAPEAV?$shared_ptr@VLayer@@@0@PEAV10@00@Z DD imagerel $LN45@Move_backw+29
	DD	imagerel $LN45@Move_backw+149
	DD	imagerel $chain$1$??$_Move_backward_unchecked@PEAV?$shared_ptr@VLayer@@@std@@PEAV12@@std@@YAPEAV?$shared_ptr@VLayer@@@0@PEAV10@00@Z
pdata	ENDS
;	COMDAT pdata
pdata	SEGMENT
$pdata$2$??$_Move_backward_unchecked@PEAV?$shared_ptr@VLayer@@@std@@PEAV12@@std@@YAPEAV?$shared_ptr@VLayer@@@0@PEAV10@00@Z DD imagerel $LN45@Move_backw+149
	DD	imagerel $LN45@Move_backw+168
	DD	imagerel $chain$2$??$_Move_backward_unchecked@PEAV?$shared_ptr@VLayer@@@std@@PEAV12@@std@@YAPEAV?$shared_ptr@VLayer@@@0@PEAV10@00@Z
pdata	ENDS
;	COMDAT pdata
pdata	SEGMENT
$pdata$??$destroy_at@V?$shared_ptr@VLayer@@@std@@@std@@YAXQEAV?$shared_ptr@VLayer@@@0@@Z DD imagerel $LN23@destroy_at
	DD	imagerel $LN23@destroy_at+15
	DD	imagerel $unwind$??$destroy_at@V?$shared_ptr@VLayer@@@std@@@std@@YAXQEAV?$shared_ptr@VLayer@@@0@@Z
pdata	ENDS
;	COMDAT pdata
pdata	SEGMENT
$pdata$0$??$destroy_at@V?$shared_ptr@VLayer@@@std@@@std@@YAXQEAV?$shared_ptr@VLayer@@@0@@Z DD imagerel $LN23@destroy_at+15
	DD	imagerel $LN23@destroy_at+69
	DD	imagerel $chain$0$??$destroy_at@V?$shared_ptr@VLayer@@@std@@@std@@YAXQEAV?$shared_ptr@VLayer@@@0@@Z
pdata	ENDS
;	COMDAT pdata
pdata	SEGMENT
$pdata$1$??$destroy_at@V?$shared_ptr@VLayer@@@std@@@std@@YAXQEAV?$shared_ptr@VLayer@@@0@@Z DD imagerel $LN23@destroy_at+69
	DD	imagerel $LN23@destroy_at+75
	DD	imagerel $chain$1$??$destroy_at@V?$shared_ptr@VLayer@@@std@@@std@@YAXQEAV?$shared_ptr@VLayer@@@0@@Z
pdata	ENDS
;	COMDAT pdata
pdata	SEGMENT
$pdata$??$?0AEAV?$basic_string@DU?$char_traits@D@std@@V?$allocator@D@2@@std@@AEA_K_K_KAEAU?$vec@$03M$0A@@glm@@@?$_Ref_count_obj2@VLayer@@@std@@QEAA@AEAV?$basic_string@DU?$char_traits@D@std@@V?$allocator@D@2@@1@AEA_K$$QEA_K2AEAU?$vec@$03M$0A@@glm@@@Z DD imagerel $LN15@Ref_count_
	DD	imagerel $LN15@Ref_count_+156
	DD	imagerel $unwind$??$?0AEAV?$basic_string@DU?$char_traits@D@std@@V?$allocator@D@2@@std@@AEA_K_K_KAEAU?$vec@$03M$0A@@glm@@@?$_Ref_count_obj2@VLayer@@@std@@QEAA@AEAV?$basic_string@DU?$char_traits@D@std@@V?$allocator@D@2@@1@AEA_K$$QEA_K2AEAU?$vec@$03M$0A@@glm@@@Z
pdata	ENDS
;	COMDAT pdata
pdata	SEGMENT
$pdata$??$?0PEAD$0A@@?$basic_string@DU?$char_traits@D@std@@V?$allocator@D@2@@std@@QEAA@PEAD0AEBV?$allocator@D@1@@Z DD imagerel $LN90@allocator
	DD	imagerel $LN90@allocator+297
	DD	imagerel $unwind$??$?0PEAD$0A@@?$basic_string@DU?$char_traits@D@std@@V?$allocator@D@2@@std@@QEAA@PEAD0AEBV?$allocator@D@1@@Z
pdata	ENDS
;	COMDAT pdata
pdata	SEGMENT
$pdata$??R<lambda_1>@?1??insert@?$basic_string@DU?$char_traits@D@std@@V?$allocator@D@2@@std@@QEAAAEAV23@_KQEBD0@Z@QEBA@QEAD10010@Z DD imagerel $LN39@operator
	DD	imagerel $LN39@operator+86
	DD	imagerel $unwind$??R<lambda_1>@?1??insert@?$basic_string@DU?$char_traits@D@std@@V?$allocator@D@2@@std@@QEAAAEAV23@_KQEBD0@Z@QEBA@QEAD10010@Z
pdata	ENDS
;	COMDAT pdata
pdata	SEGMENT
$pdata$?insert@?$basic_string@DU?$char_traits@D@std@@V?$allocator@D@2@@std@@QEAAAEAV12@_KQEBD0@Z DD imagerel $LN78@insert
	DD	imagerel $LN78@insert+48
	DD	imagerel $unwind$?insert@?$basic_string@DU?$char_traits@D@std@@V?$allocator@D@2@@std@@QEAAAEAV12@_KQEBD0@Z
pdata	ENDS
;	COMDAT pdata
pdata	SEGMENT
$pdata$1$?insert@?$basic_string@DU?$char_traits@D@std@@V?$allocator@D@2@@std@@QEAAAEAV12@_KQEBD0@Z DD imagerel $LN78@insert+48
	DD	imagerel $LN78@insert+198
	DD	imagerel $chain$1$?insert@?$basic_string@DU?$char_traits@D@std@@V?$allocator@D@2@@std@@QEAAAEAV12@_KQEBD0@Z
pdata	ENDS
;	COMDAT pdata
pdata	SEGMENT
$pdata$2$?insert@?$basic_string@DU?$char_traits@D@std@@V?$allocator@D@2@@std@@QEAAAEAV12@_KQEBD0@Z DD imagerel $LN78@insert+198
	DD	imagerel $LN78@insert+236
	DD	imagerel $chain$2$?insert@?$basic_string@DU?$char_traits@D@std@@V?$allocator@D@2@@std@@QEAAAEAV12@_KQEBD0@Z
pdata	ENDS
;	COMDAT pdata
pdata	SEGMENT
$pdata$??_G?$_Ref_count_obj2@VLayer@@@std@@UEAAPEAXI@Z DD imagerel $LN8@scalar
	DD	imagerel $LN8@scalar+43
	DD	imagerel $unwind$??_G?$_Ref_count_obj2@VLayer@@@std@@UEAAPEAXI@Z
pdata	ENDS
;	COMDAT pdata
pdata	SEGMENT
$pdata$??0?$basic_string@DU?$char_traits@D@std@@V?$allocator@D@2@@std@@QEAA@U_String_constructor_concat_tag@1@AEBV01@QEBD_K23@Z DD imagerel $LN78@basic_stri
	DD	imagerel $LN78@basic_stri+287
	DD	imagerel $unwind$??0?$basic_string@DU?$char_traits@D@std@@V?$allocator@D@2@@std@@QEAA@U_String_constructor_concat_tag@1@AEBV01@QEBD_K23@Z
pdata	ENDS
;	COMDAT pdata
pdata	SEGMENT
$pdata$?insert@?$basic_string@DU?$char_traits@D@std@@V?$allocator@D@2@@std@@QEAAAEAV12@_KQEBD@Z DD imagerel $LN84@insert
	DD	imagerel $LN84@insert+65
	DD	imagerel $unwind$?insert@?$basic_string@DU?$char_traits@D@std@@V?$allocator@D@2@@std@@QEAAAEAV12@_KQEBD@Z
pdata	ENDS
;	COMDAT pdata
pdata	SEGMENT
$pdata$1$?insert@?$basic_string@DU?$char_traits@D@std@@V?$allocator@D@2@@std@@QEAAAEAV12@_KQEBD@Z DD imagerel $LN84@insert+65
	DD	imagerel $LN84@insert+215
	DD	imagerel $chain$1$?insert@?$basic_string@DU?$char_traits@D@std@@V?$allocator@D@2@@std@@QEAAAEAV12@_KQEBD@Z
pdata	ENDS
;	COMDAT pdata
pdata	SEGMENT
$pdata$2$?insert@?$basic_string@DU?$char_traits@D@std@@V?$allocator@D@2@@std@@QEAAAEAV12@_KQEBD@Z DD imagerel $LN84@insert+215
	DD	imagerel $LN84@insert+253
	DD	imagerel $chain$2$?insert@?$basic_string@DU?$char_traits@D@std@@V?$allocator@D@2@@std@@QEAAAEAV12@_KQEBD@Z
pdata	ENDS
;	COMDAT pdata
pdata	SEGMENT
$pdata$??4?$shared_ptr@VLayer@@@std@@QEAAAEAV01@$$QEAV01@@Z DD imagerel $LN37@operator
	DD	imagerel $LN37@operator+45
	DD	imagerel $unwind$??4?$shared_ptr@VLayer@@@std@@QEAAAEAV01@$$QEAV01@@Z
pdata	ENDS
;	COMDAT pdata
pdata	SEGMENT
$pdata$0$??4?$shared_ptr@VLayer@@@std@@QEAAAEAV01@$$QEAV01@@Z DD imagerel $LN37@operator+45
	DD	imagerel $LN37@operator+113
	DD	imagerel $chain$0$??4?$shared_ptr@VLayer@@@std@@QEAAAEAV01@$$QEAV01@@Z
pdata	ENDS
;	COMDAT pdata
pdata	SEGMENT
$pdata$1$??4?$shared_ptr@VLayer@@@std@@QEAAAEAV01@$$QEAV01@@Z DD imagerel $LN37@operator+113
	DD	imagerel $LN37@operator+127
	DD	imagerel $chain$1$??4?$shared_ptr@VLayer@@@std@@QEAAAEAV01@$$QEAV01@@Z
pdata	ENDS
;	COMDAT pdata
pdata	SEGMENT
$pdata$?_Destroy@?$_Ref_count_obj2@VLayer@@@std@@EEAAXXZ DD imagerel $LN50@Destroy
	DD	imagerel $LN50@Destroy+97
	DD	imagerel $unwind$?_Destroy@?$_Ref_count_obj2@VLayer@@@std@@EEAAXXZ
pdata	ENDS
;	COMDAT pdata
pdata	SEGMENT
$pdata$??1?$_Alloc_temporary2@V?$allocator@V?$shared_ptr@VLayer@@@std@@@std@@@std@@QEAA@XZ DD imagerel $LN27@Alloc_temp
	DD	imagerel $LN27@Alloc_temp+15
	DD	imagerel $unwind$??1?$_Alloc_temporary2@V?$allocator@V?$shared_ptr@VLayer@@@std@@@std@@@std@@QEAA@XZ
pdata	ENDS
;	COMDAT pdata
pdata	SEGMENT
$pdata$0$??1?$_Alloc_temporary2@V?$allocator@V?$shared_ptr@VLayer@@@std@@@std@@@std@@QEAA@XZ DD imagerel $LN27@Alloc_temp+15
	DD	imagerel $LN27@Alloc_temp+69
	DD	imagerel $chain$0$??1?$_Alloc_temporary2@V?$allocator@V?$shared_ptr@VLayer@@@std@@@std@@@std@@QEAA@XZ
pdata	ENDS
;	COMDAT pdata
pdata	SEGMENT
$pdata$1$??1?$_Alloc_temporary2@V?$allocator@V?$shared_ptr@VLayer@@@std@@@std@@@std@@QEAA@XZ DD imagerel $LN27@Alloc_temp+69
	DD	imagerel $LN27@Alloc_temp+75
	DD	imagerel $chain$1$??1?$_Alloc_temporary2@V?$allocator@V?$shared_ptr@VLayer@@@std@@@std@@@std@@QEAA@XZ
pdata	ENDS
;	COMDAT pdata
pdata	SEGMENT
$pdata$??$_Resize@I@?$vector@IV?$allocator@I@std@@@std@@AEAAX_KAEBI@Z DD imagerel $LN36@Resize
	DD	imagerel $LN36@Resize+99
	DD	imagerel $unwind$??$_Resize@I@?$vector@IV?$allocator@I@std@@@std@@AEAAX_KAEBI@Z
pdata	ENDS
;	COMDAT pdata
pdata	SEGMENT
$pdata$0$??$_Resize@I@?$vector@IV?$allocator@I@std@@@std@@AEAAX_KAEBI@Z DD imagerel $LN36@Resize+99
	DD	imagerel $LN36@Resize+148
	DD	imagerel $chain$0$??$_Resize@I@?$vector@IV?$allocator@I@std@@@std@@AEAAX_KAEBI@Z
pdata	ENDS
;	COMDAT pdata
pdata	SEGMENT
$pdata$1$??$_Resize@I@?$vector@IV?$allocator@I@std@@@std@@AEAAX_KAEBI@Z DD imagerel $LN36@Resize+148
	DD	imagerel $LN36@Resize+190
	DD	imagerel $chain$1$??$_Resize@I@?$vector@IV?$allocator@I@std@@@std@@AEAAX_KAEBI@Z
pdata	ENDS
;	COMDAT pdata
pdata	SEGMENT
$pdata$??$copy_backward@V?$_Vb_iterator@U?$_Wrap_alloc@V?$allocator@I@std@@@std@@@std@@V12@@std@@YA?AV?$_Vb_iterator@U?$_Wrap_alloc@V?$allocator@I@std@@@std@@@0@V10@00@Z DD imagerel $LN80@copy_backw
	DD	imagerel $LN80@copy_backw+168
	DD	imagerel $unwind$??$copy_backward@V?$_Vb_iterator@U?$_Wrap_alloc@V?$allocator@I@std@@@std@@@std@@V12@@std@@YA?AV?$_Vb_iterator@U?$_Wrap_alloc@V?$allocator@I@std@@@std@@@0@V10@00@Z
pdata	ENDS
;	COMDAT pdata
pdata	SEGMENT
$pdata$??$fill@V?$_Vb_iterator@U?$_Wrap_alloc@V?$allocator@I@std@@@std@@@std@@_N@std@@YAXV?$_Vb_iterator@U?$_Wrap_alloc@V?$allocator@I@std@@@std@@@0@0AEB_N@Z DD imagerel $LN29@fill
	DD	imagerel $LN29@fill+56
	DD	imagerel $unwind$??$fill@V?$_Vb_iterator@U?$_Wrap_alloc@V?$allocator@I@std@@@std@@@std@@_N@std@@YAXV?$_Vb_iterator@U?$_Wrap_alloc@V?$allocator@I@std@@@std@@@0@0AEB_N@Z
pdata	ENDS
;	COMDAT pdata
pdata	SEGMENT
$pdata$1$??$fill@V?$_Vb_iterator@U?$_Wrap_alloc@V?$allocator@I@std@@@std@@@std@@_N@std@@YAXV?$_Vb_iterator@U?$_Wrap_alloc@V?$allocator@I@std@@@std@@@0@0AEB_N@Z DD imagerel $LN29@fill+56
	DD	imagerel $LN29@fill+203
	DD	imagerel $chain$1$??$fill@V?$_Vb_iterator@U?$_Wrap_alloc@V?$allocator@I@std@@@std@@@std@@_N@std@@YAXV?$_Vb_iterator@U?$_Wrap_alloc@V?$allocator@I@std@@@std@@@0@0AEB_N@Z
pdata	ENDS
;	COMDAT pdata
pdata	SEGMENT
$pdata$2$??$fill@V?$_Vb_iterator@U?$_Wrap_alloc@V?$allocator@I@std@@@std@@@std@@_N@std@@YAXV?$_Vb_iterator@U?$_Wrap_alloc@V?$allocator@I@std@@@std@@@0@0AEB_N@Z DD imagerel $LN29@fill+203
	DD	imagerel $LN29@fill+220
	DD	imagerel $chain$2$??$fill@V?$_Vb_iterator@U?$_Wrap_alloc@V?$allocator@I@std@@@std@@@std@@_N@std@@YAXV?$_Vb_iterator@U?$_Wrap_alloc@V?$allocator@I@std@@@std@@@0@0AEB_N@Z
pdata	ENDS
;	COMDAT pdata
pdata	SEGMENT
$pdata$??$_Reallocate_grow_by@V<lambda_1>@?1??append@?$basic_string@DU?$char_traits@D@std@@V?$allocator@D@2@@std@@QEAAAEAV34@QEBD_K@Z@PEBD_K@?$basic_string@DU?$char_traits@D@std@@V?$allocator@D@2@@std@@AEAAAEAV01@_KV<lambda_1>@?1??append@01@QEAAAEAV01@QEBD0@Z@PEBD_K@Z DD imagerel $LN130@Reallocate
	DD	imagerel $LN130@Reallocate+56
	DD	imagerel $unwind$??$_Reallocate_grow_by@V<lambda_1>@?1??append@?$basic_string@DU?$char_traits@D@std@@V?$allocator@D@2@@std@@QEAAAEAV34@QEBD_K@Z@PEBD_K@?$basic_string@DU?$char_traits@D@std@@V?$allocator@D@2@@std@@AEAAAEAV01@_KV<lambda_1>@?1??append@01@QEAAAEAV01@QEBD0@Z@PEBD_K@Z
pdata	ENDS
;	COMDAT pdata
pdata	SEGMENT
$pdata$2$??$_Reallocate_grow_by@V<lambda_1>@?1??append@?$basic_string@DU?$char_traits@D@std@@V?$allocator@D@2@@std@@QEAAAEAV34@QEBD_K@Z@PEBD_K@?$basic_string@DU?$char_traits@D@std@@V?$allocator@D@2@@std@@AEAAAEAV01@_KV<lambda_1>@?1??append@01@QEAAAEAV01@QEBD0@Z@PEBD_K@Z DD imagerel $LN130@Reallocate+56
	DD	imagerel $LN130@Reallocate+380
	DD	imagerel $chain$2$??$_Reallocate_grow_by@V<lambda_1>@?1??append@?$basic_string@DU?$char_traits@D@std@@V?$allocator@D@2@@std@@QEAAAEAV34@QEBD_K@Z@PEBD_K@?$basic_string@DU?$char_traits@D@std@@V?$allocator@D@2@@std@@AEAAAEAV01@_KV<lambda_1>@?1??append@01@QEAAAEAV01@QEBD0@Z@PEBD_K@Z
pdata	ENDS
;	COMDAT pdata
pdata	SEGMENT
$pdata$3$??$_Reallocate_grow_by@V<lambda_1>@?1??append@?$basic_string@DU?$char_traits@D@std@@V?$allocator@D@2@@std@@QEAAAEAV34@QEBD_K@Z@PEBD_K@?$basic_string@DU?$char_traits@D@std@@V?$allocator@D@2@@std@@AEAAAEAV01@_KV<lambda_1>@?1??append@01@QEAAAEAV01@QEBD0@Z@PEBD_K@Z DD imagerel $LN130@Reallocate+380
	DD	imagerel $LN130@Reallocate+386
	DD	imagerel $chain$3$??$_Reallocate_grow_by@V<lambda_1>@?1??append@?$basic_string@DU?$char_traits@D@std@@V?$allocator@D@2@@std@@QEAAAEAV34@QEBD_K@Z@PEBD_K@?$basic_string@DU?$char_traits@D@std@@V?$allocator@D@2@@std@@AEAAAEAV01@_KV<lambda_1>@?1??append@01@QEAAAEAV01@QEBD0@Z@PEBD_K@Z
pdata	ENDS
;	COMDAT pdata
pdata	SEGMENT
$pdata$4$??$_Reallocate_grow_by@V<lambda_1>@?1??append@?$basic_string@DU?$char_traits@D@std@@V?$allocator@D@2@@std@@QEAAAEAV34@QEBD_K@Z@PEBD_K@?$basic_string@DU?$char_traits@D@std@@V?$allocator@D@2@@std@@AEAAAEAV01@_KV<lambda_1>@?1??append@01@QEAAAEAV01@QEBD0@Z@PEBD_K@Z DD imagerel $LN130@Reallocate+386
	DD	imagerel $LN130@Reallocate+392
	DD	imagerel $chain$4$??$_Reallocate_grow_by@V<lambda_1>@?1??append@?$basic_string@DU?$char_traits@D@std@@V?$allocator@D@2@@std@@QEAAAEAV34@QEBD_K@Z@PEBD_K@?$basic_string@DU?$char_traits@D@std@@V?$allocator@D@2@@std@@AEAAAEAV01@_KV<lambda_1>@?1??append@01@QEAAAEAV01@QEBD0@Z@PEBD_K@Z
pdata	ENDS
;	COMDAT pdata
pdata	SEGMENT
$pdata$??$_Destroy_range@V?$allocator@V?$shared_ptr@VLayer@@@std@@@std@@@std@@YAXPEAV?$shared_ptr@VLayer@@@0@QEAV10@AEAV?$allocator@V?$shared_ptr@VLayer@@@std@@@0@@Z DD imagerel $LN35@Destroy_ra
	DD	imagerel $LN35@Destroy_ra+18
	DD	imagerel $unwind$??$_Destroy_range@V?$allocator@V?$shared_ptr@VLayer@@@std@@@std@@@std@@YAXPEAV?$shared_ptr@VLayer@@@0@QEAV10@AEAV?$allocator@V?$shared_ptr@VLayer@@@std@@@0@@Z
pdata	ENDS
;	COMDAT pdata
pdata	SEGMENT
$pdata$0$??$_Destroy_range@V?$allocator@V?$shared_ptr@VLayer@@@std@@@std@@@std@@YAXPEAV?$shared_ptr@VLayer@@@0@QEAV10@AEAV?$allocator@V?$shared_ptr@VLayer@@@std@@@0@@Z DD imagerel $LN35@Destroy_ra+18
	DD	imagerel $LN35@Destroy_ra+112
	DD	imagerel $chain$0$??$_Destroy_range@V?$allocator@V?$shared_ptr@VLayer@@@std@@@std@@@std@@YAXPEAV?$shared_ptr@VLayer@@@0@QEAV10@AEAV?$allocator@V?$shared_ptr@VLayer@@@std@@@0@@Z
pdata	ENDS
;	COMDAT pdata
pdata	SEGMENT
$pdata$1$??$_Destroy_range@V?$allocator@V?$shared_ptr@VLayer@@@std@@@std@@@std@@YAXPEAV?$shared_ptr@VLayer@@@0@QEAV10@AEAV?$allocator@V?$shared_ptr@VLayer@@@std@@@0@@Z DD imagerel $LN35@Destroy_ra+112
	DD	imagerel $LN35@Destroy_ra+113
	DD	imagerel $chain$1$??$_Destroy_range@V?$allocator@V?$shared_ptr@VLayer@@@std@@@std@@@std@@YAXPEAV?$shared_ptr@VLayer@@@0@QEAV10@AEAV?$allocator@V?$shared_ptr@VLayer@@@std@@@0@@Z
pdata	ENDS
;	COMDAT pdata
pdata	SEGMENT
$pdata$??$emplace@AEBV?$shared_ptr@VLayer@@@std@@@?$vector@V?$shared_ptr@VLayer@@@std@@V?$allocator@V?$shared_ptr@VLayer@@@std@@@2@@std@@QEAA?AV?$_Vector_iterator@V?$_Vector_val@U?$_Simple_types@V?$shared_ptr@VLayer@@@std@@@std@@@std@@@1@V?$_Vector_const_iterator@V?$_Vector_val@U?$_Simple_types@V?$shared_ptr@VLayer@@@std@@@std@@@std@@@1@AEBV?$shared_ptr@VLayer@@@1@@Z DD imagerel $LN169@emplace
	DD	imagerel $LN169@emplace+49
	DD	imagerel $unwind$??$emplace@AEBV?$shared_ptr@VLayer@@@std@@@?$vector@V?$shared_ptr@VLayer@@@std@@V?$allocator@V?$shared_ptr@VLayer@@@std@@@2@@std@@QEAA?AV?$_Vector_iterator@V?$_Vector_val@U?$_Simple_types@V?$shared_ptr@VLayer@@@std@@@std@@@std@@@1@V?$_Vector_const_iterator@V?$_Vector_val@U?$_Simple_types@V?$shared_ptr@VLayer@@@std@@@std@@@std@@@1@AEBV?$shared_ptr@VLayer@@@1@@Z
pdata	ENDS
;	COMDAT pdata
pdata	SEGMENT
$pdata$0$??$emplace@AEBV?$shared_ptr@VLayer@@@std@@@?$vector@V?$shared_ptr@VLayer@@@std@@V?$allocator@V?$shared_ptr@VLayer@@@std@@@2@@std@@QEAA?AV?$_Vector_iterator@V?$_Vector_val@U?$_Simple_types@V?$shared_ptr@VLayer@@@std@@@std@@@std@@@1@V?$_Vector_const_iterator@V?$_Vector_val@U?$_Simple_types@V?$shared_ptr@VLayer@@@std@@@std@@@std@@@1@AEBV?$shared_ptr@VLayer@@@1@@Z DD imagerel $LN169@emplace+49
	DD	imagerel $LN169@emplace+114
	DD	imagerel $chain$0$??$emplace@AEBV?$shared_ptr@VLayer@@@std@@@?$vector@V?$shared_ptr@VLayer@@@std@@V?$allocator@V?$shared_ptr@VLayer@@@std@@@2@@std@@QEAA?AV?$_Vector_iterator@V?$_Vector_val@U?$_Simple_types@V?$shared_ptr@VLayer@@@std@@@std@@@std@@@1@V?$_Vector_const_iterator@V?$_Vector_val@U?$_Simple_types@V?$shared_ptr@VLayer@@@std@@@std@@@std@@@1@AEBV?$shared_ptr@VLayer@@@1@@Z
pdata	ENDS
;	COMDAT pdata
pdata	SEGMENT
$pdata$3$??$emplace@AEBV?$shared_ptr@VLayer@@@std@@@?$vector@V?$shared_ptr@VLayer@@@std@@V?$allocator@V?$shared_ptr@VLayer@@@std@@@2@@std@@QEAA?AV?$_Vector_iterator@V?$_Vector_val@U?$_Simple_types@V?$shared_ptr@VLayer@@@std@@@std@@@std@@@1@V?$_Vector_const_iterator@V?$_Vector_val@U?$_Simple_types@V?$shared_ptr@VLayer@@@std@@@std@@@std@@@1@AEBV?$shared_ptr@VLayer@@@1@@Z DD imagerel $LN169@emplace+114
	DD	imagerel $LN169@emplace+126
	DD	imagerel $chain$3$??$emplace@AEBV?$shared_ptr@VLayer@@@std@@@?$vector@V?$shared_ptr@VLayer@@@std@@V?$allocator@V?$shared_ptr@VLayer@@@std@@@2@@std@@QEAA?AV?$_Vector_iterator@V?$_Vector_val@U?$_Simple_types@V?$shared_ptr@VLayer@@@std@@@std@@@std@@@1@V?$_Vector_const_iterator@V?$_Vector_val@U?$_Simple_types@V?$shared_ptr@VLayer@@@std@@@std@@@std@@@1@AEBV?$shared_ptr@VLayer@@@1@@Z
pdata	ENDS
;	COMDAT pdata
pdata	SEGMENT
$pdata$5$??$emplace@AEBV?$shared_ptr@VLayer@@@std@@@?$vector@V?$shared_ptr@VLayer@@@std@@V?$allocator@V?$shared_ptr@VLayer@@@std@@@2@@std@@QEAA?AV?$_Vector_iterator@V?$_Vector_val@U?$_Simple_types@V?$shared_ptr@VLayer@@@std@@@std@@@std@@@1@V?$_Vector_const_iterator@V?$_Vector_val@U?$_Simple_types@V?$shared_ptr@VLayer@@@std@@@std@@@std@@@1@AEBV?$shared_ptr@VLayer@@@1@@Z DD imagerel $LN169@emplace+126
	DD	imagerel $LN169@emplace+336
	DD	imagerel $chain$5$??$emplace@AEBV?$shared_ptr@VLayer@@@std@@@?$vector@V?$shared_ptr@VLayer@@@std@@V?$allocator@V?$shared_ptr@VLayer@@@std@@@2@@std@@QEAA?AV?$_Vector_iterator@V?$_Vector_val@U?$_Simple_types@V?$shared_ptr@VLayer@@@std@@@std@@@std@@@1@V?$_Vector_const_iterator@V?$_Vector_val@U?$_Simple_types@V?$shared_ptr@VLayer@@@std@@@std@@@std@@@1@AEBV?$shared_ptr@VLayer@@@1@@Z
pdata	ENDS
;	COMDAT pdata
pdata	SEGMENT
$pdata$6$??$emplace@AEBV?$shared_ptr@VLayer@@@std@@@?$vector@V?$shared_ptr@VLayer@@@std@@V?$allocator@V?$shared_ptr@VLayer@@@std@@@2@@std@@QEAA?AV?$_Vector_iterator@V?$_Vector_val@U?$_Simple_types@V?$shared_ptr@VLayer@@@std@@@std@@@std@@@1@V?$_Vector_const_iterator@V?$_Vector_val@U?$_Simple_types@V?$shared_ptr@VLayer@@@std@@@std@@@std@@@1@AEBV?$shared_ptr@VLayer@@@1@@Z DD imagerel $LN169@emplace+336
	DD	imagerel $LN169@emplace+398
	DD	imagerel $chain$6$??$emplace@AEBV?$shared_ptr@VLayer@@@std@@@?$vector@V?$shared_ptr@VLayer@@@std@@V?$allocator@V?$shared_ptr@VLayer@@@std@@@2@@std@@QEAA?AV?$_Vector_iterator@V?$_Vector_val@U?$_Simple_types@V?$shared_ptr@VLayer@@@std@@@std@@@std@@@1@V?$_Vector_const_iterator@V?$_Vector_val@U?$_Simple_types@V?$shared_ptr@VLayer@@@std@@@std@@@std@@@1@AEBV?$shared_ptr@VLayer@@@1@@Z
pdata	ENDS
;	COMDAT pdata
pdata	SEGMENT
$pdata$7$??$emplace@AEBV?$shared_ptr@VLayer@@@std@@@?$vector@V?$shared_ptr@VLayer@@@std@@V?$allocator@V?$shared_ptr@VLayer@@@std@@@2@@std@@QEAA?AV?$_Vector_iterator@V?$_Vector_val@U?$_Simple_types@V?$shared_ptr@VLayer@@@std@@@std@@@std@@@1@V?$_Vector_const_iterator@V?$_Vector_val@U?$_Simple_types@V?$shared_ptr@VLayer@@@std@@@std@@@std@@@1@AEBV?$shared_ptr@VLayer@@@1@@Z DD imagerel $LN169@emplace+398
	DD	imagerel $LN169@emplace+439
	DD	imagerel $chain$7$??$emplace@AEBV?$shared_ptr@VLayer@@@std@@@?$vector@V?$shared_ptr@VLayer@@@std@@V?$allocator@V?$shared_ptr@VLayer@@@std@@@2@@std@@QEAA?AV?$_Vector_iterator@V?$_Vector_val@U?$_Simple_types@V?$shared_ptr@VLayer@@@std@@@std@@@std@@@1@V?$_Vector_const_iterator@V?$_Vector_val@U?$_Simple_types@V?$shared_ptr@VLayer@@@std@@@std@@@std@@@1@AEBV?$shared_ptr@VLayer@@@1@@Z
pdata	ENDS
;	COMDAT pdata
pdata	SEGMENT
$pdata$??$destroy@V?$shared_ptr@VLayer@@@std@@@?$_Default_allocator_traits@V?$allocator@V?$shared_ptr@VLayer@@@std@@@std@@@std@@SAXAEAV?$allocator@V?$shared_ptr@VLayer@@@std@@@1@QEAV?$shared_ptr@VLayer@@@1@@Z DD imagerel $LN25@destroy
	DD	imagerel $LN25@destroy+15
	DD	imagerel $unwind$??$destroy@V?$shared_ptr@VLayer@@@std@@@?$_Default_allocator_traits@V?$allocator@V?$shared_ptr@VLayer@@@std@@@std@@@std@@SAXAEAV?$allocator@V?$shared_ptr@VLayer@@@std@@@1@QEAV?$shared_ptr@VLayer@@@1@@Z
pdata	ENDS
;	COMDAT pdata
pdata	SEGMENT
$pdata$0$??$destroy@V?$shared_ptr@VLayer@@@std@@@?$_Default_allocator_traits@V?$allocator@V?$shared_ptr@VLayer@@@std@@@std@@@std@@SAXAEAV?$allocator@V?$shared_ptr@VLayer@@@std@@@1@QEAV?$shared_ptr@VLayer@@@1@@Z DD imagerel $LN25@destroy+15
	DD	imagerel $LN25@destroy+69
	DD	imagerel $chain$0$??$destroy@V?$shared_ptr@VLayer@@@std@@@?$_Default_allocator_traits@V?$allocator@V?$shared_ptr@VLayer@@@std@@@std@@@std@@SAXAEAV?$allocator@V?$shared_ptr@VLayer@@@std@@@1@QEAV?$shared_ptr@VLayer@@@1@@Z
pdata	ENDS
;	COMDAT pdata
pdata	SEGMENT
$pdata$1$??$destroy@V?$shared_ptr@VLayer@@@std@@@?$_Default_allocator_traits@V?$allocator@V?$shared_ptr@VLayer@@@std@@@std@@@std@@SAXAEAV?$allocator@V?$shared_ptr@VLayer@@@std@@@1@QEAV?$shared_ptr@VLayer@@@1@@Z DD imagerel $LN25@destroy+69
	DD	imagerel $LN25@destroy+75
	DD	imagerel $chain$1$??$destroy@V?$shared_ptr@VLayer@@@std@@@?$_Default_allocator_traits@V?$allocator@V?$shared_ptr@VLayer@@@std@@@std@@@std@@SAXAEAV?$allocator@V?$shared_ptr@VLayer@@@std@@@1@QEAV?$shared_ptr@VLayer@@@1@@Z
pdata	ENDS
;	COMDAT pdata
pdata	SEGMENT
$pdata$??$_Move_unchecked@PEAV?$shared_ptr@VLayer@@@std@@PEAV12@@std@@YAPEAV?$shared_ptr@VLayer@@@0@PEAV10@00@Z DD imagerel $LN46@Move_unche
	DD	imagerel $LN46@Move_unche+29
	DD	imagerel $unwind$??$_Move_unchecked@PEAV?$shared_ptr@VLayer@@@std@@PEAV12@@std@@YAPEAV?$shared_ptr@VLayer@@@0@PEAV10@00@Z
pdata	ENDS
;	COMDAT pdata
pdata	SEGMENT
$pdata$1$??$_Move_unchecked@PEAV?$shared_ptr@VLayer@@@std@@PEAV12@@std@@YAPEAV?$shared_ptr@VLayer@@@0@PEAV10@00@Z DD imagerel $LN46@Move_unche+29
	DD	imagerel $LN46@Move_unche+148
	DD	imagerel $chain$1$??$_Move_unchecked@PEAV?$shared_ptr@VLayer@@@std@@PEAV12@@std@@YAPEAV?$shared_ptr@VLayer@@@0@PEAV10@00@Z
pdata	ENDS
;	COMDAT pdata
pdata	SEGMENT
$pdata$2$??$_Move_unchecked@PEAV?$shared_ptr@VLayer@@@std@@PEAV12@@std@@YAPEAV?$shared_ptr@VLayer@@@0@PEAV10@00@Z DD imagerel $LN46@Move_unche+148
	DD	imagerel $LN46@Move_unche+167
	DD	imagerel $chain$2$??$_Move_unchecked@PEAV?$shared_ptr@VLayer@@@std@@PEAV12@@std@@YAPEAV?$shared_ptr@VLayer@@@0@PEAV10@00@Z
pdata	ENDS
;	COMDAT pdata
pdata	SEGMENT
$pdata$??$make_shared@VLayer@@AEAV?$basic_string@DU?$char_traits@D@std@@V?$allocator@D@2@@std@@AEA_K_K_KAEAU?$vec@$03M$0A@@glm@@@std@@YA?AV?$shared_ptr@VLayer@@@0@AEAV?$basic_string@DU?$char_traits@D@std@@V?$allocator@D@2@@0@AEA_K$$QEA_K2AEAU?$vec@$03M$0A@@glm@@@Z DD imagerel $LN30@make_share
	DD	imagerel $LN30@make_share+213
	DD	imagerel $unwind$??$make_shared@VLayer@@AEAV?$basic_string@DU?$char_traits@D@std@@V?$allocator@D@2@@std@@AEA_K_K_KAEAU?$vec@$03M$0A@@glm@@@std@@YA?AV?$shared_ptr@VLayer@@@0@AEAV?$basic_string@DU?$char_traits@D@std@@V?$allocator@D@2@@0@AEA_K$$QEA_K2AEAU?$vec@$03M$0A@@glm@@@Z
pdata	ENDS
;	COMDAT pdata
pdata	SEGMENT
$pdata$?dtor$0@?0???$make_shared@VLayer@@AEAV?$basic_string@DU?$char_traits@D@std@@V?$allocator@D@2@@std@@AEA_K_K_KAEAU?$vec@$03M$0A@@glm@@@std@@YA?AV?$shared_ptr@VLayer@@@0@AEAV?$basic_string@DU?$char_traits@D@std@@V?$allocator@D@2@@0@AEA_K$$QEA_K2AEAU?$vec@$03M$0A@@glm@@@Z@4HA DD imagerel ?dtor$0@?0???$make_shared@VLayer@@AEAV?$basic_string@DU?$char_traits@D@std@@V?$allocator@D@2@@std@@AEA_K_K_KAEAU?$vec@$03M$0A@@glm@@@std@@YA?AV?$shared_ptr@VLayer@@@0@AEAV?$basic_string@DU?$char_traits@D@std@@V?$allocator@D@2@@0@AEA_K$$QEA_K2AEAU?$vec@$03M$0A@@glm@@@Z@4HA
	DD	imagerel ?dtor$0@?0???$make_shared@VLayer@@AEAV?$basic_string@DU?$char_traits@D@std@@V?$allocator@D@2@@std@@AEA_K_K_KAEAU?$vec@$03M$0A@@glm@@@std@@YA?AV?$shared_ptr@VLayer@@@0@AEAV?$basic_string@DU?$char_traits@D@std@@V?$allocator@D@2@@0@AEA_K$$QEA_K2AEAU?$vec@$03M$0A@@glm@@@Z@4HA+32
	DD	imagerel $unwind$?dtor$0@?0???$make_shared@VLayer@@AEAV?$basic_string@DU?$char_traits@D@std@@V?$allocator@D@2@@std@@AEA_K_K_KAEAU?$vec@$03M$0A@@glm@@@std@@YA?AV?$shared_ptr@VLayer@@@0@AEAV?$basic_string@DU?$char_traits@D@std@@V?$allocator@D@2@@0@AEA_K$$QEA_K2AEAU?$vec@$03M$0A@@glm@@@Z@4HA
pdata	ENDS
;	COMDAT pdata
pdata	SEGMENT
$pdata$??$?HDU?$char_traits@D@std@@V?$allocator@D@1@@std@@YA?AV?$basic_string@DU?$char_traits@D@std@@V?$allocator@D@2@@0@QEBD$$QEAV10@@Z DD imagerel $LN124@operator
	DD	imagerel $LN124@operator+69
	DD	imagerel $unwind$??$?HDU?$char_traits@D@std@@V?$allocator@D@1@@std@@YA?AV?$basic_string@DU?$char_traits@D@std@@V?$allocator@D@2@@0@QEBD$$QEAV10@@Z
pdata	ENDS
;	COMDAT pdata
pdata	SEGMENT
$pdata$1$??$?HDU?$char_traits@D@std@@V?$allocator@D@1@@std@@YA?AV?$basic_string@DU?$char_traits@D@std@@V?$allocator@D@2@@0@QEBD$$QEAV10@@Z DD imagerel $LN124@operator+69
	DD	imagerel $LN124@operator+201
	DD	imagerel $chain$1$??$?HDU?$char_traits@D@std@@V?$allocator@D@1@@std@@YA?AV?$basic_string@DU?$char_traits@D@std@@V?$allocator@D@2@@0@QEBD$$QEAV10@@Z
pdata	ENDS
;	COMDAT pdata
pdata	SEGMENT
$pdata$2$??$?HDU?$char_traits@D@std@@V?$allocator@D@1@@std@@YA?AV?$basic_string@DU?$char_traits@D@std@@V?$allocator@D@2@@0@QEBD$$QEAV10@@Z DD imagerel $LN124@operator+201
	DD	imagerel $LN124@operator+292
	DD	imagerel $chain$2$??$?HDU?$char_traits@D@std@@V?$allocator@D@1@@std@@YA?AV?$basic_string@DU?$char_traits@D@std@@V?$allocator@D@2@@0@QEBD$$QEAV10@@Z
pdata	ENDS
;	COMDAT pdata
pdata	SEGMENT
$pdata$??$?HDU?$char_traits@D@std@@V?$allocator@D@1@@std@@YA?AV?$basic_string@DU?$char_traits@D@std@@V?$allocator@D@2@@0@QEBDAEBV10@@Z DD imagerel $LN101@operator
	DD	imagerel $LN101@operator+78
	DD	imagerel $unwind$??$?HDU?$char_traits@D@std@@V?$allocator@D@1@@std@@YA?AV?$basic_string@DU?$char_traits@D@std@@V?$allocator@D@2@@0@QEBDAEBV10@@Z
pdata	ENDS
;	COMDAT pdata
pdata	SEGMENT
$pdata$2$??$?HDU?$char_traits@D@std@@V?$allocator@D@1@@std@@YA?AV?$basic_string@DU?$char_traits@D@std@@V?$allocator@D@2@@0@QEBDAEBV10@@Z DD imagerel $LN101@operator+78
	DD	imagerel $LN101@operator+329
	DD	imagerel $chain$2$??$?HDU?$char_traits@D@std@@V?$allocator@D@1@@std@@YA?AV?$basic_string@DU?$char_traits@D@std@@V?$allocator@D@2@@0@QEBDAEBV10@@Z
pdata	ENDS
;	COMDAT pdata
pdata	SEGMENT
$pdata$3$??$?HDU?$char_traits@D@std@@V?$allocator@D@1@@std@@YA?AV?$basic_string@DU?$char_traits@D@std@@V?$allocator@D@2@@0@QEBDAEBV10@@Z DD imagerel $LN101@operator+329
	DD	imagerel $LN101@operator+335
	DD	imagerel $chain$3$??$?HDU?$char_traits@D@std@@V?$allocator@D@1@@std@@YA?AV?$basic_string@DU?$char_traits@D@std@@V?$allocator@D@2@@0@QEBDAEBV10@@Z
pdata	ENDS
;	COMDAT pdata
pdata	SEGMENT
$pdata$4$??$?HDU?$char_traits@D@std@@V?$allocator@D@1@@std@@YA?AV?$basic_string@DU?$char_traits@D@std@@V?$allocator@D@2@@0@QEBDAEBV10@@Z DD imagerel $LN101@operator+335
	DD	imagerel $LN101@operator+341
	DD	imagerel $chain$4$??$?HDU?$char_traits@D@std@@V?$allocator@D@1@@std@@YA?AV?$basic_string@DU?$char_traits@D@std@@V?$allocator@D@2@@0@QEBDAEBV10@@Z
pdata	ENDS
;	COMDAT pdata
pdata	SEGMENT
$pdata$??$_Integral_to_string@DH@std@@YA?AV?$basic_string@DU?$char_traits@D@std@@V?$allocator@D@2@@0@H@Z DD imagerel $LN115@Integral_t
	DD	imagerel $LN115@Integral_t+469
	DD	imagerel $unwind$??$_Integral_to_string@DH@std@@YA?AV?$basic_string@DU?$char_traits@D@std@@V?$allocator@D@2@@0@H@Z
pdata	ENDS
;	COMDAT pdata
pdata	SEGMENT
$pdata$?_Xran@?$_String_val@U?$_Simple_types@D@std@@@std@@SAXXZ DD imagerel $LN4@Xran
	DD	imagerel $LN4@Xran+18
	DD	imagerel $unwind$?_Xran@?$_String_val@U?$_Simple_types@D@std@@@std@@SAXXZ
pdata	ENDS
;	COMDAT pdata
pdata	SEGMENT
$pdata$?deallocate@?$allocator@I@std@@QEAAXQEAI_K@Z DD imagerel $LN23@deallocate
	DD	imagerel $LN23@deallocate+67
	DD	imagerel $unwind$?deallocate@?$allocator@I@std@@QEAAXQEAI_K@Z
pdata	ENDS
;	COMDAT pdata
pdata	SEGMENT
$pdata$?resize@?$vector@IV?$allocator@I@std@@@std@@QEAAX_KAEBI@Z DD imagerel $LN38@resize
	DD	imagerel $LN38@resize+99
	DD	imagerel $unwind$?resize@?$vector@IV?$allocator@I@std@@@std@@QEAAX_KAEBI@Z
pdata	ENDS
;	COMDAT pdata
pdata	SEGMENT
$pdata$0$?resize@?$vector@IV?$allocator@I@std@@@std@@QEAAX_KAEBI@Z DD imagerel $LN38@resize+99
	DD	imagerel $LN38@resize+148
	DD	imagerel $chain$0$?resize@?$vector@IV?$allocator@I@std@@@std@@QEAAX_KAEBI@Z
pdata	ENDS
;	COMDAT pdata
pdata	SEGMENT
$pdata$1$?resize@?$vector@IV?$allocator@I@std@@@std@@QEAAX_KAEBI@Z DD imagerel $LN38@resize+148
	DD	imagerel $LN38@resize+190
	DD	imagerel $chain$1$?resize@?$vector@IV?$allocator@I@std@@@std@@QEAAX_KAEBI@Z
pdata	ENDS
;	COMDAT pdata
pdata	SEGMENT
$pdata$?_Xlen@?$vector@_NV?$allocator@_N@std@@@std@@QEBAXXZ DD imagerel $LN4@Xlen
	DD	imagerel $LN4@Xlen+18
	DD	imagerel $unwind$?_Xlen@?$vector@_NV?$allocator@_N@std@@@std@@QEBAXXZ
pdata	ENDS
;	COMDAT pdata
pdata	SEGMENT
$pdata$?_Tidy@?$vector@IV?$allocator@I@std@@@std@@AEAAXXZ DD imagerel $LN30@Tidy
	DD	imagerel $LN30@Tidy+92
	DD	imagerel $unwind$?_Tidy@?$vector@IV?$allocator@I@std@@@std@@AEAAXXZ
pdata	ENDS
;	COMDAT pdata
pdata	SEGMENT
$pdata$?_Insert_x@?$vector@_NV?$allocator@_N@std@@@std@@QEAA_KV?$_Vb_const_iterator@U?$_Wrap_alloc@V?$allocator@I@std@@@std@@@2@_K@Z DD imagerel $LN208@Insert_x
	DD	imagerel $LN208@Insert_x+70
	DD	imagerel $unwind$?_Insert_x@?$vector@_NV?$allocator@_N@std@@@std@@QEAA_KV?$_Vb_const_iterator@U?$_Wrap_alloc@V?$allocator@I@std@@@std@@@2@_K@Z
pdata	ENDS
;	COMDAT pdata
pdata	SEGMENT
$pdata$0$?_Insert_x@?$vector@_NV?$allocator@_N@std@@@std@@QEAA_KV?$_Vb_const_iterator@U?$_Wrap_alloc@V?$allocator@I@std@@@std@@@2@_K@Z DD imagerel $LN208@Insert_x+70
	DD	imagerel $LN208@Insert_x+193
	DD	imagerel $chain$0$?_Insert_x@?$vector@_NV?$allocator@_N@std@@@std@@QEAA_KV?$_Vb_const_iterator@U?$_Wrap_alloc@V?$allocator@I@std@@@std@@@2@_K@Z
pdata	ENDS
;	COMDAT pdata
pdata	SEGMENT
$pdata$1$?_Insert_x@?$vector@_NV?$allocator@_N@std@@@std@@QEAA_KV?$_Vb_const_iterator@U?$_Wrap_alloc@V?$allocator@I@std@@@std@@@2@_K@Z DD imagerel $LN208@Insert_x+193
	DD	imagerel $LN208@Insert_x+537
	DD	imagerel $chain$1$?_Insert_x@?$vector@_NV?$allocator@_N@std@@@std@@QEAA_KV?$_Vb_const_iterator@U?$_Wrap_alloc@V?$allocator@I@std@@@std@@@2@_K@Z
pdata	ENDS
;	COMDAT pdata
pdata	SEGMENT
$pdata$?move@?$_Char_traits@DH@std@@SAPEADQEADQEBD_K@Z DD imagerel $LN33@move
	DD	imagerel $LN33@move+23
	DD	imagerel $unwind$?move@?$_Char_traits@DH@std@@SAPEADQEADQEBD_K@Z
pdata	ENDS
;	COMDAT pdata
pdata	SEGMENT
$pdata$??1?$vector@IV?$allocator@I@std@@@std@@QEAA@XZ DD imagerel $LN33@vector
	DD	imagerel $LN33@vector+92
	DD	imagerel $unwind$??1?$vector@IV?$allocator@I@std@@@std@@QEAA@XZ
pdata	ENDS
;	COMDAT pdata
pdata	SEGMENT
$pdata$?_Insert_n@?$vector@_NV?$allocator@_N@std@@@std@@QEAA?AV?$_Vb_iterator@U?$_Wrap_alloc@V?$allocator@I@std@@@std@@@2@V?$_Vb_const_iterator@U?$_Wrap_alloc@V?$allocator@I@std@@@std@@@2@_KAEB_N@Z DD imagerel $LN67@Insert_n
	DD	imagerel $LN67@Insert_n+362
	DD	imagerel $unwind$?_Insert_n@?$vector@_NV?$allocator@_N@std@@@std@@QEAA?AV?$_Vb_iterator@U?$_Wrap_alloc@V?$allocator@I@std@@@std@@@2@V?$_Vb_const_iterator@U?$_Wrap_alloc@V?$allocator@I@std@@@std@@@2@_KAEB_N@Z
pdata	ENDS
;	COMDAT pdata
pdata	SEGMENT
$pdata$?deallocate@?$allocator@V?$shared_ptr@VLayer@@@std@@@std@@QEAAXQEAV?$shared_ptr@VLayer@@@2@_K@Z DD imagerel $LN23@deallocate
	DD	imagerel $LN23@deallocate+66
	DD	imagerel $unwind$?deallocate@?$allocator@V?$shared_ptr@VLayer@@@std@@@std@@QEAAXQEAV?$shared_ptr@VLayer@@@2@_K@Z
pdata	ENDS
;	COMDAT pdata
pdata	SEGMENT
$pdata$??_GCanvasObject@@QEAAPEAXI@Z DD imagerel $LN70@scalar
	DD	imagerel $LN70@scalar+189
	DD	imagerel $unwind$??_GCanvasObject@@QEAAPEAXI@Z
pdata	ENDS
;	COMDAT pdata
pdata	SEGMENT
$pdata$??_GShader@@QEAAPEAXI@Z DD imagerel $LN12@scalar
	DD	imagerel $LN12@scalar+50
	DD	imagerel $unwind$??_GShader@@QEAAPEAXI@Z
pdata	ENDS
;	COMDAT pdata
pdata	SEGMENT
$pdata$??R<lambda_1>@?1??append@?$basic_string@DU?$char_traits@D@std@@V?$allocator@D@2@@std@@QEAAAEAV23@QEBD_K@Z@QEBA@QEAD0101@Z DD imagerel $LN29@operator
	DD	imagerel $LN29@operator+72
	DD	imagerel $unwind$??R<lambda_1>@?1??append@?$basic_string@DU?$char_traits@D@std@@V?$allocator@D@2@@std@@QEAAAEAV23@QEBD_K@Z@QEBA@QEAD0101@Z
pdata	ENDS
;	COMDAT pdata
pdata	SEGMENT
$pdata$?append@?$basic_string@DU?$char_traits@D@std@@V?$allocator@D@2@@std@@QEAAAEAV12@QEBD_K@Z DD imagerel $LN43@append
	DD	imagerel $LN43@append+35
	DD	imagerel $unwind$?append@?$basic_string@DU?$char_traits@D@std@@V?$allocator@D@2@@std@@QEAAAEAV12@QEBD_K@Z
pdata	ENDS
;	COMDAT pdata
pdata	SEGMENT
$pdata$0$?append@?$basic_string@DU?$char_traits@D@std@@V?$allocator@D@2@@std@@QEAAAEAV12@QEBD_K@Z DD imagerel $LN43@append+35
	DD	imagerel $LN43@append+98
	DD	imagerel $chain$0$?append@?$basic_string@DU?$char_traits@D@std@@V?$allocator@D@2@@std@@QEAAAEAV12@QEBD_K@Z
pdata	ENDS
;	COMDAT pdata
pdata	SEGMENT
$pdata$1$?append@?$basic_string@DU?$char_traits@D@std@@V?$allocator@D@2@@std@@QEAAAEAV12@QEBD_K@Z DD imagerel $LN43@append+98
	DD	imagerel $LN43@append+128
	DD	imagerel $chain$1$?append@?$basic_string@DU?$char_traits@D@std@@V?$allocator@D@2@@std@@QEAAAEAV12@QEBD_K@Z
pdata	ENDS
;	COMDAT pdata
pdata	SEGMENT
$pdata$??R?$default_delete@VCanvasObject@@@std@@QEBAXPEAVCanvasObject@@@Z DD imagerel $LN78@operator
	DD	imagerel $LN78@operator+21
	DD	imagerel $unwind$??R?$default_delete@VCanvasObject@@@std@@QEBAXPEAVCanvasObject@@@Z
pdata	ENDS
;	COMDAT pdata
pdata	SEGMENT
$pdata$0$??R?$default_delete@VCanvasObject@@@std@@QEBAXPEAVCanvasObject@@@Z DD imagerel $LN78@operator+21
	DD	imagerel $LN78@operator+187
	DD	imagerel $chain$0$??R?$default_delete@VCanvasObject@@@std@@QEBAXPEAVCanvasObject@@@Z
pdata	ENDS
;	COMDAT pdata
pdata	SEGMENT
$pdata$1$??R?$default_delete@VCanvasObject@@@std@@QEBAXPEAVCanvasObject@@@Z DD imagerel $LN78@operator+187
	DD	imagerel $LN78@operator+188
	DD	imagerel $chain$1$??R?$default_delete@VCanvasObject@@@std@@QEBAXPEAVCanvasObject@@@Z
pdata	ENDS
;	COMDAT pdata
pdata	SEGMENT
$pdata$2$??R?$default_delete@VCanvasObject@@@std@@QEBAXPEAVCanvasObject@@@Z DD imagerel $LN78@operator+188
	DD	imagerel $LN78@operator+195
	DD	imagerel $chain$2$??R?$default_delete@VCanvasObject@@@std@@QEBAXPEAVCanvasObject@@@Z
pdata	ENDS
;	COMDAT pdata
pdata	SEGMENT
$pdata$??R?$default_delete@VShader@@@std@@QEBAXPEAVShader@@@Z DD imagerel $LN17@operator
	DD	imagerel $LN17@operator+52
	DD	imagerel $unwind$??R?$default_delete@VShader@@@std@@QEBAXPEAVShader@@@Z
pdata	ENDS
;	COMDAT pdata
pdata	SEGMENT
$pdata$??1?$_Vb_val@V?$allocator@_N@std@@@std@@QEAA@XZ DD imagerel $LN36@Vb_val
	DD	imagerel $LN36@Vb_val+92
	DD	imagerel $unwind$??1?$_Vb_val@V?$allocator@_N@std@@@std@@QEAA@XZ
pdata	ENDS
;	COMDAT pdata
pdata	SEGMENT
$pdata$?end@?$vector@_NV?$allocator@_N@std@@@std@@QEAA?AV?$_Vb_iterator@U?$_Wrap_alloc@V?$allocator@I@std@@@std@@@2@XZ DD imagerel $LN26@end
	DD	imagerel $LN26@end+140
	DD	imagerel $unwind$?end@?$vector@_NV?$allocator@_N@std@@@std@@QEAA?AV?$_Vb_iterator@U?$_Wrap_alloc@V?$allocator@I@std@@@std@@@2@XZ
pdata	ENDS
;	COMDAT pdata
pdata	SEGMENT
$pdata$?insert@?$vector@_NV?$allocator@_N@std@@@std@@QEAA?AV?$_Vb_iterator@U?$_Wrap_alloc@V?$allocator@I@std@@@std@@@2@V?$_Vb_const_iterator@U?$_Wrap_alloc@V?$allocator@I@std@@@std@@@2@AEB_N@Z DD imagerel $LN4@insert
	DD	imagerel $LN4@insert+42
	DD	imagerel $unwind$?insert@?$vector@_NV?$allocator@_N@std@@@std@@QEAA?AV?$_Vb_iterator@U?$_Wrap_alloc@V?$allocator@I@std@@@std@@@2@V?$_Vb_const_iterator@U?$_Wrap_alloc@V?$allocator@I@std@@@std@@@2@AEB_N@Z
pdata	ENDS
;	COMDAT pdata
pdata	SEGMENT
$pdata$?_Xran@?$vector@_NV?$allocator@_N@std@@@std@@QEBAXXZ DD imagerel $LN4@Xran
	DD	imagerel $LN4@Xran+18
	DD	imagerel $unwind$?_Xran@?$vector@_NV?$allocator@_N@std@@@std@@QEBAXXZ
pdata	ENDS
;	COMDAT pdata
pdata	SEGMENT
$pdata$?_Tidy@?$vector@V?$shared_ptr@VLayer@@@std@@V?$allocator@V?$shared_ptr@VLayer@@@std@@@2@@std@@AEAAXXZ DD imagerel $LN30@Tidy
	DD	imagerel $LN30@Tidy+104
	DD	imagerel $unwind$?_Tidy@?$vector@V?$shared_ptr@VLayer@@@std@@V?$allocator@V?$shared_ptr@VLayer@@@std@@@2@@std@@AEAAXXZ
pdata	ENDS
;	COMDAT pdata
pdata	SEGMENT
$pdata$?_Xrange@?$vector@V?$shared_ptr@VLayer@@@std@@V?$allocator@V?$shared_ptr@VLayer@@@std@@@2@@std@@CAXXZ DD imagerel $LN4@Xrange
	DD	imagerel $LN4@Xrange+18
	DD	imagerel $unwind$?_Xrange@?$vector@V?$shared_ptr@VLayer@@@std@@V?$allocator@V?$shared_ptr@VLayer@@@std@@@2@@std@@CAXXZ
pdata	ENDS
;	COMDAT pdata
pdata	SEGMENT
$pdata$?_Decref@?$_Ptr_base@VLayer@@@std@@IEAAXXZ DD imagerel $LN16@Decref
	DD	imagerel $LN16@Decref+15
	DD	imagerel $unwind$?_Decref@?$_Ptr_base@VLayer@@@std@@IEAAXXZ
pdata	ENDS
;	COMDAT pdata
pdata	SEGMENT
$pdata$0$?_Decref@?$_Ptr_base@VLayer@@@std@@IEAAXXZ DD imagerel $LN16@Decref+15
	DD	imagerel $LN16@Decref+69
	DD	imagerel $chain$0$?_Decref@?$_Ptr_base@VLayer@@@std@@IEAAXXZ
pdata	ENDS
;	COMDAT pdata
pdata	SEGMENT
$pdata$1$?_Decref@?$_Ptr_base@VLayer@@@std@@IEAAXXZ DD imagerel $LN16@Decref+69
	DD	imagerel $LN16@Decref+75
	DD	imagerel $chain$1$?_Decref@?$_Ptr_base@VLayer@@@std@@IEAAXXZ
pdata	ENDS
;	COMDAT pdata
pdata	SEGMENT
$pdata$??1?$unique_ptr@VShader@@U?$default_delete@VShader@@@std@@@std@@QEAA@XZ DD imagerel $LN19@unique_ptr
	DD	imagerel $LN19@unique_ptr+57
	DD	imagerel $unwind$??1?$unique_ptr@VShader@@U?$default_delete@VShader@@@std@@@std@@QEAA@XZ
pdata	ENDS
;	COMDAT pdata
pdata	SEGMENT
$pdata$??1?$vector@_NV?$allocator@_N@std@@@std@@QEAA@XZ DD imagerel $LN40@vector
	DD	imagerel $LN40@vector+92
	DD	imagerel $unwind$??1?$vector@_NV?$allocator@_N@std@@@std@@QEAA@XZ
pdata	ENDS
;	COMDAT pdata
pdata	SEGMENT
$pdata$?at@?$vector@_NV?$allocator@_N@std@@@std@@QEAA?AV?$_Vb_reference@U?$_Wrap_alloc@V?$allocator@I@std@@@std@@@2@_K@Z DD imagerel $LN28@at
	DD	imagerel $LN28@at+54
	DD	imagerel $unwind$?at@?$vector@_NV?$allocator@_N@std@@@std@@QEAA?AV?$_Vb_reference@U?$_Wrap_alloc@V?$allocator@I@std@@@std@@@2@_K@Z
pdata	ENDS
;	COMDAT pdata
pdata	SEGMENT
$pdata$?push_back@?$vector@_NV?$allocator@_N@std@@@std@@QEAAXAEB_N@Z DD imagerel $LN28@push_back
	DD	imagerel $LN28@push_back+118
	DD	imagerel $unwind$?push_back@?$vector@_NV?$allocator@_N@std@@@std@@QEAAXAEB_N@Z
pdata	ENDS
;	COMDAT pdata
pdata	SEGMENT
$pdata$??1?$vector@V?$shared_ptr@VLayer@@@std@@V?$allocator@V?$shared_ptr@VLayer@@@std@@@2@@std@@QEAA@XZ DD imagerel $LN33@vector
	DD	imagerel $LN33@vector+104
	DD	imagerel $unwind$??1?$vector@V?$shared_ptr@VLayer@@@std@@V?$allocator@V?$shared_ptr@VLayer@@@std@@@2@@std@@QEAA@XZ
pdata	ENDS
;	COMDAT pdata
pdata	SEGMENT
$pdata$?insert@?$vector@V?$shared_ptr@VLayer@@@std@@V?$allocator@V?$shared_ptr@VLayer@@@std@@@2@@std@@QEAA?AV?$_Vector_iterator@V?$_Vector_val@U?$_Simple_types@V?$shared_ptr@VLayer@@@std@@@std@@@std@@@2@V?$_Vector_const_iterator@V?$_Vector_val@U?$_Simple_types@V?$shared_ptr@VLayer@@@std@@@std@@@std@@@2@AEBV?$shared_ptr@VLayer@@@2@@Z DD imagerel $LN4@insert
	DD	imagerel $LN4@insert+23
	DD	imagerel $unwind$?insert@?$vector@V?$shared_ptr@VLayer@@@std@@V?$allocator@V?$shared_ptr@VLayer@@@std@@@2@@std@@QEAA?AV?$_Vector_iterator@V?$_Vector_val@U?$_Simple_types@V?$shared_ptr@VLayer@@@std@@@std@@@std@@@2@V?$_Vector_const_iterator@V?$_Vector_val@U?$_Simple_types@V?$shared_ptr@VLayer@@@std@@@std@@@std@@@2@AEBV?$shared_ptr@VLayer@@@2@@Z
pdata	ENDS
;	COMDAT pdata
pdata	SEGMENT
$pdata$?erase@?$vector@V?$shared_ptr@VLayer@@@std@@V?$allocator@V?$shared_ptr@VLayer@@@std@@@2@@std@@QEAA?AV?$_Vector_iterator@V?$_Vector_val@U?$_Simple_types@V?$shared_ptr@VLayer@@@std@@@std@@@std@@@2@V?$_Vector_const_iterator@V?$_Vector_val@U?$_Simple_types@V?$shared_ptr@VLayer@@@std@@@std@@@std@@@2@@Z DD imagerel $LN71@erase
	DD	imagerel $LN71@erase+12
	DD	imagerel $unwind$?erase@?$vector@V?$shared_ptr@VLayer@@@std@@V?$allocator@V?$shared_ptr@VLayer@@@std@@@2@@std@@QEAA?AV?$_Vector_iterator@V?$_Vector_val@U?$_Simple_types@V?$shared_ptr@VLayer@@@std@@@std@@@std@@@2@V?$_Vector_const_iterator@V?$_Vector_val@U?$_Simple_types@V?$shared_ptr@VLayer@@@std@@@std@@@std@@@2@@Z
pdata	ENDS
;	COMDAT pdata
pdata	SEGMENT
$pdata$1$?erase@?$vector@V?$shared_ptr@VLayer@@@std@@V?$allocator@V?$shared_ptr@VLayer@@@std@@@2@@std@@QEAA?AV?$_Vector_iterator@V?$_Vector_val@U?$_Simple_types@V?$shared_ptr@VLayer@@@std@@@std@@@std@@@2@V?$_Vector_const_iterator@V?$_Vector_val@U?$_Simple_types@V?$shared_ptr@VLayer@@@std@@@std@@@std@@@2@@Z DD imagerel $LN71@erase+12
	DD	imagerel $LN71@erase+49
	DD	imagerel $chain$1$?erase@?$vector@V?$shared_ptr@VLayer@@@std@@V?$allocator@V?$shared_ptr@VLayer@@@std@@@2@@std@@QEAA?AV?$_Vector_iterator@V?$_Vector_val@U?$_Simple_types@V?$shared_ptr@VLayer@@@std@@@std@@@std@@@2@V?$_Vector_const_iterator@V?$_Vector_val@U?$_Simple_types@V?$shared_ptr@VLayer@@@std@@@std@@@std@@@2@@Z
pdata	ENDS
;	COMDAT pdata
pdata	SEGMENT
$pdata$2$?erase@?$vector@V?$shared_ptr@VLayer@@@std@@V?$allocator@V?$shared_ptr@VLayer@@@std@@@2@@std@@QEAA?AV?$_Vector_iterator@V?$_Vector_val@U?$_Simple_types@V?$shared_ptr@VLayer@@@std@@@std@@@std@@@2@V?$_Vector_const_iterator@V?$_Vector_val@U?$_Simple_types@V?$shared_ptr@VLayer@@@std@@@std@@@std@@@2@@Z DD imagerel $LN71@erase+49
	DD	imagerel $LN71@erase+150
	DD	imagerel $chain$2$?erase@?$vector@V?$shared_ptr@VLayer@@@std@@V?$allocator@V?$shared_ptr@VLayer@@@std@@@2@@std@@QEAA?AV?$_Vector_iterator@V?$_Vector_val@U?$_Simple_types@V?$shared_ptr@VLayer@@@std@@@std@@@std@@@2@V?$_Vector_const_iterator@V?$_Vector_val@U?$_Simple_types@V?$shared_ptr@VLayer@@@std@@@std@@@std@@@2@@Z
pdata	ENDS
;	COMDAT pdata
pdata	SEGMENT
$pdata$3$?erase@?$vector@V?$shared_ptr@VLayer@@@std@@V?$allocator@V?$shared_ptr@VLayer@@@std@@@2@@std@@QEAA?AV?$_Vector_iterator@V?$_Vector_val@U?$_Simple_types@V?$shared_ptr@VLayer@@@std@@@std@@@std@@@2@V?$_Vector_const_iterator@V?$_Vector_val@U?$_Simple_types@V?$shared_ptr@VLayer@@@std@@@std@@@std@@@2@@Z DD imagerel $LN71@erase+150
	DD	imagerel $LN71@erase+173
	DD	imagerel $chain$3$?erase@?$vector@V?$shared_ptr@VLayer@@@std@@V?$allocator@V?$shared_ptr@VLayer@@@std@@@2@@std@@QEAA?AV?$_Vector_iterator@V?$_Vector_val@U?$_Simple_types@V?$shared_ptr@VLayer@@@std@@@std@@@std@@@2@V?$_Vector_const_iterator@V?$_Vector_val@U?$_Simple_types@V?$shared_ptr@VLayer@@@std@@@std@@@std@@@2@@Z
pdata	ENDS
;	COMDAT pdata
pdata	SEGMENT
$pdata$4$?erase@?$vector@V?$shared_ptr@VLayer@@@std@@V?$allocator@V?$shared_ptr@VLayer@@@std@@@2@@std@@QEAA?AV?$_Vector_iterator@V?$_Vector_val@U?$_Simple_types@V?$shared_ptr@VLayer@@@std@@@std@@@std@@@2@V?$_Vector_const_iterator@V?$_Vector_val@U?$_Simple_types@V?$shared_ptr@VLayer@@@std@@@std@@@std@@@2@@Z DD imagerel $LN71@erase+173
	DD	imagerel $LN71@erase+236
	DD	imagerel $chain$4$?erase@?$vector@V?$shared_ptr@VLayer@@@std@@V?$allocator@V?$shared_ptr@VLayer@@@std@@@2@@std@@QEAA?AV?$_Vector_iterator@V?$_Vector_val@U?$_Simple_types@V?$shared_ptr@VLayer@@@std@@@std@@@std@@@2@V?$_Vector_const_iterator@V?$_Vector_val@U?$_Simple_types@V?$shared_ptr@VLayer@@@std@@@std@@@std@@@2@@Z
pdata	ENDS
;	COMDAT pdata
pdata	SEGMENT
$pdata$?at@?$vector@V?$shared_ptr@VLayer@@@std@@V?$allocator@V?$shared_ptr@VLayer@@@std@@@2@@std@@QEAAAEAV?$shared_ptr@VLayer@@@2@_K@Z DD imagerel $LN7@at
	DD	imagerel $LN7@at+41
	DD	imagerel $unwind$?at@?$vector@V?$shared_ptr@VLayer@@@std@@V?$allocator@V?$shared_ptr@VLayer@@@std@@@2@@std@@QEAAAEAV?$shared_ptr@VLayer@@@2@_K@Z
pdata	ENDS
;	COMDAT pdata
pdata	SEGMENT
$pdata$??1?$shared_ptr@VLayer@@@std@@QEAA@XZ DD imagerel $LN18@shared_ptr
	DD	imagerel $LN18@shared_ptr+15
	DD	imagerel $unwind$??1?$shared_ptr@VLayer@@@std@@QEAA@XZ
pdata	ENDS
;	COMDAT pdata
pdata	SEGMENT
$pdata$0$??1?$shared_ptr@VLayer@@@std@@QEAA@XZ DD imagerel $LN18@shared_ptr+15
	DD	imagerel $LN18@shared_ptr+69
	DD	imagerel $chain$0$??1?$shared_ptr@VLayer@@@std@@QEAA@XZ
pdata	ENDS
;	COMDAT pdata
pdata	SEGMENT
$pdata$1$??1?$shared_ptr@VLayer@@@std@@QEAA@XZ DD imagerel $LN18@shared_ptr+69
	DD	imagerel $LN18@shared_ptr+75
	DD	imagerel $chain$1$??1?$shared_ptr@VLayer@@@std@@QEAA@XZ
pdata	ENDS
;	COMDAT pdata
pdata	SEGMENT
$pdata$?DrawLayersWindow@LayerManager@@QEAAXXZ DD imagerel $LN156@DrawLayers
	DD	imagerel $LN156@DrawLayers+1354
	DD	imagerel $unwind$?DrawLayersWindow@LayerManager@@QEAAXXZ
pdata	ENDS
;	COMDAT pdata
pdata	SEGMENT
$pdata$?DrawLayer@LayerManager@@AEAAXH_NM@Z DD imagerel $LN681@DrawLayer
	DD	imagerel $LN681@DrawLayer+4166
	DD	imagerel $unwind$?DrawLayer@LayerManager@@AEAAXH_NM@Z
pdata	ENDS
;	COMDAT pdata
pdata	SEGMENT
$pdata$?NextLayerDraggable@LayerManager@@AEAAXH@Z DD imagerel $LN48@NextLayerD
	DD	imagerel $LN48@NextLayerD+228
	DD	imagerel $unwind$?NextLayerDraggable@LayerManager@@AEAAXH@Z
pdata	ENDS
;	COMDAT pdata
pdata	SEGMENT
$pdata$?UnbindActiveLayer@LayerManager@@QEAAXXZ DD imagerel $LN12@UnbindActi
	DD	imagerel $LN12@UnbindActi+46
	DD	imagerel $unwind$?UnbindActiveLayer@LayerManager@@QEAAXXZ
pdata	ENDS
;	COMDAT pdata
pdata	SEGMENT
$pdata$?BindActiveLayer@LayerManager@@QEAAXXZ DD imagerel $LN12@BindActive
	DD	imagerel $LN12@BindActive+59
	DD	imagerel $unwind$?BindActiveLayer@LayerManager@@QEAAXXZ
pdata	ENDS
;	COMDAT pdata
pdata	SEGMENT
$pdata$?AddLayer@LayerManager@@QEAA_KV?$basic_string@DU?$char_traits@D@std@@V?$allocator@D@2@@std@@U?$vec@$03M$0A@@glm@@@Z DD imagerel $LN132@AddLayer
	DD	imagerel $LN132@AddLayer+664
	DD	imagerel $unwind$?AddLayer@LayerManager@@QEAA_KV?$basic_string@DU?$char_traits@D@std@@V?$allocator@D@2@@std@@U?$vec@$03M$0A@@glm@@@Z
pdata	ENDS
;	COMDAT pdata
pdata	SEGMENT
$pdata$?dtor$2@?0??AddLayer@LayerManager@@QEAA_KV?$basic_string@DU?$char_traits@D@std@@V?$allocator@D@2@@std@@U?$vec@$03M$0A@@glm@@@Z@4HA DD imagerel ?dtor$2@?0??AddLayer@LayerManager@@QEAA_KV?$basic_string@DU?$char_traits@D@std@@V?$allocator@D@2@@std@@U?$vec@$03M$0A@@glm@@@Z@4HA
	DD	imagerel ?dtor$2@?0??AddLayer@LayerManager@@QEAA_KV?$basic_string@DU?$char_traits@D@std@@V?$allocator@D@2@@std@@U?$vec@$03M$0A@@glm@@@Z@4HA+29
	DD	imagerel $unwind$?dtor$2@?0??AddLayer@LayerManager@@QEAA_KV?$basic_string@DU?$char_traits@D@std@@V?$allocator@D@2@@std@@U?$vec@$03M$0A@@glm@@@Z@4HA
pdata	ENDS
;	COMDAT pdata
pdata	SEGMENT
$pdata$?AddLayer@LayerManager@@QEAA_KV?$basic_string@DU?$char_traits@D@std@@V?$allocator@D@2@@std@@@Z DD imagerel $LN48@AddLayer
	DD	imagerel $LN48@AddLayer+183
	DD	imagerel $unwind$?AddLayer@LayerManager@@QEAA_KV?$basic_string@DU?$char_traits@D@std@@V?$allocator@D@2@@std@@@Z
pdata	ENDS
;	COMDAT pdata
pdata	SEGMENT
$pdata$?AddLayer@LayerManager@@QEAA_KXZ DD imagerel $LN269@AddLayer
	DD	imagerel $LN269@AddLayer+716
	DD	imagerel $unwind$?AddLayer@LayerManager@@QEAA_KXZ
pdata	ENDS
;	COMDAT pdata
pdata	SEGMENT
$pdata$??1LayerManager@@QEAA@XZ DD imagerel $LN44@LayerManag
	DD	imagerel $LN44@LayerManag+101
	DD	imagerel $unwind$??1LayerManager@@QEAA@XZ
pdata	ENDS
;	COMDAT pdata
pdata	SEGMENT
$pdata$??__F?m_CanvasShader@Primitive@@2V?$unique_ptr@VShader@@U?$default_delete@VShader@@@std@@@std@@A@@YAXXZ DD imagerel ??__F?m_CanvasShader@Primitive@@2V?$unique_ptr@VShader@@U?$default_delete@VShader@@@std@@@std@@A@@YAXXZ
	DD	imagerel ??__F?m_CanvasShader@Primitive@@2V?$unique_ptr@VShader@@U?$default_delete@VShader@@@std@@@std@@A@@YAXXZ+61
	DD	imagerel $unwind$??__F?m_CanvasShader@Primitive@@2V?$unique_ptr@VShader@@U?$default_delete@VShader@@@std@@@std@@A@@YAXXZ
pdata	ENDS
;	COMDAT pdata
pdata	SEGMENT
$pdata$??__F?m_BackgroundShader@Primitive@@2V?$unique_ptr@VShader@@U?$default_delete@VShader@@@std@@@std@@A@@YAXXZ DD imagerel ??__F?m_BackgroundShader@Primitive@@2V?$unique_ptr@VShader@@U?$default_delete@VShader@@@std@@@std@@A@@YAXXZ
	DD	imagerel ??__F?m_BackgroundShader@Primitive@@2V?$unique_ptr@VShader@@U?$default_delete@VShader@@@std@@@std@@A@@YAXXZ+61
	DD	imagerel $unwind$??__F?m_BackgroundShader@Primitive@@2V?$unique_ptr@VShader@@U?$default_delete@VShader@@@std@@@std@@A@@YAXXZ
pdata	ENDS
;	COMDAT pdata
pdata	SEGMENT
$pdata$??_H@YAXPEAX_K1P6APEAX0@Z@Z DD imagerel $LN12@vector
	DD	imagerel $LN12@vector+67
	DD	imagerel $unwind$??_H@YAXPEAX_K1P6APEAX0@Z@Z
pdata	ENDS
;	COMDAT pdata
pdata	SEGMENT
$pdata$?to_string@std@@YA?AV?$basic_string@DU?$char_traits@D@std@@V?$allocator@D@2@@1@H@Z DD imagerel $LN7@to_string
	DD	imagerel $LN7@to_string+23
	DD	imagerel $unwind$?to_string@std@@YA?AV?$basic_string@DU?$char_traits@D@std@@V?$allocator@D@2@@1@H@Z
pdata	ENDS
;	COMDAT pdata
pdata	SEGMENT
$pdata$?_Decref@_Ref_count_base@std@@QEAAXXZ DD imagerel $LN11@Decref
	DD	imagerel $LN11@Decref+65
	DD	imagerel $unwind$?_Decref@_Ref_count_base@std@@QEAAXXZ
pdata	ENDS
;	COMDAT CRT$XCU
CRT$XCU	SEGMENT
??m_CanvasObject$initializer$@Primitive@@2P6AXXZEA@@3P6AXXZEA DQ FLAT:??__F?m_CanvasObject@Primitive@@2V?$unique_ptr@VCanvasObject@@U?$default_delete@VCanvasObject@@@std@@@std@@A@@YAXXZ ; ??m_CanvasObject$initializer$@Primitive@@2P6AXXZEA@@3P6AXXZEA
;	COMDAT ?m_BrushObject@Primitive@@2V?$unique_ptr@VCanvasObject@@U?$default_delete@VCanvasObject@@@std@@@std@@A
_DATA	SEGMENT
?m_BrushObject@Primitive@@2V?$unique_ptr@VCanvasObject@@U?$default_delete@VCanvasObject@@@std@@@std@@A DQ 0000000000000000H ; Primitive::m_BrushObject
_DATA	ENDS
;	COMDAT ?m_CanvasShader@Primitive@@2V?$unique_ptr@VShader@@U?$default_delete@VShader@@@std@@@std@@A
_DATA	SEGMENT
?m_CanvasShader@Primitive@@2V?$unique_ptr@VShader@@U?$default_delete@VShader@@@std@@@std@@A DQ 0000000000000000H ; Primitive::m_CanvasShader
_DATA	ENDS
;	COMDAT ?m_BackgroundShader@Primitive@@2V?$unique_ptr@VShader@@U?$default_delete@VShader@@@std@@@std@@A
_DATA	SEGMENT
?m_BackgroundShader@Primitive@@2V?$unique_ptr@VShader@@U?$default_delete@VShader@@@std@@@std@@A DQ 0000000000000000H ; Primitive::m_BackgroundShader
_DATA	ENDS
;	COMDAT ?m_CanvasObject@Primitive@@2V?$unique_ptr@VCanvasObject@@U?$default_delete@VCanvasObject@@@std@@@std@@A
_DATA	SEGMENT
?m_CanvasObject@Primitive@@2V?$unique_ptr@VCanvasObject@@U?$default_delete@VCanvasObject@@@std@@@std@@A DQ 0000000000000000H ; Primitive::m_CanvasObject
_DATA	ENDS
;	COMDAT xdata
xdata	SEGMENT
$unwind$?_Decref@_Ref_count_base@std@@QEAAXXZ DQ 00006340a00040a01r ; 8.62672e-309
	DD	07006320aH
xdata	ENDS
;	COMDAT xdata
xdata	SEGMENT
$unwind$?to_string@std@@YA?AV?$basic_string@DU?$char_traits@D@std@@V?$allocator@D@2@@1@H@Z DQ 03002520600020601r ; 1.97773e-77
xdata	ENDS
;	COMDAT xdata
xdata	SEGMENT
$unwind$??_H@YAXPEAX_K1P6APEAX0@Z@Z DQ 00008641400081401r ; 1.1669e-308
	DQ	00006341400075414r		; 8.62693e-309
	DD	070103214H
xdata	ENDS
;	COMDAT xdata
xdata	SEGMENT
$ip2state$??__F?m_BackgroundShader@Primitive@@2V?$unique_ptr@VShader@@U?$default_delete@VShader@@@std@@@std@@A@@YAXXZ DW 02a02H
	DB	02H
xdata	ENDS
;	COMDAT xdata
xdata	SEGMENT
$stateUnwindMap$??__F?m_BackgroundShader@Primitive@@2V?$unique_ptr@VShader@@U?$default_delete@VShader@@@std@@@std@@A@@YAXXZ DW 0e02H
	DD	imagerel __std_terminate
xdata	ENDS
;	COMDAT xdata
xdata	SEGMENT
$cppxdata$??__F?m_BackgroundShader@Primitive@@2V?$unique_ptr@VShader@@U?$default_delete@VShader@@@std@@@std@@A@@YAXXZ DB 028H
	DD	imagerel $stateUnwindMap$??__F?m_BackgroundShader@Primitive@@2V?$unique_ptr@VShader@@U?$default_delete@VShader@@@std@@@std@@A@@YAXXZ
	DD	imagerel $ip2state$??__F?m_BackgroundShader@Primitive@@2V?$unique_ptr@VShader@@U?$default_delete@VShader@@@std@@@std@@A@@YAXXZ
xdata	ENDS
;	COMDAT xdata
xdata	SEGMENT
$unwind$??__F?m_BackgroundShader@Primitive@@2V?$unique_ptr@VShader@@U?$default_delete@VShader@@@std@@@std@@A@@YAXXZ DQ 03002320600020611r ; 1.96423e-77
	DD	imagerel __CxxFrameHandler4
	DD	imagerel $cppxdata$??__F?m_BackgroundShader@Primitive@@2V?$unique_ptr@VShader@@U?$default_delete@VShader@@@std@@@std@@A@@YAXXZ
xdata	ENDS
;	COMDAT xdata
xdata	SEGMENT
$ip2state$??__F?m_CanvasShader@Primitive@@2V?$unique_ptr@VShader@@U?$default_delete@VShader@@@std@@@std@@A@@YAXXZ DW 02a02H
	DB	02H
xdata	ENDS
;	COMDAT xdata
xdata	SEGMENT
$stateUnwindMap$??__F?m_CanvasShader@Primitive@@2V?$unique_ptr@VShader@@U?$default_delete@VShader@@@std@@@std@@A@@YAXXZ DW 0e02H
	DD	imagerel __std_terminate
xdata	ENDS
;	COMDAT xdata
xdata	SEGMENT
$cppxdata$??__F?m_CanvasShader@Primitive@@2V?$unique_ptr@VShader@@U?$default_delete@VShader@@@std@@@std@@A@@YAXXZ DB 028H
	DD	imagerel $stateUnwindMap$??__F?m_CanvasShader@Primitive@@2V?$unique_ptr@VShader@@U?$default_delete@VShader@@@std@@@std@@A@@YAXXZ
	DD	imagerel $ip2state$??__F?m_CanvasShader@Primitive@@2V?$unique_ptr@VShader@@U?$default_delete@VShader@@@std@@@std@@A@@YAXXZ
xdata	ENDS
;	COMDAT xdata
xdata	SEGMENT
$unwind$??__F?m_CanvasShader@Primitive@@2V?$unique_ptr@VShader@@U?$default_delete@VShader@@@std@@@std@@A@@YAXXZ DQ 03002320600020611r ; 1.96423e-77
	DD	imagerel __CxxFrameHandler4
	DD	imagerel $cppxdata$??__F?m_CanvasShader@Primitive@@2V?$unique_ptr@VShader@@U?$default_delete@VShader@@@std@@@std@@A@@YAXXZ
xdata	ENDS
;	COMDAT xdata
xdata	SEGMENT
$unwind$??1LayerManager@@QEAA@XZ DQ 03002320600020601r ; 1.96423e-77
xdata	ENDS
;	COMDAT xdata
xdata	SEGMENT
$ip2state$?AddLayer@LayerManager@@QEAA_KXZ DQ 003a10202b500800ar ; 3.40866e-291
	DD	020506H
	DW	06d4H
xdata	ENDS
;	COMDAT xdata
xdata	SEGMENT
$stateUnwindMap$?AddLayer@LayerManager@@QEAA_KXZ DW 0a06H
	DD	imagerel ??1?$basic_string@DU?$char_traits@D@std@@V?$allocator@D@2@@std@@QEAA@XZ
	DW	03260H
	DD	imagerel ??1?$basic_string@DU?$char_traits@D@std@@V?$allocator@D@2@@std@@QEAA@XZ
	DW	06af0H
	DD	imagerel ??1?$basic_string@DU?$char_traits@D@std@@V?$allocator@D@2@@std@@QEAA@XZ
	DB	0f0H
xdata	ENDS
;	COMDAT xdata
xdata	SEGMENT
$cppxdata$?AddLayer@LayerManager@@QEAA_KXZ DB 028H
	DD	imagerel $stateUnwindMap$?AddLayer@LayerManager@@QEAA_KXZ
	DD	imagerel $ip2state$?AddLayer@LayerManager@@QEAA_KXZ
xdata	ENDS
;	COMDAT xdata
xdata	SEGMENT
$unwind$?AddLayer@LayerManager@@QEAA_KXZ DQ 0001d7424000d3219r ; 4.09604e-308
	DQ	0001b3424001c6424r		; 3.78314e-308
	DQ	0e016f01800140124r		; -7.68866e+154
	DQ	000005010c012d014r		; 4.3494e-310
	DD	imagerel __GSHandlerCheck_EH4
	DD	imagerel $cppxdata$?AddLayer@LayerManager@@QEAA_KXZ
	DD	09aH
xdata	ENDS
;	COMDAT xdata
xdata	SEGMENT
$ip2state$?AddLayer@LayerManager@@QEAA_KV?$basic_string@DU?$char_traits@D@std@@V?$allocator@D@2@@std@@@Z DD 040025204H
	DB	00H
xdata	ENDS
;	COMDAT xdata
xdata	SEGMENT
$stateUnwindMap$?AddLayer@LayerManager@@QEAA_KV?$basic_string@DU?$char_traits@D@std@@V?$allocator@D@2@@std@@@Z DW 0c02H
	DD	imagerel ??1?$basic_string@DU?$char_traits@D@std@@V?$allocator@D@2@@std@@QEAA@XZ
	DB	0a0H
xdata	ENDS
;	COMDAT xdata
xdata	SEGMENT
$cppxdata$?AddLayer@LayerManager@@QEAA_KV?$basic_string@DU?$char_traits@D@std@@V?$allocator@D@2@@std@@@Z DB 028H
	DD	imagerel $stateUnwindMap$?AddLayer@LayerManager@@QEAA_KV?$basic_string@DU?$char_traits@D@std@@V?$allocator@D@2@@std@@@Z
	DD	imagerel $ip2state$?AddLayer@LayerManager@@QEAA_KV?$basic_string@DU?$char_traits@D@std@@V?$allocator@D@2@@std@@@Z
xdata	ENDS
;	COMDAT xdata
xdata	SEGMENT
$unwind$?AddLayer@LayerManager@@QEAA_KV?$basic_string@DU?$char_traits@D@std@@V?$allocator@D@2@@std@@@Z DQ 00010340a00041919r ; 2.25334e-308
	DD	07006b20aH
	DD	imagerel __GSHandlerCheck_EH4
	DD	imagerel $cppxdata$?AddLayer@LayerManager@@QEAA_KV?$basic_string@DU?$char_traits@D@std@@V?$allocator@D@2@@std@@@Z
	DD	05aH
xdata	ENDS
;	COMDAT xdata
xdata	SEGMENT
$unwind$?dtor$2@?0??AddLayer@LayerManager@@QEAA_KV?$basic_string@DU?$char_traits@D@std@@V?$allocator@D@2@@std@@U?$vec@$03M$0A@@glm@@@Z@4HA DQ 05002320600020601r ; 2.6336e+77
xdata	ENDS
;	COMDAT xdata
xdata	SEGMENT
$ip2state$?AddLayer@LayerManager@@QEAA_KV?$basic_string@DU?$char_traits@D@std@@V?$allocator@D@2@@std@@U?$vec@$03M$0A@@glm@@@Z DQ 0026004780202950cr ; 3.06145e-297
	DD	02f40690H
	DW	0279H
	DB	00H
xdata	ENDS
;	COMDAT xdata
xdata	SEGMENT
$stateUnwindMap$?AddLayer@LayerManager@@QEAA_KV?$basic_string@DU?$char_traits@D@std@@V?$allocator@D@2@@std@@U?$vec@$03M$0A@@glm@@@Z DW 0c06H
	DD	imagerel ??1?$basic_string@DU?$char_traits@D@std@@V?$allocator@D@2@@std@@QEAA@XZ
	DW	0281H
	DB	03eH
	DD	imagerel ?dtor$2@?0??AddLayer@LayerManager@@QEAA_KV?$basic_string@DU?$char_traits@D@std@@V?$allocator@D@2@@std@@U?$vec@$03M$0A@@glm@@@Z@4HA
	DB	062H
	DD	imagerel ??1?$shared_ptr@VLayer@@@std@@QEAA@XZ
	DW	02a1H
xdata	ENDS
;	COMDAT xdata
xdata	SEGMENT
$cppxdata$?AddLayer@LayerManager@@QEAA_KV?$basic_string@DU?$char_traits@D@std@@V?$allocator@D@2@@std@@U?$vec@$03M$0A@@glm@@@Z DB 028H
	DD	imagerel $stateUnwindMap$?AddLayer@LayerManager@@QEAA_KV?$basic_string@DU?$char_traits@D@std@@V?$allocator@D@2@@std@@U?$vec@$03M$0A@@glm@@@Z
	DD	imagerel $ip2state$?AddLayer@LayerManager@@QEAA_KV?$basic_string@DU?$char_traits@D@std@@V?$allocator@D@2@@std@@U?$vec@$03M$0A@@glm@@@Z
xdata	ENDS
;	COMDAT xdata
xdata	SEGMENT
$unwind$?AddLayer@LayerManager@@QEAA_KV?$basic_string@DU?$char_traits@D@std@@V?$allocator@D@2@@std@@U?$vec@$03M$0A@@glm@@@Z DQ 000233417000b2919r ; 5.34114e-308
	DQ	0e00ef01000180117r		; -5.18509e+154
	DQ	060077008c00ad00cr		; 3.92809e+154
	DD	05006H
	DD	imagerel __GSHandlerCheck_EH4
	DD	imagerel $cppxdata$?AddLayer@LayerManager@@QEAA_KV?$basic_string@DU?$char_traits@D@std@@V?$allocator@D@2@@std@@U?$vec@$03M$0A@@glm@@@Z
	DD	0baH
xdata	ENDS
;	COMDAT xdata
xdata	SEGMENT
$unwind$?BindActiveLayer@LayerManager@@QEAAXXZ DQ 00000420400010401r ; 3.58617e-310
xdata	ENDS
;	COMDAT xdata
xdata	SEGMENT
$unwind$?UnbindActiveLayer@LayerManager@@QEAAXXZ DQ 00000420400010401r ; 3.58617e-310
xdata	ENDS
;	COMDAT xdata
xdata	SEGMENT
$unwind$?NextLayerDraggable@LayerManager@@AEAAXH@Z DQ 00000420400010401r ; 3.58617e-310
xdata	ENDS
;	COMDAT xdata
xdata	SEGMENT
$ip2state$?DrawLayer@LayerManager@@AEAAXH_NM@Z DQ 008ed00aa0205b512r ; 1.12432e-265
	DQ	00b2d04460623d904r		; 7.73004e-255
	DD	018048e00H
	DW	01800H
	DB	04H
xdata	ENDS
;	COMDAT xdata
xdata	SEGMENT
$stateUnwindMap$?DrawLayer@LayerManager@@AEAAXH_NM@Z DW 0a06H
	DD	imagerel ??1?$shared_ptr@VLayer@@@std@@QEAA@XZ
	DW	02e1H
	DB	042H
	DD	imagerel ??1?$basic_string@DU?$char_traits@D@std@@V?$allocator@D@2@@std@@QEAA@XZ
	DW	0321H
	DB	03aH
	DD	imagerel ??1?$basic_string@DU?$char_traits@D@std@@V?$allocator@D@2@@std@@QEAA@XZ
	DB	0f0H
xdata	ENDS
;	COMDAT xdata
xdata	SEGMENT
$cppxdata$?DrawLayer@LayerManager@@AEAAXH_NM@Z DB 028H
	DD	imagerel $stateUnwindMap$?DrawLayer@LayerManager@@AEAAXH_NM@Z
	DD	imagerel $ip2state$?DrawLayer@LayerManager@@AEAAXH_NM@Z
xdata	ENDS
;	COMDAT xdata
xdata	SEGMENT
$unwind$?DrawLayer@LayerManager@@AEAAXH_NM@Z DQ 0000fa82f00133d19r ; 2.17737e-308
	DQ	0001178250010882ar		; 2.42941e-308
	DQ	00030341d00126821r		; 9.01353e-308
	DQ	0e010f0120026011dr		; -5.67746e+154
	DQ	06009700ac00cd00er		; 4.26329e+154
	DD	05008H
	DD	imagerel __GSHandlerCheck_EH4
	DD	imagerel $cppxdata$?DrawLayer@LayerManager@@AEAAXH_NM@Z
	DD	0eaH
xdata	ENDS
;	COMDAT xdata
xdata	SEGMENT
$unwind$?DrawLayersWindow@LayerManager@@QEAAXXZ DQ 000067822000c3019r ; 8.99663e-309
	DQ	0001664180007681dr		; 3.11385e-308
	DQ	0e00ef21800153418r		; -5.18642e+154
	DD	0500b700cH
	DD	imagerel __GSHandlerCheck
	DD	058H
xdata	ENDS
;	COMDAT xdata
xdata	SEGMENT
$chain$1$??1?$shared_ptr@VLayer@@@std@@QEAA@XZ DD 021H
	DD	imagerel $LN18@shared_ptr
	DD	imagerel $LN18@shared_ptr+15
	DD	imagerel $unwind$??1?$shared_ptr@VLayer@@@std@@QEAA@XZ
xdata	ENDS
;	COMDAT xdata
xdata	SEGMENT
$chain$0$??1?$shared_ptr@VLayer@@@std@@QEAA@XZ DQ 00006740500020521r ; 8.97428e-309
	DD	imagerel $LN18@shared_ptr
	DD	imagerel $LN18@shared_ptr+15
	DD	imagerel $unwind$??1?$shared_ptr@VLayer@@@std@@QEAA@XZ
xdata	ENDS
;	COMDAT xdata
xdata	SEGMENT
$unwind$??1?$shared_ptr@VLayer@@@std@@QEAA@XZ DQ 03002320600020601r ; 1.96423e-77
xdata	ENDS
;	COMDAT xdata
xdata	SEGMENT
$unwind$?at@?$vector@V?$shared_ptr@VLayer@@@std@@V?$allocator@V?$shared_ptr@VLayer@@@std@@@2@@std@@QEAAAEAV?$shared_ptr@VLayer@@@2@_K@Z DQ 00000420400010401r ; 3.58617e-310
xdata	ENDS
;	COMDAT xdata
xdata	SEGMENT
$chain$4$?erase@?$vector@V?$shared_ptr@VLayer@@@std@@V?$allocator@V?$shared_ptr@VLayer@@@std@@@2@@std@@QEAA?AV?$_Vector_iterator@V?$_Vector_val@U?$_Simple_types@V?$shared_ptr@VLayer@@@std@@@std@@@std@@@2@V?$_Vector_const_iterator@V?$_Vector_val@U?$_Simple_types@V?$shared_ptr@VLayer@@@std@@@std@@@std@@@2@@Z DD 021H
	DD	imagerel $LN71@erase
	DD	imagerel $LN71@erase+12
	DD	imagerel $unwind$?erase@?$vector@V?$shared_ptr@VLayer@@@std@@V?$allocator@V?$shared_ptr@VLayer@@@std@@@2@@std@@QEAA?AV?$_Vector_iterator@V?$_Vector_val@U?$_Simple_types@V?$shared_ptr@VLayer@@@std@@@std@@@std@@@2@V?$_Vector_const_iterator@V?$_Vector_val@U?$_Simple_types@V?$shared_ptr@VLayer@@@std@@@std@@@std@@@2@@Z
xdata	ENDS
;	COMDAT xdata
xdata	SEGMENT
$chain$3$?erase@?$vector@V?$shared_ptr@VLayer@@@std@@V?$allocator@V?$shared_ptr@VLayer@@@std@@@2@@std@@QEAA?AV?$_Vector_iterator@V?$_Vector_val@U?$_Simple_types@V?$shared_ptr@VLayer@@@std@@@std@@@std@@@2@V?$_Vector_const_iterator@V?$_Vector_val@U?$_Simple_types@V?$shared_ptr@VLayer@@@std@@@std@@@std@@@2@@Z DD 021H
	DD	imagerel $LN71@erase+12
	DD	imagerel $LN71@erase+49
	DD	imagerel $chain$1$?erase@?$vector@V?$shared_ptr@VLayer@@@std@@V?$allocator@V?$shared_ptr@VLayer@@@std@@@2@@std@@QEAA?AV?$_Vector_iterator@V?$_Vector_val@U?$_Simple_types@V?$shared_ptr@VLayer@@@std@@@std@@@std@@@2@V?$_Vector_const_iterator@V?$_Vector_val@U?$_Simple_types@V?$shared_ptr@VLayer@@@std@@@std@@@std@@@2@@Z
xdata	ENDS
;	COMDAT xdata
xdata	SEGMENT
$chain$2$?erase@?$vector@V?$shared_ptr@VLayer@@@std@@V?$allocator@V?$shared_ptr@VLayer@@@std@@@2@@std@@QEAA?AV?$_Vector_iterator@V?$_Vector_val@U?$_Simple_types@V?$shared_ptr@VLayer@@@std@@@std@@@std@@@2@V?$_Vector_const_iterator@V?$_Vector_val@U?$_Simple_types@V?$shared_ptr@VLayer@@@std@@@std@@@std@@@2@@Z DQ 0000bd40500020521r ; 1.64491e-308
	DD	imagerel $LN71@erase+12
	DD	imagerel $LN71@erase+49
	DD	imagerel $chain$1$?erase@?$vector@V?$shared_ptr@VLayer@@@std@@V?$allocator@V?$shared_ptr@VLayer@@@std@@@2@@std@@QEAA?AV?$_Vector_iterator@V?$_Vector_val@U?$_Simple_types@V?$shared_ptr@VLayer@@@std@@@std@@@std@@@2@V?$_Vector_const_iterator@V?$_Vector_val@U?$_Simple_types@V?$shared_ptr@VLayer@@@std@@@std@@@std@@@2@@Z
xdata	ENDS
;	COMDAT xdata
xdata	SEGMENT
$chain$1$?erase@?$vector@V?$shared_ptr@VLayer@@@std@@V?$allocator@V?$shared_ptr@VLayer@@@std@@@2@@std@@QEAA?AV?$_Vector_iterator@V?$_Vector_val@U?$_Simple_types@V?$shared_ptr@VLayer@@@std@@@std@@@std@@@2@V?$_Vector_const_iterator@V?$_Vector_val@U?$_Simple_types@V?$shared_ptr@VLayer@@@std@@@std@@@std@@@2@@Z DQ 0000ce40d00040d21r ; 1.79269e-308
	DD	0a6405H
	DD	imagerel $LN71@erase
	DD	imagerel $LN71@erase+12
	DD	imagerel $unwind$?erase@?$vector@V?$shared_ptr@VLayer@@@std@@V?$allocator@V?$shared_ptr@VLayer@@@std@@@2@@std@@QEAA?AV?$_Vector_iterator@V?$_Vector_val@U?$_Simple_types@V?$shared_ptr@VLayer@@@std@@@std@@@std@@@2@V?$_Vector_const_iterator@V?$_Vector_val@U?$_Simple_types@V?$shared_ptr@VLayer@@@std@@@std@@@std@@@2@@Z
xdata	ENDS
;	COMDAT xdata
xdata	SEGMENT
$unwind$?erase@?$vector@V?$shared_ptr@VLayer@@@std@@V?$allocator@V?$shared_ptr@VLayer@@@std@@@2@@std@@QEAA?AV?$_Vector_iterator@V?$_Vector_val@U?$_Simple_types@V?$shared_ptr@VLayer@@@std@@@std@@@std@@@2@V?$_Vector_const_iterator@V?$_Vector_val@U?$_Simple_types@V?$shared_ptr@VLayer@@@std@@@std@@@std@@@2@@Z DQ 0f008320c00060c01r ; -4.69549e+231
	DQ	0300250037004c006r		; 1.97688e-77
xdata	ENDS
;	COMDAT xdata
xdata	SEGMENT
$unwind$?insert@?$vector@V?$shared_ptr@VLayer@@@std@@V?$allocator@V?$shared_ptr@VLayer@@@std@@@2@@std@@QEAA?AV?$_Vector_iterator@V?$_Vector_val@U?$_Simple_types@V?$shared_ptr@VLayer@@@std@@@std@@@std@@@2@V?$_Vector_const_iterator@V?$_Vector_val@U?$_Simple_types@V?$shared_ptr@VLayer@@@std@@@std@@@std@@@2@AEBV?$shared_ptr@VLayer@@@2@@Z DQ 03002320600020601r ; 1.96423e-77
xdata	ENDS
;	COMDAT xdata
xdata	SEGMENT
$unwind$??1?$vector@V?$shared_ptr@VLayer@@@std@@V?$allocator@V?$shared_ptr@VLayer@@@std@@@2@@std@@QEAA@XZ DQ 03002320600020601r ; 1.96423e-77
xdata	ENDS
;	COMDAT xdata
xdata	SEGMENT
$unwind$?push_back@?$vector@_NV?$allocator@_N@std@@@std@@QEAAXAEB_N@Z DQ 00000a20400010401r ; 8.80119e-310
xdata	ENDS
;	COMDAT xdata
xdata	SEGMENT
$unwind$?at@?$vector@_NV?$allocator@_N@std@@@std@@QEAA?AV?$_Vb_reference@U?$_Wrap_alloc@V?$allocator@I@std@@@std@@@2@_K@Z DQ 00000420400010401r ; 3.58617e-310
xdata	ENDS
;	COMDAT xdata
xdata	SEGMENT
$unwind$??1?$vector@_NV?$allocator@_N@std@@@std@@QEAA@XZ DQ 03002320600020601r ; 1.96423e-77
xdata	ENDS
;	COMDAT xdata
xdata	SEGMENT
$ip2state$??1?$unique_ptr@VShader@@U?$default_delete@VShader@@@std@@@std@@QEAA@XZ DW 02202H
	DB	02H
xdata	ENDS
;	COMDAT xdata
xdata	SEGMENT
$stateUnwindMap$??1?$unique_ptr@VShader@@U?$default_delete@VShader@@@std@@@std@@QEAA@XZ DW 0e02H
	DD	imagerel __std_terminate
xdata	ENDS
;	COMDAT xdata
xdata	SEGMENT
$cppxdata$??1?$unique_ptr@VShader@@U?$default_delete@VShader@@@std@@@std@@QEAA@XZ DB 068H
	DD	imagerel $stateUnwindMap$??1?$unique_ptr@VShader@@U?$default_delete@VShader@@@std@@@std@@QEAA@XZ
	DD	imagerel $ip2state$??1?$unique_ptr@VShader@@U?$default_delete@VShader@@@std@@@std@@QEAA@XZ
xdata	ENDS
;	COMDAT xdata
xdata	SEGMENT
$unwind$??1?$unique_ptr@VShader@@U?$default_delete@VShader@@@std@@@std@@QEAA@XZ DQ 03002320600020619r ; 1.96423e-77
	DD	imagerel __CxxFrameHandler4
	DD	imagerel $cppxdata$??1?$unique_ptr@VShader@@U?$default_delete@VShader@@@std@@@std@@QEAA@XZ
xdata	ENDS
;	COMDAT xdata
xdata	SEGMENT
$chain$1$?_Decref@?$_Ptr_base@VLayer@@@std@@IEAAXXZ DD 021H
	DD	imagerel $LN16@Decref
	DD	imagerel $LN16@Decref+15
	DD	imagerel $unwind$?_Decref@?$_Ptr_base@VLayer@@@std@@IEAAXXZ
xdata	ENDS
;	COMDAT xdata
xdata	SEGMENT
$chain$0$?_Decref@?$_Ptr_base@VLayer@@@std@@IEAAXXZ DQ 00006740500020521r ; 8.97428e-309
	DD	imagerel $LN16@Decref
	DD	imagerel $LN16@Decref+15
	DD	imagerel $unwind$?_Decref@?$_Ptr_base@VLayer@@@std@@IEAAXXZ
xdata	ENDS
;	COMDAT xdata
xdata	SEGMENT
$unwind$?_Decref@?$_Ptr_base@VLayer@@@std@@IEAAXXZ DQ 03002320600020601r ; 1.96423e-77
xdata	ENDS
;	COMDAT xdata
xdata	SEGMENT
$unwind$?_Xrange@?$vector@V?$shared_ptr@VLayer@@@std@@V?$allocator@V?$shared_ptr@VLayer@@@std@@@2@@std@@CAXXZ DQ 00000420400010401r ; 3.58617e-310
xdata	ENDS
;	COMDAT xdata
xdata	SEGMENT
$unwind$?_Tidy@?$vector@V?$shared_ptr@VLayer@@@std@@V?$allocator@V?$shared_ptr@VLayer@@@std@@@2@@std@@AEAAXXZ DQ 03002320600020601r ; 1.96423e-77
xdata	ENDS
;	COMDAT xdata
xdata	SEGMENT
$unwind$?_Xran@?$vector@_NV?$allocator@_N@std@@@std@@QEBAXXZ DQ 00000420400010401r ; 3.58617e-310
xdata	ENDS
;	COMDAT xdata
xdata	SEGMENT
$unwind$?insert@?$vector@_NV?$allocator@_N@std@@@std@@QEAA?AV?$_Vb_iterator@U?$_Wrap_alloc@V?$allocator@I@std@@@std@@@2@V?$_Vb_const_iterator@U?$_Wrap_alloc@V?$allocator@I@std@@@std@@@2@AEB_N@Z DQ 03002720600020601r ; 1.99122e-77
xdata	ENDS
;	COMDAT xdata
xdata	SEGMENT
$unwind$?end@?$vector@_NV?$allocator@_N@std@@@std@@QEAA?AV?$_Vb_iterator@U?$_Wrap_alloc@V?$allocator@I@std@@@std@@@2@XZ DQ 00000220400010401r ; 1.84783e-310
xdata	ENDS
;	COMDAT xdata
xdata	SEGMENT
$unwind$??1?$_Vb_val@V?$allocator@_N@std@@@std@@QEAA@XZ DQ 03002320600020601r ; 1.96423e-77
xdata	ENDS
;	COMDAT xdata
xdata	SEGMENT
$ip2state$??R?$default_delete@VShader@@@std@@QEBAXPEAVShader@@@Z DW 02002H
	DB	02H
xdata	ENDS
;	COMDAT xdata
xdata	SEGMENT
$stateUnwindMap$??R?$default_delete@VShader@@@std@@QEBAXPEAVShader@@@Z DW 0e02H
	DD	imagerel __std_terminate
xdata	ENDS
;	COMDAT xdata
xdata	SEGMENT
$cppxdata$??R?$default_delete@VShader@@@std@@QEBAXPEAVShader@@@Z DB 068H
	DD	imagerel $stateUnwindMap$??R?$default_delete@VShader@@@std@@QEBAXPEAVShader@@@Z
	DD	imagerel $ip2state$??R?$default_delete@VShader@@@std@@QEBAXPEAVShader@@@Z
xdata	ENDS
;	COMDAT xdata
xdata	SEGMENT
$unwind$??R?$default_delete@VShader@@@std@@QEBAXPEAVShader@@@Z DQ 03006320a00020a19r ; 2.39605e-77
	DD	imagerel __CxxFrameHandler4
	DD	imagerel $cppxdata$??R?$default_delete@VShader@@@std@@QEBAXPEAVShader@@@Z
xdata	ENDS
;	COMDAT xdata
xdata	SEGMENT
$chain$2$??R?$default_delete@VCanvasObject@@@std@@QEBAXPEAVCanvasObject@@@Z DQ 00006740000020021r ; 8.97417e-309
	DD	imagerel $LN78@operator
	DD	imagerel $LN78@operator+21
	DD	imagerel $unwind$??R?$default_delete@VCanvasObject@@@std@@QEBAXPEAVCanvasObject@@@Z
xdata	ENDS
;	COMDAT xdata
xdata	SEGMENT
$chain$1$??R?$default_delete@VCanvasObject@@@std@@QEBAXPEAVCanvasObject@@@Z DD 021H
	DD	imagerel $LN78@operator
	DD	imagerel $LN78@operator+21
	DD	imagerel $unwind$??R?$default_delete@VCanvasObject@@@std@@QEBAXPEAVCanvasObject@@@Z
xdata	ENDS
;	COMDAT xdata
xdata	SEGMENT
$chain$0$??R?$default_delete@VCanvasObject@@@std@@QEBAXPEAVCanvasObject@@@Z DQ 00006740500020521r ; 8.97428e-309
	DD	imagerel $LN78@operator
	DD	imagerel $LN78@operator+21
	DD	imagerel $unwind$??R?$default_delete@VCanvasObject@@@std@@QEBAXPEAVCanvasObject@@@Z
xdata	ENDS
;	COMDAT xdata
xdata	SEGMENT
$unwind$??R?$default_delete@VCanvasObject@@@std@@QEBAXPEAVCanvasObject@@@Z DQ 0300a320e00020e01r ; 2.82786e-77
xdata	ENDS
;	COMDAT xdata
xdata	SEGMENT
$chain$1$?append@?$basic_string@DU?$char_traits@D@std@@V?$allocator@D@2@@std@@QEAAAEAV12@QEBD_K@Z DD 021H
	DD	imagerel $LN43@append
	DD	imagerel $LN43@append+35
	DD	imagerel $unwind$?append@?$basic_string@DU?$char_traits@D@std@@V?$allocator@D@2@@std@@QEAAAEAV12@QEBD_K@Z
xdata	ENDS
;	COMDAT xdata
xdata	SEGMENT
$chain$0$?append@?$basic_string@DU?$char_traits@D@std@@V?$allocator@D@2@@std@@QEAAAEAV12@QEBD_K@Z DQ 00008340500020521r ; 1.1408e-308
	DD	imagerel $LN43@append
	DD	imagerel $LN43@append+35
	DD	imagerel $unwind$?append@?$basic_string@DU?$char_traits@D@std@@V?$allocator@D@2@@std@@QEAAAEAV12@QEBD_K@Z
xdata	ENDS
;	COMDAT xdata
xdata	SEGMENT
$unwind$?append@?$basic_string@DU?$char_traits@D@std@@V?$allocator@D@2@@std@@QEAAAEAV12@QEBD_K@Z DQ 00009640a00040a01r ; 1.30595e-308
	DD	07006520aH
xdata	ENDS
;	COMDAT xdata
xdata	SEGMENT
$unwind$??R<lambda_1>@?1??append@?$basic_string@DU?$char_traits@D@std@@V?$allocator@D@2@@std@@QEAAAEAV23@QEBD_K@Z@QEBA@QEAD0101@Z DQ 00006340a00040a01r ; 8.62672e-309
	DD	07006320aH
xdata	ENDS
;	COMDAT xdata
xdata	SEGMENT
$ip2state$??_GShader@@QEAAPEAXI@Z DW 01802H
	DB	02H
xdata	ENDS
;	COMDAT xdata
xdata	SEGMENT
$stateUnwindMap$??_GShader@@QEAAPEAXI@Z DW 0e02H
	DD	imagerel __std_terminate
xdata	ENDS
;	COMDAT xdata
xdata	SEGMENT
$cppxdata$??_GShader@@QEAAPEAXI@Z DB 068H
	DD	imagerel $stateUnwindMap$??_GShader@@QEAAPEAXI@Z
	DD	imagerel $ip2state$??_GShader@@QEAAPEAXI@Z
xdata	ENDS
;	COMDAT xdata
xdata	SEGMENT
$unwind$??_GShader@@QEAAPEAXI@Z DQ 03002320600020619r ; 1.96423e-77
	DD	imagerel __CxxFrameHandler4
	DD	imagerel $cppxdata$??_GShader@@QEAAPEAXI@Z
xdata	ENDS
;	COMDAT xdata
xdata	SEGMENT
$unwind$??_GCanvasObject@@QEAAPEAXI@Z DQ 00007340a00040a01r ; 1.00174e-308
	DD	07006320aH
xdata	ENDS
;	COMDAT xdata
xdata	SEGMENT
$unwind$?deallocate@?$allocator@V?$shared_ptr@VLayer@@@std@@@std@@QEAAXQEAV?$shared_ptr@VLayer@@@2@_K@Z DQ 00000420400010401r ; 3.58617e-310
xdata	ENDS
;	COMDAT xdata
xdata	SEGMENT
$unwind$?_Insert_n@?$vector@_NV?$allocator@_N@std@@@std@@QEAA?AV?$_Vb_iterator@U?$_Wrap_alloc@V?$allocator@I@std@@@std@@@2@V?$_Vb_const_iterator@U?$_Wrap_alloc@V?$allocator@I@std@@@std@@@2@_KAEB_N@Z DQ 0000f341000081001r ; 2.11429e-308
	DQ	07008e00af00c5210r		; 4.82739e+231
	DD	050066007H
xdata	ENDS
;	COMDAT xdata
xdata	SEGMENT
$unwind$??1?$vector@IV?$allocator@I@std@@@std@@QEAA@XZ DQ 03002320600020601r ; 1.96423e-77
xdata	ENDS
;	COMDAT xdata
xdata	SEGMENT
$unwind$?move@?$_Char_traits@DH@std@@SAPEADQEADQEBD_K@Z DQ 03002320600020601r ; 1.96423e-77
xdata	ENDS
;	COMDAT xdata
xdata	SEGMENT
$chain$1$?_Insert_x@?$vector@_NV?$allocator@_N@std@@@std@@QEAA_KV?$_Vb_const_iterator@U?$_Wrap_alloc@V?$allocator@I@std@@@std@@@2@_K@Z DD 021H
	DD	imagerel $LN208@Insert_x
	DD	imagerel $LN208@Insert_x+70
	DD	imagerel $unwind$?_Insert_x@?$vector@_NV?$allocator@_N@std@@@std@@QEAA_KV?$_Vb_const_iterator@U?$_Wrap_alloc@V?$allocator@I@std@@@std@@@2@_K@Z
xdata	ENDS
;	COMDAT xdata
xdata	SEGMENT
$chain$0$?_Insert_x@?$vector@_NV?$allocator@_N@std@@@std@@QEAA_KV?$_Vb_const_iterator@U?$_Wrap_alloc@V?$allocator@I@std@@@std@@@2@_K@Z DQ 0000b640500020521r ; 1.58407e-308
	DD	imagerel $LN208@Insert_x
	DD	imagerel $LN208@Insert_x+70
	DD	imagerel $unwind$?_Insert_x@?$vector@_NV?$allocator@_N@std@@@std@@QEAA_KV?$_Vb_const_iterator@U?$_Wrap_alloc@V?$allocator@I@std@@@std@@@2@_K@Z
xdata	ENDS
;	COMDAT xdata
xdata	SEGMENT
$unwind$?_Insert_x@?$vector@_NV?$allocator@_N@std@@@std@@QEAA_KV?$_Vb_const_iterator@U?$_Wrap_alloc@V?$allocator@I@std@@@std@@@2@_K@Z DQ 0000d540f00060f01r ; 1.85354e-308
	DQ	0700b720f000c340fr		; 5.32621e+231
xdata	ENDS
;	COMDAT xdata
xdata	SEGMENT
$unwind$?_Tidy@?$vector@IV?$allocator@I@std@@@std@@AEAAXXZ DQ 03002320600020601r ; 1.96423e-77
xdata	ENDS
;	COMDAT xdata
xdata	SEGMENT
$unwind$?_Xlen@?$vector@_NV?$allocator@_N@std@@@std@@QEBAXXZ DQ 00000420400010401r ; 3.58617e-310
xdata	ENDS
;	COMDAT xdata
xdata	SEGMENT
$chain$1$?resize@?$vector@IV?$allocator@I@std@@@std@@QEAAX_KAEBI@Z DD 021H
	DD	imagerel $LN38@resize
	DD	imagerel $LN38@resize+99
	DD	imagerel $unwind$?resize@?$vector@IV?$allocator@I@std@@@std@@QEAAX_KAEBI@Z
xdata	ENDS
;	COMDAT xdata
xdata	SEGMENT
$chain$0$?resize@?$vector@IV?$allocator@I@std@@@std@@QEAAX_KAEBI@Z DQ 00008740500020521r ; 1.17556e-308
	DD	imagerel $LN38@resize
	DD	imagerel $LN38@resize+99
	DD	imagerel $unwind$?resize@?$vector@IV?$allocator@I@std@@@std@@QEAAX_KAEBI@Z
xdata	ENDS
;	COMDAT xdata
xdata	SEGMENT
$unwind$?resize@?$vector@IV?$allocator@I@std@@@std@@QEAAX_KAEBI@Z DQ 00009340a00040a01r ; 1.27987e-308
	DD	06006320aH
xdata	ENDS
;	COMDAT xdata
xdata	SEGMENT
$unwind$?deallocate@?$allocator@I@std@@QEAAXQEAI_K@Z DQ 00000420400010401r ; 3.58617e-310
xdata	ENDS
;	COMDAT xdata
xdata	SEGMENT
$unwind$?_Xran@?$_String_val@U?$_Simple_types@D@std@@@std@@SAXXZ DQ 00000420400010401r ; 3.58617e-310
xdata	ENDS
;	COMDAT xdata
xdata	SEGMENT
$unwind$??$_Integral_to_string@DH@std@@YA?AV?$basic_string@DU?$char_traits@D@std@@V?$allocator@D@2@@0@H@Z DQ 0001064ba0008ba19r ; 2.27979e-308
	DQ	0e0059209000f54a2r		; -3.61516e+154
	DD	030027003H
	DD	imagerel __GSHandlerCheck
	DD	048H
xdata	ENDS
;	COMDAT xdata
xdata	SEGMENT
$chain$4$??$?HDU?$char_traits@D@std@@V?$allocator@D@1@@std@@YA?AV?$basic_string@DU?$char_traits@D@std@@V?$allocator@D@2@@0@QEBDAEBV10@@Z DQ 00006d40000060021r ; 9.49568e-309
	DQ	00011640000077400r		; 2.41846e-308
	DD	imagerel $LN101@operator
	DD	imagerel $LN101@operator+78
	DD	imagerel $unwind$??$?HDU?$char_traits@D@std@@V?$allocator@D@1@@std@@YA?AV?$basic_string@DU?$char_traits@D@std@@V?$allocator@D@2@@0@QEBDAEBV10@@Z
xdata	ENDS
;	COMDAT xdata
xdata	SEGMENT
$chain$3$??$?HDU?$char_traits@D@std@@V?$allocator@D@1@@std@@YA?AV?$basic_string@DU?$char_traits@D@std@@V?$allocator@D@2@@0@QEBDAEBV10@@Z DD 021H
	DD	imagerel $LN101@operator
	DD	imagerel $LN101@operator+78
	DD	imagerel $unwind$??$?HDU?$char_traits@D@std@@V?$allocator@D@1@@std@@YA?AV?$basic_string@DU?$char_traits@D@std@@V?$allocator@D@2@@0@QEBDAEBV10@@Z
xdata	ENDS
;	COMDAT xdata
xdata	SEGMENT
$chain$2$??$?HDU?$char_traits@D@std@@V?$allocator@D@1@@std@@YA?AV?$basic_string@DU?$char_traits@D@std@@V?$allocator@D@2@@0@QEBDAEBV10@@Z DQ 00006d41200061221r ; 9.49606e-309
	DQ	0001164080007740dr		; 2.41848e-308
	DD	imagerel $LN101@operator
	DD	imagerel $LN101@operator+78
	DD	imagerel $unwind$??$?HDU?$char_traits@D@std@@V?$allocator@D@1@@std@@YA?AV?$basic_string@DU?$char_traits@D@std@@V?$allocator@D@2@@0@QEBDAEBV10@@Z
xdata	ENDS
;	COMDAT xdata
xdata	SEGMENT
$unwind$??$?HDU?$char_traits@D@std@@V?$allocator@D@1@@std@@YA?AV?$basic_string@DU?$char_traits@D@std@@V?$allocator@D@2@@0@QEBDAEBV10@@Z DQ 0f009720d00060d01r ; -4.93808e+231
	DQ	030025003c005e007r		; 1.97688e-77
xdata	ENDS
;	COMDAT xdata
xdata	SEGMENT
$chain$2$??$?HDU?$char_traits@D@std@@V?$allocator@D@1@@std@@YA?AV?$basic_string@DU?$char_traits@D@std@@V?$allocator@D@2@@0@QEBD$$QEAV10@@Z DD 021H
	DD	imagerel $LN124@operator
	DD	imagerel $LN124@operator+69
	DD	imagerel $unwind$??$?HDU?$char_traits@D@std@@V?$allocator@D@1@@std@@YA?AV?$basic_string@DU?$char_traits@D@std@@V?$allocator@D@2@@0@QEBD$$QEAV10@@Z
xdata	ENDS
;	COMDAT xdata
xdata	SEGMENT
$chain$1$??$?HDU?$char_traits@D@std@@V?$allocator@D@1@@std@@YA?AV?$basic_string@DU?$char_traits@D@std@@V?$allocator@D@2@@0@QEBD$$QEAV10@@Z DQ 0000df41500041521r ; 1.94047e-308
	DD	0ce405H
	DD	imagerel $LN124@operator
	DD	imagerel $LN124@operator+69
	DD	imagerel $unwind$??$?HDU?$char_traits@D@std@@V?$allocator@D@1@@std@@YA?AV?$basic_string@DU?$char_traits@D@std@@V?$allocator@D@2@@0@QEBD$$QEAV10@@Z
xdata	ENDS
;	COMDAT xdata
xdata	SEGMENT
$unwind$??$?HDU?$char_traits@D@std@@V?$allocator@D@1@@std@@YA?AV?$basic_string@DU?$char_traits@D@std@@V?$allocator@D@2@@0@QEBD$$QEAV10@@Z DQ 0000f541200081201r ; 2.13168e-308
	DQ	0c00e7212000e3412r		; -3.8057
	DD	0600b700cH
xdata	ENDS
;	COMDAT xdata
xdata	SEGMENT
$unwind$?dtor$0@?0???$make_shared@VLayer@@AEAV?$basic_string@DU?$char_traits@D@std@@V?$allocator@D@2@@std@@AEA_K_K_KAEAU?$vec@$03M$0A@@glm@@@std@@YA?AV?$shared_ptr@VLayer@@@0@AEAV?$basic_string@DU?$char_traits@D@std@@V?$allocator@D@2@@0@AEA_K$$QEA_K2AEAU?$vec@$03M$0A@@glm@@@Z@4HA DQ 05002320600020601r ; 2.6336e+77
xdata	ENDS
;	COMDAT xdata
xdata	SEGMENT
$ip2state$??$make_shared@VLayer@@AEAV?$basic_string@DU?$char_traits@D@std@@V?$allocator@D@2@@std@@AEA_K_K_KAEAU?$vec@$03M$0A@@glm@@@std@@YA?AV?$shared_ptr@VLayer@@@0@AEAV?$basic_string@DU?$char_traits@D@std@@V?$allocator@D@2@@0@AEA_K$$QEA_K2AEAU?$vec@$03M$0A@@glm@@@Z DD 0b0004606H
	DW	05a02H
	DB	00H
xdata	ENDS
;	COMDAT xdata
xdata	SEGMENT
$stateUnwindMap$??$make_shared@VLayer@@AEAV?$basic_string@DU?$char_traits@D@std@@V?$allocator@D@2@@std@@AEA_K_K_KAEAU?$vec@$03M$0A@@glm@@@std@@YA?AV?$shared_ptr@VLayer@@@0@AEAV?$basic_string@DU?$char_traits@D@std@@V?$allocator@D@2@@0@AEA_K$$QEA_K2AEAU?$vec@$03M$0A@@glm@@@Z DW 0e02H
	DD	imagerel ?dtor$0@?0???$make_shared@VLayer@@AEAV?$basic_string@DU?$char_traits@D@std@@V?$allocator@D@2@@std@@AEA_K_K_KAEAU?$vec@$03M$0A@@glm@@@std@@YA?AV?$shared_ptr@VLayer@@@0@AEAV?$basic_string@DU?$char_traits@D@std@@V?$allocator@D@2@@0@AEA_K$$QEA_K2AEAU?$vec@$03M$0A@@glm@@@Z@4HA
xdata	ENDS
;	COMDAT xdata
xdata	SEGMENT
$cppxdata$??$make_shared@VLayer@@AEAV?$basic_string@DU?$char_traits@D@std@@V?$allocator@D@2@@std@@AEA_K_K_KAEAU?$vec@$03M$0A@@glm@@@std@@YA?AV?$shared_ptr@VLayer@@@0@AEAV?$basic_string@DU?$char_traits@D@std@@V?$allocator@D@2@@0@AEA_K$$QEA_K2AEAU?$vec@$03M$0A@@glm@@@Z DB 028H
	DD	imagerel $stateUnwindMap$??$make_shared@VLayer@@AEAV?$basic_string@DU?$char_traits@D@std@@V?$allocator@D@2@@std@@AEA_K_K_KAEAU?$vec@$03M$0A@@glm@@@std@@YA?AV?$shared_ptr@VLayer@@@0@AEAV?$basic_string@DU?$char_traits@D@std@@V?$allocator@D@2@@0@AEA_K$$QEA_K2AEAU?$vec@$03M$0A@@glm@@@Z
	DD	imagerel $ip2state$??$make_shared@VLayer@@AEAV?$basic_string@DU?$char_traits@D@std@@V?$allocator@D@2@@std@@AEA_K_K_KAEAU?$vec@$03M$0A@@glm@@@std@@YA?AV?$shared_ptr@VLayer@@@0@AEAV?$basic_string@DU?$char_traits@D@std@@V?$allocator@D@2@@0@AEA_K$$QEA_K2AEAU?$vec@$03M$0A@@glm@@@Z
xdata	ENDS
;	COMDAT xdata
xdata	SEGMENT
$unwind$??$make_shared@VLayer@@AEAV?$basic_string@DU?$char_traits@D@std@@V?$allocator@D@2@@std@@AEA_K_K_KAEAU?$vec@$03M$0A@@glm@@@std@@YA?AV?$shared_ptr@VLayer@@@0@AEAV?$basic_string@DU?$char_traits@D@std@@V?$allocator@D@2@@0@AEA_K$$QEA_K2AEAU?$vec@$03M$0A@@glm@@@Z DQ 00015341500081511r ; 2.9487e-308
	DQ	0700de00ff011d215r		; 5.79773e+231
	DD	0500b600cH
	DD	imagerel __CxxFrameHandler4
	DD	imagerel $cppxdata$??$make_shared@VLayer@@AEAV?$basic_string@DU?$char_traits@D@std@@V?$allocator@D@2@@std@@AEA_K_K_KAEAU?$vec@$03M$0A@@glm@@@std@@YA?AV?$shared_ptr@VLayer@@@0@AEAV?$basic_string@DU?$char_traits@D@std@@V?$allocator@D@2@@0@AEA_K$$QEA_K2AEAU?$vec@$03M$0A@@glm@@@Z
xdata	ENDS
;	COMDAT xdata
xdata	SEGMENT
$chain$2$??$_Move_unchecked@PEAV?$shared_ptr@VLayer@@@std@@PEAV12@@std@@YAPEAV?$shared_ptr@VLayer@@@0@PEAV10@00@Z DD 021H
	DD	imagerel $LN46@Move_unche
	DD	imagerel $LN46@Move_unche+29
	DD	imagerel $unwind$??$_Move_unchecked@PEAV?$shared_ptr@VLayer@@@std@@PEAV12@@std@@YAPEAV?$shared_ptr@VLayer@@@0@PEAV10@00@Z
xdata	ENDS
;	COMDAT xdata
xdata	SEGMENT
$chain$1$??$_Move_unchecked@PEAV?$shared_ptr@VLayer@@@std@@PEAV12@@std@@YAPEAV?$shared_ptr@VLayer@@@0@PEAV10@00@Z DQ 00007e40a00040a21r ; 1.09735e-308
	DD	063405H
	DD	imagerel $LN46@Move_unche
	DD	imagerel $LN46@Move_unche+29
	DD	imagerel $unwind$??$_Move_unchecked@PEAV?$shared_ptr@VLayer@@@std@@PEAV12@@std@@YAPEAV?$shared_ptr@VLayer@@@0@PEAV10@00@Z
xdata	ENDS
;	COMDAT xdata
xdata	SEGMENT
$unwind$??$_Move_unchecked@PEAV?$shared_ptr@VLayer@@@std@@PEAV12@@std@@YAPEAV?$shared_ptr@VLayer@@@0@PEAV10@00@Z DQ 00009640f00060f01r ; 1.30596e-308
	DQ	0700b320f0008540fr		; 5.2777e+231
xdata	ENDS
;	COMDAT xdata
xdata	SEGMENT
$chain$1$??$destroy@V?$shared_ptr@VLayer@@@std@@@?$_Default_allocator_traits@V?$allocator@V?$shared_ptr@VLayer@@@std@@@std@@@std@@SAXAEAV?$allocator@V?$shared_ptr@VLayer@@@std@@@1@QEAV?$shared_ptr@VLayer@@@1@@Z DD 021H
	DD	imagerel $LN25@destroy
	DD	imagerel $LN25@destroy+15
	DD	imagerel $unwind$??$destroy@V?$shared_ptr@VLayer@@@std@@@?$_Default_allocator_traits@V?$allocator@V?$shared_ptr@VLayer@@@std@@@std@@@std@@SAXAEAV?$allocator@V?$shared_ptr@VLayer@@@std@@@1@QEAV?$shared_ptr@VLayer@@@1@@Z
xdata	ENDS
;	COMDAT xdata
xdata	SEGMENT
$chain$0$??$destroy@V?$shared_ptr@VLayer@@@std@@@?$_Default_allocator_traits@V?$allocator@V?$shared_ptr@VLayer@@@std@@@std@@@std@@SAXAEAV?$allocator@V?$shared_ptr@VLayer@@@std@@@1@QEAV?$shared_ptr@VLayer@@@1@@Z DQ 00006740500020521r ; 8.97428e-309
	DD	imagerel $LN25@destroy
	DD	imagerel $LN25@destroy+15
	DD	imagerel $unwind$??$destroy@V?$shared_ptr@VLayer@@@std@@@?$_Default_allocator_traits@V?$allocator@V?$shared_ptr@VLayer@@@std@@@std@@@std@@SAXAEAV?$allocator@V?$shared_ptr@VLayer@@@std@@@1@QEAV?$shared_ptr@VLayer@@@1@@Z
xdata	ENDS
;	COMDAT xdata
xdata	SEGMENT
$unwind$??$destroy@V?$shared_ptr@VLayer@@@std@@@?$_Default_allocator_traits@V?$allocator@V?$shared_ptr@VLayer@@@std@@@std@@@std@@SAXAEAV?$allocator@V?$shared_ptr@VLayer@@@std@@@1@QEAV?$shared_ptr@VLayer@@@1@@Z DQ 03002320600020601r ; 1.96423e-77
xdata	ENDS
;	COMDAT xdata
xdata	SEGMENT
$chain$7$??$emplace@AEBV?$shared_ptr@VLayer@@@std@@@?$vector@V?$shared_ptr@VLayer@@@std@@V?$allocator@V?$shared_ptr@VLayer@@@std@@@2@@std@@QEAA?AV?$_Vector_iterator@V?$_Vector_val@U?$_Simple_types@V?$shared_ptr@VLayer@@@std@@@std@@@std@@@1@V?$_Vector_const_iterator@V?$_Vector_val@U?$_Simple_types@V?$shared_ptr@VLayer@@@std@@@std@@@std@@@1@AEBV?$shared_ptr@VLayer@@@1@@Z DD 021H
	DD	imagerel $LN169@emplace
	DD	imagerel $LN169@emplace+49
	DD	imagerel $unwind$??$emplace@AEBV?$shared_ptr@VLayer@@@std@@@?$vector@V?$shared_ptr@VLayer@@@std@@V?$allocator@V?$shared_ptr@VLayer@@@std@@@2@@std@@QEAA?AV?$_Vector_iterator@V?$_Vector_val@U?$_Simple_types@V?$shared_ptr@VLayer@@@std@@@std@@@std@@@1@V?$_Vector_const_iterator@V?$_Vector_val@U?$_Simple_types@V?$shared_ptr@VLayer@@@std@@@std@@@std@@@1@AEBV?$shared_ptr@VLayer@@@1@@Z
xdata	ENDS
;	COMDAT xdata
xdata	SEGMENT
$chain$6$??$emplace@AEBV?$shared_ptr@VLayer@@@std@@@?$vector@V?$shared_ptr@VLayer@@@std@@V?$allocator@V?$shared_ptr@VLayer@@@std@@@2@@std@@QEAA?AV?$_Vector_iterator@V?$_Vector_val@U?$_Simple_types@V?$shared_ptr@VLayer@@@std@@@std@@@std@@@1@V?$_Vector_const_iterator@V?$_Vector_val@U?$_Simple_types@V?$shared_ptr@VLayer@@@std@@@std@@@std@@@1@AEBV?$shared_ptr@VLayer@@@1@@Z DQ 00009740000020021r ; 1.31462e-308
	DD	imagerel $LN169@emplace+114
	DD	imagerel $LN169@emplace+126
	DD	imagerel $chain$3$??$emplace@AEBV?$shared_ptr@VLayer@@@std@@@?$vector@V?$shared_ptr@VLayer@@@std@@V?$allocator@V?$shared_ptr@VLayer@@@std@@@2@@std@@QEAA?AV?$_Vector_iterator@V?$_Vector_val@U?$_Simple_types@V?$shared_ptr@VLayer@@@std@@@std@@@std@@@1@V?$_Vector_const_iterator@V?$_Vector_val@U?$_Simple_types@V?$shared_ptr@VLayer@@@std@@@std@@@std@@@1@AEBV?$shared_ptr@VLayer@@@1@@Z
xdata	ENDS
;	COMDAT xdata
xdata	SEGMENT
$chain$5$??$emplace@AEBV?$shared_ptr@VLayer@@@std@@@?$vector@V?$shared_ptr@VLayer@@@std@@V?$allocator@V?$shared_ptr@VLayer@@@std@@@2@@std@@QEAA?AV?$_Vector_iterator@V?$_Vector_val@U?$_Simple_types@V?$shared_ptr@VLayer@@@std@@@std@@@std@@@1@V?$_Vector_const_iterator@V?$_Vector_val@U?$_Simple_types@V?$shared_ptr@VLayer@@@std@@@std@@@std@@@1@AEBV?$shared_ptr@VLayer@@@1@@Z DQ 00009740a00040a21r ; 1.31464e-308
	DD	0a6405H
	DD	imagerel $LN169@emplace+114
	DD	imagerel $LN169@emplace+126
	DD	imagerel $chain$3$??$emplace@AEBV?$shared_ptr@VLayer@@@std@@@?$vector@V?$shared_ptr@VLayer@@@std@@V?$allocator@V?$shared_ptr@VLayer@@@std@@@2@@std@@QEAA?AV?$_Vector_iterator@V?$_Vector_val@U?$_Simple_types@V?$shared_ptr@VLayer@@@std@@@std@@@std@@@1@V?$_Vector_const_iterator@V?$_Vector_val@U?$_Simple_types@V?$shared_ptr@VLayer@@@std@@@std@@@std@@@1@AEBV?$shared_ptr@VLayer@@@1@@Z
xdata	ENDS
;	COMDAT xdata
xdata	SEGMENT
$chain$3$??$emplace@AEBV?$shared_ptr@VLayer@@@std@@@?$vector@V?$shared_ptr@VLayer@@@std@@V?$allocator@V?$shared_ptr@VLayer@@@std@@@2@@std@@QEAA?AV?$_Vector_iterator@V?$_Vector_val@U?$_Simple_types@V?$shared_ptr@VLayer@@@std@@@std@@@std@@@1@V?$_Vector_const_iterator@V?$_Vector_val@U?$_Simple_types@V?$shared_ptr@VLayer@@@std@@@std@@@std@@@1@AEBV?$shared_ptr@VLayer@@@1@@Z DQ 00010540c00040c21r ; 2.27073e-308
	DD	08e400H
	DD	imagerel $LN169@emplace
	DD	imagerel $LN169@emplace+49
	DD	imagerel $unwind$??$emplace@AEBV?$shared_ptr@VLayer@@@std@@@?$vector@V?$shared_ptr@VLayer@@@std@@V?$allocator@V?$shared_ptr@VLayer@@@std@@@2@@std@@QEAA?AV?$_Vector_iterator@V?$_Vector_val@U?$_Simple_types@V?$shared_ptr@VLayer@@@std@@@std@@@std@@@1@V?$_Vector_const_iterator@V?$_Vector_val@U?$_Simple_types@V?$shared_ptr@VLayer@@@std@@@std@@@std@@@1@AEBV?$shared_ptr@VLayer@@@1@@Z
xdata	ENDS
;	COMDAT xdata
xdata	SEGMENT
$chain$0$??$emplace@AEBV?$shared_ptr@VLayer@@@std@@@?$vector@V?$shared_ptr@VLayer@@@std@@V?$allocator@V?$shared_ptr@VLayer@@@std@@@2@@std@@QEAA?AV?$_Vector_iterator@V?$_Vector_val@U?$_Simple_types@V?$shared_ptr@VLayer@@@std@@@std@@@std@@@1@V?$_Vector_const_iterator@V?$_Vector_val@U?$_Simple_types@V?$shared_ptr@VLayer@@@std@@@std@@@std@@@1@AEBV?$shared_ptr@VLayer@@@1@@Z DQ 00008e40500020521r ; 1.2364e-308
	DD	imagerel $LN169@emplace
	DD	imagerel $LN169@emplace+49
	DD	imagerel $unwind$??$emplace@AEBV?$shared_ptr@VLayer@@@std@@@?$vector@V?$shared_ptr@VLayer@@@std@@V?$allocator@V?$shared_ptr@VLayer@@@std@@@2@@std@@QEAA?AV?$_Vector_iterator@V?$_Vector_val@U?$_Simple_types@V?$shared_ptr@VLayer@@@std@@@std@@@std@@@1@V?$_Vector_const_iterator@V?$_Vector_val@U?$_Simple_types@V?$shared_ptr@VLayer@@@std@@@std@@@std@@@1@AEBV?$shared_ptr@VLayer@@@1@@Z
xdata	ENDS
;	COMDAT xdata
xdata	SEGMENT
$unwind$??$emplace@AEBV?$shared_ptr@VLayer@@@std@@@?$vector@V?$shared_ptr@VLayer@@@std@@V?$allocator@V?$shared_ptr@VLayer@@@std@@@2@@std@@QEAA?AV?$_Vector_iterator@V?$_Vector_val@U?$_Simple_types@V?$shared_ptr@VLayer@@@std@@@std@@@std@@@1@V?$_Vector_const_iterator@V?$_Vector_val@U?$_Simple_types@V?$shared_ptr@VLayer@@@std@@@std@@@std@@@1@AEBV?$shared_ptr@VLayer@@@1@@Z DQ 0f004a20800031719r ; -4.00413e+231
	DD	03002H
	DD	imagerel __GSHandlerCheck
	DD	038H
xdata	ENDS
;	COMDAT xdata
xdata	SEGMENT
$chain$1$??$_Destroy_range@V?$allocator@V?$shared_ptr@VLayer@@@std@@@std@@@std@@YAXPEAV?$shared_ptr@VLayer@@@0@QEAV10@AEAV?$allocator@V?$shared_ptr@VLayer@@@std@@@0@@Z DD 021H
	DD	imagerel $LN35@Destroy_ra
	DD	imagerel $LN35@Destroy_ra+18
	DD	imagerel $unwind$??$_Destroy_range@V?$allocator@V?$shared_ptr@VLayer@@@std@@@std@@@std@@YAXPEAV?$shared_ptr@VLayer@@@0@QEAV10@AEAV?$allocator@V?$shared_ptr@VLayer@@@std@@@0@@Z
xdata	ENDS
;	COMDAT xdata
xdata	SEGMENT
$chain$0$??$_Destroy_range@V?$allocator@V?$shared_ptr@VLayer@@@std@@@std@@@std@@YAXPEAV?$shared_ptr@VLayer@@@0@QEAV10@AEAV?$allocator@V?$shared_ptr@VLayer@@@std@@@0@@Z DQ 00006340500020521r ; 8.62661e-309
	DD	imagerel $LN35@Destroy_ra
	DD	imagerel $LN35@Destroy_ra+18
	DD	imagerel $unwind$??$_Destroy_range@V?$allocator@V?$shared_ptr@VLayer@@@std@@@std@@@std@@YAXPEAV?$shared_ptr@VLayer@@@0@QEAV10@AEAV?$allocator@V?$shared_ptr@VLayer@@@std@@@0@@Z
xdata	ENDS
;	COMDAT xdata
xdata	SEGMENT
$unwind$??$_Destroy_range@V?$allocator@V?$shared_ptr@VLayer@@@std@@@std@@@std@@YAXPEAV?$shared_ptr@VLayer@@@0@QEAV10@AEAV?$allocator@V?$shared_ptr@VLayer@@@std@@@0@@Z DQ 00007640f00040f01r ; 1.02782e-308
	DD	0700b320fH
xdata	ENDS
;	COMDAT xdata
xdata	SEGMENT
$chain$4$??$_Reallocate_grow_by@V<lambda_1>@?1??append@?$basic_string@DU?$char_traits@D@std@@V?$allocator@D@2@@std@@QEAAAEAV34@QEBD_K@Z@PEBD_K@?$basic_string@DU?$char_traits@D@std@@V?$allocator@D@2@@std@@AEAAAEAV01@_KV<lambda_1>@?1??append@01@QEAAAEAV01@QEBD0@Z@PEBD_K@Z DQ 00004f40000060021r ; 6.88817e-309
	DQ	0000e540000057400r		; 1.99257e-308
	DD	imagerel $LN130@Reallocate
	DD	imagerel $LN130@Reallocate+56
	DD	imagerel $unwind$??$_Reallocate_grow_by@V<lambda_1>@?1??append@?$basic_string@DU?$char_traits@D@std@@V?$allocator@D@2@@std@@QEAAAEAV34@QEBD_K@Z@PEBD_K@?$basic_string@DU?$char_traits@D@std@@V?$allocator@D@2@@std@@AEAAAEAV01@_KV<lambda_1>@?1??append@01@QEAAAEAV01@QEBD0@Z@PEBD_K@Z
xdata	ENDS
;	COMDAT xdata
xdata	SEGMENT
$chain$3$??$_Reallocate_grow_by@V<lambda_1>@?1??append@?$basic_string@DU?$char_traits@D@std@@V?$allocator@D@2@@std@@QEAAAEAV34@QEBD_K@Z@PEBD_K@?$basic_string@DU?$char_traits@D@std@@V?$allocator@D@2@@std@@AEAAAEAV01@_KV<lambda_1>@?1??append@01@QEAAAEAV01@QEBD0@Z@PEBD_K@Z DD 021H
	DD	imagerel $LN130@Reallocate
	DD	imagerel $LN130@Reallocate+56
	DD	imagerel $unwind$??$_Reallocate_grow_by@V<lambda_1>@?1??append@?$basic_string@DU?$char_traits@D@std@@V?$allocator@D@2@@std@@QEAAAEAV34@QEBD_K@Z@PEBD_K@?$basic_string@DU?$char_traits@D@std@@V?$allocator@D@2@@std@@AEAAAEAV01@_KV<lambda_1>@?1??append@01@QEAAAEAV01@QEBD0@Z@PEBD_K@Z
xdata	ENDS
;	COMDAT xdata
xdata	SEGMENT
$chain$2$??$_Reallocate_grow_by@V<lambda_1>@?1??append@?$basic_string@DU?$char_traits@D@std@@V?$allocator@D@2@@std@@QEAAAEAV34@QEBD_K@Z@PEBD_K@?$basic_string@DU?$char_traits@D@std@@V?$allocator@D@2@@std@@AEAAAEAV01@_KV<lambda_1>@?1??append@01@QEAAAEAV01@QEBD0@Z@PEBD_K@Z DQ 00004f41a00061a21r ; 6.88872e-309
	DQ	0000e540500057411r		; 1.99258e-308
	DD	imagerel $LN130@Reallocate
	DD	imagerel $LN130@Reallocate+56
	DD	imagerel $unwind$??$_Reallocate_grow_by@V<lambda_1>@?1??append@?$basic_string@DU?$char_traits@D@std@@V?$allocator@D@2@@std@@QEAAAEAV34@QEBD_K@Z@PEBD_K@?$basic_string@DU?$char_traits@D@std@@V?$allocator@D@2@@std@@AEAAAEAV01@_KV<lambda_1>@?1??append@01@QEAAAEAV01@QEBD0@Z@PEBD_K@Z
xdata	ENDS
;	COMDAT xdata
xdata	SEGMENT
$unwind$??$_Reallocate_grow_by@V<lambda_1>@?1??append@?$basic_string@DU?$char_traits@D@std@@V?$allocator@D@2@@std@@QEAAAEAV34@QEBD_K@Z@PEBD_K@?$basic_string@DU?$char_traits@D@std@@V?$allocator@D@2@@std@@AEAAAEAV01@_KV<lambda_1>@?1??append@01@QEAAAEAV01@QEBD0@Z@PEBD_K@Z DQ 0e009520d00060d01r ; -4.24366e+154
	DQ	030026003c005d007r		; 1.98363e-77
xdata	ENDS
;	COMDAT xdata
xdata	SEGMENT
$chain$2$??$fill@V?$_Vb_iterator@U?$_Wrap_alloc@V?$allocator@I@std@@@std@@@std@@_N@std@@YAXV?$_Vb_iterator@U?$_Wrap_alloc@V?$allocator@I@std@@@std@@@0@0AEB_N@Z DD 021H
	DD	imagerel $LN29@fill
	DD	imagerel $LN29@fill+56
	DD	imagerel $unwind$??$fill@V?$_Vb_iterator@U?$_Wrap_alloc@V?$allocator@I@std@@@std@@@std@@_N@std@@YAXV?$_Vb_iterator@U?$_Wrap_alloc@V?$allocator@I@std@@@std@@@0@0AEB_N@Z
xdata	ENDS
;	COMDAT xdata
xdata	SEGMENT
$chain$1$??$fill@V?$_Vb_iterator@U?$_Wrap_alloc@V?$allocator@I@std@@@std@@@std@@_N@std@@YAXV?$_Vb_iterator@U?$_Wrap_alloc@V?$allocator@I@std@@@std@@@0@0AEB_N@Z DQ 00007741100041121r ; 1.03652e-308
	DD	063405H
	DD	imagerel $LN29@fill
	DD	imagerel $LN29@fill+56
	DD	imagerel $unwind$??$fill@V?$_Vb_iterator@U?$_Wrap_alloc@V?$allocator@I@std@@@std@@@std@@_N@std@@YAXV?$_Vb_iterator@U?$_Wrap_alloc@V?$allocator@I@std@@@std@@@0@0AEB_N@Z
xdata	ENDS
;	COMDAT xdata
xdata	SEGMENT
$unwind$??$fill@V?$_Vb_iterator@U?$_Wrap_alloc@V?$allocator@I@std@@@std@@@std@@_N@std@@YAXV?$_Vb_iterator@U?$_Wrap_alloc@V?$allocator@I@std@@@std@@@0@0AEB_N@Z DQ 00009641000061001r ; 1.30596e-308
	DQ	0e00c321000085410r		; -4.72551e+154
xdata	ENDS
;	COMDAT xdata
xdata	SEGMENT
$unwind$??$copy_backward@V?$_Vb_iterator@U?$_Wrap_alloc@V?$allocator@I@std@@@std@@@std@@V12@@std@@YA?AV?$_Vb_iterator@U?$_Wrap_alloc@V?$allocator@I@std@@@std@@@0@V10@00@Z DQ 03004520800020801r ; 2.19363e-77
xdata	ENDS
;	COMDAT xdata
xdata	SEGMENT
$chain$1$??$_Resize@I@?$vector@IV?$allocator@I@std@@@std@@AEAAX_KAEBI@Z DD 021H
	DD	imagerel $LN36@Resize
	DD	imagerel $LN36@Resize+99
	DD	imagerel $unwind$??$_Resize@I@?$vector@IV?$allocator@I@std@@@std@@AEAAX_KAEBI@Z
xdata	ENDS
;	COMDAT xdata
xdata	SEGMENT
$chain$0$??$_Resize@I@?$vector@IV?$allocator@I@std@@@std@@AEAAX_KAEBI@Z DQ 00008740500020521r ; 1.17556e-308
	DD	imagerel $LN36@Resize
	DD	imagerel $LN36@Resize+99
	DD	imagerel $unwind$??$_Resize@I@?$vector@IV?$allocator@I@std@@@std@@AEAAX_KAEBI@Z
xdata	ENDS
;	COMDAT xdata
xdata	SEGMENT
$unwind$??$_Resize@I@?$vector@IV?$allocator@I@std@@@std@@AEAAX_KAEBI@Z DQ 00009340a00040a01r ; 1.27987e-308
	DD	06006320aH
xdata	ENDS
;	COMDAT xdata
xdata	SEGMENT
$chain$1$??1?$_Alloc_temporary2@V?$allocator@V?$shared_ptr@VLayer@@@std@@@std@@@std@@QEAA@XZ DD 021H
	DD	imagerel $LN27@Alloc_temp
	DD	imagerel $LN27@Alloc_temp+15
	DD	imagerel $unwind$??1?$_Alloc_temporary2@V?$allocator@V?$shared_ptr@VLayer@@@std@@@std@@@std@@QEAA@XZ
xdata	ENDS
;	COMDAT xdata
xdata	SEGMENT
$chain$0$??1?$_Alloc_temporary2@V?$allocator@V?$shared_ptr@VLayer@@@std@@@std@@@std@@QEAA@XZ DQ 00006740500020521r ; 8.97428e-309
	DD	imagerel $LN27@Alloc_temp
	DD	imagerel $LN27@Alloc_temp+15
	DD	imagerel $unwind$??1?$_Alloc_temporary2@V?$allocator@V?$shared_ptr@VLayer@@@std@@@std@@@std@@QEAA@XZ
xdata	ENDS
;	COMDAT xdata
xdata	SEGMENT
$unwind$??1?$_Alloc_temporary2@V?$allocator@V?$shared_ptr@VLayer@@@std@@@std@@@std@@QEAA@XZ DQ 03002320600020601r ; 1.96423e-77
xdata	ENDS
;	COMDAT xdata
xdata	SEGMENT
$unwind$?_Destroy@?$_Ref_count_obj2@VLayer@@@std@@EEAAXXZ DQ 03002320600020601r ; 1.96423e-77
xdata	ENDS
;	COMDAT xdata
xdata	SEGMENT
$chain$1$??4?$shared_ptr@VLayer@@@std@@QEAAAEAV01@$$QEAV01@@Z DD 021H
	DD	imagerel $LN37@operator
	DD	imagerel $LN37@operator+45
	DD	imagerel $unwind$??4?$shared_ptr@VLayer@@@std@@QEAAAEAV01@$$QEAV01@@Z
xdata	ENDS
;	COMDAT xdata
xdata	SEGMENT
$chain$0$??4?$shared_ptr@VLayer@@@std@@QEAAAEAV01@$$QEAV01@@Z DQ 00006640500020521r ; 8.88736e-309
	DD	imagerel $LN37@operator
	DD	imagerel $LN37@operator+45
	DD	imagerel $unwind$??4?$shared_ptr@VLayer@@@std@@QEAAAEAV01@$$QEAV01@@Z
xdata	ENDS
;	COMDAT xdata
xdata	SEGMENT
$unwind$??4?$shared_ptr@VLayer@@@std@@QEAAAEAV01@$$QEAV01@@Z DQ 00007340a00040a01r ; 1.00174e-308
	DD	07006320aH
xdata	ENDS
;	COMDAT xdata
xdata	SEGMENT
$chain$2$?insert@?$basic_string@DU?$char_traits@D@std@@V?$allocator@D@2@@std@@QEAAAEAV12@_KQEBD@Z DD 021H
	DD	imagerel $LN84@insert
	DD	imagerel $LN84@insert+65
	DD	imagerel $unwind$?insert@?$basic_string@DU?$char_traits@D@std@@V?$allocator@D@2@@std@@QEAAAEAV12@_KQEBD@Z
xdata	ENDS
;	COMDAT xdata
xdata	SEGMENT
$chain$1$?insert@?$basic_string@DU?$char_traits@D@std@@V?$allocator@D@2@@std@@QEAAAEAV12@_KQEBD@Z DQ 00009f41500041521r ; 1.3842e-308
	DD	086405H
	DD	imagerel $LN84@insert
	DD	imagerel $LN84@insert+65
	DD	imagerel $unwind$?insert@?$basic_string@DU?$char_traits@D@std@@V?$allocator@D@2@@std@@QEAAAEAV12@_KQEBD@Z
xdata	ENDS
;	COMDAT xdata
xdata	SEGMENT
$unwind$?insert@?$basic_string@DU?$char_traits@D@std@@V?$allocator@D@2@@std@@QEAAAEAV12@_KQEBD@Z DQ 0000b741000061001r ; 1.59279e-308
	DQ	0e00c5210000a3410r		; -4.74646e+154
xdata	ENDS
;	COMDAT xdata
xdata	SEGMENT
$unwind$??0?$basic_string@DU?$char_traits@D@std@@V?$allocator@D@2@@std@@QEAA@U_String_constructor_concat_tag@1@AEBV01@QEBD_K23@Z DQ 0000d3414000a1401r ; 1.83616e-308
	DQ	0d00ce00ef0103214r		; -4.1794e+77
	DQ	0500660077008c00ar		; 3.23858e+77
xdata	ENDS
;	COMDAT xdata
xdata	SEGMENT
$unwind$??_G?$_Ref_count_obj2@VLayer@@@std@@UEAAPEAXI@Z DQ 03002320600020601r ; 1.96423e-77
xdata	ENDS
;	COMDAT xdata
xdata	SEGMENT
$chain$2$?insert@?$basic_string@DU?$char_traits@D@std@@V?$allocator@D@2@@std@@QEAAAEAV12@_KQEBD0@Z DD 021H
	DD	imagerel $LN78@insert
	DD	imagerel $LN78@insert+48
	DD	imagerel $unwind$?insert@?$basic_string@DU?$char_traits@D@std@@V?$allocator@D@2@@std@@QEAAAEAV12@_KQEBD0@Z
xdata	ENDS
;	COMDAT xdata
xdata	SEGMENT
$chain$1$?insert@?$basic_string@DU?$char_traits@D@std@@V?$allocator@D@2@@std@@QEAAAEAV12@_KQEBD0@Z DQ 00009e41500041521r ; 1.37551e-308
	DD	083405H
	DD	imagerel $LN78@insert
	DD	imagerel $LN78@insert+48
	DD	imagerel $unwind$?insert@?$basic_string@DU?$char_traits@D@std@@V?$allocator@D@2@@std@@QEAAAEAV12@_KQEBD0@Z
xdata	ENDS
;	COMDAT xdata
xdata	SEGMENT
$unwind$?insert@?$basic_string@DU?$char_traits@D@std@@V?$allocator@D@2@@std@@QEAAAEAV12@_KQEBD0@Z DQ 0000b741000061001r ; 1.59279e-308
	DQ	0f00c5210000a6410r		; -5.49602e+231
xdata	ENDS
;	COMDAT xdata
xdata	SEGMENT
$unwind$??R<lambda_1>@?1??insert@?$basic_string@DU?$char_traits@D@std@@V?$allocator@D@2@@std@@QEAAAEAV23@_KQEBD0@Z@QEBA@QEAD10010@Z DQ 00008641400081401r ; 1.1669e-308
	DQ	00006341400075414r		; 8.62693e-309
	DD	070103214H
xdata	ENDS
;	COMDAT xdata
xdata	SEGMENT
$unwind$??$?0PEAD$0A@@?$basic_string@DU?$char_traits@D@std@@V?$allocator@D@2@@std@@QEAA@PEAD0AEBV?$allocator@D@1@@Z DQ 0e007320b00060b01r ; -3.88751e+154
	DQ	03002500360047005r		; 1.97688e-77
xdata	ENDS
;	COMDAT xdata
xdata	SEGMENT
$unwind$??$?0AEAV?$basic_string@DU?$char_traits@D@std@@V?$allocator@D@2@@std@@AEA_K_K_KAEAU?$vec@$03M$0A@@glm@@@?$_Ref_count_obj2@VLayer@@@std@@QEAA@AEAV?$basic_string@DU?$char_traits@D@std@@V?$allocator@D@2@@1@AEA_K$$QEA_K2AEAU?$vec@$03M$0A@@glm@@@Z DQ 00011741500081501r ; 2.4272e-308
	DQ	0000e3415000f6415r		; 1.97523e-308
	DD	0e011b215H
xdata	ENDS
;	COMDAT xdata
xdata	SEGMENT
$chain$1$??$destroy_at@V?$shared_ptr@VLayer@@@std@@@std@@YAXQEAV?$shared_ptr@VLayer@@@0@@Z DD 021H
	DD	imagerel $LN23@destroy_at
	DD	imagerel $LN23@destroy_at+15
	DD	imagerel $unwind$??$destroy_at@V?$shared_ptr@VLayer@@@std@@@std@@YAXQEAV?$shared_ptr@VLayer@@@0@@Z
xdata	ENDS
;	COMDAT xdata
xdata	SEGMENT
$chain$0$??$destroy_at@V?$shared_ptr@VLayer@@@std@@@std@@YAXQEAV?$shared_ptr@VLayer@@@0@@Z DQ 00006740500020521r ; 8.97428e-309
	DD	imagerel $LN23@destroy_at
	DD	imagerel $LN23@destroy_at+15
	DD	imagerel $unwind$??$destroy_at@V?$shared_ptr@VLayer@@@std@@@std@@YAXQEAV?$shared_ptr@VLayer@@@0@@Z
xdata	ENDS
;	COMDAT xdata
xdata	SEGMENT
$unwind$??$destroy_at@V?$shared_ptr@VLayer@@@std@@@std@@YAXQEAV?$shared_ptr@VLayer@@@0@@Z DQ 03002320600020601r ; 1.96423e-77
xdata	ENDS
;	COMDAT xdata
xdata	SEGMENT
$chain$2$??$_Move_backward_unchecked@PEAV?$shared_ptr@VLayer@@@std@@PEAV12@@std@@YAPEAV?$shared_ptr@VLayer@@@0@PEAV10@00@Z DD 021H
	DD	imagerel $LN45@Move_backw
	DD	imagerel $LN45@Move_backw+29
	DD	imagerel $unwind$??$_Move_backward_unchecked@PEAV?$shared_ptr@VLayer@@@std@@PEAV12@@std@@YAPEAV?$shared_ptr@VLayer@@@0@PEAV10@00@Z
xdata	ENDS
;	COMDAT xdata
xdata	SEGMENT
$chain$1$??$_Move_backward_unchecked@PEAV?$shared_ptr@VLayer@@@std@@PEAV12@@std@@YAPEAV?$shared_ptr@VLayer@@@0@PEAV10@00@Z DQ 00007e40a00040a21r ; 1.09735e-308
	DD	063405H
	DD	imagerel $LN45@Move_backw
	DD	imagerel $LN45@Move_backw+29
	DD	imagerel $unwind$??$_Move_backward_unchecked@PEAV?$shared_ptr@VLayer@@@std@@PEAV12@@std@@YAPEAV?$shared_ptr@VLayer@@@0@PEAV10@00@Z
xdata	ENDS
;	COMDAT xdata
xdata	SEGMENT
$unwind$??$_Move_backward_unchecked@PEAV?$shared_ptr@VLayer@@@std@@PEAV12@@std@@YAPEAV?$shared_ptr@VLayer@@@0@PEAV10@00@Z DQ 00009640f00060f01r ; 1.30596e-308
	DQ	0700b320f0008540fr		; 5.2777e+231
xdata	ENDS
;	COMDAT xdata
xdata	SEGMENT
$chain$5$??$_Emplace_reallocate@AEBV?$shared_ptr@VLayer@@@std@@@?$vector@V?$shared_ptr@VLayer@@@std@@V?$allocator@V?$shared_ptr@VLayer@@@std@@@2@@std@@AEAAPEAV?$shared_ptr@VLayer@@@1@QEAV21@AEBV21@@Z DQ 00004d40000080021r ; 6.71433e-309
	DQ	0000674000005c400r		; 8.97417e-309
	DD	0f6400H
	DD	imagerel $LN210@Emplace_re
	DD	imagerel $LN210@Emplace_re+66
	DD	imagerel $unwind$??$_Emplace_reallocate@AEBV?$shared_ptr@VLayer@@@std@@@?$vector@V?$shared_ptr@VLayer@@@std@@V?$allocator@V?$shared_ptr@VLayer@@@std@@@2@@std@@AEAAPEAV?$shared_ptr@VLayer@@@1@QEAV21@AEBV21@@Z
xdata	ENDS
;	COMDAT xdata
xdata	SEGMENT
$chain$4$??$_Emplace_reallocate@AEBV?$shared_ptr@VLayer@@@std@@@?$vector@V?$shared_ptr@VLayer@@@std@@V?$allocator@V?$shared_ptr@VLayer@@@std@@@2@@std@@AEAAPEAV?$shared_ptr@VLayer@@@1@QEAV21@AEBV21@@Z DD 021H
	DD	imagerel $LN210@Emplace_re
	DD	imagerel $LN210@Emplace_re+66
	DD	imagerel $unwind$??$_Emplace_reallocate@AEBV?$shared_ptr@VLayer@@@std@@@?$vector@V?$shared_ptr@VLayer@@@std@@V?$allocator@V?$shared_ptr@VLayer@@@std@@@2@@std@@AEAAPEAV?$shared_ptr@VLayer@@@1@QEAV21@AEBV21@@Z
xdata	ENDS
;	COMDAT xdata
xdata	SEGMENT
$chain$3$??$_Emplace_reallocate@AEBV?$shared_ptr@VLayer@@@std@@@?$vector@V?$shared_ptr@VLayer@@@std@@V?$allocator@V?$shared_ptr@VLayer@@@std@@@2@@std@@AEAAPEAV?$shared_ptr@VLayer@@@1@QEAV21@AEBV21@@Z DQ 00004d42800082821r ; 6.71518e-309
	DQ	00006740e0005c416r		; 8.97447e-309
	DD	0f6405H
	DD	imagerel $LN210@Emplace_re
	DD	imagerel $LN210@Emplace_re+66
	DD	imagerel $unwind$??$_Emplace_reallocate@AEBV?$shared_ptr@VLayer@@@std@@@?$vector@V?$shared_ptr@VLayer@@@std@@V?$allocator@V?$shared_ptr@VLayer@@@std@@@2@@std@@AEAAPEAV?$shared_ptr@VLayer@@@1@QEAV21@AEBV21@@Z
xdata	ENDS
;	COMDAT xdata
xdata	SEGMENT
$unwind$??$_Emplace_reallocate@AEBV?$shared_ptr@VLayer@@@std@@@?$vector@V?$shared_ptr@VLayer@@@std@@V?$allocator@V?$shared_ptr@VLayer@@@std@@@2@@std@@AEAAPEAV?$shared_ptr@VLayer@@@1@QEAV21@AEBV21@@Z DQ 0f007620b00050b01r ; -4.53781e+231
	DQ	0000030025003e005r		; 2.608e-310
xdata	ENDS
;	COMDAT xdata
xdata	SEGMENT
$chain$5$??$_Emplace_reallocate@V?$shared_ptr@VLayer@@@std@@@?$vector@V?$shared_ptr@VLayer@@@std@@V?$allocator@V?$shared_ptr@VLayer@@@std@@@2@@std@@AEAAPEAV?$shared_ptr@VLayer@@@1@QEAV21@$$QEAV21@@Z DQ 00004d40000080021r ; 6.71433e-309
	DQ	0000674000005c400r		; 8.97417e-309
	DD	0f6400H
	DD	imagerel $LN199@Emplace_re
	DD	imagerel $LN199@Emplace_re+66
	DD	imagerel $unwind$??$_Emplace_reallocate@V?$shared_ptr@VLayer@@@std@@@?$vector@V?$shared_ptr@VLayer@@@std@@V?$allocator@V?$shared_ptr@VLayer@@@std@@@2@@std@@AEAAPEAV?$shared_ptr@VLayer@@@1@QEAV21@$$QEAV21@@Z
xdata	ENDS
;	COMDAT xdata
xdata	SEGMENT
$chain$4$??$_Emplace_reallocate@V?$shared_ptr@VLayer@@@std@@@?$vector@V?$shared_ptr@VLayer@@@std@@V?$allocator@V?$shared_ptr@VLayer@@@std@@@2@@std@@AEAAPEAV?$shared_ptr@VLayer@@@1@QEAV21@$$QEAV21@@Z DD 021H
	DD	imagerel $LN199@Emplace_re
	DD	imagerel $LN199@Emplace_re+66
	DD	imagerel $unwind$??$_Emplace_reallocate@V?$shared_ptr@VLayer@@@std@@@?$vector@V?$shared_ptr@VLayer@@@std@@V?$allocator@V?$shared_ptr@VLayer@@@std@@@2@@std@@AEAAPEAV?$shared_ptr@VLayer@@@1@QEAV21@$$QEAV21@@Z
xdata	ENDS
;	COMDAT xdata
xdata	SEGMENT
$chain$3$??$_Emplace_reallocate@V?$shared_ptr@VLayer@@@std@@@?$vector@V?$shared_ptr@VLayer@@@std@@V?$allocator@V?$shared_ptr@VLayer@@@std@@@2@@std@@AEAAPEAV?$shared_ptr@VLayer@@@1@QEAV21@$$QEAV21@@Z DQ 00004d42800082821r ; 6.71518e-309
	DQ	00006740e0005c416r		; 8.97447e-309
	DD	0f6405H
	DD	imagerel $LN199@Emplace_re
	DD	imagerel $LN199@Emplace_re+66
	DD	imagerel $unwind$??$_Emplace_reallocate@V?$shared_ptr@VLayer@@@std@@@?$vector@V?$shared_ptr@VLayer@@@std@@V?$allocator@V?$shared_ptr@VLayer@@@std@@@2@@std@@AEAAPEAV?$shared_ptr@VLayer@@@1@QEAV21@$$QEAV21@@Z
xdata	ENDS
;	COMDAT xdata
xdata	SEGMENT
$unwind$??$_Emplace_reallocate@V?$shared_ptr@VLayer@@@std@@@?$vector@V?$shared_ptr@VLayer@@@std@@V?$allocator@V?$shared_ptr@VLayer@@@std@@@2@@std@@AEAAPEAV?$shared_ptr@VLayer@@@1@QEAV21@$$QEAV21@@Z DQ 0f007620b00050b01r ; -4.53781e+231
	DQ	0000030025003e005r		; 2.608e-310
xdata	ENDS
;	COMDAT xdata
xdata	SEGMENT
$chain$2$??$_Fill_vbool@V?$_Vb_iterator@U?$_Wrap_alloc@V?$allocator@I@std@@@std@@@std@@@std@@YAXV?$_Vb_iterator@U?$_Wrap_alloc@V?$allocator@I@std@@@std@@@0@V10@_N@Z DD 021H
	DD	imagerel $LN29@Fill_vbool
	DD	imagerel $LN29@Fill_vbool+55
	DD	imagerel $unwind$??$_Fill_vbool@V?$_Vb_iterator@U?$_Wrap_alloc@V?$allocator@I@std@@@std@@@std@@@std@@YAXV?$_Vb_iterator@U?$_Wrap_alloc@V?$allocator@I@std@@@std@@@0@V10@_N@Z
xdata	ENDS
;	COMDAT xdata
xdata	SEGMENT
$chain$1$??$_Fill_vbool@V?$_Vb_iterator@U?$_Wrap_alloc@V?$allocator@I@std@@@std@@@std@@@std@@YAXV?$_Vb_iterator@U?$_Wrap_alloc@V?$allocator@I@std@@@std@@@0@V10@_N@Z DQ 00007741100041121r ; 1.03652e-308
	DD	063405H
	DD	imagerel $LN29@Fill_vbool
	DD	imagerel $LN29@Fill_vbool+55
	DD	imagerel $unwind$??$_Fill_vbool@V?$_Vb_iterator@U?$_Wrap_alloc@V?$allocator@I@std@@@std@@@std@@@std@@YAXV?$_Vb_iterator@U?$_Wrap_alloc@V?$allocator@I@std@@@std@@@0@V10@_N@Z
xdata	ENDS
;	COMDAT xdata
xdata	SEGMENT
$unwind$??$_Fill_vbool@V?$_Vb_iterator@U?$_Wrap_alloc@V?$allocator@I@std@@@std@@@std@@@std@@YAXV?$_Vb_iterator@U?$_Wrap_alloc@V?$allocator@I@std@@@std@@@0@V10@_N@Z DQ 00009641000061001r ; 1.30596e-308
	DQ	0e00c321000085410r		; -4.72551e+154
xdata	ENDS
;	COMDAT xdata
xdata	SEGMENT
$chain$1$??$_Copy_backward_unchecked@V?$_Vb_iterator@U?$_Wrap_alloc@V?$allocator@I@std@@@std@@@std@@V12@@std@@YA?AV?$_Vb_iterator@U?$_Wrap_alloc@V?$allocator@I@std@@@std@@@0@V10@00@Z DD 021H
	DD	imagerel $LN57@Copy_backw
	DD	imagerel $LN57@Copy_backw+49
	DD	imagerel $unwind$??$_Copy_backward_unchecked@V?$_Vb_iterator@U?$_Wrap_alloc@V?$allocator@I@std@@@std@@@std@@V12@@std@@YA?AV?$_Vb_iterator@U?$_Wrap_alloc@V?$allocator@I@std@@@std@@@0@V10@00@Z
xdata	ENDS
;	COMDAT xdata
xdata	SEGMENT
$chain$0$??$_Copy_backward_unchecked@V?$_Vb_iterator@U?$_Wrap_alloc@V?$allocator@I@std@@@std@@@std@@V12@@std@@YA?AV?$_Vb_iterator@U?$_Wrap_alloc@V?$allocator@I@std@@@std@@@0@V10@00@Z DQ 00009340500020521r ; 1.27986e-308
	DD	imagerel $LN57@Copy_backw
	DD	imagerel $LN57@Copy_backw+49
	DD	imagerel $unwind$??$_Copy_backward_unchecked@V?$_Vb_iterator@U?$_Wrap_alloc@V?$allocator@I@std@@@std@@@std@@V12@@std@@YA?AV?$_Vb_iterator@U?$_Wrap_alloc@V?$allocator@I@std@@@std@@@0@V10@00@Z
xdata	ENDS
;	COMDAT xdata
xdata	SEGMENT
$unwind$??$_Copy_backward_unchecked@V?$_Vb_iterator@U?$_Wrap_alloc@V?$allocator@I@std@@@std@@@std@@V12@@std@@YA?AV?$_Vb_iterator@U?$_Wrap_alloc@V?$allocator@I@std@@@std@@@0@V10@00@Z DQ 07004320800040801r ; 3.91922e+231
	DD	050026003H
xdata	ENDS
;	COMDAT xdata
xdata	SEGMENT
$chain$5$??$_Resize_reallocate@I@?$vector@IV?$allocator@I@std@@@std@@AEAAX_KAEBI@Z DD 021H
	DD	imagerel $LN94@Resize_rea
	DD	imagerel $LN94@Resize_rea+37
	DD	imagerel $unwind$??$_Resize_reallocate@I@?$vector@IV?$allocator@I@std@@@std@@AEAAX_KAEBI@Z
xdata	ENDS
;	COMDAT xdata
xdata	SEGMENT
$chain$4$??$_Resize_reallocate@I@?$vector@IV?$allocator@I@std@@@std@@AEAAX_KAEBI@Z DQ 0000ce40000020021r ; 1.79266e-308
	DD	imagerel $LN94@Resize_rea
	DD	imagerel $LN94@Resize_rea+37
	DD	imagerel $unwind$??$_Resize_reallocate@I@?$vector@IV?$allocator@I@std@@@std@@AEAAX_KAEBI@Z
xdata	ENDS
;	COMDAT xdata
xdata	SEGMENT
$chain$2$??$_Resize_reallocate@I@?$vector@IV?$allocator@I@std@@@std@@AEAAX_KAEBI@Z DD 021H
	DD	imagerel $LN94@Resize_rea+37
	DD	imagerel $LN94@Resize_rea+45
	DD	imagerel $chain$0$??$_Resize_reallocate@I@?$vector@IV?$allocator@I@std@@@std@@AEAAX_KAEBI@Z
xdata	ENDS
;	COMDAT xdata
xdata	SEGMENT
$chain$1$??$_Resize_reallocate@I@?$vector@IV?$allocator@I@std@@@std@@AEAAX_KAEBI@Z DQ 00004f40500020521r ; 6.88827e-309
	DD	imagerel $LN94@Resize_rea+37
	DD	imagerel $LN94@Resize_rea+45
	DD	imagerel $chain$0$??$_Resize_reallocate@I@?$vector@IV?$allocator@I@std@@@std@@AEAAX_KAEBI@Z
xdata	ENDS
;	COMDAT xdata
xdata	SEGMENT
$chain$0$??$_Resize_reallocate@I@?$vector@IV?$allocator@I@std@@@std@@AEAAX_KAEBI@Z DQ 0000ce40500020521r ; 1.79267e-308
	DD	imagerel $LN94@Resize_rea
	DD	imagerel $LN94@Resize_rea+37
	DD	imagerel $unwind$??$_Resize_reallocate@I@?$vector@IV?$allocator@I@std@@@std@@AEAAX_KAEBI@Z
xdata	ENDS
;	COMDAT xdata
xdata	SEGMENT
$unwind$??$_Resize_reallocate@I@?$vector@IV?$allocator@I@std@@@std@@AEAAX_KAEBI@Z DQ 07005420900050901r ; 4.12542e+231
	DQ	00000300250036004r		; 2.608e-310
xdata	ENDS
;	COMDAT xdata
xdata	SEGMENT
$chain$1$??$_Uninitialized_fill_n@V?$allocator@I@std@@@std@@YAPEAIPEAI_KAEBIAEAV?$allocator@I@0@@Z DD 021H
	DD	imagerel $LN28@Uninitiali
	DD	imagerel $LN28@Uninitiali+15
	DD	imagerel $unwind$??$_Uninitialized_fill_n@V?$allocator@I@std@@@std@@YAPEAIPEAI_KAEBIAEAV?$allocator@I@0@@Z
xdata	ENDS
;	COMDAT xdata
xdata	SEGMENT
$chain$0$??$_Uninitialized_fill_n@V?$allocator@I@std@@@std@@YAPEAIPEAI_KAEBIAEAV?$allocator@I@0@@Z DQ 00008740500020521r ; 1.17556e-308
	DD	imagerel $LN28@Uninitiali
	DD	imagerel $LN28@Uninitiali+15
	DD	imagerel $unwind$??$_Uninitialized_fill_n@V?$allocator@I@std@@@std@@YAPEAIPEAI_KAEBIAEAV?$allocator@I@0@@Z
xdata	ENDS
;	COMDAT xdata
xdata	SEGMENT
$unwind$??$_Uninitialized_fill_n@V?$allocator@I@std@@@std@@YAPEAIPEAI_KAEBIAEAV?$allocator@I@0@@Z DQ 03002320600020601r ; 1.96423e-77
xdata	ENDS
;	COMDAT xdata
xdata	SEGMENT
$unwind$??$_Destroy_in_place@VLayer@@@std@@YAXAEAVLayer@@@Z DQ 03002320600020601r ; 1.96423e-77
xdata	ENDS
;	COMDAT xdata
xdata	SEGMENT
$unwind$??$_Get_size_of_n@$03@std@@YA_K_K@Z DQ 00000420400010401r ; 3.58617e-310
xdata	ENDS
;	COMDAT xdata
xdata	SEGMENT
$chain$5$??$_Reallocate_grow_by@V<lambda_1>@?1??insert@?$basic_string@DU?$char_traits@D@std@@V?$allocator@D@2@@std@@QEAAAEAV34@_KQEBD0@Z@_KPEBD_K@?$basic_string@DU?$char_traits@D@std@@V?$allocator@D@2@@std@@AEAAAEAV01@_KV<lambda_1>@?1??insert@01@QEAAAEAV01@0QEBD0@Z@_KPEBD3@Z DD 021H
	DD	imagerel $LN148@Reallocate
	DD	imagerel $LN148@Reallocate+61
	DD	imagerel $unwind$??$_Reallocate_grow_by@V<lambda_1>@?1??insert@?$basic_string@DU?$char_traits@D@std@@V?$allocator@D@2@@std@@QEAAAEAV34@_KQEBD0@Z@_KPEBD_K@?$basic_string@DU?$char_traits@D@std@@V?$allocator@D@2@@std@@AEAAAEAV01@_KV<lambda_1>@?1??insert@01@QEAAAEAV01@0QEBD0@Z@_KPEBD3@Z
xdata	ENDS
;	COMDAT xdata
xdata	SEGMENT
$chain$4$??$_Reallocate_grow_by@V<lambda_1>@?1??insert@?$basic_string@DU?$char_traits@D@std@@V?$allocator@D@2@@std@@QEAAAEAV34@_KQEBD0@Z@_KPEBD_K@?$basic_string@DU?$char_traits@D@std@@V?$allocator@D@2@@std@@AEAAAEAV01@_KV<lambda_1>@?1??insert@01@QEAAAEAV01@0QEBD0@Z@_KPEBD3@Z DQ 00004f40000060021r ; 6.88817e-309
	DQ	0000e540000057400r		; 1.99257e-308
	DD	imagerel $LN148@Reallocate
	DD	imagerel $LN148@Reallocate+61
	DD	imagerel $unwind$??$_Reallocate_grow_by@V<lambda_1>@?1??insert@?$basic_string@DU?$char_traits@D@std@@V?$allocator@D@2@@std@@QEAAAEAV34@_KQEBD0@Z@_KPEBD_K@?$basic_string@DU?$char_traits@D@std@@V?$allocator@D@2@@std@@AEAAAEAV01@_KV<lambda_1>@?1??insert@01@QEAAAEAV01@0QEBD0@Z@_KPEBD3@Z
xdata	ENDS
;	COMDAT xdata
xdata	SEGMENT
$chain$2$??$_Reallocate_grow_by@V<lambda_1>@?1??insert@?$basic_string@DU?$char_traits@D@std@@V?$allocator@D@2@@std@@QEAAAEAV34@_KQEBD0@Z@_KPEBD_K@?$basic_string@DU?$char_traits@D@std@@V?$allocator@D@2@@std@@AEAAAEAV01@_KV<lambda_1>@?1??insert@01@QEAAAEAV01@0QEBD0@Z@_KPEBD3@Z DQ 00005744500064521r ; 7.58497e-309
	DQ	0000e54050004f40er		; 1.99258e-308
	DD	imagerel $LN148@Reallocate
	DD	imagerel $LN148@Reallocate+61
	DD	imagerel $unwind$??$_Reallocate_grow_by@V<lambda_1>@?1??insert@?$basic_string@DU?$char_traits@D@std@@V?$allocator@D@2@@std@@QEAAAEAV34@_KQEBD0@Z@_KPEBD_K@?$basic_string@DU?$char_traits@D@std@@V?$allocator@D@2@@std@@AEAAAEAV01@_KV<lambda_1>@?1??insert@01@QEAAAEAV01@0QEBD0@Z@_KPEBD3@Z
xdata	ENDS
;	COMDAT xdata
xdata	SEGMENT
$unwind$??$_Reallocate_grow_by@V<lambda_1>@?1??insert@?$basic_string@DU?$char_traits@D@std@@V?$allocator@D@2@@std@@QEAAAEAV34@_KQEBD0@Z@_KPEBD_K@?$basic_string@DU?$char_traits@D@std@@V?$allocator@D@2@@std@@AEAAAEAV01@_KV<lambda_1>@?1??insert@01@QEAAAEAV01@0QEBD0@Z@_KPEBD3@Z DQ 0e009520d00060d01r ; -4.24366e+154
	DQ	030026003c005d007r		; 1.98363e-77
xdata	ENDS
;	COMDAT xdata
xdata	SEGMENT
$chain$1$??_G?$shared_ptr@VLayer@@@std@@QEAAPEAXI@Z DD 021H
	DD	imagerel $LN24@scalar
	DD	imagerel $LN24@scalar+22
	DD	imagerel $unwind$??_G?$shared_ptr@VLayer@@@std@@QEAAPEAXI@Z
xdata	ENDS
;	COMDAT xdata
xdata	SEGMENT
$chain$0$??_G?$shared_ptr@VLayer@@@std@@QEAAPEAXI@Z DQ 00006640500020521r ; 8.88736e-309
	DD	imagerel $LN24@scalar
	DD	imagerel $LN24@scalar+22
	DD	imagerel $unwind$??_G?$shared_ptr@VLayer@@@std@@QEAAPEAXI@Z
xdata	ENDS
;	COMDAT xdata
xdata	SEGMENT
$unwind$??_G?$shared_ptr@VLayer@@@std@@QEAAPEAXI@Z DQ 00007340a00040a01r ; 1.00174e-308
	DD	07006320aH
xdata	ENDS
;	COMDAT xdata
xdata	SEGMENT
$unwind$??_GLayer@@QEAAPEAXI@Z DQ 03002320600020601r ; 1.96423e-77
xdata	ENDS
;	COMDAT xdata
xdata	SEGMENT
$unwind$??4?$_Vb_reference@U?$_Wrap_alloc@V?$allocator@I@std@@@std@@@std@@QEAAAEAV01@AEBV01@@Z DQ 00001340500020501r ; 1.67326e-309
xdata	ENDS
;	COMDAT xdata
xdata	SEGMENT
$unwind$?_Xlength@?$vector@V?$shared_ptr@VLayer@@@std@@V?$allocator@V?$shared_ptr@VLayer@@@std@@@2@@std@@CAXXZ DQ 00000420400010401r ; 3.58617e-310
xdata	ENDS
;	COMDAT xdata
xdata	SEGMENT
$unwind$?_Change_array@?$vector@V?$shared_ptr@VLayer@@@std@@V?$allocator@V?$shared_ptr@VLayer@@@std@@@2@@std@@AEAAXQEAV?$shared_ptr@VLayer@@@2@_K1@Z DQ 00009641400081401r ; 1.30597e-308
	DQ	00007341400085414r		; 1.00176e-308
	DD	070103214H
xdata	ENDS
;	COMDAT xdata
xdata	SEGMENT
$unwind$?allocate@?$allocator@V?$shared_ptr@VLayer@@@std@@@std@@QEAAPEAV?$shared_ptr@VLayer@@@2@_K@Z DQ 00000420400010401r ; 3.58617e-310
xdata	ENDS
;	COMDAT xdata
xdata	SEGMENT
$unwind$?_Xlength@?$vector@IV?$allocator@I@std@@@std@@CAXXZ DQ 00000420400010401r ; 3.58617e-310
xdata	ENDS
;	COMDAT xdata
xdata	SEGMENT
$unwind$?_Change_array@?$vector@IV?$allocator@I@std@@@std@@AEAAXQEAI_K1@Z DQ 00009641400081401r ; 1.30597e-308
	DQ	00007341400085414r		; 1.00176e-308
	DD	070103214H
xdata	ENDS
;	COMDAT xdata
xdata	SEGMENT
$unwind$?allocate@?$allocator@I@std@@QEAAPEAI_K@Z DQ 00000420400010401r ; 3.58617e-310
xdata	ENDS
;	COMDAT xdata
xdata	SEGMENT
$chain$3$??$_Construct@$00PEAD@?$basic_string@DU?$char_traits@D@std@@V?$allocator@D@2@@std@@AEAAXQEAD_K@Z DD 021H
	DD	imagerel $LN75@Construct
	DD	imagerel $LN75@Construct+105
	DD	imagerel $unwind$??$_Construct@$00PEAD@?$basic_string@DU?$char_traits@D@std@@V?$allocator@D@2@@std@@AEAAXQEAD_K@Z
xdata	ENDS
;	COMDAT xdata
xdata	SEGMENT
$chain$2$??$_Construct@$00PEAD@?$basic_string@DU?$char_traits@D@std@@V?$allocator@D@2@@std@@AEAAXQEAD_K@Z DQ 00004740000020021r ; 6.19283e-309
	DD	imagerel $LN75@Construct
	DD	imagerel $LN75@Construct+105
	DD	imagerel $unwind$??$_Construct@$00PEAD@?$basic_string@DU?$char_traits@D@std@@V?$allocator@D@2@@std@@AEAAXQEAD_K@Z
xdata	ENDS
;	COMDAT xdata
xdata	SEGMENT
$chain$0$??$_Construct@$00PEAD@?$basic_string@DU?$char_traits@D@std@@V?$allocator@D@2@@std@@AEAAXQEAD_K@Z DQ 00004740500020521r ; 6.19294e-309
	DD	imagerel $LN75@Construct
	DD	imagerel $LN75@Construct+105
	DD	imagerel $unwind$??$_Construct@$00PEAD@?$basic_string@DU?$char_traits@D@std@@V?$allocator@D@2@@std@@AEAAXQEAD_K@Z
xdata	ENDS
;	COMDAT xdata
xdata	SEGMENT
$unwind$??$_Construct@$00PEAD@?$basic_string@DU?$char_traits@D@std@@V?$allocator@D@2@@std@@AEAAXQEAD_K@Z DQ 0e006420a00050a01r ; -3.73038e+154
	DQ	00000300250036004r		; 2.608e-310
xdata	ENDS
;	COMDAT xdata
xdata	SEGMENT
$unwind$??$_Construct_in_place@VLayer@@AEAV?$basic_string@DU?$char_traits@D@std@@V?$allocator@D@2@@std@@AEA_K_K_KAEAU?$vec@$03M$0A@@glm@@@std@@YAXAEAVLayer@@AEAV?$basic_string@DU?$char_traits@D@std@@V?$allocator@D@2@@0@AEA_K$$QEA_K3AEAU?$vec@$03M$0A@@glm@@@Z DQ 0000f640f00060f01r ; 2.14036e-308
	DQ	0700bb20f000e340fr		; 5.37473e+231
xdata	ENDS
;	COMDAT xdata
xdata	SEGMENT
$unwind$??$_Uninitialized_move@PEAV?$shared_ptr@VLayer@@@std@@V?$allocator@V?$shared_ptr@VLayer@@@std@@@2@@std@@YAPEAV?$shared_ptr@VLayer@@@0@QEAV10@0PEAV10@AEAV?$allocator@V?$shared_ptr@VLayer@@@std@@@0@@Z DQ 03002320600020601r ; 1.96423e-77
xdata	ENDS
;	COMDAT xdata
xdata	SEGMENT
$unwind$??$_Uninitialized_move@PEAIV?$allocator@I@std@@@std@@YAPEAIQEAI0PEAIAEAV?$allocator@I@0@@Z DQ 00009340a00040a01r ; 1.27987e-308
	DD	07006320aH
xdata	ENDS
;	COMDAT xdata
xdata	SEGMENT
$unwind$??$_Get_size_of_n@$0BA@@std@@YA_K_K@Z DQ 00000420400010401r ; 3.58617e-310
xdata	ENDS
;	COMDAT xdata
xdata	SEGMENT
$unwind$??$construct_at@VLayer@@AEAV?$basic_string@DU?$char_traits@D@std@@V?$allocator@D@2@@std@@AEA_K_K_KAEAU?$vec@$03M$0A@@glm@@$0A@@std@@YAPEAVLayer@@QEAV1@AEAV?$basic_string@DU?$char_traits@D@std@@V?$allocator@D@2@@0@AEA_K$$QEA_K3AEAU?$vec@$03M$0A@@glm@@@Z DQ 0000f640f00060f01r ; 2.14036e-308
	DQ	0700bb20f000e340fr		; 5.37473e+231
xdata	ENDS
;	COMDAT xdata
xdata	SEGMENT
$unwind$??$_Copy_memmove@PEAIPEAI@std@@YAPEAIPEAI00@Z DQ 00009340a00040a01r ; 1.27987e-308
	DD	07006320aH
;	COMDAT CRT$XCU
CRT$XCU	SEGMENT
??m_BrushObject$initializer$@Primitive@@2P6AXXZEA@@3P6AXXZEA DQ FLAT:??__F?m_BrushObject@Primitive@@2V?$unique_ptr@VCanvasObject@@U?$default_delete@VCanvasObject@@@std@@@std@@A@@YAXXZ ; ??m_BrushObject$initializer$@Primitive@@2P6AXXZEA@@3P6AXXZEA
CRT$XCU	ENDS
;	COMDAT CRT$XCU
CRT$XCU	SEGMENT
??m_CanvasShader$initializer$@Primitive@@2P6AXXZEA@@3P6AXXZEA DQ FLAT:??__F?m_CanvasShader@Primitive@@2V?$unique_ptr@VShader@@U?$default_delete@VShader@@@std@@@std@@A@@YAXXZ ; ??m_CanvasShader$initializer$@Primitive@@2P6AXXZEA@@3P6AXXZEA
CRT$XCU	ENDS
;	COMDAT CRT$XCU
CRT$XCU	SEGMENT
??m_BackgroundShader$initializer$@Primitive@@2P6AXXZEA@@3P6AXXZEA DQ FLAT:??__F?m_BackgroundShader@Primitive@@2V?$unique_ptr@VShader@@U?$default_delete@VShader@@@std@@@std@@A@@YAXXZ ; ??m_BackgroundShader$initializer$@Primitive@@2P6AXXZEA@@3P6AXXZEA
CRT$XCU	ENDS
CRT$XCU	ENDS
CRT$XCU	ENDS
CRT$XCU	ENDS
CRT$XCU	ENDS
END
