; Listing generated by Microsoft (R) Optimizing Compiler Version 19.36.32535.0 

include listing.inc

INCLUDELIB OLDNAMES

PUBLIC	?m_MouseInCanvas@Mouse@Input@@2_NA		; Input::Mouse::m_MouseInCanvas
PUBLIC	?m_CanvasScale@CanvasData@@2MA			; CanvasData::m_CanvasScale
PUBLIC	?State@Mouse@Input@@2EA				; Input::Mouse::State
PUBLIC	?Button@Mouse@Input@@2EA			; Input::Mouse::Button
PUBLIC	?Rel@Mouse@Input@@2U?$vec@$01M$0A@@glm@@A	; Input::Mouse::Rel
PUBLIC	?m_InitialClick@Mouse@Input@@2_NA		; Input::Mouse::m_InitialClick
EXTRN	__imp___std_terminate:PROC
EXTRN	__security_check_cookie:PROC
EXTRN	__imp___CxxFrameHandler4:PROC
;	COMDAT ?m_MouseInCanvas@Mouse@Input@@2_NA
_BSS	SEGMENT
?m_MouseInCanvas@Mouse@Input@@2_NA DB 01H DUP (?)	; Input::Mouse::m_MouseInCanvas
_BSS	ENDS
;	COMDAT ?Unpressed@?1??MoveLayer@Move@@QEAAXV?$shared_ptr@VLayer@@@std@@@Z@4_NA
_BSS	SEGMENT
?Unpressed@?1??MoveLayer@Move@@QEAAXV?$shared_ptr@VLayer@@@std@@@Z@4_NA DB 01H DUP (?) ; `Move::MoveLayer'::`2'::Unpressed
_BSS	ENDS
;	COMDAT ?State@Mouse@Input@@2EA
_BSS	SEGMENT
?State@Mouse@Input@@2EA DB 01H DUP (?)			; Input::Mouse::State
_BSS	ENDS
;	COMDAT ?Button@Mouse@Input@@2EA
_BSS	SEGMENT
?Button@Mouse@Input@@2EA DB 01H DUP (?)			; Input::Mouse::Button
_BSS	ENDS
;	COMDAT ?Rel@Mouse@Input@@2U?$vec@$01M$0A@@glm@@A
_BSS	SEGMENT
?Rel@Mouse@Input@@2U?$vec@$01M$0A@@glm@@A DQ 01H DUP (?) ; Input::Mouse::Rel
_BSS	ENDS
;	COMDAT ?m_InitialClick@Mouse@Input@@2_NA
_BSS	SEGMENT
?m_InitialClick@Mouse@Input@@2_NA DB 01H DUP (?)	; Input::Mouse::m_InitialClick
_BSS	ENDS
;	COMDAT ?m_CanvasScale@CanvasData@@2MA
_DATA	SEGMENT
?m_CanvasScale@CanvasData@@2MA DD 03f800000r	; 1	; CanvasData::m_CanvasScale
_DATA	ENDS
PUBLIC	?get@?$_Ptr_base@VLayer@@@std@@IEBAPEAVLayer@@XZ ; std::_Ptr_base<Layer>::get
PUBLIC	??$?YM@?$vec@$01M$0A@@glm@@QEAAAEAU01@AEBU01@@Z	; glm::vec<2,float,0>::operator+=<float>
PUBLIC	??$?KM$0A@@glm@@YA?AU?$vec@$01M$0A@@0@AEBU10@M@Z ; glm::operator/<float,0>
PUBLIC	??$?CVLayer@@$0A@@?$shared_ptr@VLayer@@@std@@QEBAPEAVLayer@@XZ ; std::shared_ptr<Layer>::operator-><Layer,0>
PUBLIC	??0?$vec@$01M$0A@@glm@@QEAA@MM@Z		; glm::vec<2,float,0>::vec<2,float,0>
PUBLIC	?_Decref@?$_Ptr_base@VLayer@@@std@@IEAAXXZ	; std::_Ptr_base<Layer>::_Decref
PUBLIC	??1?$shared_ptr@VLayer@@@std@@QEAA@XZ		; std::shared_ptr<Layer>::~shared_ptr<Layer>
PUBLIC	?MoveLayer@Move@@QEAAXV?$shared_ptr@VLayer@@@std@@@Z ; Move::MoveLayer
PUBLIC	??1Move@@QEAA@XZ				; Move::~Move
PUBLIC	??0Move@@QEAA@XZ				; Move::Move
PUBLIC	??$?0HH@?$vec@$01M$0A@@glm@@QEAA@HH@Z		; glm::vec<2,float,0>::vec<2,float,0><int,int>
PUBLIC	?_Decwref@_Ref_count_base@std@@QEAAXXZ		; std::_Ref_count_base::_Decwref
PUBLIC	?_Decref@_Ref_count_base@std@@QEAAXXZ		; std::_Ref_count_base::_Decref
PUBLIC	__isa_available_default
PUBLIC	__real@00800000
PUBLIC	__real@1e3ce508
PUBLIC	__real@358637bd
PUBLIC	__real@3727c5ac
PUBLIC	__real@37800000
PUBLIC	__real@38800000
PUBLIC	__real@38d1b717
PUBLIC	__real@3a83126f
PUBLIC	__real@3b808081
PUBLIC	__real@3c23d70a
PUBLIC	__real@3c888889
PUBLIC	__real@3cdd2f1b
PUBLIC	__real@3d23d70a
PUBLIC	__real@3d4ccccd
PUBLIC	__real@3d860a92
PUBLIC	__real@3da3d70a
PUBLIC	__real@3dcccccd
PUBLIC	__real@3e000000
PUBLIC	__real@3e09374c
PUBLIC	__real@3e19999a
PUBLIC	__real@3e2aaaab
PUBLIC	__real@3e4ccccd
PUBLIC	__real@3e800000
PUBLIC	__real@3e99999a
PUBLIC	__real@3eb33333
PUBLIC	__real@3ecccccd
PUBLIC	__real@3ee4f8b580000000
PUBLIC	__real@3efae148
PUBLIC	__real@3f000000
PUBLIC	__real@3f0ccccd
PUBLIC	__real@3f19999a
PUBLIC	__real@3f266666
PUBLIC	__real@3f2b851f
PUBLIC	__real@3f333333
PUBLIC	__real@3f350481
PUBLIC	__real@3f3851ec
PUBLIC	__real@3f400000
PUBLIC	__real@3f490fdb
PUBLIC	__real@3f4ccccd
PUBLIC	__real@3f59999a
PUBLIC	__real@3f5db22d
PUBLIC	__real@3f5db3d0
PUBLIC	__real@3f666666
PUBLIC	__real@3f7d70a4
PUBLIC	__real@3f7fff58
PUBLIC	__real@3f7fffef
PUBLIC	__real@3f800000
PUBLIC	__real@3f8ccccd
PUBLIC	__real@3f99999a
PUBLIC	__real@3faccccd
PUBLIC	__real@3fb33333
PUBLIC	__real@3fc00000
PUBLIC	__real@3fe0000000000000
PUBLIC	__real@40000000
PUBLIC	__real@4000000000000000
PUBLIC	__real@400ccccd
PUBLIC	__real@4019999a
PUBLIC	__real@40200000
PUBLIC	__real@40266666
PUBLIC	__real@403f5c29
PUBLIC	__real@40400000
PUBLIC	__real@40490fdb
PUBLIC	__real@40600000
PUBLIC	__real@40666666
PUBLIC	__real@40800000
PUBLIC	__real@40a00000
PUBLIC	__real@40afede0
PUBLIC	__real@40c00000
PUBLIC	__real@40c90fdb
PUBLIC	__real@40e00000
PUBLIC	__real@41000000
PUBLIC	__real@41040000
PUBLIC	__real@411c0000
PUBLIC	__real@41200000
PUBLIC	__real@41300000
PUBLIC	__real@41400000
PUBLIC	__real@41500000
PUBLIC	__real@41600000
PUBLIC	__real@41700000
PUBLIC	__real@41800000
PUBLIC	__real@41a00000
PUBLIC	__real@41a80000
PUBLIC	__real@41b00000
PUBLIC	__real@41c00000
PUBLIC	__real@41c40000
PUBLIC	__real@41c80000
PUBLIC	__real@41f00000
PUBLIC	__real@42040000
PUBLIC	__real@420c0000
PUBLIC	__real@42140000
PUBLIC	__real@42280000
PUBLIC	__real@42400000
PUBLIC	__real@42440000
PUBLIC	__real@42480000
PUBLIC	__real@424c0000
PUBLIC	__real@42700000
PUBLIC	__real@428c0000
PUBLIC	__real@429c0000
PUBLIC	__real@42c00000
PUBLIC	__real@42c80000
PUBLIC	__real@42f60000
PUBLIC	__real@43000000
PUBLIC	__real@434c0000
PUBLIC	__real@437f0000
PUBLIC	__real@43e0000000000000
PUBLIC	__real@44160000
PUBLIC	__real@44333333
PUBLIC	__real@44480000
PUBLIC	__real@447a0000
PUBLIC	__real@44b33333
PUBLIC	__real@45333333
PUBLIC	__real@45fa0000
PUBLIC	__real@46fffe00
PUBLIC	__real@47efffffe0000000
PUBLIC	__real@5f000000
PUBLIC	__real@7f7fffff
PUBLIC	__real@7fefffffffffffff
PUBLIC	__real@bc23d70a
PUBLIC	__real@be800000
PUBLIC	__real@beaaaaab
PUBLIC	__real@bf000000
PUBLIC	__real@bf400000
PUBLIC	__real@bf5db22d
PUBLIC	__real@bf5db3d0
PUBLIC	__real@bf800000
PUBLIC	__real@bfe0000000000000
PUBLIC	__real@c0000000
PUBLIC	__real@c2c80000
PUBLIC	__real@c5fa0000
PUBLIC	__real@c7000000
PUBLIC	__real@c87a0000
PUBLIC	__real@ff7fffff
PUBLIC	__real@ffefffffffffffff
PUBLIC	__xmm@0000000000000000000000003f800000
PUBLIC	__xmm@00000000000000003f80000000000000
PUBLIC	__xmm@00000000000000020000000300000001
PUBLIC	__xmm@000000000000000f0000000000000000
PUBLIC	__xmm@000000003f000000bf00000000000000
PUBLIC	__xmm@000000003f8000000000000000000000
PUBLIC	__xmm@000000003f800000bf80000000000000
PUBLIC	__xmm@00000000bf8000000000000000000000
PUBLIC	__xmm@00000001000000010000000100000001
PUBLIC	__xmm@00000002000000000000000100000003
PUBLIC	__xmm@00000003000000020000000100000000
PUBLIC	__xmm@000002020000020e0000020d0000020c
PUBLIC	__xmm@0000027c0000027b000002790000027a
PUBLIC	__xmm@000002800000027f0000027d0000027e
PUBLIC	__xmm@3d75c28f3f8000003f8000003f800000
PUBLIC	__xmm@3e4ccccd3f4ccccd3f4ccccd3f4ccccd
PUBLIC	__xmm@3e4ccccd3f7ae1483f170a3d3e851eb8
PUBLIC	__xmm@3e9eb8523f7ae1483f170a3d3e851eb8
PUBLIC	__xmm@3eb333333f4ccccd3f4ccccd3f4ccccd
PUBLIC	__xmm@3eb333333f7ae1483f170a3d3e851eb8
PUBLIC	__xmm@3ec8c8c93ec8c8c93ec8c8c93ec8c8c9
PUBLIC	__xmm@3ec8c8c93f1696973f1696973f169697
PUBLIC	__xmm@3ecccccd3f7ae1483f170a3d3e851eb8
PUBLIC	__xmm@3f000000000000003f0000003f000000
PUBLIC	__xmm@3f0000003e99999a3e99999a3e99999a
PUBLIC	__xmm@3f0000003ecccccd3ecccccd3ecccccd
PUBLIC	__xmm@3f0000003f0000003edc28f63edc28f6
PUBLIC	__xmm@3f028f5c000000000000000000000000
PUBLIC	__xmm@3f07ae143ca3d70a3ca3d70a3ca3d70a
PUBLIC	__xmm@3f0a3d713ef5c28f3e947ae13e23d70a
PUBLIC	__xmm@3f2b851f3f7ae1483f170a3d3e851eb8
PUBLIC	__xmm@3f3333333f8000003f8000003f800000
PUBLIC	__xmm@3f47ae143f4000003ecccccd3dcccccd
PUBLIC	__xmm@3f4ccccd3f7ae1483f170a3d3e851eb8
PUBLIC	__xmm@3f666666000000003f8000003f800000
PUBLIC	__xmm@3f70a3d73d75c28f3d75c28f3d75c28f
PUBLIC	__xmm@3f70a3d73da3d70a3da3d70a3da3d70a
PUBLIC	__xmm@3f7333333f7ae1483f170a3d3e851eb8
PUBLIC	__xmm@3f800000000000000000000000000000
PUBLIC	__xmm@3f80000000000000000000003f800000
PUBLIC	__xmm@3f800000000000003f19999a3f800000
PUBLIC	__xmm@3f800000000000003f3333333f666666
PUBLIC	__xmm@3f800000000000003f8000003f800000
PUBLIC	__xmm@3f8000003d20a0a13d20a0a13d20a0a1
PUBLIC	__xmm@3f8000003d23d70a3d23d70a3d23d70a
PUBLIC	__xmm@3f8000003db851ec3db851ec3db851ec
PUBLIC	__xmm@3f8000003e0f5c293e0f5c293e0f5c29
PUBLIC	__xmm@3f8000003e1090913e1090913e109091
PUBLIC	__xmm@3f8000003e4ccccd3e428f5c3e428f5c
PUBLIC	__xmm@3f8000003e4ccccd3e4ccccd3e4ccccd
PUBLIC	__xmm@3f8000003e8000003e6b851f3e6b851f
PUBLIC	__xmm@3f8000003e9eb8523e9eb8523e9eb852
PUBLIC	__xmm@3f8000003eb333333e9eb8523e9eb852
PUBLIC	__xmm@3f8000003eb333333edc28f63f800000
PUBLIC	__xmm@3f8000003ec8c8c93ec8c8c93ec8c8c9
PUBLIC	__xmm@3f8000003ecccccd3ecccccd3ecccccd
PUBLIC	__xmm@3f8000003ed1eb853ed1eb853ed1eb85
PUBLIC	__xmm@3f8000003ef0f0f13ef0f0f13ef0f0f1
PUBLIC	__xmm@3f8000003ef5c28f3e947ae13e23d70a
PUBLIC	__xmm@3f8000003f0000003f0000003f000000
PUBLIC	__xmm@3f8000003f028f5c3f028f5c3f028f5c
PUBLIC	__xmm@3f8000003f0ccccd3f0ccccd3f0ccccd
PUBLIC	__xmm@3f8000003f1696973f1696973f169697
PUBLIC	__xmm@3f8000003f19999a3f19999a3f19999a
PUBLIC	__xmm@3f8000003f1c28f63f1c28f63f1c28f6
PUBLIC	__xmm@3f8000003f4000003ecccccd3dcccccd
PUBLIC	__xmm@3f8000003f6147ae3f051eb83e75c28f
PUBLIC	__xmm@3f8000003f7ae1483f07ae143d75c28f
PUBLIC	__xmm@3f8000003f7ae1483f170a3d3e851eb8
PUBLIC	__xmm@3f8000003f8000003f8000003f800000
PUBLIC	__xmm@3ff0000000000000bff0000000000000
PUBLIC	__xmm@437f0000437f0000437f0000437f0000
PUBLIC	__xmm@7fffffff7fffffff7fffffff7fffffff
PUBLIC	__xmm@7fffffffffffffff7fffffffffffffff
PUBLIC	__xmm@80000000800000008000000080000000
PUBLIC	__xmm@bf000000bf00000000000000bf000000
PUBLIC	__xmm@bf800000bf80000000000000bf800000
PUBLIC	__xmm@ff7fffffff7fffff7f7fffff7f7fffff
EXTRN	__CxxFrameHandler4:PROC
EXTRN	__std_terminate:PROC
EXTRN	_CxxThrowException:PROC
EXTRN	__GSHandlerCheck:PROC
EXTRN	__GSHandlerCheck_EH4:PROC
EXTRN	acosf:PROC
EXTRN	atan2f:PROC
EXTRN	ceilf:PROC
EXTRN	cosf:PROC
EXTRN	fmodf:PROC
EXTRN	log:PROC
EXTRN	logf:PROC
EXTRN	memchr:PROC
EXTRN	memcmp:PROC
EXTRN	memcpy:PROC
EXTRN	memmove:PROC
EXTRN	memset:PROC
EXTRN	pow:PROC
EXTRN	powf:PROC
EXTRN	sinf:PROC
EXTRN	sqrtf:PROC
EXTRN	strcmp:PROC
EXTRN	__ImageBase:BYTE
EXTRN	__isa_available:DWORD
EXTRN	__security_cookie:QWORD
EXTRN	_fltused:DWORD
EXTRN	_tls_index:DWORD
;	COMDAT __isa_available_default
_BSS	SEGMENT
__isa_available_default DD 01H DUP (?)
_BSS	ENDS
;	COMDAT pdata
pdata	SEGMENT
$pdata$?_Decref@?$_Ptr_base@VLayer@@@std@@IEAAXXZ DD imagerel $LN16@Decref
	DD	imagerel $LN16@Decref+15
	DD	imagerel $unwind$?_Decref@?$_Ptr_base@VLayer@@@std@@IEAAXXZ
pdata	ENDS
;	COMDAT pdata
pdata	SEGMENT
$pdata$0$?_Decref@?$_Ptr_base@VLayer@@@std@@IEAAXXZ DD imagerel $LN16@Decref+15
	DD	imagerel $LN16@Decref+69
	DD	imagerel $chain$0$?_Decref@?$_Ptr_base@VLayer@@@std@@IEAAXXZ
pdata	ENDS
;	COMDAT pdata
pdata	SEGMENT
$pdata$1$?_Decref@?$_Ptr_base@VLayer@@@std@@IEAAXXZ DD imagerel $LN16@Decref+69
	DD	imagerel $LN16@Decref+75
	DD	imagerel $chain$1$?_Decref@?$_Ptr_base@VLayer@@@std@@IEAAXXZ
pdata	ENDS
;	COMDAT pdata
pdata	SEGMENT
$pdata$??1?$shared_ptr@VLayer@@@std@@QEAA@XZ DD imagerel $LN18@shared_ptr
	DD	imagerel $LN18@shared_ptr+15
	DD	imagerel $unwind$??1?$shared_ptr@VLayer@@@std@@QEAA@XZ
pdata	ENDS
;	COMDAT pdata
pdata	SEGMENT
$pdata$0$??1?$shared_ptr@VLayer@@@std@@QEAA@XZ DD imagerel $LN18@shared_ptr+15
	DD	imagerel $LN18@shared_ptr+69
	DD	imagerel $chain$0$??1?$shared_ptr@VLayer@@@std@@QEAA@XZ
pdata	ENDS
;	COMDAT pdata
pdata	SEGMENT
$pdata$1$??1?$shared_ptr@VLayer@@@std@@QEAA@XZ DD imagerel $LN18@shared_ptr+69
	DD	imagerel $LN18@shared_ptr+75
	DD	imagerel $chain$1$??1?$shared_ptr@VLayer@@@std@@QEAA@XZ
pdata	ENDS
;	COMDAT pdata
pdata	SEGMENT
$pdata$?MoveLayer@Move@@QEAAXV?$shared_ptr@VLayer@@@std@@@Z DD imagerel $LN56@MoveLayer
	DD	imagerel $LN56@MoveLayer+244
	DD	imagerel $unwind$?MoveLayer@Move@@QEAAXV?$shared_ptr@VLayer@@@std@@@Z
pdata	ENDS
;	COMDAT pdata
pdata	SEGMENT
$pdata$?_Decref@_Ref_count_base@std@@QEAAXXZ DD imagerel $LN11@Decref
	DD	imagerel $LN11@Decref+65
	DD	imagerel $unwind$?_Decref@_Ref_count_base@std@@QEAAXXZ
;	COMDAT __xmm@ff7fffffff7fffff7f7fffff7f7fffff
CONST	SEGMENT
__xmm@ff7fffffff7fffff7f7fffff7f7fffff DB 0ffH, 0ffH, 07fH, 07fH, 0ffH, 0ffH
	DB	07fH, 07fH, 0ffH, 0ffH, 07fH, 0ffH, 0ffH, 0ffH, 07fH, 0ffH
CONST	ENDS
;	COMDAT __xmm@bf800000bf80000000000000bf800000
CONST	SEGMENT
__xmm@bf800000bf80000000000000bf800000 DB 00H, 00H, 080H, 0bfH, 00H, 00H, 00H
	DB	00H, 00H, 00H, 080H, 0bfH, 00H, 00H, 080H, 0bfH
CONST	ENDS
;	COMDAT __xmm@bf000000bf00000000000000bf000000
CONST	SEGMENT
__xmm@bf000000bf00000000000000bf000000 DB 00H, 00H, 00H, 0bfH, 00H, 00H, 00H
	DB	00H, 00H, 00H, 00H, 0bfH, 00H, 00H, 00H, 0bfH
CONST	ENDS
;	COMDAT __xmm@80000000800000008000000080000000
CONST	SEGMENT
__xmm@80000000800000008000000080000000 DB 00H, 00H, 00H, 080H, 00H, 00H, 00H
	DB	080H, 00H, 00H, 00H, 080H, 00H, 00H, 00H, 080H
CONST	ENDS
;	COMDAT __xmm@7fffffffffffffff7fffffffffffffff
CONST	SEGMENT
__xmm@7fffffffffffffff7fffffffffffffff DB 0ffH, 0ffH, 0ffH, 0ffH, 0ffH, 0ffH
	DB	0ffH, 07fH, 0ffH, 0ffH, 0ffH, 0ffH, 0ffH, 0ffH, 0ffH, 07fH
CONST	ENDS
;	COMDAT __xmm@7fffffff7fffffff7fffffff7fffffff
CONST	SEGMENT
__xmm@7fffffff7fffffff7fffffff7fffffff DB 0ffH, 0ffH, 0ffH, 07fH, 0ffH, 0ffH
	DB	0ffH, 07fH, 0ffH, 0ffH, 0ffH, 07fH, 0ffH, 0ffH, 0ffH, 07fH
CONST	ENDS
;	COMDAT __xmm@437f0000437f0000437f0000437f0000
CONST	SEGMENT
__xmm@437f0000437f0000437f0000437f0000 DB 00H, 00H, 07fH, 'C', 00H, 00H, 07fH
	DB	'C', 00H, 00H, 07fH, 'C', 00H, 00H, 07fH, 'C'
CONST	ENDS
;	COMDAT __xmm@3ff0000000000000bff0000000000000
CONST	SEGMENT
__xmm@3ff0000000000000bff0000000000000 DB 00H, 00H, 00H, 00H, 00H, 00H, 0f0H
	DB	0bfH, 00H, 00H, 00H, 00H, 00H, 00H, 0f0H, '?'
CONST	ENDS
;	COMDAT __xmm@3f8000003f8000003f8000003f800000
CONST	SEGMENT
__xmm@3f8000003f8000003f8000003f800000 DB 00H, 00H, 080H, '?', 00H, 00H, 080H
	DB	'?', 00H, 00H, 080H, '?', 00H, 00H, 080H, '?'
CONST	ENDS
;	COMDAT __xmm@3f8000003f7ae1483f170a3d3e851eb8
CONST	SEGMENT
__xmm@3f8000003f7ae1483f170a3d3e851eb8 DB 0b8H, 01eH, 085H, '>=', 0aH, 017H
	DB	'?H', 0e1H, 'z?', 00H, 00H, 080H, '?'
CONST	ENDS
;	COMDAT __xmm@3f8000003f7ae1483f07ae143d75c28f
CONST	SEGMENT
__xmm@3f8000003f7ae1483f07ae143d75c28f DB 08fH, 0c2H, 'u=', 014H, 0aeH, 07H
	DB	'?H', 0e1H, 'z?', 00H, 00H, 080H, '?'
CONST	ENDS
;	COMDAT __xmm@3f8000003f6147ae3f051eb83e75c28f
CONST	SEGMENT
__xmm@3f8000003f6147ae3f051eb83e75c28f DB 08fH, 0c2H, 'u>', 0b8H, 01eH, 05H
	DB	'?', 0aeH, 'Ga?', 00H, 00H, 080H, '?'
CONST	ENDS
;	COMDAT __xmm@3f8000003f4000003ecccccd3dcccccd
CONST	SEGMENT
__xmm@3f8000003f4000003ecccccd3dcccccd DB 0cdH, 0ccH, 0ccH, '=', 0cdH, 0ccH
	DB	0ccH, '>', 00H, 00H, '@?', 00H, 00H, 080H, '?'
CONST	ENDS
;	COMDAT __xmm@3f8000003f1c28f63f1c28f63f1c28f6
CONST	SEGMENT
__xmm@3f8000003f1c28f63f1c28f63f1c28f6 DB 0f6H, '(', 01cH, '?', 0f6H, '(', 01cH
	DB	'?', 0f6H, '(', 01cH, '?', 00H, 00H, 080H, '?'
CONST	ENDS
;	COMDAT __xmm@3f8000003f19999a3f19999a3f19999a
CONST	SEGMENT
__xmm@3f8000003f19999a3f19999a3f19999a DB 09aH, 099H, 019H, '?', 09aH, 099H
	DB	019H, '?', 09aH, 099H, 019H, '?', 00H, 00H, 080H, '?'
CONST	ENDS
;	COMDAT __xmm@3f8000003f1696973f1696973f169697
CONST	SEGMENT
__xmm@3f8000003f1696973f1696973f169697 DB 097H, 096H, 016H, '?', 097H, 096H
	DB	016H, '?', 097H, 096H, 016H, '?', 00H, 00H, 080H, '?'
CONST	ENDS
;	COMDAT __xmm@3f8000003f0ccccd3f0ccccd3f0ccccd
CONST	SEGMENT
__xmm@3f8000003f0ccccd3f0ccccd3f0ccccd DB 0cdH, 0ccH, 0cH, '?', 0cdH, 0ccH
	DB	0cH, '?', 0cdH, 0ccH, 0cH, '?', 00H, 00H, 080H, '?'
CONST	ENDS
;	COMDAT __xmm@3f8000003f028f5c3f028f5c3f028f5c
CONST	SEGMENT
__xmm@3f8000003f028f5c3f028f5c3f028f5c DB '\', 08fH, 02H, '?\', 08fH, 02H
	DB	'?\', 08fH, 02H, '?', 00H, 00H, 080H, '?'
CONST	ENDS
;	COMDAT __xmm@3f8000003f0000003f0000003f000000
CONST	SEGMENT
__xmm@3f8000003f0000003f0000003f000000 DB 00H, 00H, 00H, '?', 00H, 00H, 00H
	DB	'?', 00H, 00H, 00H, '?', 00H, 00H, 080H, '?'
CONST	ENDS
;	COMDAT __xmm@3f8000003ef5c28f3e947ae13e23d70a
CONST	SEGMENT
__xmm@3f8000003ef5c28f3e947ae13e23d70a DB 0aH, 0d7H, '#>', 0e1H, 'z', 094H
	DB	'>', 08fH, 0c2H, 0f5H, '>', 00H, 00H, 080H, '?'
CONST	ENDS
;	COMDAT __xmm@3f8000003ef0f0f13ef0f0f13ef0f0f1
CONST	SEGMENT
__xmm@3f8000003ef0f0f13ef0f0f13ef0f0f1 DB 0f1H, 0f0H, 0f0H, '>', 0f1H, 0f0H
	DB	0f0H, '>', 0f1H, 0f0H, 0f0H, '>', 00H, 00H, 080H, '?'
CONST	ENDS
;	COMDAT __xmm@3f8000003ed1eb853ed1eb853ed1eb85
CONST	SEGMENT
__xmm@3f8000003ed1eb853ed1eb853ed1eb85 DB 085H, 0ebH, 0d1H, '>', 085H, 0ebH
	DB	0d1H, '>', 085H, 0ebH, 0d1H, '>', 00H, 00H, 080H, '?'
CONST	ENDS
;	COMDAT __xmm@3f8000003ecccccd3ecccccd3ecccccd
CONST	SEGMENT
__xmm@3f8000003ecccccd3ecccccd3ecccccd DB 0cdH, 0ccH, 0ccH, '>', 0cdH, 0ccH
	DB	0ccH, '>', 0cdH, 0ccH, 0ccH, '>', 00H, 00H, 080H, '?'
CONST	ENDS
;	COMDAT __xmm@3f8000003ec8c8c93ec8c8c93ec8c8c9
CONST	SEGMENT
__xmm@3f8000003ec8c8c93ec8c8c93ec8c8c9 DB 0c9H, 0c8H, 0c8H, '>', 0c9H, 0c8H
	DB	0c8H, '>', 0c9H, 0c8H, 0c8H, '>', 00H, 00H, 080H, '?'
CONST	ENDS
;	COMDAT __xmm@3f8000003eb333333edc28f63f800000
CONST	SEGMENT
__xmm@3f8000003eb333333edc28f63f800000 DB 00H, 00H, 080H, '?', 0f6H, '(', 0dcH
	DB	'>33', 0b3H, '>', 00H, 00H, 080H, '?'
CONST	ENDS
;	COMDAT __xmm@3f8000003eb333333e9eb8523e9eb852
CONST	SEGMENT
__xmm@3f8000003eb333333e9eb8523e9eb852 DB 'R', 0b8H, 09eH, '>R', 0b8H, 09eH
	DB	'>33', 0b3H, '>', 00H, 00H, 080H, '?'
CONST	ENDS
;	COMDAT __xmm@3f8000003e9eb8523e9eb8523e9eb852
CONST	SEGMENT
__xmm@3f8000003e9eb8523e9eb8523e9eb852 DB 'R', 0b8H, 09eH, '>R', 0b8H, 09eH
	DB	'>R', 0b8H, 09eH, '>', 00H, 00H, 080H, '?'
CONST	ENDS
;	COMDAT __xmm@3f8000003e8000003e6b851f3e6b851f
CONST	SEGMENT
__xmm@3f8000003e8000003e6b851f3e6b851f DB 01fH, 085H, 'k>', 01fH, 085H, 'k'
	DB	'>', 00H, 00H, 080H, '>', 00H, 00H, 080H, '?'
CONST	ENDS
;	COMDAT __xmm@3f8000003e4ccccd3e4ccccd3e4ccccd
CONST	SEGMENT
__xmm@3f8000003e4ccccd3e4ccccd3e4ccccd DB 0cdH, 0ccH, 'L>', 0cdH, 0ccH, 'L'
	DB	'>', 0cdH, 0ccH, 'L>', 00H, 00H, 080H, '?'
CONST	ENDS
;	COMDAT __xmm@3f8000003e4ccccd3e428f5c3e428f5c
CONST	SEGMENT
__xmm@3f8000003e4ccccd3e428f5c3e428f5c DB '\', 08fH, 'B>\', 08fH, 'B>', 0cdH
	DB	0ccH, 'L>', 00H, 00H, 080H, '?'
CONST	ENDS
;	COMDAT __xmm@3f8000003e1090913e1090913e109091
CONST	SEGMENT
__xmm@3f8000003e1090913e1090913e109091 DB 091H, 090H, 010H, '>', 091H, 090H
	DB	010H, '>', 091H, 090H, 010H, '>', 00H, 00H, 080H, '?'
CONST	ENDS
;	COMDAT __xmm@3f8000003e0f5c293e0f5c293e0f5c29
CONST	SEGMENT
__xmm@3f8000003e0f5c293e0f5c293e0f5c29 DB ')\', 0fH, '>)\', 0fH, '>)\', 0fH
	DB	'>', 00H, 00H, 080H, '?'
CONST	ENDS
;	COMDAT __xmm@3f8000003db851ec3db851ec3db851ec
CONST	SEGMENT
__xmm@3f8000003db851ec3db851ec3db851ec DB 0ecH, 'Q', 0b8H, '=', 0ecH, 'Q', 0b8H
	DB	'=', 0ecH, 'Q', 0b8H, '=', 00H, 00H, 080H, '?'
CONST	ENDS
;	COMDAT __xmm@3f8000003d23d70a3d23d70a3d23d70a
CONST	SEGMENT
__xmm@3f8000003d23d70a3d23d70a3d23d70a DB 0aH, 0d7H, '#=', 0aH, 0d7H, '#='
	DB	0aH, 0d7H, '#=', 00H, 00H, 080H, '?'
CONST	ENDS
;	COMDAT __xmm@3f8000003d20a0a13d20a0a13d20a0a1
CONST	SEGMENT
__xmm@3f8000003d20a0a13d20a0a13d20a0a1 DB 0a1H, 0a0H, ' =', 0a1H, 0a0H, ' '
	DB	'=', 0a1H, 0a0H, ' =', 00H, 00H, 080H, '?'
CONST	ENDS
;	COMDAT __xmm@3f800000000000003f8000003f800000
CONST	SEGMENT
__xmm@3f800000000000003f8000003f800000 DB 00H, 00H, 080H, '?', 00H, 00H, 080H
	DB	'?', 00H, 00H, 00H, 00H, 00H, 00H, 080H, '?'
CONST	ENDS
;	COMDAT __xmm@3f800000000000003f3333333f666666
CONST	SEGMENT
__xmm@3f800000000000003f3333333f666666 DB 'fff?333?', 00H, 00H, 00H, 00H, 00H
	DB	00H, 080H, '?'
CONST	ENDS
;	COMDAT __xmm@3f800000000000003f19999a3f800000
CONST	SEGMENT
__xmm@3f800000000000003f19999a3f800000 DB 00H, 00H, 080H, '?', 09aH, 099H
	DB	019H, '?', 00H, 00H, 00H, 00H, 00H, 00H, 080H, '?'
CONST	ENDS
;	COMDAT __xmm@3f80000000000000000000003f800000
CONST	SEGMENT
__xmm@3f80000000000000000000003f800000 DB 00H, 00H, 080H, '?', 00H, 00H, 00H
	DB	00H, 00H, 00H, 00H, 00H, 00H, 00H, 080H, '?'
CONST	ENDS
;	COMDAT __xmm@3f800000000000000000000000000000
CONST	SEGMENT
__xmm@3f800000000000000000000000000000 DB 00H, 00H, 00H, 00H, 00H, 00H, 00H
	DB	00H, 00H, 00H, 00H, 00H, 00H, 00H, 080H, '?'
CONST	ENDS
;	COMDAT __xmm@3f7333333f7ae1483f170a3d3e851eb8
CONST	SEGMENT
__xmm@3f7333333f7ae1483f170a3d3e851eb8 DB 0b8H, 01eH, 085H, '>=', 0aH, 017H
	DB	'?H', 0e1H, 'z?33s?'
CONST	ENDS
;	COMDAT __xmm@3f70a3d73da3d70a3da3d70a3da3d70a
CONST	SEGMENT
__xmm@3f70a3d73da3d70a3da3d70a3da3d70a DB 0aH, 0d7H, 0a3H, '=', 0aH, 0d7H
	DB	0a3H, '=', 0aH, 0d7H, 0a3H, '=', 0d7H, 0a3H, 'p?'
CONST	ENDS
;	COMDAT __xmm@3f70a3d73d75c28f3d75c28f3d75c28f
CONST	SEGMENT
__xmm@3f70a3d73d75c28f3d75c28f3d75c28f DB 08fH, 0c2H, 'u=', 08fH, 0c2H, 'u'
	DB	'=', 08fH, 0c2H, 'u=', 0d7H, 0a3H, 'p?'
CONST	ENDS
;	COMDAT __xmm@3f666666000000003f8000003f800000
CONST	SEGMENT
__xmm@3f666666000000003f8000003f800000 DB 00H, 00H, 080H, '?', 00H, 00H, 080H
	DB	'?', 00H, 00H, 00H, 00H, 'fff?'
CONST	ENDS
;	COMDAT __xmm@3f4ccccd3f7ae1483f170a3d3e851eb8
CONST	SEGMENT
__xmm@3f4ccccd3f7ae1483f170a3d3e851eb8 DB 0b8H, 01eH, 085H, '>=', 0aH, 017H
	DB	'?H', 0e1H, 'z?', 0cdH, 0ccH, 'L?'
CONST	ENDS
;	COMDAT __xmm@3f47ae143f4000003ecccccd3dcccccd
CONST	SEGMENT
__xmm@3f47ae143f4000003ecccccd3dcccccd DB 0cdH, 0ccH, 0ccH, '=', 0cdH, 0ccH
	DB	0ccH, '>', 00H, 00H, '@?', 014H, 0aeH, 'G?'
CONST	ENDS
;	COMDAT __xmm@3f3333333f8000003f8000003f800000
CONST	SEGMENT
__xmm@3f3333333f8000003f8000003f800000 DB 00H, 00H, 080H, '?', 00H, 00H, 080H
	DB	'?', 00H, 00H, 080H, '?333?'
CONST	ENDS
;	COMDAT __xmm@3f2b851f3f7ae1483f170a3d3e851eb8
CONST	SEGMENT
__xmm@3f2b851f3f7ae1483f170a3d3e851eb8 DB 0b8H, 01eH, 085H, '>=', 0aH, 017H
	DB	'?H', 0e1H, 'z?', 01fH, 085H, '+?'
CONST	ENDS
;	COMDAT __xmm@3f0a3d713ef5c28f3e947ae13e23d70a
CONST	SEGMENT
__xmm@3f0a3d713ef5c28f3e947ae13e23d70a DB 0aH, 0d7H, '#>', 0e1H, 'z', 094H
	DB	'>', 08fH, 0c2H, 0f5H, '>q=', 0aH, '?'
CONST	ENDS
;	COMDAT __xmm@3f07ae143ca3d70a3ca3d70a3ca3d70a
CONST	SEGMENT
__xmm@3f07ae143ca3d70a3ca3d70a3ca3d70a DB 0aH, 0d7H, 0a3H, '<', 0aH, 0d7H
	DB	0a3H, '<', 0aH, 0d7H, 0a3H, '<', 014H, 0aeH, 07H, '?'
CONST	ENDS
;	COMDAT __xmm@3f028f5c000000000000000000000000
CONST	SEGMENT
__xmm@3f028f5c000000000000000000000000 DB 00H, 00H, 00H, 00H, 00H, 00H, 00H
	DB	00H, 00H, 00H, 00H, 00H, '\', 08fH, 02H, '?'
CONST	ENDS
;	COMDAT __xmm@3f0000003f0000003edc28f63edc28f6
CONST	SEGMENT
__xmm@3f0000003f0000003edc28f63edc28f6 DB 0f6H, '(', 0dcH, '>', 0f6H, '(', 0dcH
	DB	'>', 00H, 00H, 00H, '?', 00H, 00H, 00H, '?'
CONST	ENDS
;	COMDAT __xmm@3f0000003ecccccd3ecccccd3ecccccd
CONST	SEGMENT
__xmm@3f0000003ecccccd3ecccccd3ecccccd DB 0cdH, 0ccH, 0ccH, '>', 0cdH, 0ccH
	DB	0ccH, '>', 0cdH, 0ccH, 0ccH, '>', 00H, 00H, 00H, '?'
CONST	ENDS
;	COMDAT __xmm@3f0000003e99999a3e99999a3e99999a
CONST	SEGMENT
__xmm@3f0000003e99999a3e99999a3e99999a DB 09aH, 099H, 099H, '>', 09aH, 099H
	DB	099H, '>', 09aH, 099H, 099H, '>', 00H, 00H, 00H, '?'
CONST	ENDS
;	COMDAT __xmm@3f000000000000003f0000003f000000
CONST	SEGMENT
__xmm@3f000000000000003f0000003f000000 DB 00H, 00H, 00H, '?', 00H, 00H, 00H
	DB	'?', 00H, 00H, 00H, 00H, 00H, 00H, 00H, '?'
CONST	ENDS
;	COMDAT __xmm@3ecccccd3f7ae1483f170a3d3e851eb8
CONST	SEGMENT
__xmm@3ecccccd3f7ae1483f170a3d3e851eb8 DB 0b8H, 01eH, 085H, '>=', 0aH, 017H
	DB	'?H', 0e1H, 'z?', 0cdH, 0ccH, 0ccH, '>'
CONST	ENDS
;	COMDAT __xmm@3ec8c8c93f1696973f1696973f169697
CONST	SEGMENT
__xmm@3ec8c8c93f1696973f1696973f169697 DB 097H, 096H, 016H, '?', 097H, 096H
	DB	016H, '?', 097H, 096H, 016H, '?', 0c9H, 0c8H, 0c8H, '>'
CONST	ENDS
;	COMDAT __xmm@3ec8c8c93ec8c8c93ec8c8c93ec8c8c9
CONST	SEGMENT
__xmm@3ec8c8c93ec8c8c93ec8c8c93ec8c8c9 DB 0c9H, 0c8H, 0c8H, '>', 0c9H, 0c8H
	DB	0c8H, '>', 0c9H, 0c8H, 0c8H, '>', 0c9H, 0c8H, 0c8H, '>'
CONST	ENDS
;	COMDAT __xmm@3eb333333f7ae1483f170a3d3e851eb8
CONST	SEGMENT
__xmm@3eb333333f7ae1483f170a3d3e851eb8 DB 0b8H, 01eH, 085H, '>=', 0aH, 017H
	DB	'?H', 0e1H, 'z?33', 0b3H, '>'
CONST	ENDS
;	COMDAT __xmm@3eb333333f4ccccd3f4ccccd3f4ccccd
CONST	SEGMENT
__xmm@3eb333333f4ccccd3f4ccccd3f4ccccd DB 0cdH, 0ccH, 'L?', 0cdH, 0ccH, 'L'
	DB	'?', 0cdH, 0ccH, 'L?33', 0b3H, '>'
CONST	ENDS
;	COMDAT __xmm@3e9eb8523f7ae1483f170a3d3e851eb8
CONST	SEGMENT
__xmm@3e9eb8523f7ae1483f170a3d3e851eb8 DB 0b8H, 01eH, 085H, '>=', 0aH, 017H
	DB	'?H', 0e1H, 'z?R', 0b8H, 09eH, '>'
CONST	ENDS
;	COMDAT __xmm@3e4ccccd3f7ae1483f170a3d3e851eb8
CONST	SEGMENT
__xmm@3e4ccccd3f7ae1483f170a3d3e851eb8 DB 0b8H, 01eH, 085H, '>=', 0aH, 017H
	DB	'?H', 0e1H, 'z?', 0cdH, 0ccH, 'L>'
CONST	ENDS
;	COMDAT __xmm@3e4ccccd3f4ccccd3f4ccccd3f4ccccd
CONST	SEGMENT
__xmm@3e4ccccd3f4ccccd3f4ccccd3f4ccccd DB 0cdH, 0ccH, 'L?', 0cdH, 0ccH, 'L'
	DB	'?', 0cdH, 0ccH, 'L?', 0cdH, 0ccH, 'L>'
CONST	ENDS
;	COMDAT __xmm@3d75c28f3f8000003f8000003f800000
CONST	SEGMENT
__xmm@3d75c28f3f8000003f8000003f800000 DB 00H, 00H, 080H, '?', 00H, 00H, 080H
	DB	'?', 00H, 00H, 080H, '?', 08fH, 0c2H, 'u='
CONST	ENDS
;	COMDAT __xmm@000002800000027f0000027d0000027e
CONST	SEGMENT
__xmm@000002800000027f0000027d0000027e DB '~', 02H, 00H, 00H, '}', 02H, 00H
	DB	00H, 07fH, 02H, 00H, 00H, 080H, 02H, 00H, 00H
CONST	ENDS
;	COMDAT __xmm@0000027c0000027b000002790000027a
CONST	SEGMENT
__xmm@0000027c0000027b000002790000027a DB 'z', 02H, 00H, 00H, 'y', 02H, 00H
	DB	00H, '{', 02H, 00H, 00H, '|', 02H, 00H, 00H
CONST	ENDS
;	COMDAT __xmm@000002020000020e0000020d0000020c
CONST	SEGMENT
__xmm@000002020000020e0000020d0000020c DB 0cH, 02H, 00H, 00H, 0dH, 02H, 00H
	DB	00H, 0eH, 02H, 00H, 00H, 02H, 02H, 00H, 00H
CONST	ENDS
;	COMDAT __xmm@00000003000000020000000100000000
CONST	SEGMENT
__xmm@00000003000000020000000100000000 DB 00H, 00H, 00H, 00H, 01H, 00H, 00H
	DB	00H, 02H, 00H, 00H, 00H, 03H, 00H, 00H, 00H
CONST	ENDS
;	COMDAT __xmm@00000002000000000000000100000003
CONST	SEGMENT
__xmm@00000002000000000000000100000003 DB 03H, 00H, 00H, 00H, 01H, 00H, 00H
	DB	00H, 00H, 00H, 00H, 00H, 02H, 00H, 00H, 00H
CONST	ENDS
;	COMDAT __xmm@00000001000000010000000100000001
CONST	SEGMENT
__xmm@00000001000000010000000100000001 DB 01H, 00H, 00H, 00H, 01H, 00H, 00H
	DB	00H, 01H, 00H, 00H, 00H, 01H, 00H, 00H, 00H
CONST	ENDS
;	COMDAT __xmm@00000000bf8000000000000000000000
CONST	SEGMENT
__xmm@00000000bf8000000000000000000000 DB 00H, 00H, 00H, 00H, 00H, 00H, 00H
	DB	00H, 00H, 00H, 080H, 0bfH, 00H, 00H, 00H, 00H
CONST	ENDS
;	COMDAT __xmm@000000003f800000bf80000000000000
CONST	SEGMENT
__xmm@000000003f800000bf80000000000000 DB 00H, 00H, 00H, 00H, 00H, 00H, 080H
	DB	0bfH, 00H, 00H, 080H, '?', 00H, 00H, 00H, 00H
CONST	ENDS
;	COMDAT __xmm@000000003f8000000000000000000000
CONST	SEGMENT
__xmm@000000003f8000000000000000000000 DB 00H, 00H, 00H, 00H, 00H, 00H, 00H
	DB	00H, 00H, 00H, 080H, '?', 00H, 00H, 00H, 00H
CONST	ENDS
;	COMDAT __xmm@000000003f000000bf00000000000000
CONST	SEGMENT
__xmm@000000003f000000bf00000000000000 DB 00H, 00H, 00H, 00H, 00H, 00H, 00H
	DB	0bfH, 00H, 00H, 00H, '?', 00H, 00H, 00H, 00H
CONST	ENDS
;	COMDAT __xmm@000000000000000f0000000000000000
CONST	SEGMENT
__xmm@000000000000000f0000000000000000 DB 00H, 00H, 00H, 00H, 00H, 00H, 00H
	DB	00H, 0fH, 00H, 00H, 00H, 00H, 00H, 00H, 00H
CONST	ENDS
;	COMDAT __xmm@00000000000000020000000300000001
CONST	SEGMENT
__xmm@00000000000000020000000300000001 DB 01H, 00H, 00H, 00H, 03H, 00H, 00H
	DB	00H, 02H, 00H, 00H, 00H, 00H, 00H, 00H, 00H
CONST	ENDS
;	COMDAT __xmm@00000000000000003f80000000000000
CONST	SEGMENT
__xmm@00000000000000003f80000000000000 DB 00H, 00H, 00H, 00H, 00H, 00H, 080H
	DB	'?', 00H, 00H, 00H, 00H, 00H, 00H, 00H, 00H
CONST	ENDS
;	COMDAT __xmm@0000000000000000000000003f800000
CONST	SEGMENT
__xmm@0000000000000000000000003f800000 DB 00H, 00H, 080H, '?', 00H, 00H, 00H
	DB	00H, 00H, 00H, 00H, 00H, 00H, 00H, 00H, 00H
CONST	ENDS
;	COMDAT __real@ffefffffffffffff
CONST	SEGMENT
__real@ffefffffffffffff DQ 0ffefffffffffffffr	; -1.79769e+308
CONST	ENDS
;	COMDAT __real@ff7fffff
CONST	SEGMENT
__real@ff7fffff DD 0ff7fffffr			; -3.40282e+38
CONST	ENDS
;	COMDAT __real@c87a0000
CONST	SEGMENT
__real@c87a0000 DD 0c87a0000r			; -256000
CONST	ENDS
;	COMDAT __real@c7000000
CONST	SEGMENT
__real@c7000000 DD 0c7000000r			; -32768
CONST	ENDS
;	COMDAT __real@c5fa0000
CONST	SEGMENT
__real@c5fa0000 DD 0c5fa0000r			; -8000
CONST	ENDS
;	COMDAT __real@c2c80000
CONST	SEGMENT
__real@c2c80000 DD 0c2c80000r			; -100
CONST	ENDS
;	COMDAT __real@c0000000
CONST	SEGMENT
__real@c0000000 DD 0c0000000r			; -2
CONST	ENDS
;	COMDAT __real@bfe0000000000000
CONST	SEGMENT
__real@bfe0000000000000 DQ 0bfe0000000000000r	; -0.5
CONST	ENDS
;	COMDAT __real@bf800000
CONST	SEGMENT
__real@bf800000 DD 0bf800000r			; -1
CONST	ENDS
;	COMDAT __real@bf5db3d0
CONST	SEGMENT
__real@bf5db3d0 DD 0bf5db3d0r			; -0.866025
CONST	ENDS
;	COMDAT __real@bf5db22d
CONST	SEGMENT
__real@bf5db22d DD 0bf5db22dr			; -0.866
CONST	ENDS
;	COMDAT __real@bf400000
CONST	SEGMENT
__real@bf400000 DD 0bf400000r			; -0.75
CONST	ENDS
;	COMDAT __real@bf000000
CONST	SEGMENT
__real@bf000000 DD 0bf000000r			; -0.5
CONST	ENDS
;	COMDAT __real@beaaaaab
CONST	SEGMENT
__real@beaaaaab DD 0beaaaaabr			; -0.333333
CONST	ENDS
;	COMDAT __real@be800000
CONST	SEGMENT
__real@be800000 DD 0be800000r			; -0.25
CONST	ENDS
;	COMDAT __real@bc23d70a
CONST	SEGMENT
__real@bc23d70a DD 0bc23d70ar			; -0.01
CONST	ENDS
;	COMDAT __real@7fefffffffffffff
CONST	SEGMENT
__real@7fefffffffffffff DQ 07fefffffffffffffr	; 1.79769e+308
CONST	ENDS
;	COMDAT __real@7f7fffff
CONST	SEGMENT
__real@7f7fffff DD 07f7fffffr			; 3.40282e+38
CONST	ENDS
;	COMDAT __real@5f000000
CONST	SEGMENT
__real@5f000000 DD 05f000000r			; 9.22337e+18
CONST	ENDS
;	COMDAT __real@47efffffe0000000
CONST	SEGMENT
__real@47efffffe0000000 DQ 047efffffe0000000r	; 3.40282e+38
CONST	ENDS
;	COMDAT __real@46fffe00
CONST	SEGMENT
__real@46fffe00 DD 046fffe00r			; 32767
CONST	ENDS
;	COMDAT __real@45fa0000
CONST	SEGMENT
__real@45fa0000 DD 045fa0000r			; 8000
CONST	ENDS
;	COMDAT __real@45333333
CONST	SEGMENT
__real@45333333 DD 045333333r			; 2867.2
CONST	ENDS
;	COMDAT __real@44b33333
CONST	SEGMENT
__real@44b33333 DD 044b33333r			; 1433.6
CONST	ENDS
;	COMDAT __real@447a0000
CONST	SEGMENT
__real@447a0000 DD 0447a0000r			; 1000
CONST	ENDS
;	COMDAT __real@44480000
CONST	SEGMENT
__real@44480000 DD 044480000r			; 800
CONST	ENDS
;	COMDAT __real@44333333
CONST	SEGMENT
__real@44333333 DD 044333333r			; 716.8
CONST	ENDS
;	COMDAT __real@44160000
CONST	SEGMENT
__real@44160000 DD 044160000r			; 600
CONST	ENDS
;	COMDAT __real@43e0000000000000
CONST	SEGMENT
__real@43e0000000000000 DQ 043e0000000000000r	; 9.22337e+18
CONST	ENDS
;	COMDAT __real@437f0000
CONST	SEGMENT
__real@437f0000 DD 0437f0000r			; 255
CONST	ENDS
;	COMDAT __real@434c0000
CONST	SEGMENT
__real@434c0000 DD 0434c0000r			; 204
CONST	ENDS
;	COMDAT __real@43000000
CONST	SEGMENT
__real@43000000 DD 043000000r			; 128
CONST	ENDS
;	COMDAT __real@42f60000
CONST	SEGMENT
__real@42f60000 DD 042f60000r			; 123
CONST	ENDS
;	COMDAT __real@42c80000
CONST	SEGMENT
__real@42c80000 DD 042c80000r			; 100
CONST	ENDS
;	COMDAT __real@42c00000
CONST	SEGMENT
__real@42c00000 DD 042c00000r			; 96
CONST	ENDS
;	COMDAT __real@429c0000
CONST	SEGMENT
__real@429c0000 DD 0429c0000r			; 78
CONST	ENDS
;	COMDAT __real@428c0000
CONST	SEGMENT
__real@428c0000 DD 0428c0000r			; 70
CONST	ENDS
;	COMDAT __real@42700000
CONST	SEGMENT
__real@42700000 DD 042700000r			; 60
CONST	ENDS
;	COMDAT __real@424c0000
CONST	SEGMENT
__real@424c0000 DD 0424c0000r			; 51
CONST	ENDS
;	COMDAT __real@42480000
CONST	SEGMENT
__real@42480000 DD 042480000r			; 50
CONST	ENDS
;	COMDAT __real@42440000
CONST	SEGMENT
__real@42440000 DD 042440000r			; 49
CONST	ENDS
;	COMDAT __real@42400000
CONST	SEGMENT
__real@42400000 DD 042400000r			; 48
CONST	ENDS
;	COMDAT __real@42280000
CONST	SEGMENT
__real@42280000 DD 042280000r			; 42
CONST	ENDS
;	COMDAT __real@42140000
CONST	SEGMENT
__real@42140000 DD 042140000r			; 37
CONST	ENDS
;	COMDAT __real@420c0000
CONST	SEGMENT
__real@420c0000 DD 0420c0000r			; 35
CONST	ENDS
;	COMDAT __real@42040000
CONST	SEGMENT
__real@42040000 DD 042040000r			; 33
CONST	ENDS
;	COMDAT __real@41f00000
CONST	SEGMENT
__real@41f00000 DD 041f00000r			; 30
CONST	ENDS
;	COMDAT __real@41c80000
CONST	SEGMENT
__real@41c80000 DD 041c80000r			; 25
CONST	ENDS
;	COMDAT __real@41c40000
CONST	SEGMENT
__real@41c40000 DD 041c40000r			; 24.5
CONST	ENDS
;	COMDAT __real@41c00000
CONST	SEGMENT
__real@41c00000 DD 041c00000r			; 24
CONST	ENDS
;	COMDAT __real@41b00000
CONST	SEGMENT
__real@41b00000 DD 041b00000r			; 22
CONST	ENDS
;	COMDAT __real@41a80000
CONST	SEGMENT
__real@41a80000 DD 041a80000r			; 21
CONST	ENDS
;	COMDAT __real@41a00000
CONST	SEGMENT
__real@41a00000 DD 041a00000r			; 20
CONST	ENDS
;	COMDAT __real@41800000
CONST	SEGMENT
__real@41800000 DD 041800000r			; 16
CONST	ENDS
;	COMDAT __real@41700000
CONST	SEGMENT
__real@41700000 DD 041700000r			; 15
CONST	ENDS
;	COMDAT __real@41600000
CONST	SEGMENT
__real@41600000 DD 041600000r			; 14
CONST	ENDS
;	COMDAT __real@41500000
CONST	SEGMENT
__real@41500000 DD 041500000r			; 13
CONST	ENDS
;	COMDAT __real@41400000
CONST	SEGMENT
__real@41400000 DD 041400000r			; 12
CONST	ENDS
;	COMDAT __real@41300000
CONST	SEGMENT
__real@41300000 DD 041300000r			; 11
CONST	ENDS
;	COMDAT __real@41200000
CONST	SEGMENT
__real@41200000 DD 041200000r			; 10
CONST	ENDS
;	COMDAT __real@411c0000
CONST	SEGMENT
__real@411c0000 DD 0411c0000r			; 9.75
CONST	ENDS
;	COMDAT __real@41040000
CONST	SEGMENT
__real@41040000 DD 041040000r			; 8.25
CONST	ENDS
;	COMDAT __real@41000000
CONST	SEGMENT
__real@41000000 DD 041000000r			; 8
CONST	ENDS
;	COMDAT __real@40e00000
CONST	SEGMENT
__real@40e00000 DD 040e00000r			; 7
CONST	ENDS
;	COMDAT __real@40c90fdb
CONST	SEGMENT
__real@40c90fdb DD 040c90fdbr			; 6.28319
CONST	ENDS
;	COMDAT __real@40c00000
CONST	SEGMENT
__real@40c00000 DD 040c00000r			; 6
CONST	ENDS
;	COMDAT __real@40afede0
CONST	SEGMENT
__real@40afede0 DD 040afede0r			; 5.49779
CONST	ENDS
;	COMDAT __real@40a00000
CONST	SEGMENT
__real@40a00000 DD 040a00000r			; 5
CONST	ENDS
;	COMDAT __real@40800000
CONST	SEGMENT
__real@40800000 DD 040800000r			; 4
CONST	ENDS
;	COMDAT __real@40666666
CONST	SEGMENT
__real@40666666 DD 040666666r			; 3.6
CONST	ENDS
;	COMDAT __real@40600000
CONST	SEGMENT
__real@40600000 DD 040600000r			; 3.5
CONST	ENDS
;	COMDAT __real@40490fdb
CONST	SEGMENT
__real@40490fdb DD 040490fdbr			; 3.14159
CONST	ENDS
;	COMDAT __real@40400000
CONST	SEGMENT
__real@40400000 DD 040400000r			; 3
CONST	ENDS
;	COMDAT __real@403f5c29
CONST	SEGMENT
__real@403f5c29 DD 0403f5c29r			; 2.99
CONST	ENDS
;	COMDAT __real@40266666
CONST	SEGMENT
__real@40266666 DD 040266666r			; 2.6
CONST	ENDS
;	COMDAT __real@40200000
CONST	SEGMENT
__real@40200000 DD 040200000r			; 2.5
CONST	ENDS
;	COMDAT __real@4019999a
CONST	SEGMENT
__real@4019999a DD 04019999ar			; 2.4
CONST	ENDS
;	COMDAT __real@400ccccd
CONST	SEGMENT
__real@400ccccd DD 0400ccccdr			; 2.2
CONST	ENDS
;	COMDAT __real@4000000000000000
CONST	SEGMENT
__real@4000000000000000 DQ 04000000000000000r	; 2
CONST	ENDS
;	COMDAT __real@40000000
CONST	SEGMENT
__real@40000000 DD 040000000r			; 2
CONST	ENDS
;	COMDAT __real@3fe0000000000000
CONST	SEGMENT
__real@3fe0000000000000 DQ 03fe0000000000000r	; 0.5
CONST	ENDS
;	COMDAT __real@3fc00000
CONST	SEGMENT
__real@3fc00000 DD 03fc00000r			; 1.5
CONST	ENDS
;	COMDAT __real@3fb33333
CONST	SEGMENT
__real@3fb33333 DD 03fb33333r			; 1.4
CONST	ENDS
;	COMDAT __real@3faccccd
CONST	SEGMENT
__real@3faccccd DD 03faccccdr			; 1.35
CONST	ENDS
;	COMDAT __real@3f99999a
CONST	SEGMENT
__real@3f99999a DD 03f99999ar			; 1.2
CONST	ENDS
;	COMDAT __real@3f8ccccd
CONST	SEGMENT
__real@3f8ccccd DD 03f8ccccdr			; 1.1
CONST	ENDS
;	COMDAT __real@3f800000
CONST	SEGMENT
__real@3f800000 DD 03f800000r			; 1
CONST	ENDS
;	COMDAT __real@3f7fffef
CONST	SEGMENT
__real@3f7fffef DD 03f7fffefr			; 0.999999
CONST	ENDS
;	COMDAT __real@3f7fff58
CONST	SEGMENT
__real@3f7fff58 DD 03f7fff58r			; 0.99999
CONST	ENDS
;	COMDAT __real@3f7d70a4
CONST	SEGMENT
__real@3f7d70a4 DD 03f7d70a4r			; 0.99
CONST	ENDS
;	COMDAT __real@3f666666
CONST	SEGMENT
__real@3f666666 DD 03f666666r			; 0.9
CONST	ENDS
;	COMDAT __real@3f5db3d0
CONST	SEGMENT
__real@3f5db3d0 DD 03f5db3d0r			; 0.866025
CONST	ENDS
;	COMDAT __real@3f5db22d
CONST	SEGMENT
__real@3f5db22d DD 03f5db22dr			; 0.866
CONST	ENDS
;	COMDAT __real@3f59999a
CONST	SEGMENT
__real@3f59999a DD 03f59999ar			; 0.85
CONST	ENDS
;	COMDAT __real@3f4ccccd
CONST	SEGMENT
__real@3f4ccccd DD 03f4ccccdr			; 0.8
CONST	ENDS
;	COMDAT __real@3f490fdb
CONST	SEGMENT
__real@3f490fdb DD 03f490fdbr			; 0.785398
CONST	ENDS
;	COMDAT __real@3f400000
CONST	SEGMENT
__real@3f400000 DD 03f400000r			; 0.75
CONST	ENDS
;	COMDAT __real@3f3851ec
CONST	SEGMENT
__real@3f3851ec DD 03f3851ecr			; 0.72
CONST	ENDS
;	COMDAT __real@3f350481
CONST	SEGMENT
__real@3f350481 DD 03f350481r			; 0.7071
CONST	ENDS
;	COMDAT __real@3f333333
CONST	SEGMENT
__real@3f333333 DD 03f333333r			; 0.7
CONST	ENDS
;	COMDAT __real@3f2b851f
CONST	SEGMENT
__real@3f2b851f DD 03f2b851fr			; 0.67
CONST	ENDS
;	COMDAT __real@3f266666
CONST	SEGMENT
__real@3f266666 DD 03f266666r			; 0.65
CONST	ENDS
;	COMDAT __real@3f19999a
CONST	SEGMENT
__real@3f19999a DD 03f19999ar			; 0.6
CONST	ENDS
;	COMDAT __real@3f0ccccd
CONST	SEGMENT
__real@3f0ccccd DD 03f0ccccdr			; 0.55
CONST	ENDS
;	COMDAT __real@3f000000
CONST	SEGMENT
__real@3f000000 DD 03f000000r			; 0.5
CONST	ENDS
;	COMDAT __real@3efae148
CONST	SEGMENT
__real@3efae148 DD 03efae148r			; 0.49
CONST	ENDS
;	COMDAT __real@3ee4f8b580000000
CONST	SEGMENT
__real@3ee4f8b580000000 DQ 03ee4f8b580000000r	; 1e-05
CONST	ENDS
;	COMDAT __real@3ecccccd
CONST	SEGMENT
__real@3ecccccd DD 03ecccccdr			; 0.4
CONST	ENDS
;	COMDAT __real@3eb33333
CONST	SEGMENT
__real@3eb33333 DD 03eb33333r			; 0.35
CONST	ENDS
;	COMDAT __real@3e99999a
CONST	SEGMENT
__real@3e99999a DD 03e99999ar			; 0.3
CONST	ENDS
;	COMDAT __real@3e800000
CONST	SEGMENT
__real@3e800000 DD 03e800000r			; 0.25
CONST	ENDS
;	COMDAT __real@3e4ccccd
CONST	SEGMENT
__real@3e4ccccd DD 03e4ccccdr			; 0.2
CONST	ENDS
;	COMDAT __real@3e2aaaab
CONST	SEGMENT
__real@3e2aaaab DD 03e2aaaabr			; 0.166667
CONST	ENDS
;	COMDAT __real@3e19999a
CONST	SEGMENT
__real@3e19999a DD 03e19999ar			; 0.15
CONST	ENDS
;	COMDAT __real@3e09374c
CONST	SEGMENT
__real@3e09374c DD 03e09374cr			; 0.134
CONST	ENDS
;	COMDAT __real@3e000000
CONST	SEGMENT
__real@3e000000 DD 03e000000r			; 0.125
CONST	ENDS
;	COMDAT __real@3dcccccd
CONST	SEGMENT
__real@3dcccccd DD 03dcccccdr			; 0.1
CONST	ENDS
;	COMDAT __real@3da3d70a
CONST	SEGMENT
__real@3da3d70a DD 03da3d70ar			; 0.08
CONST	ENDS
;	COMDAT __real@3d860a92
CONST	SEGMENT
__real@3d860a92 DD 03d860a92r			; 0.0654498
CONST	ENDS
;	COMDAT __real@3d4ccccd
CONST	SEGMENT
__real@3d4ccccd DD 03d4ccccdr			; 0.05
CONST	ENDS
;	COMDAT __real@3d23d70a
CONST	SEGMENT
__real@3d23d70a DD 03d23d70ar			; 0.04
CONST	ENDS
;	COMDAT __real@3cdd2f1b
CONST	SEGMENT
__real@3cdd2f1b DD 03cdd2f1br			; 0.027
CONST	ENDS
;	COMDAT __real@3c888889
CONST	SEGMENT
__real@3c888889 DD 03c888889r			; 0.0166667
CONST	ENDS
;	COMDAT __real@3c23d70a
CONST	SEGMENT
__real@3c23d70a DD 03c23d70ar			; 0.01
CONST	ENDS
;	COMDAT __real@3b808081
CONST	SEGMENT
__real@3b808081 DD 03b808081r			; 0.00392157
CONST	ENDS
;	COMDAT __real@3a83126f
CONST	SEGMENT
__real@3a83126f DD 03a83126fr			; 0.001
CONST	ENDS
;	COMDAT __real@38d1b717
CONST	SEGMENT
__real@38d1b717 DD 038d1b717r			; 0.0001
CONST	ENDS
;	COMDAT __real@38800000
CONST	SEGMENT
__real@38800000 DD 038800000r			; 6.10352e-05
CONST	ENDS
;	COMDAT __real@37800000
CONST	SEGMENT
__real@37800000 DD 037800000r			; 1.52588e-05
CONST	ENDS
;	COMDAT __real@3727c5ac
CONST	SEGMENT
__real@3727c5ac DD 03727c5acr			; 1e-05
CONST	ENDS
;	COMDAT __real@358637bd
CONST	SEGMENT
__real@358637bd DD 0358637bdr			; 1e-06
CONST	ENDS
;	COMDAT __real@1e3ce508
CONST	SEGMENT
__real@1e3ce508 DD 01e3ce508r			; 1e-20
CONST	ENDS
;	COMDAT __real@00800000
CONST	SEGMENT
__real@00800000 DD 000800000r			; 1.17549e-38
CONST	ENDS
;	COMDAT xdata
xdata	SEGMENT
$unwind$?_Decref@_Ref_count_base@std@@QEAAXXZ DQ 00006340a00040a01r ; 8.62672e-309
	DD	07006320aH
xdata	ENDS
;	COMDAT xdata
xdata	SEGMENT
$unwind$?MoveLayer@Move@@QEAAXV?$shared_ptr@VLayer@@@std@@@Z DQ 00006340a00040a01r ; 8.62672e-309
	DD	07006320aH
xdata	ENDS
;	COMDAT xdata
xdata	SEGMENT
$chain$1$??1?$shared_ptr@VLayer@@@std@@QEAA@XZ DD 021H
	DD	imagerel $LN18@shared_ptr
	DD	imagerel $LN18@shared_ptr+15
	DD	imagerel $unwind$??1?$shared_ptr@VLayer@@@std@@QEAA@XZ
xdata	ENDS
;	COMDAT xdata
xdata	SEGMENT
$chain$0$??1?$shared_ptr@VLayer@@@std@@QEAA@XZ DQ 00006740500020521r ; 8.97428e-309
	DD	imagerel $LN18@shared_ptr
	DD	imagerel $LN18@shared_ptr+15
	DD	imagerel $unwind$??1?$shared_ptr@VLayer@@@std@@QEAA@XZ
xdata	ENDS
;	COMDAT xdata
xdata	SEGMENT
$unwind$??1?$shared_ptr@VLayer@@@std@@QEAA@XZ DQ 03002320600020601r ; 1.96423e-77
xdata	ENDS
;	COMDAT xdata
xdata	SEGMENT
$chain$1$?_Decref@?$_Ptr_base@VLayer@@@std@@IEAAXXZ DD 021H
	DD	imagerel $LN16@Decref
	DD	imagerel $LN16@Decref+15
	DD	imagerel $unwind$?_Decref@?$_Ptr_base@VLayer@@@std@@IEAAXXZ
xdata	ENDS
;	COMDAT xdata
xdata	SEGMENT
$chain$0$?_Decref@?$_Ptr_base@VLayer@@@std@@IEAAXXZ DQ 00006740500020521r ; 8.97428e-309
	DD	imagerel $LN16@Decref
	DD	imagerel $LN16@Decref+15
	DD	imagerel $unwind$?_Decref@?$_Ptr_base@VLayer@@@std@@IEAAXXZ
xdata	ENDS
;	COMDAT xdata
xdata	SEGMENT
$unwind$?_Decref@?$_Ptr_base@VLayer@@@std@@IEAAXXZ DQ 03002320600020601r ; 1.96423e-77
xdata	ENDS
END
