; Listing generated by Microsoft (R) Optimizing Compiler Version 19.36.32535.0 

include listing.inc

INCLUDELIB OLDNAMES

PUBLIC	?m_Color@WindowData@@2U?$vec@$03M$0A@@glm@@A	; WindowData::m_Color
;	COMDAT ?dy@?1??FloodFill4Stack@PaintBucket@@QEAAXV?$shared_ptr@VLayer@@@std@@AEAVPixelBuffer@@@Z@4QBHB
CONST	SEGMENT
?dy@?1??FloodFill4Stack@PaintBucket@@QEAAXV?$shared_ptr@VLayer@@@std@@AEAVPixelBuffer@@@Z@4QBHB DD 0ffffffffH ; `PaintBucket::FloodFill4Stack'::`2'::dy
	DD	00H
	DD	01H
	DD	00H
CONST	ENDS
;	COMDAT ?PreviousPosition@?1??FloodFill4Stack@PaintBucket@@QEAAXV?$shared_ptr@VLayer@@@std@@AEAVPixelBuffer@@@Z@4U?$vec@$02M$0A@@glm@@A
_DATA	SEGMENT
?PreviousPosition@?1??FloodFill4Stack@PaintBucket@@QEAAXV?$shared_ptr@VLayer@@@std@@AEAVPixelBuffer@@@Z@4U?$vec@$02M$0A@@glm@@A DD 0bf800000r ; -1 ; `PaintBucket::FloodFill4Stack'::`2'::PreviousPosition
	DD	0bf800000r			; -1
	DD	0bf800000r			; -1
_DATA	ENDS
;	COMDAT ?m_Color@WindowData@@2U?$vec@$03M$0A@@glm@@A
_DATA	SEGMENT
?m_Color@WindowData@@2U?$vec@$03M$0A@@glm@@A DD 000000000r ; 0 ; WindowData::m_Color
	DD	000000000r			; 0
	DD	000000000r			; 0
	DD	03f800000r			; 1
_DATA	ENDS
;	COMDAT ?dx@?1??FloodFill4Stack@PaintBucket@@QEAAXV?$shared_ptr@VLayer@@@std@@AEAVPixelBuffer@@@Z@4QBHB
CONST	SEGMENT
?dx@?1??FloodFill4Stack@PaintBucket@@QEAAXV?$shared_ptr@VLayer@@@std@@AEAVPixelBuffer@@@Z@4QBHB DD 00H ; `PaintBucket::FloodFill4Stack'::`2'::dx
	DD	01H
	DD	00H
	DD	0ffffffffH
PUBLIC	??$construct_at@HH$0A@@std@@YAPEAHQEAH$$QEAH@Z	; std::construct_at<int,int,0>
PUBLIC	??$construct@HH@?$_Default_allocator_traits@V?$allocator@H@std@@@std@@SAXAEAV?$allocator@H@1@QEAH$$QEAH@Z ; std::_Default_allocator_traits<std::allocator<int> >::construct<int,int>
PUBLIC	??$forward@H@std@@YA$$QEAHAEAH@Z		; std::forward<int>
PUBLIC	??$to_address@H@std@@YAPEAHQEAH@Z		; std::to_address<int>
PUBLIC	??$_Emplace_back@H@?$_Uninitialized_backout_al@V?$allocator@H@std@@@std@@QEAAX$$QEAH@Z ; std::_Uninitialized_backout_al<std::allocator<int> >::_Emplace_back<int>
PUBLIC	??$_To_address@PEAH@std@@YA?A_PAEBQEAH@Z	; std::_To_address<int *>
PUBLIC	??$_Copy_memmove@PEAHPEAH@std@@YAPEAHPEAH00@Z	; std::_Copy_memmove<int *,int *>
PUBLIC	??$_Voidify_iter@PEAH@std@@YAPEAXPEAH@Z		; std::_Voidify_iter<int *>
PUBLIC	??$construct_at@HAEBH$0A@@std@@YAPEAHQEAHAEBH@Z	; std::construct_at<int,int const &,0>
PUBLIC	??$addressof@H@std@@YAPEAHAEAH@Z		; std::addressof<int>
PUBLIC	??0?$_Uninitialized_backout_al@V?$allocator@H@std@@@std@@QEAA@PEAHAEAV?$allocator@H@1@@Z ; std::_Uninitialized_backout_al<std::allocator<int> >::_Uninitialized_backout_al<std::allocator<int> >
PUBLIC	??1?$_Uninitialized_backout_al@V?$allocator@H@std@@@std@@QEAA@XZ ; std::_Uninitialized_backout_al<std::allocator<int> >::~_Uninitialized_backout_al<std::allocator<int> >
PUBLIC	?_Release@?$_Uninitialized_backout_al@V?$allocator@H@std@@@std@@QEAAPEAHXZ ; std::_Uninitialized_backout_al<std::allocator<int> >::_Release
PUBLIC	?__autoclassinit2@?$_Uninitialized_backout_al@V?$allocator@H@std@@@std@@QEAAX_K@Z ; std::_Uninitialized_backout_al<std::allocator<int> >::__autoclassinit2
PUBLIC	??$_Uninitialized_move@PEAHV?$allocator@H@std@@@std@@YAPEAHQEAH0PEAHAEAV?$allocator@H@0@@Z ; std::_Uninitialized_move<int *,std::allocator<int> >
PUBLIC	??$_Get_unwrapped@AEBQEAH@std@@YA?A_TAEBQEAH@Z	; std::_Get_unwrapped<int * const &>
PUBLIC	??$construct@HAEBH@?$_Default_allocator_traits@V?$allocator@H@std@@@std@@SAXAEAV?$allocator@H@1@QEAHAEBH@Z ; std::_Default_allocator_traits<std::allocator<int> >::construct<int,int const &>
PUBLIC	??$_Construct_in_place@HAEBH@std@@YAXAEAHAEBH@Z	; std::_Construct_in_place<int,int const &>
PUBLIC	??$forward@AEAPEAI@std@@YAAEAPEAIAEAPEAI@Z	; std::forward<unsigned int * &>
PUBLIC	??$?RAEBMAEBM@?$less@X@std@@QEBA_NAEBM0@Z	; std::less<void>::operator()<float const &,float const &>
PUBLIC	?_Get_first@?$_Compressed_pair@V?$allocator@H@std@@V?$_Vector_val@U?$_Simple_types@H@std@@@2@$00@std@@QEBAAEBV?$allocator@H@2@XZ ; std::_Compressed_pair<std::allocator<int>,std::_Vector_val<std::_Simple_types<int> >,1>::_Get_first
PUBLIC	?max_size@?$_Default_allocator_traits@V?$allocator@H@std@@@std@@SA_KAEBV?$allocator@H@2@@Z ; std::_Default_allocator_traits<std::allocator<int> >::max_size
PUBLIC	?capacity@?$vector@HV?$allocator@H@std@@@std@@QEBA_KXZ ; std::vector<int,std::allocator<int> >::capacity
PUBLIC	?_Getal@?$vector@HV?$allocator@H@std@@@std@@AEBAAEBV?$allocator@H@2@XZ ; std::vector<int,std::allocator<int> >::_Getal
PUBLIC	?allocate@?$allocator@H@std@@QEAAPEAH_K@Z	; std::allocator<int>::allocate
PUBLIC	?max_size@?$vector@HV?$allocator@H@std@@@std@@QEBA_KXZ ; std::vector<int,std::allocator<int> >::max_size
PUBLIC	?_Calculate_growth@?$vector@HV?$allocator@H@std@@@std@@AEBA_K_K@Z ; std::vector<int,std::allocator<int> >::_Calculate_growth
PUBLIC	?_Change_array@?$vector@HV?$allocator@H@std@@@std@@AEAAXQEAH_K1@Z ; std::vector<int,std::allocator<int> >::_Change_array
PUBLIC	?_Xlength@?$vector@HV?$allocator@H@std@@@std@@CAXXZ ; std::vector<int,std::allocator<int> >::_Xlength
PUBLIC	??$_Emplace_reallocate@AEBH@?$vector@HV?$allocator@H@std@@@std@@AEAAPEAHQEAHAEBH@Z ; std::vector<int,std::allocator<int> >::_Emplace_reallocate<int const &>
PUBLIC	??$_Emplace_back_with_unused_capacity@AEBH@?$vector@HV?$allocator@H@std@@@std@@AEAAAEAHAEBH@Z ; std::vector<int,std::allocator<int> >::_Emplace_back_with_unused_capacity<int const &>
PUBLIC	??$forward@AEBH@std@@YAAEBHAEBH@Z		; std::forward<int const &>
PUBLIC	??$destroy_at@H@std@@YAXQEAH@Z			; std::destroy_at<int>
PUBLIC	??$?0AEAPEAI@?$_Compressed_pair@U?$default_delete@$$BY0A@I@std@@PEAI$00@std@@QEAA@U_Zero_then_variadic_args_t@1@AEAPEAI@Z ; std::_Compressed_pair<std::default_delete<unsigned int [0]>,unsigned int *,1>::_Compressed_pair<std::default_delete<unsigned int [0]>,unsigned int *,1><unsigned int * &>
PUBLIC	??$clamp@MU?$less@X@std@@@std@@YAAEBMAEBM00U?$less@X@0@@Z ; std::clamp<float,std::less<void> >
PUBLIC	??$move@AEAH@std@@YA$$QEAHAEAH@Z		; std::move<int &>
PUBLIC	??0?$allocator@H@std@@QEAA@XZ			; std::allocator<int>::allocator<int>
PUBLIC	??0?$_Vector_val@U?$_Simple_types@H@std@@@std@@QEAA@XZ ; std::_Vector_val<std::_Simple_types<int> >::_Vector_val<std::_Simple_types<int> >
PUBLIC	??$_Destroy_range@V?$allocator@H@std@@@std@@YAXPEAHQEAHAEAV?$allocator@H@0@@Z ; std::_Destroy_range<std::allocator<int> >
PUBLIC	??$?0$$V@?$_Compressed_pair@V?$allocator@H@std@@V?$_Vector_val@U?$_Simple_types@H@std@@@2@$00@std@@QEAA@U_Zero_then_variadic_args_t@1@@Z ; std::_Compressed_pair<std::allocator<int>,std::_Vector_val<std::_Simple_types<int> >,1>::_Compressed_pair<std::allocator<int>,std::_Vector_val<std::_Simple_types<int> >,1><>
PUBLIC	??$_Emplace_one_at_back@AEBH@?$vector@HV?$allocator@H@std@@@std@@AEAAAEAHAEBH@Z ; std::vector<int,std::allocator<int> >::_Emplace_one_at_back<int const &>
PUBLIC	??$destroy@H@?$_Default_allocator_traits@V?$allocator@H@std@@@std@@SAXAEAV?$allocator@H@1@QEAH@Z ; std::_Default_allocator_traits<std::allocator<int> >::destroy<int>
PUBLIC	??$_Unfancy@H@std@@YAPEAHPEAH@Z			; std::_Unfancy<int>
PUBLIC	??$?RI$0A@@?$default_delete@$$BY0A@I@std@@QEBAXPEAI@Z ; std::default_delete<unsigned int [0]>::operator()<unsigned int,0>
PUBLIC	??$?0PEAIU?$default_delete@$$BY0A@I@std@@$0A@$0A@@?$unique_ptr@$$BY0A@IU?$default_delete@$$BY0A@I@std@@@std@@QEAA@PEAI@Z ; std::unique_ptr<unsigned int [0],std::default_delete<unsigned int [0]> >::unique_ptr<unsigned int [0],std::default_delete<unsigned int [0]> ><unsigned int *,std::default_delete<unsigned int [0]>,0,0>
PUBLIC	??$?8M$0A@@glm@@YA_NAEBU?$vec@$02M$0A@@0@0@Z	; glm::operator==<float,0>
PUBLIC	??$clamp@M@std@@YAAEBMAEBM00@Z			; std::clamp<float>
PUBLIC	?deallocate@?$allocator@H@std@@QEAAXQEAH_K@Z	; std::allocator<int>::deallocate
PUBLIC	?_Get_first@?$_Compressed_pair@V?$allocator@H@std@@V?$_Vector_val@U?$_Simple_types@H@std@@@2@$00@std@@QEAAAEAV?$allocator@H@2@XZ ; std::_Compressed_pair<std::allocator<int>,std::_Vector_val<std::_Simple_types<int> >,1>::_Get_first
PUBLIC	?_Tidy@?$vector@HV?$allocator@H@std@@@std@@AEAAXXZ ; std::vector<int,std::allocator<int> >::_Tidy
PUBLIC	?_Orphan_range@?$vector@HV?$allocator@H@std@@@std@@AEBAXPEAH0@Z ; std::vector<int,std::allocator<int> >::_Orphan_range
PUBLIC	?_Getal@?$vector@HV?$allocator@H@std@@@std@@AEAAAEAV?$allocator@H@2@XZ ; std::vector<int,std::allocator<int> >::_Getal
PUBLIC	?_Get_first@?$_Compressed_pair@U?$default_delete@$$BY0A@I@std@@PEAI$00@std@@QEAAAEAU?$default_delete@$$BY0A@I@2@XZ ; std::_Compressed_pair<std::default_delete<unsigned int [0]>,unsigned int *,1>::_Get_first
PUBLIC	??0?$vector@HV?$allocator@H@std@@@std@@QEAA@XZ	; std::vector<int,std::allocator<int> >::vector<int,std::allocator<int> >
PUBLIC	??1?$vector@HV?$allocator@H@std@@@std@@QEAA@XZ	; std::vector<int,std::allocator<int> >::~vector<int,std::allocator<int> >
PUBLIC	?push_back@?$vector@HV?$allocator@H@std@@@std@@QEAAXAEBH@Z ; std::vector<int,std::allocator<int> >::push_back
PUBLIC	?pop_back@?$vector@HV?$allocator@H@std@@@std@@QEAAXXZ ; std::vector<int,std::allocator<int> >::pop_back
PUBLIC	?size@?$vector@HV?$allocator@H@std@@@std@@QEBA_KXZ ; std::vector<int,std::allocator<int> >::size
PUBLIC	?back@?$vector@HV?$allocator@H@std@@@std@@QEAAAEAHXZ ; std::vector<int,std::allocator<int> >::back
PUBLIC	??1?$unique_ptr@$$BY0A@IU?$default_delete@$$BY0A@I@std@@@std@@QEAA@XZ ; std::unique_ptr<unsigned int [0],std::default_delete<unsigned int [0]> >::~unique_ptr<unsigned int [0],std::default_delete<unsigned int [0]> >
PUBLIC	??A?$unique_ptr@$$BY0A@IU?$default_delete@$$BY0A@I@std@@@std@@QEBAAEAI_K@Z ; std::unique_ptr<unsigned int [0],std::default_delete<unsigned int [0]> >::operator[]
PUBLIC	?get@?$unique_ptr@$$BY0A@IU?$default_delete@$$BY0A@I@std@@@std@@QEBAPEAIXZ ; std::unique_ptr<unsigned int [0],std::default_delete<unsigned int [0]> >::get
PUBLIC	?__autoclassinit2@?$vector@HV?$allocator@H@std@@@std@@QEAAX_K@Z ; std::vector<int,std::allocator<int> >::__autoclassinit2
PUBLIC	?__autoclassinit2@?$unique_ptr@$$BY0A@IU?$default_delete@$$BY0A@I@std@@@std@@QEAAX_K@Z ; std::unique_ptr<unsigned int [0],std::default_delete<unsigned int [0]> >::__autoclassinit2
PUBLIC	?FloodFill4Stack@PaintBucket@@QEAAXV?$shared_ptr@VLayer@@@std@@AEAVPixelBuffer@@@Z ; PaintBucket::FloodFill4Stack
PUBLIC	??1PaintBucket@@QEAA@XZ				; PaintBucket::~PaintBucket
PUBLIC	??0PaintBucket@@QEAA@XZ				; PaintBucket::PaintBucket
;	COMDAT pdata
pdata	SEGMENT
$pdata$??$_Copy_memmove@PEAHPEAH@std@@YAPEAHPEAH00@Z DD imagerel $LN4@Copy_memmo
	DD	imagerel $LN4@Copy_memmo+48
	DD	imagerel $unwind$??$_Copy_memmove@PEAHPEAH@std@@YAPEAHPEAH00@Z
pdata	ENDS
;	COMDAT pdata
pdata	SEGMENT
$pdata$??$_Uninitialized_move@PEAHV?$allocator@H@std@@@std@@YAPEAHQEAH0PEAHAEAV?$allocator@H@0@@Z DD imagerel $LN23@Uninitiali
	DD	imagerel $LN23@Uninitiali+52
	DD	imagerel $unwind$??$_Uninitialized_move@PEAHV?$allocator@H@std@@@std@@YAPEAHQEAH0PEAHAEAV?$allocator@H@0@@Z
pdata	ENDS
;	COMDAT pdata
pdata	SEGMENT
$pdata$?allocate@?$allocator@H@std@@QEAAPEAH_K@Z DD imagerel $LN32@allocate
	DD	imagerel $LN32@allocate+112
	DD	imagerel $unwind$?allocate@?$allocator@H@std@@QEAAPEAH_K@Z
pdata	ENDS
;	COMDAT pdata
pdata	SEGMENT
$pdata$?_Change_array@?$vector@HV?$allocator@H@std@@@std@@AEAAXQEAH_K1@Z DD imagerel $LN30@Change_arr
	DD	imagerel $LN30@Change_arr+136
	DD	imagerel $unwind$?_Change_array@?$vector@HV?$allocator@H@std@@@std@@AEAAXQEAH_K1@Z
pdata	ENDS
;	COMDAT pdata
pdata	SEGMENT
$pdata$?_Xlength@?$vector@HV?$allocator@H@std@@@std@@CAXXZ DD imagerel $LN4@Xlength
	DD	imagerel $LN4@Xlength+18
	DD	imagerel $unwind$?_Xlength@?$vector@HV?$allocator@H@std@@@std@@CAXXZ
pdata	ENDS
;	COMDAT pdata
pdata	SEGMENT
$pdata$??$_Emplace_reallocate@AEBH@?$vector@HV?$allocator@H@std@@@std@@AEAAPEAHQEAHAEBH@Z DD imagerel $LN152@Emplace_re
	DD	imagerel $LN152@Emplace_re+70
	DD	imagerel $unwind$??$_Emplace_reallocate@AEBH@?$vector@HV?$allocator@H@std@@@std@@AEAAPEAHQEAHAEBH@Z
pdata	ENDS
;	COMDAT pdata
pdata	SEGMENT
$pdata$3$??$_Emplace_reallocate@AEBH@?$vector@HV?$allocator@H@std@@@std@@AEAAPEAHQEAHAEBH@Z DD imagerel $LN152@Emplace_re+70
	DD	imagerel $LN152@Emplace_re+391
	DD	imagerel $chain$3$??$_Emplace_reallocate@AEBH@?$vector@HV?$allocator@H@std@@@std@@AEAAPEAHQEAHAEBH@Z
pdata	ENDS
;	COMDAT pdata
pdata	SEGMENT
$pdata$5$??$_Emplace_reallocate@AEBH@?$vector@HV?$allocator@H@std@@@std@@AEAAPEAHQEAHAEBH@Z DD imagerel $LN152@Emplace_re+391
	DD	imagerel $LN152@Emplace_re+398
	DD	imagerel $chain$5$??$_Emplace_reallocate@AEBH@?$vector@HV?$allocator@H@std@@@std@@AEAAPEAHQEAHAEBH@Z
pdata	ENDS
;	COMDAT pdata
pdata	SEGMENT
$pdata$6$??$_Emplace_reallocate@AEBH@?$vector@HV?$allocator@H@std@@@std@@AEAAPEAHQEAHAEBH@Z DD imagerel $LN152@Emplace_re+398
	DD	imagerel $LN152@Emplace_re+404
	DD	imagerel $chain$6$??$_Emplace_reallocate@AEBH@?$vector@HV?$allocator@H@std@@@std@@AEAAPEAHQEAHAEBH@Z
pdata	ENDS
;	COMDAT pdata
pdata	SEGMENT
$pdata$7$??$_Emplace_reallocate@AEBH@?$vector@HV?$allocator@H@std@@@std@@AEAAPEAHQEAHAEBH@Z DD imagerel $LN152@Emplace_re+404
	DD	imagerel $LN152@Emplace_re+410
	DD	imagerel $chain$7$??$_Emplace_reallocate@AEBH@?$vector@HV?$allocator@H@std@@@std@@AEAAPEAHQEAHAEBH@Z
pdata	ENDS
;	COMDAT pdata
pdata	SEGMENT
$pdata$??$clamp@M@std@@YAAEBMAEBM00@Z DD imagerel $LN11@clamp
	DD	imagerel $LN11@clamp+61
	DD	imagerel $unwind$??$clamp@M@std@@YAAEBMAEBM00@Z
pdata	ENDS
;	COMDAT pdata
pdata	SEGMENT
$pdata$?deallocate@?$allocator@H@std@@QEAAXQEAH_K@Z DD imagerel $LN23@deallocate
	DD	imagerel $LN23@deallocate+67
	DD	imagerel $unwind$?deallocate@?$allocator@H@std@@QEAAXQEAH_K@Z
pdata	ENDS
;	COMDAT pdata
pdata	SEGMENT
$pdata$?_Tidy@?$vector@HV?$allocator@H@std@@@std@@AEAAXXZ DD imagerel $LN30@Tidy
	DD	imagerel $LN30@Tidy+92
	DD	imagerel $unwind$?_Tidy@?$vector@HV?$allocator@H@std@@@std@@AEAAXXZ
pdata	ENDS
;	COMDAT pdata
pdata	SEGMENT
$pdata$??1?$vector@HV?$allocator@H@std@@@std@@QEAA@XZ DD imagerel $LN33@vector
	DD	imagerel $LN33@vector+92
	DD	imagerel $unwind$??1?$vector@HV?$allocator@H@std@@@std@@QEAA@XZ
pdata	ENDS
;	COMDAT pdata
pdata	SEGMENT
$pdata$?FloodFill4Stack@PaintBucket@@QEAAXV?$shared_ptr@VLayer@@@std@@AEAVPixelBuffer@@@Z DD imagerel $LN302
	DD	imagerel $LN302+1393
	DD	imagerel $unwind$?FloodFill4Stack@PaintBucket@@QEAAXV?$shared_ptr@VLayer@@@std@@AEAVPixelBuffer@@@Z
pdata	ENDS
;	COMDAT pdata
pdata	SEGMENT
$pdata$?GetColor@@YAIXZ DD imagerel ?GetColor@@YAIXZ
	DD	imagerel ?GetColor@@YAIXZ+285
	DD	imagerel $unwind$?GetColor@@YAIXZ
pdata	ENDS
;	COMDAT pdata
pdata	SEGMENT
$pdata$?push@@YAXAEAV?$vector@HV?$allocator@H@std@@@std@@HH@Z DD imagerel ?push@@YAXAEAV?$vector@HV?$allocator@H@std@@@std@@HH@Z
	DD	imagerel ?push@@YAXAEAV?$vector@HV?$allocator@H@std@@@std@@HH@Z+108
	DD	imagerel $unwind$?push@@YAXAEAV?$vector@HV?$allocator@H@std@@@std@@HH@Z
;	COMDAT xdata
xdata	SEGMENT
$unwind$?push@@YAXAEAV?$vector@HV?$allocator@H@std@@@std@@HH@Z DQ 00009341300041301r ; 1.27989e-308
	DD	0700f3213H
xdata	ENDS
;	COMDAT xdata
xdata	SEGMENT
$unwind$?GetColor@@YAIXZ DQ 05002320900020901r	; 2.63361e+77
xdata	ENDS
;	COMDAT xdata
xdata	SEGMENT
$ip2state$?FloodFill4Stack@PaintBucket@@QEAAXV?$shared_ptr@VLayer@@@std@@AEAVPixelBuffer@@@Z DB 0aH
	DB	'I', 04H
	DB	02H
	DB	'n'
	DB	04H
	DB	'A', 07H
	DB	06H
	DB	0e1H, 05H
	DB	04H
	DB	0b1H, 02H
	DB	00H
xdata	ENDS
;	COMDAT xdata
xdata	SEGMENT
$stateUnwindMap$?FloodFill4Stack@PaintBucket@@QEAAXV?$shared_ptr@VLayer@@@std@@AEAVPixelBuffer@@@Z DB 06H
	DB	0cH
	DD	imagerel ??1?$shared_ptr@VLayer@@@std@@QEAA@XZ
	DB	0e0H
	DB	032H
	DD	imagerel ??1?$unique_ptr@$$BY0A@IU?$default_delete@$$BY0A@I@std@@@std@@QEAA@XZ
	DB	0c1H
	DB	02H
	DB	03aH
	DD	imagerel ??1?$vector@HV?$allocator@H@std@@@std@@QEAA@XZ
	DB	0f0H
xdata	ENDS
;	COMDAT xdata
xdata	SEGMENT
$cppxdata$?FloodFill4Stack@PaintBucket@@QEAAXV?$shared_ptr@VLayer@@@std@@AEAVPixelBuffer@@@Z DB 028H
	DD	imagerel $stateUnwindMap$?FloodFill4Stack@PaintBucket@@QEAAXV?$shared_ptr@VLayer@@@std@@AEAVPixelBuffer@@@Z
	DD	imagerel $ip2state$?FloodFill4Stack@PaintBucket@@QEAAXV?$shared_ptr@VLayer@@@std@@AEAVPixelBuffer@@@Z
xdata	ENDS
;	COMDAT xdata
xdata	SEGMENT
$unwind$?FloodFill4Stack@PaintBucket@@QEAAXV?$shared_ptr@VLayer@@@std@@AEAVPixelBuffer@@@Z DD 0133d19H
	DD	0e982fH
	DD	0f882aH
	DD	0107825H
	DD	0116821H
	DD	02c341dH
	DD	024011dH
	DD	0e010f012H
	DD	0c00cd00eH
	DD	06009700aH
	DD	05008H
	DD	imagerel __GSHandlerCheck_EH4
	DD	imagerel $cppxdata$?FloodFill4Stack@PaintBucket@@QEAAXV?$shared_ptr@VLayer@@@std@@AEAVPixelBuffer@@@Z
	DD	0d2H
xdata	ENDS
;	COMDAT xdata
xdata	SEGMENT
$unwind$??1?$vector@HV?$allocator@H@std@@@std@@QEAA@XZ DQ 03002320600020601r ; 1.96423e-77
xdata	ENDS
;	COMDAT xdata
xdata	SEGMENT
$unwind$?_Tidy@?$vector@HV?$allocator@H@std@@@std@@AEAAXXZ DQ 03002320600020601r ; 1.96423e-77
xdata	ENDS
;	COMDAT xdata
xdata	SEGMENT
$unwind$?deallocate@?$allocator@H@std@@QEAAXQEAH_K@Z DQ 00000420400010401r ; 3.58617e-310
xdata	ENDS
;	COMDAT xdata
xdata	SEGMENT
$unwind$??$clamp@M@std@@YAAEBMAEBM00@Z DQ 00000220400011219r ; 1.84783e-310
	DD	imagerel __GSHandlerCheck
	DD	00H
xdata	ENDS
;	COMDAT xdata
xdata	SEGMENT
$chain$7$??$_Emplace_reallocate@AEBH@?$vector@HV?$allocator@H@std@@@std@@AEAAPEAHQEAHAEBH@Z DQ 00004e40000080021r ; 6.80125e-309
	DQ	0000664000005c400r		; 8.88726e-309
	DD	0e3400H
	DD	imagerel $LN152@Emplace_re
	DD	imagerel $LN152@Emplace_re+70
	DD	imagerel $unwind$??$_Emplace_reallocate@AEBH@?$vector@HV?$allocator@H@std@@@std@@AEAAPEAHQEAHAEBH@Z
xdata	ENDS
;	COMDAT xdata
xdata	SEGMENT
$chain$6$??$_Emplace_reallocate@AEBH@?$vector@HV?$allocator@H@std@@@std@@AEAAPEAHQEAHAEBH@Z DD 021H
	DD	imagerel $LN152@Emplace_re
	DD	imagerel $LN152@Emplace_re+70
	DD	imagerel $unwind$??$_Emplace_reallocate@AEBH@?$vector@HV?$allocator@H@std@@@std@@AEAAPEAHQEAHAEBH@Z
xdata	ENDS
;	COMDAT xdata
xdata	SEGMENT
$chain$5$??$_Emplace_reallocate@AEBH@?$vector@HV?$allocator@H@std@@@std@@AEAAPEAHQEAHAEBH@Z DQ 00004e40000080021r ; 6.80125e-309
	DQ	0000664000005c400r		; 8.88726e-309
	DD	0e3400H
	DD	imagerel $LN152@Emplace_re
	DD	imagerel $LN152@Emplace_re+70
	DD	imagerel $unwind$??$_Emplace_reallocate@AEBH@?$vector@HV?$allocator@H@std@@@std@@AEAAPEAHQEAHAEBH@Z
xdata	ENDS
;	COMDAT xdata
xdata	SEGMENT
$chain$3$??$_Emplace_reallocate@AEBH@?$vector@HV?$allocator@H@std@@@std@@AEAAPEAHQEAHAEBH@Z DQ 00004e42800082821r ; 6.8021e-309
	DQ	00006640e0005c416r		; 8.88755e-309
	DD	0e3405H
	DD	imagerel $LN152@Emplace_re
	DD	imagerel $LN152@Emplace_re+70
	DD	imagerel $unwind$??$_Emplace_reallocate@AEBH@?$vector@HV?$allocator@H@std@@@std@@AEAAPEAHQEAHAEBH@Z
xdata	ENDS
;	COMDAT xdata
xdata	SEGMENT
$unwind$??$_Emplace_reallocate@AEBH@?$vector@HV?$allocator@H@std@@@std@@AEAAPEAHQEAHAEBH@Z DQ 0f007620b00050b01r ; -4.53781e+231
	DQ	0000050027003d005r		; 4.34636e-310
xdata	ENDS
;	COMDAT xdata
xdata	SEGMENT
$unwind$?_Xlength@?$vector@HV?$allocator@H@std@@@std@@CAXXZ DQ 00000420400010401r ; 3.58617e-310
xdata	ENDS
;	COMDAT xdata
xdata	SEGMENT
$unwind$?_Change_array@?$vector@HV?$allocator@H@std@@@std@@AEAAXQEAH_K1@Z DQ 00009641400081401r ; 1.30597e-308
	DQ	00007341400085414r		; 1.00176e-308
	DD	070103214H
xdata	ENDS
;	COMDAT xdata
xdata	SEGMENT
$unwind$?allocate@?$allocator@H@std@@QEAAPEAH_K@Z DQ 00000420400010401r ; 3.58617e-310
xdata	ENDS
;	COMDAT xdata
xdata	SEGMENT
$unwind$??$_Uninitialized_move@PEAHV?$allocator@H@std@@@std@@YAPEAHQEAH0PEAHAEAV?$allocator@H@0@@Z DQ 00009340a00040a01r ; 1.27987e-308
	DD	07006320aH
xdata	ENDS
;	COMDAT xdata
xdata	SEGMENT
$unwind$??$_Copy_memmove@PEAHPEAH@std@@YAPEAHPEAH00@Z DQ 00009340a00040a01r ; 1.27987e-308
	DD	07006320aH
; Function compile flags: /Ogtpy
; File C:\dev\Photo Studio\Photo Studio\Source\Tools\PaintBucket.cpp
; File C:\dev\Photo Studio\Photo Studio\Dependencies\glm\detail\compute_vector_relational.hpp
; File C:\dev\Photo Studio\Photo Studio\Source\Tools\PaintBucket.cpp
; File C:\Program Files\Microsoft Visual Studio\2022\Community\VC\Tools\MSVC\14.36.32532\include\xmemory
; File C:\dev\Photo Studio\Photo Studio\Source\Tools\PaintBucket.cpp
; File C:\Program Files\Microsoft Visual Studio\2022\Community\VC\Tools\MSVC\14.36.32532\include\xstddef
; File C:\Program Files\Microsoft Visual Studio\2022\Community\VC\Tools\MSVC\14.36.32532\include\algorithm
; File C:\Program Files\Microsoft Visual Studio\2022\Community\VC\Tools\MSVC\14.36.32532\include\xstddef
; File C:\Program Files\Microsoft Visual Studio\2022\Community\VC\Tools\MSVC\14.36.32532\include\algorithm
; File C:\dev\Photo Studio\Photo Studio\Source\Tools\PaintBucket.cpp
; File C:\Program Files\Microsoft Visual Studio\2022\Community\VC\Tools\MSVC\14.36.32532\include\xstddef
; File C:\Program Files\Microsoft Visual Studio\2022\Community\VC\Tools\MSVC\14.36.32532\include\algorithm
; File C:\Program Files\Microsoft Visual Studio\2022\Community\VC\Tools\MSVC\14.36.32532\include\xstddef
; File C:\Program Files\Microsoft Visual Studio\2022\Community\VC\Tools\MSVC\14.36.32532\include\algorithm
; File C:\dev\Photo Studio\Photo Studio\Source\Tools\PaintBucket.cpp
; File C:\Program Files\Microsoft Visual Studio\2022\Community\VC\Tools\MSVC\14.36.32532\include\xstddef
; File C:\Program Files\Microsoft Visual Studio\2022\Community\VC\Tools\MSVC\14.36.32532\include\algorithm
; File C:\Program Files\Microsoft Visual Studio\2022\Community\VC\Tools\MSVC\14.36.32532\include\xstddef
; File C:\Program Files\Microsoft Visual Studio\2022\Community\VC\Tools\MSVC\14.36.32532\include\algorithm
; File C:\dev\Photo Studio\Photo Studio\Source\Tools\PaintBucket.cpp
; File C:\Program Files\Microsoft Visual Studio\2022\Community\VC\Tools\MSVC\14.36.32532\include\xstddef
; File C:\Program Files\Microsoft Visual Studio\2022\Community\VC\Tools\MSVC\14.36.32532\include\algorithm
; File C:\Program Files\Microsoft Visual Studio\2022\Community\VC\Tools\MSVC\14.36.32532\include\xstddef
; File C:\Program Files\Microsoft Visual Studio\2022\Community\VC\Tools\MSVC\14.36.32532\include\algorithm
; File C:\dev\Photo Studio\Photo Studio\Source\Tools\PaintBucket.cpp
; File C:\Program Files\Microsoft Visual Studio\2022\Community\VC\Tools\MSVC\14.36.32532\include\vector
; File C:\dev\Photo Studio\Photo Studio\Source\Tools\PaintBucket.cpp
; File C:\Program Files\Microsoft Visual Studio\2022\Community\VC\Tools\MSVC\14.36.32532\include\vector
; File C:\dev\Photo Studio\Photo Studio\Source\Tools\PaintBucket.cpp
; File C:\Program Files\Microsoft Visual Studio\2022\Community\VC\Tools\MSVC\14.36.32532\include\vector
; File C:\dev\Photo Studio\Photo Studio\Source\Tools\PaintBucket.cpp
; File C:\Program Files\Microsoft Visual Studio\2022\Community\VC\Tools\MSVC\14.36.32532\include\vector
; File C:\dev\Photo Studio\Photo Studio\Source\Tools\PaintBucket.cpp
; File C:\Program Files\Microsoft Visual Studio\2022\Community\VC\Tools\MSVC\14.36.32532\include\vector
; File C:\dev\Photo Studio\Photo Studio\Source\Tools\PaintBucket.cpp
; File C:\Program Files\Microsoft Visual Studio\2022\Community\VC\Tools\MSVC\14.36.32532\include\vector
; File C:\dev\Photo Studio\Photo Studio\Source\Tools\PaintBucket.cpp
; File C:\Program Files\Microsoft Visual Studio\2022\Community\VC\Tools\MSVC\14.36.32532\include\vector
; File C:\dev\Photo Studio\Photo Studio\Source\Tools\PaintBucket.cpp
; File C:\Program Files\Microsoft Visual Studio\2022\Community\VC\Tools\MSVC\14.36.32532\include\vector
; File C:\Program Files\Microsoft Visual Studio\2022\Community\VC\Tools\MSVC\14.36.32532\include\xmemory
; File C:\Program Files\Microsoft Visual Studio\2022\Community\VC\Tools\MSVC\14.36.32532\include\vector
; File C:\Program Files\Microsoft Visual Studio\2022\Community\VC\Tools\MSVC\14.36.32532\include\memory
; File C:\dev\Photo Studio\Photo Studio\Source\Tools\PaintBucket.cpp
;	COMDAT ?FloodFill4Stack@PaintBucket@@QEAAXV?$shared_ptr@VLayer@@@std@@AEAVPixelBuffer@@@Z
_TEXT	SEGMENT
$T4 = 32
$T6 = 36
$T3 = 40
$T13 = 44
$T15 = 48
$T12 = 52
$T22 = 56
$T24 = 60
$T21 = 64
$T31 = 68
$T33 = 72
$T30 = 76
oldColor$1$ = 80
Pos$5$ = 84
tv1386 = 88
PBuffer$GSCopy$1$ = 96
Layer$GSCopy$1$ = 104
Layer$GSCopy$ = 112
stack$ = 120
h$1$ = 144
x$ = 144
x$ = 152
y$ = 160
y$ = 168
Pixels32$ = 176
Pos$ = 176
c$49 = 192
__$ArrayPad$ = 208
this$dead$ = 352
Layer$ = 360
PBuffer$ = 368
?FloodFill4Stack@PaintBucket@@QEAAXV?$shared_ptr@VLayer@@@std@@AEAVPixelBuffer@@@Z PROC ; PaintBucket::FloodFill4Stack, COMDAT

; 41   : {

$LN302:
	mov	rax, rsp
	mov	QWORD PTR [rax+8], rbx
	push	rbp
	push	rsi
	push	rdi
	push	r12
	push	r13
	push	r14
	push	r15
	lea	rbp, QWORD PTR [rax-88]
	sub	rsp, 288				; 00000120H
	movaps	XMMWORD PTR [rax-72], xmm6
	movaps	XMMWORD PTR [rax-88], xmm7
	movaps	XMMWORD PTR [rax-104], xmm8
	movaps	XMMWORD PTR [rax-120], xmm9
	mov	rax, QWORD PTR __security_cookie
	xor	rax, rsp
	mov	QWORD PTR __$ArrayPad$[rbp-256], rax
	mov	r15, r8
	mov	QWORD PTR PBuffer$GSCopy$1$[rsp], r8
	mov	rbx, rdx
	mov	QWORD PTR Layer$GSCopy$1$[rsp], rdx
	mov	QWORD PTR Layer$GSCopy$[rsp], rdx

; 42   : 	glm::vec3 Pos = Input::Mouse::CanvasPos;

	movsd	xmm9, QWORD PTR ?CanvasPos@Mouse@Input@@2U?$vec@$02M$0A@@glm@@A
	movsd	QWORD PTR Pos$[rbp-256], xmm9
	mov	r12d, DWORD PTR ?CanvasPos@Mouse@Input@@2U?$vec@$02M$0A@@glm@@A+8
	mov	DWORD PTR Pos$5$[rsp], r12d

; 43   : 	static glm::vec3 PreviousPosition = { -1,-1,-1 };
; 44   : 
; 45   : 	if (!(Input::Mouse::Button == SDL_BUTTON_LEFT && Input::Mouse::State == SDL_PRESSED && Input::Mouse::m_InitialClick && Input::Mouse::m_MouseInCanvas)) {

	cmp	BYTE PTR ?Button@Mouse@Input@@2EA, 1	; Input::Mouse::Button
	jne	$LN8@FloodFill4
	cmp	BYTE PTR ?State@Mouse@Input@@2EA, 1	; Input::Mouse::State
	jne	$LN8@FloodFill4
	cmp	BYTE PTR ?m_InitialClick@Mouse@Input@@2_NA, 0 ; Input::Mouse::m_InitialClick
	je	$LN8@FloodFill4
	cmp	BYTE PTR ?m_MouseInCanvas@Mouse@Input@@2_NA, 0 ; Input::Mouse::m_MouseInCanvas
	je	$LN8@FloodFill4
	xorps	xmm8, xmm8

; 46   : 		return;
; 47   : 	}
; 48   : 
; 49   : 	if (!(Pos.x >= 0 && Pos.y >= 0 && Pos.x < CanvasData::m_CanvasSize.x && Pos.y < CanvasData::m_CanvasSize.y)) {

	movss	xmm6, DWORD PTR Pos$[rbp-256]
	comiss	xmm6, xmm8
	jb	$LN8@FloodFill4
	movss	xmm7, DWORD PTR Pos$[rbp-252]
	comiss	xmm7, xmm8
	jb	$LN8@FloodFill4
	movss	xmm0, DWORD PTR ?m_CanvasSize@CanvasData@@2U?$vec@$01M$0A@@glm@@A
	comiss	xmm0, xmm6
	jbe	$LN8@FloodFill4
	movss	xmm0, DWORD PTR ?m_CanvasSize@CanvasData@@2U?$vec@$01M$0A@@glm@@A+4
	comiss	xmm0, xmm7
	jbe	$LN8@FloodFill4
; File C:\dev\Photo Studio\Photo Studio\Dependencies\glm\detail\compute_vector_relational.hpp

; 15   : 			return a == b;

	ucomiss	xmm6, DWORD PTR ?PreviousPosition@?1??FloodFill4Stack@PaintBucket@@QEAAXV?$shared_ptr@VLayer@@@std@@AEAVPixelBuffer@@@Z@4U?$vec@$02M$0A@@glm@@A
	jp	SHORT $LN11@FloodFill4
	jne	SHORT $LN11@FloodFill4
	ucomiss	xmm7, DWORD PTR ?PreviousPosition@?1??FloodFill4Stack@PaintBucket@@QEAAXV?$shared_ptr@VLayer@@@std@@AEAVPixelBuffer@@@Z@4U?$vec@$02M$0A@@glm@@A+4
	jp	SHORT $LN11@FloodFill4
	jne	SHORT $LN11@FloodFill4
	movd	xmm0, r12d
	ucomiss	xmm0, DWORD PTR ?PreviousPosition@?1??FloodFill4Stack@PaintBucket@@QEAAXV?$shared_ptr@VLayer@@@std@@AEAVPixelBuffer@@@Z@4U?$vec@$02M$0A@@glm@@A+8
	jp	SHORT $LN11@FloodFill4
	je	$LN8@FloodFill4
$LN11@FloodFill4:
; File C:\dev\Photo Studio\Photo Studio\Source\Tools\PaintBucket.cpp

; 57   : 	PBuffer.Download();

	mov	rcx, r15
	call	?Download@PixelBuffer@@QEAAXXZ		; PixelBuffer::Download

; 58   : 
; 59   : 	auto Pixels32 = std::unique_ptr<uint32_t[]>(new uint32_t[PBuffer.m_NumBytes / 4]);

	mov	eax, DWORD PTR [r15+24]
	cdq
	and	edx, 3
	add	eax, edx
	sar	eax, 2
	movsxd	rcx, eax
	mov	eax, 4
	mul	rcx
	mov	r14, -1
	cmovo	rax, r14
	mov	rcx, rax
	call	??_U@YAPEAX_K@Z				; operator new[]
	mov	r13, rax
; File C:\Program Files\Microsoft Visual Studio\2022\Community\VC\Tools\MSVC\14.36.32532\include\xmemory

; 1492 :         : _Ty1(), _Myval2(_STD forward<_Other2>(_Val2)...) {}

	mov	QWORD PTR Pixels32$[rbp-256], rax
; File C:\dev\Photo Studio\Photo Studio\Source\Tools\PaintBucket.cpp

; 61   : 	memcpy(Pixels32.get(), PBuffer.m_Pixels, PBuffer.m_NumBytes);

	movsxd	r8, DWORD PTR [r15+24]
	mov	rdx, QWORD PTR [r15]
	mov	rcx, rax
	call	memcpy

; 30   : 	glm::vec4 c = WindowData::m_Color;

	movups	xmm2, XMMWORD PTR ?m_Color@WindowData@@2U?$vec@$03M$0A@@glm@@A
	movups	XMMWORD PTR c$49[rbp-256], xmm2

; 32   : 		r = (uint32_t)std::clamp(c[0] * 255.0f, 0.0f, 255.0f),

	movss	xmm1, DWORD PTR __real@437f0000
	mov	DWORD PTR $T3[rsp], 1132396544		; 437f0000H
	mov	DWORD PTR $T4[rsp], 0
	movaps	xmm0, xmm2
	mulss	xmm0, xmm1
	movss	DWORD PTR $T6[rsp], xmm0
	comiss	xmm8, xmm0
; File C:\Program Files\Microsoft Visual Studio\2022\Community\VC\Tools\MSVC\14.36.32532\include\xstddef

; 249  :         return static_cast<_Ty1&&>(_Left) < static_cast<_Ty2&&>(_Right);

	seta	al
; File C:\Program Files\Microsoft Visual Studio\2022\Community\VC\Tools\MSVC\14.36.32532\include\algorithm

; 10564:         const _Ty& _Tmp = _DEBUG_LT_PRED(_Pred, _Val, _Min_val) ? _Min_val : _Val;

	lea	rdx, QWORD PTR $T4[rsp]
	lea	rcx, QWORD PTR $T6[rsp]
	test	al, al
	cmove	rdx, rcx
	comiss	xmm0, xmm1
; File C:\Program Files\Microsoft Visual Studio\2022\Community\VC\Tools\MSVC\14.36.32532\include\xstddef

; 249  :         return static_cast<_Ty1&&>(_Left) < static_cast<_Ty2&&>(_Right);

	seta	al
; File C:\Program Files\Microsoft Visual Studio\2022\Community\VC\Tools\MSVC\14.36.32532\include\algorithm

; 10565:         return _DEBUG_LT_PRED(_Pred, _Max_val, _Val) ? _Max_val : _Tmp;

	lea	rcx, QWORD PTR $T3[rsp]
	test	al, al
	cmove	rcx, rdx
; File C:\dev\Photo Studio\Photo Studio\Source\Tools\PaintBucket.cpp

; 32   : 		r = (uint32_t)std::clamp(c[0] * 255.0f, 0.0f, 255.0f),

	cvttss2si r10, DWORD PTR [rcx]

; 33   : 		g = (uint32_t)std::clamp(c[1] * 255.0f, 0.0f, 255.0f) << 8,

	mov	DWORD PTR $T12[rsp], 1132396544		; 437f0000H
	mov	DWORD PTR $T13[rsp], 0
	movaps	xmm0, xmm2
	shufps	xmm0, xmm2, 85				; 00000055H
	mulss	xmm0, xmm1
	movss	DWORD PTR $T15[rsp], xmm0
	comiss	xmm8, xmm0
; File C:\Program Files\Microsoft Visual Studio\2022\Community\VC\Tools\MSVC\14.36.32532\include\xstddef

; 249  :         return static_cast<_Ty1&&>(_Left) < static_cast<_Ty2&&>(_Right);

	seta	al
; File C:\Program Files\Microsoft Visual Studio\2022\Community\VC\Tools\MSVC\14.36.32532\include\algorithm

; 10564:         const _Ty& _Tmp = _DEBUG_LT_PRED(_Pred, _Val, _Min_val) ? _Min_val : _Val;

	lea	rdx, QWORD PTR $T13[rsp]
	lea	rcx, QWORD PTR $T15[rsp]
	test	al, al
	cmove	rdx, rcx
	comiss	xmm0, xmm1
; File C:\Program Files\Microsoft Visual Studio\2022\Community\VC\Tools\MSVC\14.36.32532\include\xstddef

; 249  :         return static_cast<_Ty1&&>(_Left) < static_cast<_Ty2&&>(_Right);

	seta	al
; File C:\Program Files\Microsoft Visual Studio\2022\Community\VC\Tools\MSVC\14.36.32532\include\algorithm

; 10565:         return _DEBUG_LT_PRED(_Pred, _Max_val, _Val) ? _Max_val : _Tmp;

	lea	rcx, QWORD PTR $T12[rsp]
	test	al, al
	cmove	rcx, rdx
; File C:\dev\Photo Studio\Photo Studio\Source\Tools\PaintBucket.cpp

; 33   : 		g = (uint32_t)std::clamp(c[1] * 255.0f, 0.0f, 255.0f) << 8,

	cvttss2si r9, DWORD PTR [rcx]
	shl	r9d, 8

; 34   : 		b = (uint32_t)std::clamp(c[2] * 255.0f, 0.0f, 255.0f) << 16,

	mov	DWORD PTR $T21[rsp], 1132396544		; 437f0000H
	mov	DWORD PTR $T22[rsp], 0
	movaps	xmm0, xmm2
	shufps	xmm0, xmm2, 170				; 000000aaH
	mulss	xmm0, xmm1
	movss	DWORD PTR $T24[rsp], xmm0
	comiss	xmm8, xmm0
; File C:\Program Files\Microsoft Visual Studio\2022\Community\VC\Tools\MSVC\14.36.32532\include\xstddef

; 249  :         return static_cast<_Ty1&&>(_Left) < static_cast<_Ty2&&>(_Right);

	seta	al
; File C:\Program Files\Microsoft Visual Studio\2022\Community\VC\Tools\MSVC\14.36.32532\include\algorithm

; 10564:         const _Ty& _Tmp = _DEBUG_LT_PRED(_Pred, _Val, _Min_val) ? _Min_val : _Val;

	lea	rdx, QWORD PTR $T22[rsp]
	lea	rcx, QWORD PTR $T24[rsp]
	test	al, al
	cmove	rdx, rcx
	comiss	xmm0, xmm1
; File C:\Program Files\Microsoft Visual Studio\2022\Community\VC\Tools\MSVC\14.36.32532\include\xstddef

; 249  :         return static_cast<_Ty1&&>(_Left) < static_cast<_Ty2&&>(_Right);

	seta	al
; File C:\Program Files\Microsoft Visual Studio\2022\Community\VC\Tools\MSVC\14.36.32532\include\algorithm

; 10565:         return _DEBUG_LT_PRED(_Pred, _Max_val, _Val) ? _Max_val : _Tmp;

	lea	rcx, QWORD PTR $T21[rsp]
	test	al, al
	cmove	rcx, rdx
; File C:\dev\Photo Studio\Photo Studio\Source\Tools\PaintBucket.cpp

; 34   : 		b = (uint32_t)std::clamp(c[2] * 255.0f, 0.0f, 255.0f) << 16,

	cvttss2si r8, DWORD PTR [rcx]
	shl	r8d, 16

; 35   : 		a = (uint32_t)std::clamp(c[3] * 255.0f, 0.0f, 255.0f) << 24;

	mov	DWORD PTR $T30[rsp], 1132396544		; 437f0000H
	mov	DWORD PTR $T31[rsp], 0
	shufps	xmm2, xmm2, 255				; 000000ffH
	mulss	xmm2, xmm1
	movss	DWORD PTR $T33[rsp], xmm2
	comiss	xmm8, xmm2
; File C:\Program Files\Microsoft Visual Studio\2022\Community\VC\Tools\MSVC\14.36.32532\include\xstddef

; 249  :         return static_cast<_Ty1&&>(_Left) < static_cast<_Ty2&&>(_Right);

	seta	al
; File C:\Program Files\Microsoft Visual Studio\2022\Community\VC\Tools\MSVC\14.36.32532\include\algorithm

; 10564:         const _Ty& _Tmp = _DEBUG_LT_PRED(_Pred, _Val, _Min_val) ? _Min_val : _Val;

	lea	rdx, QWORD PTR $T31[rsp]
	lea	rcx, QWORD PTR $T33[rsp]
	test	al, al
	cmove	rdx, rcx
	comiss	xmm2, xmm1
; File C:\Program Files\Microsoft Visual Studio\2022\Community\VC\Tools\MSVC\14.36.32532\include\xstddef

; 249  :         return static_cast<_Ty1&&>(_Left) < static_cast<_Ty2&&>(_Right);

	seta	al
; File C:\Program Files\Microsoft Visual Studio\2022\Community\VC\Tools\MSVC\14.36.32532\include\algorithm

; 10565:         return _DEBUG_LT_PRED(_Pred, _Max_val, _Val) ? _Max_val : _Tmp;

	lea	rcx, QWORD PTR $T30[rsp]
	test	al, al
	cmove	rcx, rdx
; File C:\dev\Photo Studio\Photo Studio\Source\Tools\PaintBucket.cpp

; 35   : 		a = (uint32_t)std::clamp(c[3] * 255.0f, 0.0f, 255.0f) << 24;

	cvttss2si rdx, DWORD PTR [rcx]
	shl	edx, 24

; 36   : 
; 37   : 	return r | g | b | a;

	or	edx, r8d
	or	edx, r9d
	or	edx, r10d
	mov	QWORD PTR tv1386[rsp], rdx

; 62   : 
; 63   : 	uint32_t newColor =	GetColor();
; 64   : 	
; 65   : 	int x = Pos.x, y = Pos.y;

	cvttss2si ecx, xmm6
	cvttss2si edi, xmm7

; 66   : 	int w = PBuffer.m_Width, h = PBuffer.m_Height;

	mov	esi, DWORD PTR [r15+16]
	mov	eax, DWORD PTR [r15+20]
	mov	DWORD PTR h$1$[rbp-256], eax

; 67   : 
; 68   : 	uint32_t oldColor = Pixels32[y * w + x];

	mov	eax, esi
	imul	eax, edi
	add	eax, ecx
	cdqe
	mov	eax, DWORD PTR [r13+rax*4]
	mov	DWORD PTR oldColor$1$[rsp], eax

; 69   : 
; 70   : 	if (newColor == oldColor) {

	cmp	edx, eax
	jne	SHORT $LN12@FloodFill4
$LN58@FloodFill4:

; 95   : }

	mov	rcx, r13
	call	??_V@YAXPEAX@Z				; operator delete[]
	npad	1
	mov	rbx, QWORD PTR [rbx+8]
	test	rbx, rbx
	je	$LN27@FloodFill4
	jmp	$LN299@FloodFill4
$LN12@FloodFill4:
	xor	eax, eax
	xorps	xmm1, xmm1
; File C:\Program Files\Microsoft Visual Studio\2022\Community\VC\Tools\MSVC\14.36.32532\include\vector

; 398  :     _CONSTEXPR20 _Vector_val() noexcept : _Myfirst(), _Mylast(), _Myend() {}

	movdqu	XMMWORD PTR stack$[rsp], xmm1
	mov	QWORD PTR stack$[rbp-240], rax
; File C:\dev\Photo Studio\Photo Studio\Source\Tools\PaintBucket.cpp

; 80   : 	push(stack, x, y);

	mov	DWORD PTR y$[rbp-256], edi
	mov	DWORD PTR x$[rbp-256], ecx
; File C:\Program Files\Microsoft Visual Studio\2022\Community\VC\Tools\MSVC\14.36.32532\include\vector

; 783  :         return *_Emplace_reallocate(_Mylast, _STD forward<_Valty>(_Val)...);

	lea	r8, QWORD PTR x$[rbp-256]
	xor	edx, edx
	lea	rcx, QWORD PTR stack$[rsp]
	call	??$_Emplace_reallocate@AEBH@?$vector@HV?$allocator@H@std@@@std@@AEAAPEAHQEAHAEBH@Z ; std::vector<int,std::allocator<int> >::_Emplace_reallocate<int const &>

; 779  :         if (_Mylast != _My_data._Myend) {

	mov	rdx, QWORD PTR stack$[rbp-248]
	cmp	rdx, QWORD PTR stack$[rbp-240]
	je	SHORT $LN245@FloodFill4

; 795  :             _Construct_in_place(*_Mylast, _STD forward<_Valty>(_Val)...);

	mov	DWORD PTR [rdx], edi

; 796  :         } else {
; 797  :             _ASAN_VECTOR_EXTEND_GUARD(static_cast<size_type>(_Mylast - _My_data._Myfirst) + 1);
; 798  :             _Alty_traits::construct(_Getal(), _Unfancy(_Mylast), _STD forward<_Valty>(_Val)...);
; 799  :             _ASAN_VECTOR_RELEASE_GUARD;
; 800  :         }
; 801  : 
; 802  :         _Orphan_range(_Mylast, _Mylast);
; 803  :         _Ty& _Result = *_Mylast;
; 804  :         ++_Mylast;

	mov	rcx, QWORD PTR stack$[rbp-248]
	add	rcx, 4
	mov	QWORD PTR stack$[rbp-248], rcx

; 780  :             return _Emplace_back_with_unused_capacity(_STD forward<_Valty>(_Val)...);

	jmp	SHORT $LN292@FloodFill4
$LN245@FloodFill4:

; 783  :         return *_Emplace_reallocate(_Mylast, _STD forward<_Valty>(_Val)...);

	lea	r8, QWORD PTR y$[rbp-256]
	lea	rcx, QWORD PTR stack$[rsp]
	call	??$_Emplace_reallocate@AEBH@?$vector@HV?$allocator@H@std@@@std@@AEAAPEAHQEAHAEBH@Z ; std::vector<int,std::allocator<int> >::_Emplace_reallocate<int const &>
	mov	rcx, QWORD PTR stack$[rbp-248]
$LN292@FloodFill4:
	lea	r8, OFFSET FLAT:__ImageBase
	mov	r14d, DWORD PTR h$1$[rbp-256]
	npad	11
$LL2@FloodFill4:

; 1867 :         return static_cast<size_type>(_My_data._Mylast - _My_data._Myfirst);

	mov	rax, rcx
	sub	rax, QWORD PTR stack$[rsp]
	sar	rax, 2
; File C:\dev\Photo Studio\Photo Studio\Source\Tools\PaintBucket.cpp

; 21   : 	if (stack.size() < 2) return false; // it's empty

	cmp	rax, 2
	jb	$LN281@FloodFill4
; File C:\Program Files\Microsoft Visual Studio\2022\Community\VC\Tools\MSVC\14.36.32532\include\vector

; 1942 :         return _My_data._Mylast[-1];

	lea	rax, QWORD PTR [rcx-4]
; File C:\dev\Photo Studio\Photo Studio\Source\Tools\PaintBucket.cpp

; 22   : 	y = stack.back();

	mov	r15d, DWORD PTR [rax]
; File C:\Program Files\Microsoft Visual Studio\2022\Community\VC\Tools\MSVC\14.36.32532\include\vector

; 1711 :         --_Mylast;

	mov	QWORD PTR stack$[rbp-248], rax
	add	rax, -4
; File C:\dev\Photo Studio\Photo Studio\Source\Tools\PaintBucket.cpp

; 24   : 	x = stack.back();

	mov	r12d, DWORD PTR [rax]
; File C:\Program Files\Microsoft Visual Studio\2022\Community\VC\Tools\MSVC\14.36.32532\include\vector

; 1711 :         --_Mylast;

	mov	QWORD PTR stack$[rbp-248], rax
; File C:\dev\Photo Studio\Photo Studio\Source\Tools\PaintBucket.cpp

; 83   : 		Pixels32[y * w + x] = newColor;

	mov	eax, esi
	imul	eax, r15d
	add	eax, r12d
	cdqe
	mov	rcx, QWORD PTR tv1386[rsp]
	mov	DWORD PTR [r13+rax*4], ecx
; File C:\Program Files\Microsoft Visual Studio\2022\Community\VC\Tools\MSVC\14.36.32532\include\vector

; 1942 :         return _My_data._Mylast[-1];

	xor	edi, edi
	mov	rcx, QWORD PTR stack$[rbp-248]
	npad	9
$LL6@FloodFill4:
; File C:\dev\Photo Studio\Photo Studio\Source\Tools\PaintBucket.cpp

; 85   : 			int nx = x + dx[i];

	mov	edx, DWORD PTR ?dx@?1??FloodFill4Stack@PaintBucket@@QEAAXV?$shared_ptr@VLayer@@@std@@AEAVPixelBuffer@@@Z@4QBHB[rdi+r8]

; 86   : 			int ny = y + dy[i];

	mov	ebx, DWORD PTR ?dy@?1??FloodFill4Stack@PaintBucket@@QEAAXV?$shared_ptr@VLayer@@@std@@AEAVPixelBuffer@@@Z@4QBHB[rdi+r8]
	add	ebx, r15d

; 85   : 			int nx = x + dx[i];

	add	edx, r12d

; 87   : 			if (nx >= 0 && nx < w && ny >= 0 && ny < h && Pixels32[ny * w + nx] == oldColor) {

	js	$LN4@FloodFill4
	cmp	edx, esi
	jge	SHORT $LN4@FloodFill4
	test	ebx, ebx
	js	SHORT $LN4@FloodFill4
	cmp	ebx, r14d
	jge	SHORT $LN4@FloodFill4
	mov	eax, ebx
	imul	eax, esi
	add	eax, edx
	cdqe
	mov	r8d, DWORD PTR oldColor$1$[rsp]
	cmp	DWORD PTR [r13+rax*4], r8d
	jne	SHORT $LN294@FloodFill4

; 88   : 				push(stack, nx, ny);

	mov	DWORD PTR y$[rbp-256], ebx
	mov	DWORD PTR x$[rbp-256], edx
; File C:\Program Files\Microsoft Visual Studio\2022\Community\VC\Tools\MSVC\14.36.32532\include\vector

; 779  :         if (_Mylast != _My_data._Myend) {

	cmp	rcx, QWORD PTR stack$[rbp-240]
	je	SHORT $LN254@FloodFill4

; 795  :             _Construct_in_place(*_Mylast, _STD forward<_Valty>(_Val)...);

	mov	DWORD PTR [rcx], edx

; 796  :         } else {
; 797  :             _ASAN_VECTOR_EXTEND_GUARD(static_cast<size_type>(_Mylast - _My_data._Myfirst) + 1);
; 798  :             _Alty_traits::construct(_Getal(), _Unfancy(_Mylast), _STD forward<_Valty>(_Val)...);
; 799  :             _ASAN_VECTOR_RELEASE_GUARD;
; 800  :         }
; 801  : 
; 802  :         _Orphan_range(_Mylast, _Mylast);
; 803  :         _Ty& _Result = *_Mylast;
; 804  :         ++_Mylast;

	mov	rdx, QWORD PTR stack$[rbp-248]
	add	rdx, 4
	mov	QWORD PTR stack$[rbp-248], rdx

; 780  :             return _Emplace_back_with_unused_capacity(_STD forward<_Valty>(_Val)...);

	jmp	SHORT $LN253@FloodFill4
$LN254@FloodFill4:

; 783  :         return *_Emplace_reallocate(_Mylast, _STD forward<_Valty>(_Val)...);

	lea	r8, QWORD PTR x$[rbp-256]
	mov	rdx, rcx
	lea	rcx, QWORD PTR stack$[rsp]
	call	??$_Emplace_reallocate@AEBH@?$vector@HV?$allocator@H@std@@@std@@AEAAPEAHQEAHAEBH@Z ; std::vector<int,std::allocator<int> >::_Emplace_reallocate<int const &>
	mov	rdx, QWORD PTR stack$[rbp-248]
$LN253@FloodFill4:

; 779  :         if (_Mylast != _My_data._Myend) {

	cmp	rdx, QWORD PTR stack$[rbp-240]
	je	SHORT $LN261@FloodFill4

; 795  :             _Construct_in_place(*_Mylast, _STD forward<_Valty>(_Val)...);

	mov	DWORD PTR [rdx], ebx

; 796  :         } else {
; 797  :             _ASAN_VECTOR_EXTEND_GUARD(static_cast<size_type>(_Mylast - _My_data._Myfirst) + 1);
; 798  :             _Alty_traits::construct(_Getal(), _Unfancy(_Mylast), _STD forward<_Valty>(_Val)...);
; 799  :             _ASAN_VECTOR_RELEASE_GUARD;
; 800  :         }
; 801  : 
; 802  :         _Orphan_range(_Mylast, _Mylast);
; 803  :         _Ty& _Result = *_Mylast;
; 804  :         ++_Mylast;

	mov	rcx, QWORD PTR stack$[rbp-248]
	add	rcx, 4
	mov	QWORD PTR stack$[rbp-248], rcx

; 780  :             return _Emplace_back_with_unused_capacity(_STD forward<_Valty>(_Val)...);

	jmp	SHORT $LN294@FloodFill4
$LN261@FloodFill4:

; 783  :         return *_Emplace_reallocate(_Mylast, _STD forward<_Valty>(_Val)...);

	lea	r8, QWORD PTR y$[rbp-256]
	lea	rcx, QWORD PTR stack$[rsp]
	call	??$_Emplace_reallocate@AEBH@?$vector@HV?$allocator@H@std@@@std@@AEAAPEAHQEAHAEBH@Z ; std::vector<int,std::allocator<int> >::_Emplace_reallocate<int const &>
	mov	rcx, QWORD PTR stack$[rbp-248]
$LN294@FloodFill4:
; File C:\dev\Photo Studio\Photo Studio\Source\Tools\PaintBucket.cpp

; 84   : 		for (int i = 0; i < 4; i++) {

	lea	r8, OFFSET FLAT:__ImageBase
$LN4@FloodFill4:
	add	rdi, 4
	cmp	rdi, 16
	jl	$LL6@FloodFill4

; 89   : 			}
; 90   : 		}
; 91   : 	}

	jmp	$LL2@FloodFill4
$LN281@FloodFill4:

; 92   : 
; 93   : 	Layer->Rescale(reinterpret_cast<unsigned char*>(Pixels32.get()), PBuffer.m_Width, PBuffer.m_Height);

	mov	rax, QWORD PTR PBuffer$GSCopy$1$[rsp]
	movsxd	r9, DWORD PTR [rax+20]
	movsxd	r8, DWORD PTR [rax+16]
	mov	rdx, r13
	mov	rbx, QWORD PTR Layer$GSCopy$1$[rsp]
	mov	rcx, QWORD PTR [rbx]
	call	?Rescale@Framebuffer@@QEAAXPEAE_K1@Z	; Framebuffer::Rescale

; 94   : 	PreviousPosition = Pos;

	movsd	QWORD PTR ?PreviousPosition@?1??FloodFill4Stack@PaintBucket@@QEAAXV?$shared_ptr@VLayer@@@std@@AEAVPixelBuffer@@@Z@4U?$vec@$02M$0A@@glm@@A, xmm9
	mov	eax, DWORD PTR Pos$5$[rsp]
	mov	DWORD PTR ?PreviousPosition@?1??FloodFill4Stack@PaintBucket@@QEAAXV?$shared_ptr@VLayer@@@std@@AEAVPixelBuffer@@@Z@4U?$vec@$02M$0A@@glm@@A+8, eax
; File C:\Program Files\Microsoft Visual Studio\2022\Community\VC\Tools\MSVC\14.36.32532\include\vector

; 2042 :         if (_Myfirst) { // destroy and deallocate old array

	mov	rcx, QWORD PTR stack$[rsp]
	test	rcx, rcx
	mov	r14, -1
	je	$LN58@FloodFill4

; 2043 :             _Destroy_range(_Myfirst, _Mylast, _Al);
; 2044 :             _ASAN_VECTOR_REMOVE;
; 2045 :             _Al.deallocate(_Myfirst, static_cast<size_type>(_Myend - _Myfirst));

	mov	rax, QWORD PTR stack$[rbp-240]
	sub	rax, rcx
	sar	rax, 2
; File C:\Program Files\Microsoft Visual Studio\2022\Community\VC\Tools\MSVC\14.36.32532\include\xmemory

; 946  :         _Deallocate<_New_alignof<_Ty>>(_Ptr, sizeof(_Ty) * _Count);

	lea	rdx, QWORD PTR [rax*4]
	mov	rax, rcx

; 251  :         if (_Bytes >= _Big_allocation_threshold) { // boost the alignment of big allocations to help autovectorization

	cmp	rdx, 4096				; 00001000H
	jb	SHORT $LN76@FloodFill4

; 147  :     _Bytes += _Non_user_size;

	add	rdx, 39					; 00000027H

; 148  : 
; 149  :     const uintptr_t* const _Ptr_user = static_cast<uintptr_t*>(_Ptr);
; 150  :     const uintptr_t _Ptr_container   = _Ptr_user[-1];

	mov	rcx, QWORD PTR [rcx-8]
	sub	rax, rcx

; 151  : 
; 152  :     // If the following asserts, it likely means that we are performing
; 153  :     // an aligned delete on memory coming from an unaligned allocation.
; 154  :     _STL_ASSERT(_Ptr_user[-2] == _Big_allocation_sentinel, "invalid argument");
; 155  : 
; 156  :     // Extra paranoia on aligned allocation/deallocation; ensure _Ptr_container is
; 157  :     // in range [_Min_back_shift, _Non_user_size]
; 158  : #ifdef _DEBUG
; 159  :     constexpr uintptr_t _Min_back_shift = 2 * sizeof(void*);
; 160  : #else // ^^^ _DEBUG / !_DEBUG vvv
; 161  :     constexpr uintptr_t _Min_back_shift = sizeof(void*);
; 162  : #endif // _DEBUG
; 163  :     const uintptr_t _Back_shift = reinterpret_cast<uintptr_t>(_Ptr) - _Ptr_container;
; 164  :     _STL_VERIFY(_Back_shift >= _Min_back_shift && _Back_shift <= _Non_user_size, "invalid argument");

	add	rax, -8
	cmp	rax, 31
	jbe	SHORT $LN76@FloodFill4
	call	QWORD PTR __imp__invalid_parameter_noinfo_noreturn
	int	3
$LN76@FloodFill4:

; 255  :         ::operator delete(_Ptr, _Bytes);

	call	??3@YAXPEAX_K@Z				; operator delete
	xorps	xmm0, xmm0
; File C:\Program Files\Microsoft Visual Studio\2022\Community\VC\Tools\MSVC\14.36.32532\include\vector

; 2047 :             _Myfirst = nullptr;

	movdqu	XMMWORD PTR stack$[rsp], xmm0

; 2048 :             _Mylast  = nullptr;
; 2049 :             _Myend   = nullptr;

	mov	QWORD PTR stack$[rbp-240], 0
; File C:\Program Files\Microsoft Visual Studio\2022\Community\VC\Tools\MSVC\14.36.32532\include\memory

; 1178 :             _Delete_this();

	jmp	$LN58@FloodFill4
$LN8@FloodFill4:
; File C:\dev\Photo Studio\Photo Studio\Source\Tools\PaintBucket.cpp

; 95   : }

	mov	rbx, QWORD PTR [rdx+8]
	test	rbx, rbx
	je	SHORT $LN27@FloodFill4
	mov	r14, -1
$LN299@FloodFill4:
	mov	eax, r14d
	lock xadd DWORD PTR [rbx+8], eax
	cmp	eax, 1
	jne	SHORT $LN27@FloodFill4
	mov	rax, QWORD PTR [rbx]
	mov	rcx, rbx
	call	QWORD PTR [rax]
	lock xadd DWORD PTR [rbx+12], r14d
	cmp	r14d, 1
	jne	SHORT $LN27@FloodFill4
	mov	rax, QWORD PTR [rbx]
	mov	rcx, rbx
	call	QWORD PTR [rax+8]
$LN27@FloodFill4:
	mov	rcx, QWORD PTR __$ArrayPad$[rbp-256]
	xor	rcx, rsp
	call	__security_check_cookie
	lea	r11, QWORD PTR [rsp+288]
	mov	rbx, QWORD PTR [r11+64]
	movaps	xmm6, XMMWORD PTR [r11-16]
	movaps	xmm7, XMMWORD PTR [r11-32]
	movaps	xmm8, XMMWORD PTR [r11-48]
	movaps	xmm9, XMMWORD PTR [r11-64]
	mov	rsp, r11
	pop	r15
	pop	r14
	pop	r13
	pop	r12
	pop	rdi
	pop	rsi
	pop	rbp
	ret	0
$LN295@FloodFill4:
?FloodFill4Stack@PaintBucket@@QEAAXV?$shared_ptr@VLayer@@@std@@AEAVPixelBuffer@@@Z ENDP ; PaintBucket::FloodFill4Stack
_TEXT	ENDS
; Function compile flags: /Ogtpy
;	COMDAT text$x
text$x	SEGMENT
$T4 = 32
$T6 = 36
$T3 = 40
$T13 = 44
$T15 = 48
$T12 = 52
$T22 = 56
$T24 = 60
$T21 = 64
$T31 = 68
$T33 = 72
$T30 = 76
oldColor$1$ = 80
Pos$5$ = 84
tv1386 = 88
PBuffer$GSCopy$1$ = 96
Layer$GSCopy$1$ = 104
Layer$GSCopy$ = 112
stack$ = 120
h$1$ = 144
x$ = 144
x$ = 152
y$ = 160
y$ = 168
Pixels32$ = 176
Pos$ = 176
c$49 = 192
__$ArrayPad$ = 208
this$dead$ = 352
Layer$ = 360
PBuffer$ = 368
?dtor$0@?0??FloodFill4Stack@PaintBucket@@QEAAXV?$shared_ptr@VLayer@@@std@@AEAVPixelBuffer@@@Z@4HA PROC ; `PaintBucket::FloodFill4Stack'::`1'::dtor$0
	mov	rcx, QWORD PTR Layer$GSCopy$[rdx]
	jmp	??1?$shared_ptr@VLayer@@@std@@QEAA@XZ	; std::shared_ptr<Layer>::~shared_ptr<Layer>
?dtor$0@?0??FloodFill4Stack@PaintBucket@@QEAAXV?$shared_ptr@VLayer@@@std@@AEAVPixelBuffer@@@Z@4HA ENDP ; `PaintBucket::FloodFill4Stack'::`1'::dtor$0
text$x	ENDS
; Function compile flags: /Ogtpy
;	COMDAT text$x
text$x	SEGMENT
$T4 = 32
$T6 = 36
$T3 = 40
$T13 = 44
$T15 = 48
$T12 = 52
$T22 = 56
$T24 = 60
$T21 = 64
$T31 = 68
$T33 = 72
$T30 = 76
oldColor$1$ = 80
Pos$5$ = 84
tv1386 = 88
PBuffer$GSCopy$1$ = 96
Layer$GSCopy$1$ = 104
Layer$GSCopy$ = 112
stack$ = 120
h$1$ = 144
x$ = 144
x$ = 152
y$ = 160
y$ = 168
Pixels32$ = 176
Pos$ = 176
c$49 = 192
__$ArrayPad$ = 208
this$dead$ = 352
Layer$ = 360
PBuffer$ = 368
?dtor$1@?0??FloodFill4Stack@PaintBucket@@QEAAXV?$shared_ptr@VLayer@@@std@@AEAVPixelBuffer@@@Z@4HA PROC ; `PaintBucket::FloodFill4Stack'::`1'::dtor$1
	lea	rcx, QWORD PTR Pixels32$[rdx]
	jmp	??1?$unique_ptr@$$BY0A@IU?$default_delete@$$BY0A@I@std@@@std@@QEAA@XZ ; std::unique_ptr<unsigned int [0],std::default_delete<unsigned int [0]> >::~unique_ptr<unsigned int [0],std::default_delete<unsigned int [0]> >
?dtor$1@?0??FloodFill4Stack@PaintBucket@@QEAAXV?$shared_ptr@VLayer@@@std@@AEAVPixelBuffer@@@Z@4HA ENDP ; `PaintBucket::FloodFill4Stack'::`1'::dtor$1
text$x	ENDS
; Function compile flags: /Ogtpy
;	COMDAT text$x
text$x	SEGMENT
$T4 = 32
$T6 = 36
$T3 = 40
$T13 = 44
$T15 = 48
$T12 = 52
$T22 = 56
$T24 = 60
$T21 = 64
$T31 = 68
$T33 = 72
$T30 = 76
oldColor$1$ = 80
Pos$5$ = 84
tv1386 = 88
PBuffer$GSCopy$1$ = 96
Layer$GSCopy$1$ = 104
Layer$GSCopy$ = 112
stack$ = 120
h$1$ = 144
x$ = 144
x$ = 152
y$ = 160
y$ = 168
Pixels32$ = 176
Pos$ = 176
c$49 = 192
__$ArrayPad$ = 208
this$dead$ = 352
Layer$ = 360
PBuffer$ = 368
?dtor$2@?0??FloodFill4Stack@PaintBucket@@QEAAXV?$shared_ptr@VLayer@@@std@@AEAVPixelBuffer@@@Z@4HA PROC ; `PaintBucket::FloodFill4Stack'::`1'::dtor$2
	lea	rcx, QWORD PTR stack$[rdx]
	jmp	??1?$vector@HV?$allocator@H@std@@@std@@QEAA@XZ ; std::vector<int,std::allocator<int> >::~vector<int,std::allocator<int> >
?dtor$2@?0??FloodFill4Stack@PaintBucket@@QEAAXV?$shared_ptr@VLayer@@@std@@AEAVPixelBuffer@@@Z@4HA ENDP ; `PaintBucket::FloodFill4Stack'::`1'::dtor$2
text$x	ENDS
END
