; Listing generated by Microsoft (R) Optimizing Compiler Version 19.36.32535.0 

include listing.inc

INCLUDELIB OLDNAMES

PUBLIC	??_C@_0CA@FBDJPFME@Fonts?1MaterialIcons?9Regular?4ttf@ ; `string'
;	COMDAT ?icons_ranges@?1??Init@Primitive@@SAXXZ@4QBGB
CONST	SEGMENT
?icons_ranges@?1??Init@Primitive@@SAXXZ@4QBGB DW 0e000H	; `Primitive::Init'::`2'::icons_ranges
	DW	0fffdH
	DW	00H
CONST	ENDS
;	COMDAT ??_C@_0CA@FBDJPFME@Fonts?1MaterialIcons?9Regular?4ttf@
CONST	SEGMENT
??_C@_0CA@FBDJPFME@Fonts?1MaterialIcons?9Regular?4ttf@ DB 'Fonts/Material'
	DB	'Icons-Regular.ttf', 00H			; `string'
PUBLIC	??$construct_at@IAEAI$0A@@std@@YAPEAIQEAIAEAI@Z	; std::construct_at<unsigned int,unsigned int &,0>
PUBLIC	??$construct_at@MAEAM$0A@@std@@YAPEAMQEAMAEAM@Z	; std::construct_at<float,float &,0>
PUBLIC	??$construct@IAEAI@?$_Default_allocator_traits@V?$allocator@I@std@@@std@@SAXAEAV?$allocator@I@1@QEAIAEAI@Z ; std::_Default_allocator_traits<std::allocator<unsigned int> >::construct<unsigned int,unsigned int &>
PUBLIC	??$forward@AEAI@std@@YAAEAIAEAI@Z		; std::forward<unsigned int &>
PUBLIC	??$construct@MAEAM@?$_Default_allocator_traits@V?$allocator@M@std@@@std@@SAXAEAV?$allocator@M@1@QEAMAEAM@Z ; std::_Default_allocator_traits<std::allocator<float> >::construct<float,float &>
PUBLIC	??$forward@AEAM@std@@YAAEAMAEAM@Z		; std::forward<float &>
PUBLIC	??$_Emplace_back@AEAI@?$_Uninitialized_backout_al@V?$allocator@I@std@@@std@@QEAAXAEAI@Z ; std::_Uninitialized_backout_al<std::allocator<unsigned int> >::_Emplace_back<unsigned int &>
PUBLIC	??$move@AEAPEAI@std@@YA$$QEAPEAIAEAPEAI@Z	; std::move<unsigned int * &>
PUBLIC	??$_Emplace_back@AEAM@?$_Uninitialized_backout_al@V?$allocator@M@std@@@std@@QEAAXAEAM@Z ; std::_Uninitialized_backout_al<std::allocator<float> >::_Emplace_back<float &>
PUBLIC	??$_Copy_memmove@PEAMPEAM@std@@YAPEAMPEAM00@Z	; std::_Copy_memmove<float *,float *>
PUBLIC	??$move@AEAPEAM@std@@YA$$QEAPEAMAEAPEAM@Z	; std::move<float * &>
PUBLIC	??$forward@AEAPEAVShader@@@std@@YAAEAPEAVShader@@AEAPEAV1@@Z ; std::forward<Shader * &>
PUBLIC	??$forward@AEAPEAVCanvasObject@@@std@@YAAEAPEAVCanvasObject@@AEAPEAV1@@Z ; std::forward<CanvasObject * &>
PUBLIC	??$_Uninitialized_copy@PEAIPEAIV?$allocator@I@std@@@std@@YAPEAIPEAI00AEAV?$allocator@I@0@@Z ; std::_Uninitialized_copy<unsigned int *,unsigned int *,std::allocator<unsigned int> >
PUBLIC	??$_Unwrap_sent@PEAIPEAI@ranges@std@@YA?A_T$$QEAPEAI@Z ; std::ranges::_Unwrap_sent<unsigned int *,unsigned int *>
PUBLIC	??$_Unwrap_iter@PEAIPEAI@ranges@std@@YA?A_T$$QEAPEAI@Z ; std::ranges::_Unwrap_iter<unsigned int *,unsigned int *>
PUBLIC	??$forward@AEBQEAI@std@@YAAEBQEAIAEBQEAI@Z	; std::forward<unsigned int * const &>
PUBLIC	??$forward@V?$allocator@I@std@@@std@@YA$$QEAV?$allocator@I@0@AEAV10@@Z ; std::forward<std::allocator<unsigned int> >
PUBLIC	??$_Uninitialized_copy@PEAMPEAMV?$allocator@M@std@@@std@@YAPEAMPEAM00AEAV?$allocator@M@0@@Z ; std::_Uninitialized_copy<float *,float *,std::allocator<float> >
PUBLIC	??$_Unwrap_sent@PEAMPEAM@ranges@std@@YA?A_T$$QEAPEAM@Z ; std::ranges::_Unwrap_sent<float *,float *>
PUBLIC	??$_Unwrap_iter@PEAMPEAM@ranges@std@@YA?A_T$$QEAPEAM@Z ; std::ranges::_Unwrap_iter<float *,float *>
PUBLIC	??$forward@AEBQEAM@std@@YAAEBQEAMAEBQEAM@Z	; std::forward<float * const &>
PUBLIC	??$forward@V?$allocator@M@std@@@std@@YA$$QEAV?$allocator@M@0@AEAV10@@Z ; std::forward<std::allocator<float> >
PUBLIC	??$?0AEAPEAVShader@@@?$_Compressed_pair@U?$default_delete@VShader@@@std@@PEAVShader@@$00@std@@QEAA@U_Zero_then_variadic_args_t@1@AEAPEAVShader@@@Z ; std::_Compressed_pair<std::default_delete<Shader>,Shader *,1>::_Compressed_pair<std::default_delete<Shader>,Shader *,1><Shader * &>
PUBLIC	??$?0AEAPEAVCanvasObject@@@?$_Compressed_pair@U?$default_delete@VCanvasObject@@@std@@PEAVCanvasObject@@$00@std@@QEAA@U_Zero_then_variadic_args_t@1@AEAPEAVCanvasObject@@@Z ; std::_Compressed_pair<std::default_delete<CanvasObject>,CanvasObject *,1>::_Compressed_pair<std::default_delete<CanvasObject>,CanvasObject *,1><CanvasObject * &>
PUBLIC	??$_Construct_n@AEBQEAIAEBQEAI@?$vector@IV?$allocator@I@std@@@std@@AEAAX_KAEBQEAI1@Z ; std::vector<unsigned int,std::allocator<unsigned int> >::_Construct_n<unsigned int * const &,unsigned int * const &>
PUBLIC	??$?0V?$allocator@I@std@@$$V@?$_Compressed_pair@V?$allocator@I@std@@V?$_Vector_val@U?$_Simple_types@I@std@@@2@$00@std@@QEAA@U_One_then_variadic_args_t@1@$$QEAV?$allocator@I@1@@Z ; std::_Compressed_pair<std::allocator<unsigned int>,std::_Vector_val<std::_Simple_types<unsigned int> >,1>::_Compressed_pair<std::allocator<unsigned int>,std::_Vector_val<std::_Simple_types<unsigned int> >,1><std::allocator<unsigned int> >
PUBLIC	??$_Construct_n@AEBQEAMAEBQEAM@?$vector@MV?$allocator@M@std@@@std@@AEAAX_KAEBQEAM1@Z ; std::vector<float,std::allocator<float> >::_Construct_n<float * const &,float * const &>
PUBLIC	??$?0V?$allocator@M@std@@$$V@?$_Compressed_pair@V?$allocator@M@std@@V?$_Vector_val@U?$_Simple_types@M@std@@@2@$00@std@@QEAA@U_One_then_variadic_args_t@1@$$QEAV?$allocator@M@1@@Z ; std::_Compressed_pair<std::allocator<float>,std::_Vector_val<std::_Simple_types<float> >,1>::_Compressed_pair<std::allocator<float>,std::_Vector_val<std::_Simple_types<float> >,1><std::allocator<float> >
PUBLIC	??$exchange@PEAVCanvasObject@@$$T@std@@YAPEAVCanvasObject@@AEAPEAV1@$$QEA$$T@Z ; std::exchange<CanvasObject *,std::nullptr_t>
PUBLIC	??$exchange@PEAVCanvasObject@@AEAPEAV1@@std@@YAPEAVCanvasObject@@AEAPEAV1@0@Z ; std::exchange<CanvasObject *,CanvasObject * &>
PUBLIC	??$exchange@PEAVShader@@$$T@std@@YAPEAVShader@@AEAPEAV1@$$QEA$$T@Z ; std::exchange<Shader *,std::nullptr_t>
PUBLIC	??$exchange@PEAVShader@@AEAPEAV1@@std@@YAPEAVShader@@AEAPEAV1@0@Z ; std::exchange<Shader *,Shader * &>
PUBLIC	??$forward@U?$default_delete@VShader@@@std@@@std@@YA$$QEAU?$default_delete@VShader@@@0@AEAU10@@Z ; std::forward<std::default_delete<Shader> >
PUBLIC	??$addressof@V?$unique_ptr@VShader@@U?$default_delete@VShader@@@std@@@std@@@std@@YAPEAV?$unique_ptr@VShader@@U?$default_delete@VShader@@@std@@@0@AEAV10@@Z ; std::addressof<std::unique_ptr<Shader,std::default_delete<Shader> > >
PUBLIC	??$?0U?$default_delete@VShader@@@std@@$0A@@?$unique_ptr@VShader@@U?$default_delete@VShader@@@std@@@std@@QEAA@PEAVShader@@@Z ; std::unique_ptr<Shader,std::default_delete<Shader> >::unique_ptr<Shader,std::default_delete<Shader> ><std::default_delete<Shader>,0>
PUBLIC	??$forward@W4ShaderType@@@std@@YA$$QEAW4ShaderType@@AEAW41@@Z ; std::forward<enum ShaderType>
PUBLIC	??$forward@U?$default_delete@VCanvasObject@@@std@@@std@@YA$$QEAU?$default_delete@VCanvasObject@@@0@AEAU10@@Z ; std::forward<std::default_delete<CanvasObject> >
PUBLIC	??$addressof@V?$unique_ptr@VCanvasObject@@U?$default_delete@VCanvasObject@@@std@@@std@@@std@@YAPEAV?$unique_ptr@VCanvasObject@@U?$default_delete@VCanvasObject@@@std@@@0@AEAV10@@Z ; std::addressof<std::unique_ptr<CanvasObject,std::default_delete<CanvasObject> > >
PUBLIC	??$?0U?$default_delete@VCanvasObject@@@std@@$0A@@?$unique_ptr@VCanvasObject@@U?$default_delete@VCanvasObject@@@std@@@std@@QEAA@PEAVCanvasObject@@@Z ; std::unique_ptr<CanvasObject,std::default_delete<CanvasObject> >::unique_ptr<CanvasObject,std::default_delete<CanvasObject> ><std::default_delete<CanvasObject>,0>
PUBLIC	??$forward@AEAV?$vector@MV?$allocator@M@std@@@std@@@std@@YAAEAV?$vector@MV?$allocator@M@std@@@0@AEAV10@@Z ; std::forward<std::vector<float,std::allocator<float> > &>
PUBLIC	??$forward@AEAV?$vector@IV?$allocator@I@std@@@std@@@std@@YAAEAV?$vector@IV?$allocator@I@std@@@0@AEAV10@@Z ; std::forward<std::vector<unsigned int,std::allocator<unsigned int> > &>
PUBLIC	??$to_address@M@std@@YAPEAMQEAM@Z		; std::to_address<float>
PUBLIC	?select_on_container_copy_construction@?$_Default_allocator_traits@V?$allocator@I@std@@@std@@SA?AV?$allocator@I@2@AEBV32@@Z ; std::_Default_allocator_traits<std::allocator<unsigned int> >::select_on_container_copy_construction
PUBLIC	?select_on_container_copy_construction@?$_Default_allocator_traits@V?$allocator@M@std@@@std@@SA?AV?$allocator@M@2@AEBV32@@Z ; std::_Default_allocator_traits<std::allocator<float> >::select_on_container_copy_construction
PUBLIC	??0?$vector@IV?$allocator@I@std@@@std@@QEAA@AEBV01@@Z ; std::vector<unsigned int,std::allocator<unsigned int> >::vector<unsigned int,std::allocator<unsigned int> >
PUBLIC	??0?$vector@MV?$allocator@M@std@@@std@@QEAA@AEBV01@@Z ; std::vector<float,std::allocator<float> >::vector<float,std::allocator<float> >
PUBLIC	?release@?$unique_ptr@VCanvasObject@@U?$default_delete@VCanvasObject@@@std@@@std@@QEAAPEAVCanvasObject@@XZ ; std::unique_ptr<CanvasObject,std::default_delete<CanvasObject> >::release
PUBLIC	?reset@?$unique_ptr@VCanvasObject@@U?$default_delete@VCanvasObject@@@std@@@std@@QEAAXPEAVCanvasObject@@@Z ; std::unique_ptr<CanvasObject,std::default_delete<CanvasObject> >::reset
PUBLIC	?release@?$unique_ptr@VShader@@U?$default_delete@VShader@@@std@@@std@@QEAAPEAVShader@@XZ ; std::unique_ptr<Shader,std::default_delete<Shader> >::release
PUBLIC	?reset@?$unique_ptr@VShader@@U?$default_delete@VShader@@@std@@@std@@QEAAXPEAVShader@@@Z ; std::unique_ptr<Shader,std::default_delete<Shader> >::reset
PUBLIC	?__autoclassinit2@Shader@@QEAAX_K@Z		; Shader::__autoclassinit2
PUBLIC	?__autoclassinit2@CanvasObject@@QEAAX_K@Z	; CanvasObject::__autoclassinit2
PUBLIC	??$?4U?$default_delete@VShader@@@std@@$0A@@?$unique_ptr@VShader@@U?$default_delete@VShader@@@std@@@std@@QEAAAEAV01@$$QEAV01@@Z ; std::unique_ptr<Shader,std::default_delete<Shader> >::operator=<std::default_delete<Shader>,0>
PUBLIC	??$make_unique@VShader@@W4ShaderType@@W42@$0A@@std@@YA?AV?$unique_ptr@VShader@@U?$default_delete@VShader@@@std@@@0@$$QEAW4ShaderType@@0@Z ; std::make_unique<Shader,enum ShaderType,enum ShaderType,0>
PUBLIC	??$?4U?$default_delete@VCanvasObject@@@std@@$0A@@?$unique_ptr@VCanvasObject@@U?$default_delete@VCanvasObject@@@std@@@std@@QEAAAEAV01@$$QEAV01@@Z ; std::unique_ptr<CanvasObject,std::default_delete<CanvasObject> >::operator=<std::default_delete<CanvasObject>,0>
PUBLIC	??$make_unique@VCanvasObject@@AEAV?$vector@IV?$allocator@I@std@@@std@@AEAV?$vector@MV?$allocator@M@std@@@3@$0A@@std@@YA?AV?$unique_ptr@VCanvasObject@@U?$default_delete@VCanvasObject@@@std@@@0@AEAV?$vector@IV?$allocator@I@std@@@0@AEAV?$vector@MV?$allocator@M@std@@@0@@Z ; std::make_unique<CanvasObject,std::vector<unsigned int,std::allocator<unsigned int> > &,std::vector<float,std::allocator<float> > &,0>
PUBLIC	??$_Copy_memmove@PEBIPEAI@std@@YAPEAIPEBI0PEAI@Z ; std::_Copy_memmove<unsigned int const *,unsigned int *>
PUBLIC	??$to_address@$$CBI@std@@YAPEBIQEBI@Z		; std::to_address<unsigned int const >
PUBLIC	??$_To_address@PEAM@std@@YA?A_PAEBQEAM@Z	; std::_To_address<float *>
PUBLIC	??$_Copy_memmove@PEBMPEAM@std@@YAPEAMPEBM0PEAM@Z ; std::_Copy_memmove<float const *,float *>
PUBLIC	??$to_address@$$CBM@std@@YAPEBMQEBM@Z		; std::to_address<float const >
PUBLIC	?deallocate@?$allocator@M@std@@QEAAXQEAM_K@Z	; std::allocator<float>::deallocate
PUBLIC	?allocate@?$allocator@M@std@@QEAAPEAM_K@Z	; std::allocator<float>::allocate
PUBLIC	??1?$vector@MV?$allocator@M@std@@@std@@QEAA@XZ	; std::vector<float,std::allocator<float> >::~vector<float,std::allocator<float> >
PUBLIC	?_Tidy@?$vector@MV?$allocator@M@std@@@std@@AEAAXXZ ; std::vector<float,std::allocator<float> >::_Tidy
PUBLIC	?_Xlength@?$vector@MV?$allocator@M@std@@@std@@CAXXZ ; std::vector<float,std::allocator<float> >::_Xlength
PUBLIC	?Init@Primitive@@SAXXZ				; Primitive::Init
PUBLIC	?__autoclassinit2@?$vector@IV?$allocator@I@std@@@std@@QEAAX_K@Z ; std::vector<unsigned int,std::allocator<unsigned int> >::__autoclassinit2
PUBLIC	??1?$_Tidy_guard@V?$vector@IV?$allocator@I@std@@@std@@@std@@QEAA@XZ ; std::_Tidy_guard<std::vector<unsigned int,std::allocator<unsigned int> > >::~_Tidy_guard<std::vector<unsigned int,std::allocator<unsigned int> > >
PUBLIC	??$move@AEAPEBI@std@@YA$$QEAPEBIAEAPEBI@Z	; std::move<unsigned int const * &>
PUBLIC	??$_To_address@PEBI@std@@YA?A_PAEBQEBI@Z	; std::_To_address<unsigned int const *>
PUBLIC	??$_Uninitialized_copy@PEBIPEBIV?$allocator@I@std@@@std@@YAPEAIPEBI0PEAIAEAV?$allocator@I@0@@Z ; std::_Uninitialized_copy<unsigned int const *,unsigned int const *,std::allocator<unsigned int> >
PUBLIC	??$_Unwrap_sent@PEBIPEBI@ranges@std@@YA?A_T$$QEAPEBI@Z ; std::ranges::_Unwrap_sent<unsigned int const *,unsigned int const *>
PUBLIC	??$_Unwrap_iter@PEBIPEBI@ranges@std@@YA?A_T$$QEAPEBI@Z ; std::ranges::_Unwrap_iter<unsigned int const *,unsigned int const *>
PUBLIC	??$forward@PEBI@std@@YA$$QEAPEBIAEAPEBI@Z	; std::forward<unsigned int const *>
PUBLIC	?_Buy_raw@?$vector@IV?$allocator@I@std@@@std@@AEAAX_K@Z ; std::vector<unsigned int,std::allocator<unsigned int> >::_Buy_raw
PUBLIC	?_Buy_nonzero@?$vector@IV?$allocator@I@std@@@std@@AEAAX_K@Z ; std::vector<unsigned int,std::allocator<unsigned int> >::_Buy_nonzero
PUBLIC	??$_Construct_n@PEBIPEBI@?$vector@IV?$allocator@I@std@@@std@@AEAAX_K$$QEAPEBI1@Z ; std::vector<unsigned int,std::allocator<unsigned int> >::_Construct_n<unsigned int const *,unsigned int const *>
PUBLIC	?end@?$initializer_list@I@std@@QEBAPEBIXZ	; std::initializer_list<unsigned int>::end
PUBLIC	?begin@?$initializer_list@I@std@@QEBAPEBIXZ	; std::initializer_list<unsigned int>::begin
PUBLIC	?size@?$initializer_list@I@std@@QEBA_KXZ	; std::initializer_list<unsigned int>::size
PUBLIC	??0?$vector@IV?$allocator@I@std@@@std@@QEAA@V?$initializer_list@I@1@AEBV?$allocator@I@1@@Z ; std::vector<unsigned int,std::allocator<unsigned int> >::vector<unsigned int,std::allocator<unsigned int> >
PUBLIC	??0?$allocator@I@std@@QEAA@XZ			; std::allocator<unsigned int>::allocator<unsigned int>
PUBLIC	??0?$initializer_list@I@std@@QEAA@PEBI0@Z	; std::initializer_list<unsigned int>::initializer_list<unsigned int>
PUBLIC	?__autoclassinit2@?$_Uninitialized_backout_al@V?$allocator@M@std@@@std@@QEAAX_K@Z ; std::_Uninitialized_backout_al<std::allocator<float> >::__autoclassinit2
PUBLIC	?__autoclassinit2@?$vector@MV?$allocator@M@std@@@std@@QEAAX_K@Z ; std::vector<float,std::allocator<float> >::__autoclassinit2
PUBLIC	??1?$_Tidy_guard@V?$vector@MV?$allocator@M@std@@@std@@@std@@QEAA@XZ ; std::_Tidy_guard<std::vector<float,std::allocator<float> > >::~_Tidy_guard<std::vector<float,std::allocator<float> > >
PUBLIC	??$_Destroy_range@V?$allocator@M@std@@@std@@YAXPEAMQEAMAEAV?$allocator@M@0@@Z ; std::_Destroy_range<std::allocator<float> >
PUBLIC	??1?$_Uninitialized_backout_al@V?$allocator@M@std@@@std@@QEAA@XZ ; std::_Uninitialized_backout_al<std::allocator<float> >::~_Uninitialized_backout_al<std::allocator<float> >
PUBLIC	?_Release@?$_Uninitialized_backout_al@V?$allocator@M@std@@@std@@QEAAPEAMXZ ; std::_Uninitialized_backout_al<std::allocator<float> >::_Release
PUBLIC	??$_Voidify_iter@PEAM@std@@YAPEAXPEAM@Z		; std::_Voidify_iter<float *>
PUBLIC	??$construct_at@MAEBM$0A@@std@@YAPEAMQEAMAEBM@Z	; std::construct_at<float,float const &,0>
PUBLIC	??$construct@MAEBM@?$_Default_allocator_traits@V?$allocator@M@std@@@std@@SAXAEAV?$allocator@M@1@QEAMAEBM@Z ; std::_Default_allocator_traits<std::allocator<float> >::construct<float,float const &>
PUBLIC	??$forward@AEBM@std@@YAAEBMAEBM@Z		; std::forward<float const &>
PUBLIC	??$_Unfancy@M@std@@YAPEAMPEAM@Z			; std::_Unfancy<float>
PUBLIC	??$_Emplace_back@AEBM@?$_Uninitialized_backout_al@V?$allocator@M@std@@@std@@QEAAXAEBM@Z ; std::_Uninitialized_backout_al<std::allocator<float> >::_Emplace_back<float const &>
PUBLIC	??0?$_Uninitialized_backout_al@V?$allocator@M@std@@@std@@QEAA@PEAMAEAV?$allocator@M@1@@Z ; std::_Uninitialized_backout_al<std::allocator<float> >::_Uninitialized_backout_al<std::allocator<float> >
PUBLIC	??$move@AEAPEBM@std@@YA$$QEAPEBMAEAPEBM@Z	; std::move<float const * &>
PUBLIC	??$_To_address@PEBM@std@@YA?A_PAEBQEBM@Z	; std::_To_address<float const *>
PUBLIC	??$_Uninitialized_copy@PEBMPEBMV?$allocator@M@std@@@std@@YAPEAMPEBM0PEAMAEAV?$allocator@M@0@@Z ; std::_Uninitialized_copy<float const *,float const *,std::allocator<float> >
PUBLIC	??$_Unwrap_sent@PEBMPEBM@ranges@std@@YA?A_T$$QEAPEBM@Z ; std::ranges::_Unwrap_sent<float const *,float const *>
PUBLIC	??$_Unwrap_iter@PEBMPEBM@ranges@std@@YA?A_T$$QEAPEBM@Z ; std::ranges::_Unwrap_iter<float const *,float const *>
PUBLIC	??$forward@PEBM@std@@YA$$QEAPEBMAEAPEBM@Z	; std::forward<float const *>
PUBLIC	?_Buy_raw@?$vector@MV?$allocator@M@std@@@std@@AEAAX_K@Z ; std::vector<float,std::allocator<float> >::_Buy_raw
PUBLIC	?max_size@?$_Default_allocator_traits@V?$allocator@M@std@@@std@@SA_KAEBV?$allocator@M@2@@Z ; std::_Default_allocator_traits<std::allocator<float> >::max_size
PUBLIC	?_Get_first@?$_Compressed_pair@V?$allocator@M@std@@V?$_Vector_val@U?$_Simple_types@M@std@@@2@$00@std@@QEBAAEBV?$allocator@M@2@XZ ; std::_Compressed_pair<std::allocator<float>,std::_Vector_val<std::_Simple_types<float> >,1>::_Get_first
PUBLIC	?_Getal@?$vector@MV?$allocator@M@std@@@std@@AEBAAEBV?$allocator@M@2@XZ ; std::vector<float,std::allocator<float> >::_Getal
PUBLIC	?max_size@?$vector@MV?$allocator@M@std@@@std@@QEBA_KXZ ; std::vector<float,std::allocator<float> >::max_size
PUBLIC	?_Buy_nonzero@?$vector@MV?$allocator@M@std@@@std@@AEAAX_K@Z ; std::vector<float,std::allocator<float> >::_Buy_nonzero
PUBLIC	?_Get_first@?$_Compressed_pair@V?$allocator@M@std@@V?$_Vector_val@U?$_Simple_types@M@std@@@2@$00@std@@QEAAAEAV?$allocator@M@2@XZ ; std::_Compressed_pair<std::allocator<float>,std::_Vector_val<std::_Simple_types<float> >,1>::_Get_first
PUBLIC	?_Getal@?$vector@MV?$allocator@M@std@@@std@@AEAAAEAV?$allocator@M@2@XZ ; std::vector<float,std::allocator<float> >::_Getal
PUBLIC	??$_Construct_n@PEBMPEBM@?$vector@MV?$allocator@M@std@@@std@@AEAAX_K$$QEAPEBM1@Z ; std::vector<float,std::allocator<float> >::_Construct_n<float const *,float const *>
PUBLIC	?end@?$initializer_list@M@std@@QEBAPEBMXZ	; std::initializer_list<float>::end
PUBLIC	?begin@?$initializer_list@M@std@@QEBAPEBMXZ	; std::initializer_list<float>::begin
PUBLIC	?size@?$initializer_list@M@std@@QEBA_KXZ	; std::initializer_list<float>::size
PUBLIC	??0?$_Vector_val@U?$_Simple_types@M@std@@@std@@QEAA@XZ ; std::_Vector_val<std::_Simple_types<float> >::_Vector_val<std::_Simple_types<float> >
PUBLIC	??$forward@AEBV?$allocator@M@std@@@std@@YAAEBV?$allocator@M@0@AEBV10@@Z ; std::forward<std::allocator<float> const &>
PUBLIC	??$?0AEBV?$allocator@M@std@@$$V@?$_Compressed_pair@V?$allocator@M@std@@V?$_Vector_val@U?$_Simple_types@M@std@@@2@$00@std@@QEAA@U_One_then_variadic_args_t@1@AEBV?$allocator@M@1@@Z ; std::_Compressed_pair<std::allocator<float>,std::_Vector_val<std::_Simple_types<float> >,1>::_Compressed_pair<std::allocator<float>,std::_Vector_val<std::_Simple_types<float> >,1><std::allocator<float> const &>
PUBLIC	??0?$vector@MV?$allocator@M@std@@@std@@QEAA@V?$initializer_list@M@1@AEBV?$allocator@M@1@@Z ; std::vector<float,std::allocator<float> >::vector<float,std::allocator<float> >
PUBLIC	??0?$allocator@M@std@@QEAA@XZ			; std::allocator<float>::allocator<float>
PUBLIC	??0?$initializer_list@M@std@@QEAA@PEBM0@Z	; std::initializer_list<float>::initializer_list<float>
PUBLIC	?brushverts@@3V?$vector@MV?$allocator@M@std@@@std@@A ; brushverts
PUBLIC	?indices@@3V?$vector@IV?$allocator@I@std@@@std@@A ; indices
PUBLIC	?vertices@@3V?$vector@MV?$allocator@M@std@@@std@@A ; vertices
?brushverts@@3V?$vector@MV?$allocator@M@std@@@std@@A DB 018H DUP (?) ; brushverts
?indices@@3V?$vector@IV?$allocator@I@std@@@std@@A DB 018H DUP (?) ; indices
?vertices@@3V?$vector@MV?$allocator@M@std@@@std@@A DB 018H DUP (?) ; vertices
_BSS	ENDS
;	COMDAT pdata
pdata	SEGMENT
$pdata$??$_Copy_memmove@PEAMPEAM@std@@YAPEAMPEAM00@Z DD imagerel $LN4@Copy_memmo
	DD	imagerel $LN4@Copy_memmo+48
	DD	imagerel $unwind$??$_Copy_memmove@PEAMPEAM@std@@YAPEAMPEAM00@Z
pdata	ENDS
;	COMDAT pdata
pdata	SEGMENT
$pdata$??$_Uninitialized_copy@PEAIPEAIV?$allocator@I@std@@@std@@YAPEAIPEAI00AEAV?$allocator@I@0@@Z DD imagerel $LN23@Uninitiali
	DD	imagerel $LN23@Uninitiali+52
	DD	imagerel $unwind$??$_Uninitialized_copy@PEAIPEAIV?$allocator@I@std@@@std@@YAPEAIPEAI00AEAV?$allocator@I@0@@Z
pdata	ENDS
;	COMDAT pdata
pdata	SEGMENT
$pdata$??$_Uninitialized_copy@PEAMPEAMV?$allocator@M@std@@@std@@YAPEAMPEAM00AEAV?$allocator@M@0@@Z DD imagerel $LN29@Uninitiali
	DD	imagerel $LN29@Uninitiali+52
	DD	imagerel $unwind$??$_Uninitialized_copy@PEAMPEAMV?$allocator@M@std@@@std@@YAPEAMPEAM00AEAV?$allocator@M@0@@Z
pdata	ENDS
;	COMDAT pdata
pdata	SEGMENT
$pdata$??$_Construct_n@AEBQEAIAEBQEAI@?$vector@IV?$allocator@I@std@@@std@@AEAAX_KAEBQEAI1@Z DD imagerel $LN65@Construct_
	DD	imagerel $LN65@Construct_+42
	DD	imagerel $unwind$??$_Construct_n@AEBQEAIAEBQEAI@?$vector@IV?$allocator@I@std@@@std@@AEAAX_KAEBQEAI1@Z
pdata	ENDS
;	COMDAT pdata
pdata	SEGMENT
$pdata$0$??$_Construct_n@AEBQEAIAEBQEAI@?$vector@IV?$allocator@I@std@@@std@@AEAAX_KAEBQEAI1@Z DD imagerel $LN65@Construct_+42
	DD	imagerel $LN65@Construct_+117
	DD	imagerel $chain$0$??$_Construct_n@AEBQEAIAEBQEAI@?$vector@IV?$allocator@I@std@@@std@@AEAAX_KAEBQEAI1@Z
pdata	ENDS
;	COMDAT pdata
pdata	SEGMENT
$pdata$1$??$_Construct_n@AEBQEAIAEBQEAI@?$vector@IV?$allocator@I@std@@@std@@AEAAX_KAEBQEAI1@Z DD imagerel $LN65@Construct_+117
	DD	imagerel $LN65@Construct_+124
	DD	imagerel $chain$1$??$_Construct_n@AEBQEAIAEBQEAI@?$vector@IV?$allocator@I@std@@@std@@AEAAX_KAEBQEAI1@Z
pdata	ENDS
;	COMDAT pdata
pdata	SEGMENT
$pdata$??$_Construct_n@AEBQEAMAEBQEAM@?$vector@MV?$allocator@M@std@@@std@@AEAAX_KAEBQEAM1@Z DD imagerel $LN63@Construct_
	DD	imagerel $LN63@Construct_+16
	DD	imagerel $unwind$??$_Construct_n@AEBQEAMAEBQEAM@?$vector@MV?$allocator@M@std@@@std@@AEAAX_KAEBQEAM1@Z
pdata	ENDS
;	COMDAT pdata
pdata	SEGMENT
$pdata$0$??$_Construct_n@AEBQEAMAEBQEAM@?$vector@MV?$allocator@M@std@@@std@@AEAAX_KAEBQEAM1@Z DD imagerel $LN63@Construct_+16
	DD	imagerel $LN63@Construct_+80
	DD	imagerel $chain$0$??$_Construct_n@AEBQEAMAEBQEAM@?$vector@MV?$allocator@M@std@@@std@@AEAAX_KAEBQEAM1@Z
pdata	ENDS
;	COMDAT pdata
pdata	SEGMENT
$pdata$1$??$_Construct_n@AEBQEAMAEBQEAM@?$vector@MV?$allocator@M@std@@@std@@AEAAX_KAEBQEAM1@Z DD imagerel $LN63@Construct_+80
	DD	imagerel $LN63@Construct_+81
	DD	imagerel $chain$1$??$_Construct_n@AEBQEAMAEBQEAM@?$vector@MV?$allocator@M@std@@@std@@AEAAX_KAEBQEAM1@Z
pdata	ENDS
;	COMDAT pdata
pdata	SEGMENT
$pdata$??0?$vector@IV?$allocator@I@std@@@std@@QEAA@AEBV01@@Z DD imagerel $LN71@vector
	DD	imagerel $LN71@vector+62
	DD	imagerel $unwind$??0?$vector@IV?$allocator@I@std@@@std@@QEAA@AEBV01@@Z
pdata	ENDS
;	COMDAT pdata
pdata	SEGMENT
$pdata$0$??0?$vector@IV?$allocator@I@std@@@std@@QEAA@AEBV01@@Z DD imagerel $LN71@vector+62
	DD	imagerel $LN71@vector+128
	DD	imagerel $chain$0$??0?$vector@IV?$allocator@I@std@@@std@@QEAA@AEBV01@@Z
pdata	ENDS
;	COMDAT pdata
pdata	SEGMENT
$pdata$1$??0?$vector@IV?$allocator@I@std@@@std@@QEAA@AEBV01@@Z DD imagerel $LN71@vector+128
	DD	imagerel $LN71@vector+146
	DD	imagerel $chain$1$??0?$vector@IV?$allocator@I@std@@@std@@QEAA@AEBV01@@Z
pdata	ENDS
;	COMDAT pdata
pdata	SEGMENT
$pdata$??0?$vector@MV?$allocator@M@std@@@std@@QEAA@AEBV01@@Z DD imagerel $LN70@vector
	DD	imagerel $LN70@vector+45
	DD	imagerel $unwind$??0?$vector@MV?$allocator@M@std@@@std@@QEAA@AEBV01@@Z
pdata	ENDS
;	COMDAT pdata
pdata	SEGMENT
$pdata$0$??0?$vector@MV?$allocator@M@std@@@std@@QEAA@AEBV01@@Z DD imagerel $LN70@vector+45
	DD	imagerel $LN70@vector+96
	DD	imagerel $chain$0$??0?$vector@MV?$allocator@M@std@@@std@@QEAA@AEBV01@@Z
pdata	ENDS
;	COMDAT pdata
pdata	SEGMENT
$pdata$1$??0?$vector@MV?$allocator@M@std@@@std@@QEAA@AEBV01@@Z DD imagerel $LN70@vector+96
	DD	imagerel $LN70@vector+110
	DD	imagerel $chain$1$??0?$vector@MV?$allocator@M@std@@@std@@QEAA@AEBV01@@Z
pdata	ENDS
;	COMDAT pdata
pdata	SEGMENT
$pdata$?reset@?$unique_ptr@VShader@@U?$default_delete@VShader@@@std@@@std@@QEAAXPEAVShader@@@Z DD imagerel $LN21@reset
	DD	imagerel $LN21@reset+60
	DD	imagerel $unwind$?reset@?$unique_ptr@VShader@@U?$default_delete@VShader@@@std@@@std@@QEAAXPEAVShader@@@Z
pdata	ENDS
;	COMDAT pdata
pdata	SEGMENT
$pdata$??$?4U?$default_delete@VShader@@@std@@$0A@@?$unique_ptr@VShader@@U?$default_delete@VShader@@@std@@@std@@QEAAAEAV01@$$QEAV01@@Z DD imagerel $LN30@operator
	DD	imagerel $LN30@operator+85
	DD	imagerel $unwind$??$?4U?$default_delete@VShader@@@std@@$0A@@?$unique_ptr@VShader@@U?$default_delete@VShader@@@std@@@std@@QEAAAEAV01@$$QEAV01@@Z
pdata	ENDS
;	COMDAT pdata
pdata	SEGMENT
$pdata$??$make_unique@VShader@@W4ShaderType@@W42@$0A@@std@@YA?AV?$unique_ptr@VShader@@U?$default_delete@VShader@@@std@@@0@$$QEAW4ShaderType@@0@Z DD imagerel $LN16@make_uniqu
	DD	imagerel $LN16@make_uniqu+87
	DD	imagerel $unwind$??$make_unique@VShader@@W4ShaderType@@W42@$0A@@std@@YA?AV?$unique_ptr@VShader@@U?$default_delete@VShader@@@std@@@0@$$QEAW4ShaderType@@0@Z
pdata	ENDS
;	COMDAT pdata
pdata	SEGMENT
$pdata$?dtor$0@?0???$make_unique@VShader@@W4ShaderType@@W42@$0A@@std@@YA?AV?$unique_ptr@VShader@@U?$default_delete@VShader@@@std@@@0@$$QEAW4ShaderType@@0@Z@4HA DD imagerel ?dtor$0@?0???$make_unique@VShader@@W4ShaderType@@W42@$0A@@std@@YA?AV?$unique_ptr@VShader@@U?$default_delete@VShader@@@std@@@0@$$QEAW4ShaderType@@0@Z@4HA
	DD	imagerel ?dtor$0@?0???$make_unique@VShader@@W4ShaderType@@W42@$0A@@std@@YA?AV?$unique_ptr@VShader@@U?$default_delete@VShader@@@std@@@0@$$QEAW4ShaderType@@0@Z@4HA+29
	DD	imagerel $unwind$?dtor$0@?0???$make_unique@VShader@@W4ShaderType@@W42@$0A@@std@@YA?AV?$unique_ptr@VShader@@U?$default_delete@VShader@@@std@@@0@$$QEAW4ShaderType@@0@Z@4HA
pdata	ENDS
;	COMDAT pdata
pdata	SEGMENT
$pdata$??$?4U?$default_delete@VCanvasObject@@@std@@$0A@@?$unique_ptr@VCanvasObject@@U?$default_delete@VCanvasObject@@@std@@@std@@QEAAAEAV01@$$QEAV01@@Z DD imagerel $LN19@operator
	DD	imagerel $LN19@operator+49
	DD	imagerel $unwind$??$?4U?$default_delete@VCanvasObject@@@std@@$0A@@?$unique_ptr@VCanvasObject@@U?$default_delete@VCanvasObject@@@std@@@std@@QEAAAEAV01@$$QEAV01@@Z
pdata	ENDS
;	COMDAT pdata
pdata	SEGMENT
$pdata$??$make_unique@VCanvasObject@@AEAV?$vector@IV?$allocator@I@std@@@std@@AEAV?$vector@MV?$allocator@M@std@@@3@$0A@@std@@YA?AV?$unique_ptr@VCanvasObject@@U?$default_delete@VCanvasObject@@@std@@@0@AEAV?$vector@IV?$allocator@I@std@@@0@AEAV?$vector@MV?$allocator@M@std@@@0@@Z DD imagerel $LN18@make_uniqu
	DD	imagerel $LN18@make_uniqu+145
	DD	imagerel $unwind$??$make_unique@VCanvasObject@@AEAV?$vector@IV?$allocator@I@std@@@std@@AEAV?$vector@MV?$allocator@M@std@@@3@$0A@@std@@YA?AV?$unique_ptr@VCanvasObject@@U?$default_delete@VCanvasObject@@@std@@@0@AEAV?$vector@IV?$allocator@I@std@@@0@AEAV?$vector@MV?$allocator@M@std@@@0@@Z
pdata	ENDS
;	COMDAT pdata
pdata	SEGMENT
$pdata$?dtor$0@?0???$make_unique@VCanvasObject@@AEAV?$vector@IV?$allocator@I@std@@@std@@AEAV?$vector@MV?$allocator@M@std@@@3@$0A@@std@@YA?AV?$unique_ptr@VCanvasObject@@U?$default_delete@VCanvasObject@@@std@@@0@AEAV?$vector@IV?$allocator@I@std@@@0@AEAV?$vector@MV?$allocator@M@std@@@0@@Z@4HA DD imagerel ?dtor$0@?0???$make_unique@VCanvasObject@@AEAV?$vector@IV?$allocator@I@std@@@std@@AEAV?$vector@MV?$allocator@M@std@@@3@$0A@@std@@YA?AV?$unique_ptr@VCanvasObject@@U?$default_delete@VCanvasObject@@@std@@@0@AEAV?$vector@IV?$allocator@I@std@@@0@AEAV?$vector@MV?$allocator@M@std@@@0@@Z@4HA
	DD	imagerel ?dtor$0@?0???$make_unique@VCanvasObject@@AEAV?$vector@IV?$allocator@I@std@@@std@@AEAV?$vector@MV?$allocator@M@std@@@3@$0A@@std@@YA?AV?$unique_ptr@VCanvasObject@@U?$default_delete@VCanvasObject@@@std@@@0@AEAV?$vector@IV?$allocator@I@std@@@0@AEAV?$vector@MV?$allocator@M@std@@@0@@Z@4HA+29
	DD	imagerel $unwind$?dtor$0@?0???$make_unique@VCanvasObject@@AEAV?$vector@IV?$allocator@I@std@@@std@@AEAV?$vector@MV?$allocator@M@std@@@3@$0A@@std@@YA?AV?$unique_ptr@VCanvasObject@@U?$default_delete@VCanvasObject@@@std@@@0@AEAV?$vector@IV?$allocator@I@std@@@0@AEAV?$vector@MV?$allocator@M@std@@@0@@Z@4HA
pdata	ENDS
;	COMDAT pdata
pdata	SEGMENT
$pdata$??$_Copy_memmove@PEBIPEAI@std@@YAPEAIPEBI0PEAI@Z DD imagerel $LN4@Copy_memmo
	DD	imagerel $LN4@Copy_memmo+48
	DD	imagerel $unwind$??$_Copy_memmove@PEBIPEAI@std@@YAPEAIPEBI0PEAI@Z
pdata	ENDS
;	COMDAT pdata
pdata	SEGMENT
$pdata$??$_Copy_memmove@PEBMPEAM@std@@YAPEAMPEBM0PEAM@Z DD imagerel $LN4@Copy_memmo
	DD	imagerel $LN4@Copy_memmo+48
	DD	imagerel $unwind$??$_Copy_memmove@PEBMPEAM@std@@YAPEAMPEBM0PEAM@Z
pdata	ENDS
;	COMDAT pdata
pdata	SEGMENT
$pdata$?deallocate@?$allocator@M@std@@QEAAXQEAM_K@Z DD imagerel $LN23@deallocate
	DD	imagerel $LN23@deallocate+67
	DD	imagerel $unwind$?deallocate@?$allocator@M@std@@QEAAXQEAM_K@Z
pdata	ENDS
;	COMDAT pdata
pdata	SEGMENT
$pdata$?allocate@?$allocator@M@std@@QEAAPEAM_K@Z DD imagerel $LN32@allocate
	DD	imagerel $LN32@allocate+112
	DD	imagerel $unwind$?allocate@?$allocator@M@std@@QEAAPEAM_K@Z
pdata	ENDS
;	COMDAT pdata
pdata	SEGMENT
$pdata$??1?$vector@MV?$allocator@M@std@@@std@@QEAA@XZ DD imagerel $LN33@vector
	DD	imagerel $LN33@vector+92
	DD	imagerel $unwind$??1?$vector@MV?$allocator@M@std@@@std@@QEAA@XZ
pdata	ENDS
;	COMDAT pdata
pdata	SEGMENT
$pdata$?_Tidy@?$vector@MV?$allocator@M@std@@@std@@AEAAXXZ DD imagerel $LN30@Tidy
	DD	imagerel $LN30@Tidy+92
	DD	imagerel $unwind$?_Tidy@?$vector@MV?$allocator@M@std@@@std@@AEAAXXZ
pdata	ENDS
;	COMDAT pdata
pdata	SEGMENT
$pdata$?_Xlength@?$vector@MV?$allocator@M@std@@@std@@CAXXZ DD imagerel $LN4@Xlength
	DD	imagerel $LN4@Xlength+18
	DD	imagerel $unwind$?_Xlength@?$vector@MV?$allocator@M@std@@@std@@CAXXZ
pdata	ENDS
;	COMDAT pdata
pdata	SEGMENT
$pdata$?Init@Primitive@@SAXXZ DD imagerel $LN183@Init
	DD	imagerel $LN183@Init+626
	DD	imagerel $unwind$?Init@Primitive@@SAXXZ
pdata	ENDS
;	COMDAT pdata
pdata	SEGMENT
$pdata$?dtor$4@?0??Init@Primitive@@SAXXZ@4HA DD imagerel ?dtor$4@?0??Init@Primitive@@SAXXZ@4HA
	DD	imagerel ?dtor$4@?0??Init@Primitive@@SAXXZ@4HA+32
	DD	imagerel $unwind$?dtor$4@?0??Init@Primitive@@SAXXZ@4HA
pdata	ENDS
;	COMDAT pdata
pdata	SEGMENT
$pdata$?dtor$8@?0??Init@Primitive@@SAXXZ@4HA DD imagerel ?dtor$8@?0??Init@Primitive@@SAXXZ@4HA
	DD	imagerel ?dtor$8@?0??Init@Primitive@@SAXXZ@4HA+32
	DD	imagerel $unwind$?dtor$8@?0??Init@Primitive@@SAXXZ@4HA
pdata	ENDS
;	COMDAT pdata
pdata	SEGMENT
$pdata$?dtor$12@?0??Init@Primitive@@SAXXZ@4HA DD imagerel ?dtor$12@?0??Init@Primitive@@SAXXZ@4HA
	DD	imagerel ?dtor$12@?0??Init@Primitive@@SAXXZ@4HA+32
	DD	imagerel $unwind$?dtor$12@?0??Init@Primitive@@SAXXZ@4HA
pdata	ENDS
;	COMDAT pdata
pdata	SEGMENT
$pdata$?dtor$18@?0??Init@Primitive@@SAXXZ@4HA DD imagerel ?dtor$18@?0??Init@Primitive@@SAXXZ@4HA
	DD	imagerel ?dtor$18@?0??Init@Primitive@@SAXXZ@4HA+32
	DD	imagerel $unwind$?dtor$18@?0??Init@Primitive@@SAXXZ@4HA
pdata	ENDS
;	COMDAT pdata
pdata	SEGMENT
$pdata$??__Fbrushverts@@YAXXZ DD imagerel ??__Fbrushverts@@YAXXZ
	DD	imagerel ??__Fbrushverts@@YAXXZ+102
	DD	imagerel $unwind$??__Fbrushverts@@YAXXZ
pdata	ENDS
;	COMDAT pdata
pdata	SEGMENT
$pdata$??__Ebrushverts@@YAXXZ DD imagerel ??__Ebrushverts@@YAXXZ
	DD	imagerel ??__Ebrushverts@@YAXXZ+113
	DD	imagerel $unwind$??__Ebrushverts@@YAXXZ
pdata	ENDS
;	COMDAT pdata
pdata	SEGMENT
$pdata$??__Findices@@YAXXZ DD imagerel ??__Findices@@YAXXZ
	DD	imagerel ??__Findices@@YAXXZ+102
	DD	imagerel $unwind$??__Findices@@YAXXZ
pdata	ENDS
;	COMDAT pdata
pdata	SEGMENT
$pdata$??__Eindices@@YAXXZ DD imagerel ??__Eindices@@YAXXZ
	DD	imagerel ??__Eindices@@YAXXZ+132
	DD	imagerel $unwind$??__Eindices@@YAXXZ
pdata	ENDS
;	COMDAT pdata
pdata	SEGMENT
$pdata$??1?$_Tidy_guard@V?$vector@IV?$allocator@I@std@@@std@@@std@@QEAA@XZ DD imagerel $LN35@Tidy_guard
	DD	imagerel $LN35@Tidy_guard+97
	DD	imagerel $unwind$??1?$_Tidy_guard@V?$vector@IV?$allocator@I@std@@@std@@@std@@QEAA@XZ
pdata	ENDS
;	COMDAT pdata
pdata	SEGMENT
$pdata$??$_Uninitialized_copy@PEBIPEBIV?$allocator@I@std@@@std@@YAPEAIPEBI0PEAIAEAV?$allocator@I@0@@Z DD imagerel $LN23@Uninitiali
	DD	imagerel $LN23@Uninitiali+52
	DD	imagerel $unwind$??$_Uninitialized_copy@PEBIPEBIV?$allocator@I@std@@@std@@YAPEAIPEBI0PEAIAEAV?$allocator@I@0@@Z
pdata	ENDS
;	COMDAT pdata
pdata	SEGMENT
$pdata$?_Buy_raw@?$vector@IV?$allocator@I@std@@@std@@AEAAX_K@Z DD imagerel $LN4@Buy_raw
	DD	imagerel $LN4@Buy_raw+47
	DD	imagerel $unwind$?_Buy_raw@?$vector@IV?$allocator@I@std@@@std@@AEAAX_K@Z
pdata	ENDS
;	COMDAT pdata
pdata	SEGMENT
$pdata$?_Buy_nonzero@?$vector@IV?$allocator@I@std@@@std@@AEAAX_K@Z DD imagerel $LN10@Buy_nonzer
	DD	imagerel $LN10@Buy_nonzer+68
	DD	imagerel $unwind$?_Buy_nonzero@?$vector@IV?$allocator@I@std@@@std@@AEAAX_K@Z
pdata	ENDS
;	COMDAT pdata
pdata	SEGMENT
$pdata$??$_Construct_n@PEBIPEBI@?$vector@IV?$allocator@I@std@@@std@@AEAAX_K$$QEAPEBI1@Z DD imagerel $LN65@Construct_
	DD	imagerel $LN65@Construct_+37
	DD	imagerel $unwind$??$_Construct_n@PEBIPEBI@?$vector@IV?$allocator@I@std@@@std@@AEAAX_K$$QEAPEBI1@Z
pdata	ENDS
;	COMDAT pdata
pdata	SEGMENT
$pdata$0$??$_Construct_n@PEBIPEBI@?$vector@IV?$allocator@I@std@@@std@@AEAAX_K$$QEAPEBI1@Z DD imagerel $LN65@Construct_+37
	DD	imagerel $LN65@Construct_+123
	DD	imagerel $chain$0$??$_Construct_n@PEBIPEBI@?$vector@IV?$allocator@I@std@@@std@@AEAAX_K$$QEAPEBI1@Z
pdata	ENDS
;	COMDAT pdata
pdata	SEGMENT
$pdata$1$??$_Construct_n@PEBIPEBI@?$vector@IV?$allocator@I@std@@@std@@AEAAX_K$$QEAPEBI1@Z DD imagerel $LN65@Construct_+123
	DD	imagerel $LN65@Construct_+130
	DD	imagerel $chain$1$??$_Construct_n@PEBIPEBI@?$vector@IV?$allocator@I@std@@@std@@AEAAX_K$$QEAPEBI1@Z
pdata	ENDS
;	COMDAT pdata
pdata	SEGMENT
$pdata$??0?$vector@IV?$allocator@I@std@@@std@@QEAA@V?$initializer_list@I@1@AEBV?$allocator@I@1@@Z DD imagerel $LN73@vector
	DD	imagerel $LN73@vector+158
	DD	imagerel $unwind$??0?$vector@IV?$allocator@I@std@@@std@@QEAA@V?$initializer_list@I@1@AEBV?$allocator@I@1@@Z
pdata	ENDS
;	COMDAT pdata
pdata	SEGMENT
$pdata$??__Fvertices@@YAXXZ DD imagerel ??__Fvertices@@YAXXZ
	DD	imagerel ??__Fvertices@@YAXXZ+102
	DD	imagerel $unwind$??__Fvertices@@YAXXZ
pdata	ENDS
;	COMDAT pdata
pdata	SEGMENT
$pdata$??__Evertices@@YAXXZ DD imagerel ??__Evertices@@YAXXZ
	DD	imagerel ??__Evertices@@YAXXZ+113
	DD	imagerel $unwind$??__Evertices@@YAXXZ
pdata	ENDS
;	COMDAT pdata
pdata	SEGMENT
$pdata$??1?$_Tidy_guard@V?$vector@MV?$allocator@M@std@@@std@@@std@@QEAA@XZ DD imagerel $LN35@Tidy_guard
	DD	imagerel $LN35@Tidy_guard+97
	DD	imagerel $unwind$??1?$_Tidy_guard@V?$vector@MV?$allocator@M@std@@@std@@@std@@QEAA@XZ
pdata	ENDS
;	COMDAT pdata
pdata	SEGMENT
$pdata$??$_Uninitialized_copy@PEBMPEBMV?$allocator@M@std@@@std@@YAPEAMPEBM0PEAMAEAV?$allocator@M@0@@Z DD imagerel $LN29@Uninitiali
	DD	imagerel $LN29@Uninitiali+52
	DD	imagerel $unwind$??$_Uninitialized_copy@PEBMPEBMV?$allocator@M@std@@@std@@YAPEAMPEBM0PEAMAEAV?$allocator@M@0@@Z
pdata	ENDS
;	COMDAT pdata
pdata	SEGMENT
$pdata$?_Buy_raw@?$vector@MV?$allocator@M@std@@@std@@AEAAX_K@Z DD imagerel $LN40@Buy_raw
	DD	imagerel $LN40@Buy_raw+136
	DD	imagerel $unwind$?_Buy_raw@?$vector@MV?$allocator@M@std@@@std@@AEAAX_K@Z
pdata	ENDS
;	COMDAT pdata
pdata	SEGMENT
$pdata$?_Buy_nonzero@?$vector@MV?$allocator@M@std@@@std@@AEAAX_K@Z DD imagerel $LN45@Buy_nonzer
	DD	imagerel $LN45@Buy_nonzer+24
	DD	imagerel $unwind$?_Buy_nonzero@?$vector@MV?$allocator@M@std@@@std@@AEAAX_K@Z
pdata	ENDS
;	COMDAT pdata
pdata	SEGMENT
$pdata$0$?_Buy_nonzero@?$vector@MV?$allocator@M@std@@@std@@AEAAX_K@Z DD imagerel $LN45@Buy_nonzer+24
	DD	imagerel $LN45@Buy_nonzer+131
	DD	imagerel $chain$0$?_Buy_nonzero@?$vector@MV?$allocator@M@std@@@std@@AEAAX_K@Z
pdata	ENDS
;	COMDAT pdata
pdata	SEGMENT
$pdata$1$?_Buy_nonzero@?$vector@MV?$allocator@M@std@@@std@@AEAAX_K@Z DD imagerel $LN45@Buy_nonzer+131
	DD	imagerel $LN45@Buy_nonzer+137
	DD	imagerel $chain$1$?_Buy_nonzero@?$vector@MV?$allocator@M@std@@@std@@AEAAX_K@Z
pdata	ENDS
;	COMDAT pdata
pdata	SEGMENT
$pdata$2$?_Buy_nonzero@?$vector@MV?$allocator@M@std@@@std@@AEAAX_K@Z DD imagerel $LN45@Buy_nonzer+137
	DD	imagerel $LN45@Buy_nonzer+143
	DD	imagerel $chain$2$?_Buy_nonzero@?$vector@MV?$allocator@M@std@@@std@@AEAAX_K@Z
pdata	ENDS
;	COMDAT pdata
pdata	SEGMENT
$pdata$??$_Construct_n@PEBMPEBM@?$vector@MV?$allocator@M@std@@@std@@AEAAX_K$$QEAPEBM1@Z DD imagerel $LN63@Construct_
	DD	imagerel $LN63@Construct_+16
	DD	imagerel $unwind$??$_Construct_n@PEBMPEBM@?$vector@MV?$allocator@M@std@@@std@@AEAAX_K$$QEAPEBM1@Z
pdata	ENDS
;	COMDAT pdata
pdata	SEGMENT
$pdata$0$??$_Construct_n@PEBMPEBM@?$vector@MV?$allocator@M@std@@@std@@AEAAX_K$$QEAPEBM1@Z DD imagerel $LN63@Construct_+16
	DD	imagerel $LN63@Construct_+80
	DD	imagerel $chain$0$??$_Construct_n@PEBMPEBM@?$vector@MV?$allocator@M@std@@@std@@AEAAX_K$$QEAPEBM1@Z
pdata	ENDS
;	COMDAT pdata
pdata	SEGMENT
$pdata$1$??$_Construct_n@PEBMPEBM@?$vector@MV?$allocator@M@std@@@std@@AEAAX_K$$QEAPEBM1@Z DD imagerel $LN63@Construct_+80
	DD	imagerel $LN63@Construct_+81
	DD	imagerel $chain$1$??$_Construct_n@PEBMPEBM@?$vector@MV?$allocator@M@std@@@std@@AEAAX_K$$QEAPEBM1@Z
pdata	ENDS
;	COMDAT pdata
pdata	SEGMENT
$pdata$??0?$vector@MV?$allocator@M@std@@@std@@QEAA@V?$initializer_list@M@1@AEBV?$allocator@M@1@@Z DD imagerel $LN72@vector
	DD	imagerel $LN72@vector+54
	DD	imagerel $unwind$??0?$vector@MV?$allocator@M@std@@@std@@QEAA@V?$initializer_list@M@1@AEBV?$allocator@M@1@@Z
pdata	ENDS
;	COMDAT pdata
pdata	SEGMENT
$pdata$0$??0?$vector@MV?$allocator@M@std@@@std@@QEAA@V?$initializer_list@M@1@AEBV?$allocator@M@1@@Z DD imagerel $LN72@vector+54
	DD	imagerel $LN72@vector+94
	DD	imagerel $chain$0$??0?$vector@MV?$allocator@M@std@@@std@@QEAA@V?$initializer_list@M@1@AEBV?$allocator@M@1@@Z
pdata	ENDS
;	COMDAT pdata
pdata	SEGMENT
$pdata$1$??0?$vector@MV?$allocator@M@std@@@std@@QEAA@V?$initializer_list@M@1@AEBV?$allocator@M@1@@Z DD imagerel $LN72@vector+94
	DD	imagerel $LN72@vector+111
	DD	imagerel $chain$1$??0?$vector@MV?$allocator@M@std@@@std@@QEAA@V?$initializer_list@M@1@AEBV?$allocator@M@1@@Z
;	COMDAT xdata
xdata	SEGMENT
$chain$1$??0?$vector@MV?$allocator@M@std@@@std@@QEAA@V?$initializer_list@M@1@AEBV?$allocator@M@1@@Z DD 021H
	DD	imagerel $LN72@vector
	DD	imagerel $LN72@vector+54
	DD	imagerel $unwind$??0?$vector@MV?$allocator@M@std@@@std@@QEAA@V?$initializer_list@M@1@AEBV?$allocator@M@1@@Z
xdata	ENDS
;	COMDAT xdata
xdata	SEGMENT
$chain$0$??0?$vector@MV?$allocator@M@std@@@std@@QEAA@V?$initializer_list@M@1@AEBV?$allocator@M@1@@Z DQ 0000a340500020521r ; 1.41893e-308
	DD	imagerel $LN72@vector
	DD	imagerel $LN72@vector+54
	DD	imagerel $unwind$??0?$vector@MV?$allocator@M@std@@@std@@QEAA@V?$initializer_list@M@1@AEBV?$allocator@M@1@@Z
xdata	ENDS
;	COMDAT xdata
xdata	SEGMENT
$unwind$??0?$vector@MV?$allocator@M@std@@@std@@QEAA@V?$initializer_list@M@1@AEBV?$allocator@M@1@@Z DQ 0000b540d00060d01r ; 1.5754e-308
	DQ	060067007e009320dr		; 3.76049e+154
xdata	ENDS
;	COMDAT xdata
xdata	SEGMENT
$chain$1$??$_Construct_n@PEBMPEBM@?$vector@MV?$allocator@M@std@@@std@@AEAAX_K$$QEAPEBM1@Z DD 021H
	DD	imagerel $LN63@Construct_
	DD	imagerel $LN63@Construct_+16
	DD	imagerel $unwind$??$_Construct_n@PEBMPEBM@?$vector@MV?$allocator@M@std@@@std@@AEAAX_K$$QEAPEBM1@Z
xdata	ENDS
;	COMDAT xdata
xdata	SEGMENT
$chain$0$??$_Construct_n@PEBMPEBM@?$vector@MV?$allocator@M@std@@@std@@AEAAX_K$$QEAPEBM1@Z DQ 00005740500020521r ; 7.58361e-309
	DD	imagerel $LN63@Construct_
	DD	imagerel $LN63@Construct_+16
	DD	imagerel $unwind$??$_Construct_n@PEBMPEBM@?$vector@MV?$allocator@M@std@@@std@@AEAAX_K$$QEAPEBM1@Z
xdata	ENDS
;	COMDAT xdata
xdata	SEGMENT
$unwind$??$_Construct_n@PEBMPEBM@?$vector@MV?$allocator@M@std@@@std@@AEAAX_K$$QEAPEBM1@Z DQ 0e009520d00040d01r ; -4.24366e+154
	DD	030066007H
xdata	ENDS
;	COMDAT xdata
xdata	SEGMENT
$chain$2$?_Buy_nonzero@?$vector@MV?$allocator@M@std@@@std@@AEAAX_K@Z DQ 00006340000020021r ; 8.62651e-309
	DD	imagerel $LN45@Buy_nonzer
	DD	imagerel $LN45@Buy_nonzer+24
	DD	imagerel $unwind$?_Buy_nonzero@?$vector@MV?$allocator@M@std@@@std@@AEAAX_K@Z
xdata	ENDS
;	COMDAT xdata
xdata	SEGMENT
$chain$1$?_Buy_nonzero@?$vector@MV?$allocator@M@std@@@std@@AEAAX_K@Z DD 021H
	DD	imagerel $LN45@Buy_nonzer
	DD	imagerel $LN45@Buy_nonzer+24
	DD	imagerel $unwind$?_Buy_nonzero@?$vector@MV?$allocator@M@std@@@std@@AEAAX_K@Z
xdata	ENDS
;	COMDAT xdata
xdata	SEGMENT
$chain$0$?_Buy_nonzero@?$vector@MV?$allocator@M@std@@@std@@AEAAX_K@Z DQ 00006340500020521r ; 8.62661e-309
	DD	imagerel $LN45@Buy_nonzer
	DD	imagerel $LN45@Buy_nonzer+24
	DD	imagerel $unwind$?_Buy_nonzero@?$vector@MV?$allocator@M@std@@@std@@AEAAX_K@Z
xdata	ENDS
;	COMDAT xdata
xdata	SEGMENT
$unwind$?_Buy_nonzero@?$vector@MV?$allocator@M@std@@@std@@AEAAX_K@Z DQ 07002320600020601r ; 3.53109e+231
xdata	ENDS
;	COMDAT xdata
xdata	SEGMENT
$unwind$?_Buy_raw@?$vector@MV?$allocator@M@std@@@std@@AEAAX_K@Z DQ 00006340a00040a01r ; 8.62672e-309
	DD	07006320aH
xdata	ENDS
;	COMDAT xdata
xdata	SEGMENT
$unwind$??$_Uninitialized_copy@PEBMPEBMV?$allocator@M@std@@@std@@YAPEAMPEBM0PEAMAEAV?$allocator@M@0@@Z DQ 00009340a00040a01r ; 1.27987e-308
	DD	07006320aH
xdata	ENDS
;	COMDAT xdata
xdata	SEGMENT
$unwind$??1?$_Tidy_guard@V?$vector@MV?$allocator@M@std@@@std@@@std@@QEAA@XZ DQ 03002320600020601r ; 1.96423e-77
xdata	ENDS
;	COMDAT xdata
xdata	SEGMENT
$unwind$??__Evertices@@YAXXZ DQ 03002920600020601r ; 2.00471e-77
xdata	ENDS
;	COMDAT xdata
xdata	SEGMENT
$unwind$??__Fvertices@@YAXXZ DQ 00000420400010401r ; 3.58617e-310
xdata	ENDS
;	COMDAT xdata
xdata	SEGMENT
$unwind$??0?$vector@IV?$allocator@I@std@@@std@@QEAA@V?$initializer_list@I@1@AEBV?$allocator@I@1@@Z DQ 00008640f00060f01r ; 1.16689e-308
	DQ	0700b320f0006340fr		; 5.2777e+231
xdata	ENDS
;	COMDAT xdata
xdata	SEGMENT
$chain$1$??$_Construct_n@PEBIPEBI@?$vector@IV?$allocator@I@std@@@std@@AEAAX_K$$QEAPEBI1@Z DD 021H
	DD	imagerel $LN65@Construct_
	DD	imagerel $LN65@Construct_+37
	DD	imagerel $unwind$??$_Construct_n@PEBIPEBI@?$vector@IV?$allocator@I@std@@@std@@AEAAX_K$$QEAPEBI1@Z
xdata	ENDS
;	COMDAT xdata
xdata	SEGMENT
$chain$0$??$_Construct_n@PEBIPEBI@?$vector@IV?$allocator@I@std@@@std@@AEAAX_K$$QEAPEBI1@Z DQ 00008740500020521r ; 1.17556e-308
	DD	imagerel $LN65@Construct_
	DD	imagerel $LN65@Construct_+37
	DD	imagerel $unwind$??$_Construct_n@PEBIPEBI@?$vector@IV?$allocator@I@std@@@std@@AEAAX_K$$QEAPEBI1@Z
xdata	ENDS
;	COMDAT xdata
xdata	SEGMENT
$unwind$??$_Construct_n@PEBIPEBI@?$vector@IV?$allocator@I@std@@@std@@AEAAX_K$$QEAPEBI1@Z DQ 0e009320d00040d01r ; -4.22271e+154
	DD	030066007H
xdata	ENDS
;	COMDAT xdata
xdata	SEGMENT
$unwind$?_Buy_nonzero@?$vector@IV?$allocator@I@std@@@std@@AEAAX_K@Z DQ 00006340a00040a01r ; 8.62672e-309
	DD	07006320aH
xdata	ENDS
;	COMDAT xdata
xdata	SEGMENT
$unwind$?_Buy_raw@?$vector@IV?$allocator@I@std@@@std@@AEAAX_K@Z DQ 00006340a00040a01r ; 8.62672e-309
	DD	07006320aH
xdata	ENDS
;	COMDAT xdata
xdata	SEGMENT
$unwind$??$_Uninitialized_copy@PEBIPEBIV?$allocator@I@std@@@std@@YAPEAIPEBI0PEAIAEAV?$allocator@I@0@@Z DQ 00009340a00040a01r ; 1.27987e-308
	DD	07006320aH
xdata	ENDS
;	COMDAT xdata
xdata	SEGMENT
$unwind$??1?$_Tidy_guard@V?$vector@IV?$allocator@I@std@@@std@@@std@@QEAA@XZ DQ 03002320600020601r ; 1.96423e-77
xdata	ENDS
;	COMDAT xdata
xdata	SEGMENT
$unwind$??__Eindices@@YAXXZ DQ 03002720600020601r ; 1.99122e-77
xdata	ENDS
;	COMDAT xdata
xdata	SEGMENT
$unwind$??__Findices@@YAXXZ DQ 00000420400010401r ; 3.58617e-310
xdata	ENDS
;	COMDAT xdata
xdata	SEGMENT
$unwind$??__Ebrushverts@@YAXXZ DQ 03002920600020601r ; 2.00471e-77
xdata	ENDS
;	COMDAT xdata
xdata	SEGMENT
$unwind$??__Fbrushverts@@YAXXZ DQ 00000420400010401r ; 3.58617e-310
xdata	ENDS
;	COMDAT xdata
xdata	SEGMENT
$unwind$?dtor$18@?0??Init@Primitive@@SAXXZ@4HA DQ 05002320600020601r ; 2.6336e+77
xdata	ENDS
;	COMDAT xdata
xdata	SEGMENT
$unwind$?dtor$12@?0??Init@Primitive@@SAXXZ@4HA DQ 05002320600020601r ; 2.6336e+77
xdata	ENDS
;	COMDAT xdata
xdata	SEGMENT
$unwind$?dtor$8@?0??Init@Primitive@@SAXXZ@4HA DQ 05002320600020601r ; 2.6336e+77
xdata	ENDS
;	COMDAT xdata
xdata	SEGMENT
$unwind$?dtor$4@?0??Init@Primitive@@SAXXZ@4HA DQ 05002320600020601r ; 2.6336e+77
xdata	ENDS
;	COMDAT xdata
xdata	SEGMENT
$ip2state$?Init@Primitive@@SAXXZ DQ 0045a023a0002811er ; 1.06754e-287
	DQ	0085a0652001e0222r		; 1.97047e-268
	DQ	0004a0a4c001e0622r		; 2.89707e-307
	DQ	00c38105600440c2cr		; 8.40249e-250
xdata	ENDS
;	COMDAT xdata
xdata	SEGMENT
$stateUnwindMap$?Init@Primitive@@SAXXZ DW 0e12H
	DD	imagerel ?dtor$4@?0??Init@Primitive@@SAXXZ@4HA
	DB	02cH
	DD	imagerel ??1?$vector@MV?$allocator@M@std@@@std@@QEAA@XZ
	DW	0461H
	DB	06eH
	DD	imagerel ?dtor$8@?0??Init@Primitive@@SAXXZ@4HA
	DB	02cH
	DD	imagerel ??1?$vector@MV?$allocator@M@std@@@std@@QEAA@XZ
	DW	0461H
	DB	0ceH
	DD	imagerel ?dtor$12@?0??Init@Primitive@@SAXXZ@4HA
	DB	0f6H
	DD	imagerel __std_terminate
	DD	025d0231H
	DD	imagerel ?dtor$18@?0??Init@Primitive@@SAXXZ@4HA
	DW	02b1H
xdata	ENDS
;	COMDAT xdata
xdata	SEGMENT
$cppxdata$?Init@Primitive@@SAXXZ DB 028H
	DD	imagerel $stateUnwindMap$?Init@Primitive@@SAXXZ
	DD	imagerel $ip2state$?Init@Primitive@@SAXXZ
xdata	ENDS
;	COMDAT xdata
xdata	SEGMENT
$unwind$?Init@Primitive@@SAXXZ DQ 0001e011000051011r ; 4.17259e-308
	DQ	00000500230037004r		; 4.34631e-310
	DD	imagerel __CxxFrameHandler4
	DD	imagerel $cppxdata$?Init@Primitive@@SAXXZ
xdata	ENDS
;	COMDAT xdata
xdata	SEGMENT
$unwind$?_Xlength@?$vector@MV?$allocator@M@std@@@std@@CAXXZ DQ 00000420400010401r ; 3.58617e-310
xdata	ENDS
;	COMDAT xdata
xdata	SEGMENT
$unwind$?_Tidy@?$vector@MV?$allocator@M@std@@@std@@AEAAXXZ DQ 03002320600020601r ; 1.96423e-77
xdata	ENDS
;	COMDAT xdata
xdata	SEGMENT
$unwind$??1?$vector@MV?$allocator@M@std@@@std@@QEAA@XZ DQ 03002320600020601r ; 1.96423e-77
xdata	ENDS
;	COMDAT xdata
xdata	SEGMENT
$unwind$?allocate@?$allocator@M@std@@QEAAPEAM_K@Z DQ 00000420400010401r ; 3.58617e-310
xdata	ENDS
;	COMDAT xdata
xdata	SEGMENT
$unwind$?deallocate@?$allocator@M@std@@QEAAXQEAM_K@Z DQ 00000420400010401r ; 3.58617e-310
xdata	ENDS
;	COMDAT xdata
xdata	SEGMENT
$unwind$??$_Copy_memmove@PEBMPEAM@std@@YAPEAMPEBM0PEAM@Z DQ 00009340a00040a01r ; 1.27987e-308
	DD	07006320aH
xdata	ENDS
;	COMDAT xdata
xdata	SEGMENT
$unwind$??$_Copy_memmove@PEBIPEAI@std@@YAPEAIPEBI0PEAI@Z DQ 00009340a00040a01r ; 1.27987e-308
	DD	07006320aH
xdata	ENDS
;	COMDAT xdata
xdata	SEGMENT
$unwind$?dtor$0@?0???$make_unique@VCanvasObject@@AEAV?$vector@IV?$allocator@I@std@@@std@@AEAV?$vector@MV?$allocator@M@std@@@3@$0A@@std@@YA?AV?$unique_ptr@VCanvasObject@@U?$default_delete@VCanvasObject@@@std@@@0@AEAV?$vector@IV?$allocator@I@std@@@0@AEAV?$vector@MV?$allocator@M@std@@@0@@Z@4HA DQ 05002320600020601r ; 2.6336e+77
xdata	ENDS
;	COMDAT xdata
xdata	SEGMENT
$ip2state$??$make_unique@VCanvasObject@@AEAV?$vector@IV?$allocator@I@std@@@std@@AEAV?$vector@MV?$allocator@M@std@@@3@$0A@@std@@YA?AV?$unique_ptr@VCanvasObject@@U?$default_delete@VCanvasObject@@@std@@@0@AEAV?$vector@IV?$allocator@I@std@@@0@AEAV?$vector@MV?$allocator@M@std@@@0@@Z DQ 01e04280262003e08r ; 4.37525e-164
	DB	02H
xdata	ENDS
;	COMDAT xdata
xdata	SEGMENT
$stateUnwindMap$??$make_unique@VCanvasObject@@AEAV?$vector@IV?$allocator@I@std@@@std@@AEAV?$vector@MV?$allocator@M@std@@@3@$0A@@std@@YA?AV?$unique_ptr@VCanvasObject@@U?$default_delete@VCanvasObject@@@std@@@0@AEAV?$vector@IV?$allocator@I@std@@@0@AEAV?$vector@MV?$allocator@M@std@@@0@@Z DW 0e04H
	DD	imagerel ?dtor$0@?0???$make_unique@VCanvasObject@@AEAV?$vector@IV?$allocator@I@std@@@std@@AEAV?$vector@MV?$allocator@M@std@@@3@$0A@@std@@YA?AV?$unique_ptr@VCanvasObject@@U?$default_delete@VCanvasObject@@@std@@@0@AEAV?$vector@IV?$allocator@I@std@@@0@AEAV?$vector@MV?$allocator@M@std@@@0@@Z@4HA
	DB	02cH
	DD	imagerel ??1?$vector@MV?$allocator@M@std@@@std@@QEAA@XZ
	DB	060H
xdata	ENDS
;	COMDAT xdata
xdata	SEGMENT
$cppxdata$??$make_unique@VCanvasObject@@AEAV?$vector@IV?$allocator@I@std@@@std@@AEAV?$vector@MV?$allocator@M@std@@@3@$0A@@std@@YA?AV?$unique_ptr@VCanvasObject@@U?$default_delete@VCanvasObject@@@std@@@0@AEAV?$vector@IV?$allocator@I@std@@@0@AEAV?$vector@MV?$allocator@M@std@@@0@@Z DB 028H
	DD	imagerel $stateUnwindMap$??$make_unique@VCanvasObject@@AEAV?$vector@IV?$allocator@I@std@@@std@@AEAV?$vector@MV?$allocator@M@std@@@3@$0A@@std@@YA?AV?$unique_ptr@VCanvasObject@@U?$default_delete@VCanvasObject@@@std@@@0@AEAV?$vector@IV?$allocator@I@std@@@0@AEAV?$vector@MV?$allocator@M@std@@@0@@Z
	DD	imagerel $ip2state$??$make_unique@VCanvasObject@@AEAV?$vector@IV?$allocator@I@std@@@std@@AEAV?$vector@MV?$allocator@M@std@@@3@$0A@@std@@YA?AV?$unique_ptr@VCanvasObject@@U?$default_delete@VCanvasObject@@@std@@@0@AEAV?$vector@IV?$allocator@I@std@@@0@AEAV?$vector@MV?$allocator@M@std@@@0@@Z
xdata	ENDS
;	COMDAT xdata
xdata	SEGMENT
$unwind$??$make_unique@VCanvasObject@@AEAV?$vector@IV?$allocator@I@std@@@std@@AEAV?$vector@MV?$allocator@M@std@@@3@$0A@@std@@YA?AV?$unique_ptr@VCanvasObject@@U?$default_delete@VCanvasObject@@@std@@@0@AEAV?$vector@IV?$allocator@I@std@@@0@AEAV?$vector@MV?$allocator@M@std@@@0@@Z DQ 00013640f00060f11r ; 2.69663e-308
	DQ	0700bd20f0011340fr		; 5.39899e+231
	DD	imagerel __CxxFrameHandler4
	DD	imagerel $cppxdata$??$make_unique@VCanvasObject@@AEAV?$vector@IV?$allocator@I@std@@@std@@AEAV?$vector@MV?$allocator@M@std@@@3@$0A@@std@@YA?AV?$unique_ptr@VCanvasObject@@U?$default_delete@VCanvasObject@@@std@@@0@AEAV?$vector@IV?$allocator@I@std@@@0@AEAV?$vector@MV?$allocator@M@std@@@0@@Z
xdata	ENDS
;	COMDAT xdata
xdata	SEGMENT
$unwind$??$?4U?$default_delete@VCanvasObject@@@std@@$0A@@?$unique_ptr@VCanvasObject@@U?$default_delete@VCanvasObject@@@std@@@std@@QEAAAEAV01@$$QEAV01@@Z DQ 03002320600020601r ; 1.96423e-77
xdata	ENDS
;	COMDAT xdata
xdata	SEGMENT
$unwind$?dtor$0@?0???$make_unique@VShader@@W4ShaderType@@W42@$0A@@std@@YA?AV?$unique_ptr@VShader@@U?$default_delete@VShader@@@std@@@0@$$QEAW4ShaderType@@0@Z@4HA DQ 05002320600020601r ; 2.6336e+77
xdata	ENDS
;	COMDAT xdata
xdata	SEGMENT
$ip2state$??$make_unique@VShader@@W4ShaderType@@W42@$0A@@std@@YA?AV?$unique_ptr@VShader@@U?$default_delete@VShader@@@std@@@0@$$QEAW4ShaderType@@0@Z DD 050003604H
	DB	02H
xdata	ENDS
;	COMDAT xdata
xdata	SEGMENT
$stateUnwindMap$??$make_unique@VShader@@W4ShaderType@@W42@$0A@@std@@YA?AV?$unique_ptr@VShader@@U?$default_delete@VShader@@@std@@@0@$$QEAW4ShaderType@@0@Z DW 0e02H
	DD	imagerel ?dtor$0@?0???$make_unique@VShader@@W4ShaderType@@W42@$0A@@std@@YA?AV?$unique_ptr@VShader@@U?$default_delete@VShader@@@std@@@0@$$QEAW4ShaderType@@0@Z@4HA
xdata	ENDS
;	COMDAT xdata
xdata	SEGMENT
$cppxdata$??$make_unique@VShader@@W4ShaderType@@W42@$0A@@std@@YA?AV?$unique_ptr@VShader@@U?$default_delete@VShader@@@std@@@0@$$QEAW4ShaderType@@0@Z DB 028H
	DD	imagerel $stateUnwindMap$??$make_unique@VShader@@W4ShaderType@@W42@$0A@@std@@YA?AV?$unique_ptr@VShader@@U?$default_delete@VShader@@@std@@@0@$$QEAW4ShaderType@@0@Z
	DD	imagerel $ip2state$??$make_unique@VShader@@W4ShaderType@@W42@$0A@@std@@YA?AV?$unique_ptr@VShader@@U?$default_delete@VShader@@@std@@@0@$$QEAW4ShaderType@@0@Z
xdata	ENDS
;	COMDAT xdata
xdata	SEGMENT
$unwind$??$make_unique@VShader@@W4ShaderType@@W42@$0A@@std@@YA?AV?$unique_ptr@VShader@@U?$default_delete@VShader@@@std@@@0@$$QEAW4ShaderType@@0@Z DQ 07004520800040811r ; 3.94348e+231
	DD	030026003H
	DD	imagerel __CxxFrameHandler4
	DD	imagerel $cppxdata$??$make_unique@VShader@@W4ShaderType@@W42@$0A@@std@@YA?AV?$unique_ptr@VShader@@U?$default_delete@VShader@@@std@@@0@$$QEAW4ShaderType@@0@Z
xdata	ENDS
;	COMDAT xdata
xdata	SEGMENT
$ip2state$??$?4U?$default_delete@VShader@@@std@@$0A@@?$unique_ptr@VShader@@U?$default_delete@VShader@@@std@@@std@@QEAAAEAV01@$$QEAV01@@Z DW 05402H
	DB	02H
xdata	ENDS
;	COMDAT xdata
xdata	SEGMENT
$stateUnwindMap$??$?4U?$default_delete@VShader@@@std@@$0A@@?$unique_ptr@VShader@@U?$default_delete@VShader@@@std@@@std@@QEAAAEAV01@$$QEAV01@@Z DW 0e02H
	DD	imagerel __std_terminate
xdata	ENDS
;	COMDAT xdata
xdata	SEGMENT
$cppxdata$??$?4U?$default_delete@VShader@@@std@@$0A@@?$unique_ptr@VShader@@U?$default_delete@VShader@@@std@@@std@@QEAAAEAV01@$$QEAV01@@Z DB 068H
	DD	imagerel $stateUnwindMap$??$?4U?$default_delete@VShader@@@std@@$0A@@?$unique_ptr@VShader@@U?$default_delete@VShader@@@std@@@std@@QEAAAEAV01@$$QEAV01@@Z
	DD	imagerel $ip2state$??$?4U?$default_delete@VShader@@@std@@$0A@@?$unique_ptr@VShader@@U?$default_delete@VShader@@@std@@@std@@QEAAAEAV01@$$QEAV01@@Z
xdata	ENDS
;	COMDAT xdata
xdata	SEGMENT
$unwind$??$?4U?$default_delete@VShader@@@std@@$0A@@?$unique_ptr@VShader@@U?$default_delete@VShader@@@std@@@std@@QEAAAEAV01@$$QEAV01@@Z DQ 00008340a00040a19r ; 1.14081e-308
	DD	07006320aH
	DD	imagerel __CxxFrameHandler4
	DD	imagerel $cppxdata$??$?4U?$default_delete@VShader@@@std@@$0A@@?$unique_ptr@VShader@@U?$default_delete@VShader@@@std@@@std@@QEAAAEAV01@$$QEAV01@@Z
xdata	ENDS
;	COMDAT xdata
xdata	SEGMENT
$ip2state$?reset@?$unique_ptr@VShader@@U?$default_delete@VShader@@@std@@@std@@QEAAXPEAVShader@@@Z DW 02802H
	DB	02H
xdata	ENDS
;	COMDAT xdata
xdata	SEGMENT
$stateUnwindMap$?reset@?$unique_ptr@VShader@@U?$default_delete@VShader@@@std@@@std@@QEAAXPEAVShader@@@Z DW 0e02H
	DD	imagerel __std_terminate
xdata	ENDS
;	COMDAT xdata
xdata	SEGMENT
$cppxdata$?reset@?$unique_ptr@VShader@@U?$default_delete@VShader@@@std@@@std@@QEAAXPEAVShader@@@Z DB 068H
	DD	imagerel $stateUnwindMap$?reset@?$unique_ptr@VShader@@U?$default_delete@VShader@@@std@@@std@@QEAAXPEAVShader@@@Z
	DD	imagerel $ip2state$?reset@?$unique_ptr@VShader@@U?$default_delete@VShader@@@std@@@std@@QEAAXPEAVShader@@@Z
xdata	ENDS
;	COMDAT xdata
xdata	SEGMENT
$unwind$?reset@?$unique_ptr@VShader@@U?$default_delete@VShader@@@std@@@std@@QEAAXPEAVShader@@@Z DQ 03002320600020619r ; 1.96423e-77
	DD	imagerel __CxxFrameHandler4
	DD	imagerel $cppxdata$?reset@?$unique_ptr@VShader@@U?$default_delete@VShader@@@std@@@std@@QEAAXPEAVShader@@@Z
xdata	ENDS
;	COMDAT xdata
xdata	SEGMENT
$chain$1$??0?$vector@MV?$allocator@M@std@@@std@@QEAA@AEBV01@@Z DD 021H
	DD	imagerel $LN70@vector
	DD	imagerel $LN70@vector+45
	DD	imagerel $unwind$??0?$vector@MV?$allocator@M@std@@@std@@QEAA@AEBV01@@Z
xdata	ENDS
;	COMDAT xdata
xdata	SEGMENT
$chain$0$??0?$vector@MV?$allocator@M@std@@@std@@QEAA@AEBV01@@Z DQ 00008740500020521r ; 1.17556e-308
	DD	imagerel $LN70@vector
	DD	imagerel $LN70@vector+45
	DD	imagerel $unwind$??0?$vector@MV?$allocator@M@std@@@std@@QEAA@AEBV01@@Z
xdata	ENDS
;	COMDAT xdata
xdata	SEGMENT
$unwind$??0?$vector@MV?$allocator@M@std@@@std@@QEAA@AEBV01@@Z DQ 00009340a00040a01r ; 1.27987e-308
	DD	06006320aH
xdata	ENDS
;	COMDAT xdata
xdata	SEGMENT
$chain$1$??0?$vector@IV?$allocator@I@std@@@std@@QEAA@AEBV01@@Z DD 021H
	DD	imagerel $LN71@vector
	DD	imagerel $LN71@vector+62
	DD	imagerel $unwind$??0?$vector@IV?$allocator@I@std@@@std@@QEAA@AEBV01@@Z
xdata	ENDS
;	COMDAT xdata
xdata	SEGMENT
$chain$0$??0?$vector@IV?$allocator@I@std@@@std@@QEAA@AEBV01@@Z DQ 0000a740500020521r ; 1.4537e-308
	DD	imagerel $LN71@vector
	DD	imagerel $LN71@vector+62
	DD	imagerel $unwind$??0?$vector@IV?$allocator@I@std@@@std@@QEAA@AEBV01@@Z
xdata	ENDS
;	COMDAT xdata
xdata	SEGMENT
$unwind$??0?$vector@IV?$allocator@I@std@@@std@@QEAA@AEBV01@@Z DQ 0e005320900040901r ; -3.55231e+154
	DD	030026003H
xdata	ENDS
;	COMDAT xdata
xdata	SEGMENT
$chain$1$??$_Construct_n@AEBQEAMAEBQEAM@?$vector@MV?$allocator@M@std@@@std@@AEAAX_KAEBQEAM1@Z DD 021H
	DD	imagerel $LN63@Construct_
	DD	imagerel $LN63@Construct_+16
	DD	imagerel $unwind$??$_Construct_n@AEBQEAMAEBQEAM@?$vector@MV?$allocator@M@std@@@std@@AEAAX_KAEBQEAM1@Z
xdata	ENDS
;	COMDAT xdata
xdata	SEGMENT
$chain$0$??$_Construct_n@AEBQEAMAEBQEAM@?$vector@MV?$allocator@M@std@@@std@@AEAAX_KAEBQEAM1@Z DQ 00005740500020521r ; 7.58361e-309
	DD	imagerel $LN63@Construct_
	DD	imagerel $LN63@Construct_+16
	DD	imagerel $unwind$??$_Construct_n@AEBQEAMAEBQEAM@?$vector@MV?$allocator@M@std@@@std@@AEAAX_KAEBQEAM1@Z
xdata	ENDS
;	COMDAT xdata
xdata	SEGMENT
$unwind$??$_Construct_n@AEBQEAMAEBQEAM@?$vector@MV?$allocator@M@std@@@std@@AEAAX_KAEBQEAM1@Z DQ 0e009520d00040d01r ; -4.24366e+154
	DD	030066007H
xdata	ENDS
;	COMDAT xdata
xdata	SEGMENT
$chain$1$??$_Construct_n@AEBQEAIAEBQEAI@?$vector@IV?$allocator@I@std@@@std@@AEAAX_KAEBQEAI1@Z DD 021H
	DD	imagerel $LN65@Construct_
	DD	imagerel $LN65@Construct_+42
	DD	imagerel $unwind$??$_Construct_n@AEBQEAIAEBQEAI@?$vector@IV?$allocator@I@std@@@std@@AEAAX_KAEBQEAI1@Z
xdata	ENDS
;	COMDAT xdata
xdata	SEGMENT
$chain$0$??$_Construct_n@AEBQEAIAEBQEAI@?$vector@IV?$allocator@I@std@@@std@@AEAAX_KAEBQEAI1@Z DQ 00004740500020521r ; 6.19294e-309
	DD	imagerel $LN65@Construct_
	DD	imagerel $LN65@Construct_+42
	DD	imagerel $unwind$??$_Construct_n@AEBQEAIAEBQEAI@?$vector@IV?$allocator@I@std@@@std@@AEAAX_KAEBQEAI1@Z
xdata	ENDS
;	COMDAT xdata
xdata	SEGMENT
$unwind$??$_Construct_n@AEBQEAIAEBQEAI@?$vector@IV?$allocator@I@std@@@std@@AEAAX_KAEBQEAI1@Z DQ 0f00b420f00050f01r ; -5.28983e+231
	DQ	0000030066007e009r		; 2.60886e-310
xdata	ENDS
;	COMDAT xdata
xdata	SEGMENT
$unwind$??$_Uninitialized_copy@PEAMPEAMV?$allocator@M@std@@@std@@YAPEAMPEAM00AEAV?$allocator@M@0@@Z DQ 00009340a00040a01r ; 1.27987e-308
	DD	07006320aH
xdata	ENDS
;	COMDAT xdata
xdata	SEGMENT
$unwind$??$_Uninitialized_copy@PEAIPEAIV?$allocator@I@std@@@std@@YAPEAIPEAI00AEAV?$allocator@I@0@@Z DQ 00009340a00040a01r ; 1.27987e-308
	DD	07006320aH
xdata	ENDS
;	COMDAT xdata
xdata	SEGMENT
$unwind$??$_Copy_memmove@PEAMPEAM@std@@YAPEAMPEAM00@Z DQ 00009340a00040a01r ; 1.27987e-308
	DD	07006320aH
?vertices$initializer$@@3P6AXXZEA DQ FLAT:??__Evertices@@YAXXZ ; vertices$initializer$
?indices$initializer$@@3P6AXXZEA DQ FLAT:??__Eindices@@YAXXZ ; indices$initializer$
?brushverts$initializer$@@3P6AXXZEA DQ FLAT:??__Ebrushverts@@YAXXZ ; brushverts$initializer$
END
