; Listing generated by Microsoft (R) Optimizing Compiler Version 19.36.32535.0 

include listing.inc

INCLUDELIB OLDNAMES

PUBLIC	??_C@_0BC@EOODALEL@Unknown?5exception@		; `string'
PUBLIC	??_C@_0BF@KINCDENJ@bad?5array?5new?5length@	; `string'
PUBLIC	??_C@_0BA@JFNIOLAK@string?5too?5long@		; `string'
PUBLIC	??_C@_05NCCFOPHA@model@				; `string'
PUBLIC	??_C@_04CHADEDPO@view@				; `string'
PUBLIC	??_C@_0L@PPHAJBEH@projection@			; `string'
PUBLIC	??_C@_05PEENBMOG@color@				; `string'
PUBLIC	??_R4exception@std@@6B@				; std::exception::`RTTI Complete Object Locator'
PUBLIC	??_R2bad_array_new_length@std@@8		; std::bad_array_new_length::`RTTI Base Class Array'
PUBLIC	??_R0?AVbad_alloc@std@@@8			; std::bad_alloc `RTTI Type Descriptor'
PUBLIC	??_R2bad_alloc@std@@8				; std::bad_alloc::`RTTI Base Class Array'
PUBLIC	_CTA3?AVbad_array_new_length@std@@
PUBLIC	??_7bad_array_new_length@std@@6B@		; std::bad_array_new_length::`vftable'
PUBLIC	??_R1A@?0A@EA@exception@std@@8			; std::exception::`RTTI Base Class Descriptor at (0,-1,0,64)'
PUBLIC	??_R1A@?0A@EA@bad_alloc@std@@8			; std::bad_alloc::`RTTI Base Class Descriptor at (0,-1,0,64)'
PUBLIC	??_7bad_alloc@std@@6B@				; std::bad_alloc::`vftable'
PUBLIC	??_R2exception@std@@8				; std::exception::`RTTI Base Class Array'
PUBLIC	?m_CanvasSize@CanvasData@@2U?$vec@$01M$0A@@glm@@A ; CanvasData::m_CanvasSize
PUBLIC	??_7exception@std@@6B@				; std::exception::`vftable'
PUBLIC	?CanvasPos@Mouse@Input@@2U?$vec@$02M$0A@@glm@@A	; Input::Mouse::CanvasPos
PUBLIC	??_R3exception@std@@8				; std::exception::`RTTI Class Hierarchy Descriptor'
PUBLIC	_CT??_R0?AVbad_array_new_length@std@@@8??0bad_array_new_length@std@@QEAA@AEBV01@@Z24
PUBLIC	?_Fake_alloc@std@@3U_Fake_allocator@1@B		; std::_Fake_alloc
PUBLIC	??_R4bad_alloc@std@@6B@				; std::bad_alloc::`RTTI Complete Object Locator'
PUBLIC	??_R3bad_array_new_length@std@@8		; std::bad_array_new_length::`RTTI Class Hierarchy Descriptor'
PUBLIC	_CT??_R0?AVbad_alloc@std@@@8??0bad_alloc@std@@QEAA@AEBV01@@Z24
PUBLIC	??_R3bad_alloc@std@@8				; std::bad_alloc::`RTTI Class Hierarchy Descriptor'
PUBLIC	??_R4bad_array_new_length@std@@6B@		; std::bad_array_new_length::`RTTI Complete Object Locator'
PUBLIC	??_R1A@?0A@EA@bad_array_new_length@std@@8	; std::bad_array_new_length::`RTTI Base Class Descriptor at (0,-1,0,64)'
PUBLIC	_CT??_R0?AVexception@std@@@8??0exception@std@@QEAA@AEBV01@@Z24
PUBLIC	_TI3?AVbad_array_new_length@std@@
PUBLIC	??_R0?AVexception@std@@@8			; std::exception `RTTI Type Descriptor'
PUBLIC	??_R0?AVbad_array_new_length@std@@@8		; std::bad_array_new_length `RTTI Type Descriptor'
EXTRN	__imp__invalid_parameter_noinfo_noreturn:PROC
EXTRN	??_7type_info@@6B@:BYTE				; type_info::`vftable'
EXTRN	??3@YAXPEAX_K@Z:PROC				; operator delete
EXTRN	??3@YAXPEAX@Z:PROC				; operator delete
EXTRN	atexit:PROC
EXTRN	__imp___std_exception_copy:PROC
EXTRN	__imp_?_Xlength_error@std@@YAXPEBD@Z:PROC
EXTRN	??2@YAPEAX_K@Z:PROC				; operator new
EXTRN	__imp___std_exception_destroy:PROC
;	COMDAT ?m_CanvasSize@CanvasData@@2U?$vec@$01M$0A@@glm@@A
_BSS	SEGMENT
?m_CanvasSize@CanvasData@@2U?$vec@$01M$0A@@glm@@A DQ 01H DUP (?) ; CanvasData::m_CanvasSize
_BSS	ENDS
;	COMDAT ?CanvasPos@Mouse@Input@@2U?$vec@$02M$0A@@glm@@A
_BSS	SEGMENT
?CanvasPos@Mouse@Input@@2U?$vec@$02M$0A@@glm@@A DB 0cH DUP (?) ; Input::Mouse::CanvasPos
_BSS	ENDS
;	COMDAT ??_R0?AVbad_array_new_length@std@@@8
data$r	SEGMENT
??_R0?AVbad_array_new_length@std@@@8 DQ FLAT:??_7type_info@@6B@ ; std::bad_array_new_length `RTTI Type Descriptor'
	DQ	0000000000000000H
	DB	'.?AVbad_array_new_length@std@@', 00H
data$r	ENDS
;	COMDAT ??_R0?AVexception@std@@@8
data$r	SEGMENT
??_R0?AVexception@std@@@8 DQ FLAT:??_7type_info@@6B@	; std::exception `RTTI Type Descriptor'
	DQ	0000000000000000H
	DB	'.?AVexception@std@@', 00H
data$r	ENDS
;	COMDAT _TI3?AVbad_array_new_length@std@@
xdata$x	SEGMENT
_TI3?AVbad_array_new_length@std@@ DD 00H
	DD	imagerel ??1bad_array_new_length@std@@UEAA@XZ
	DD	00H
	DD	imagerel _CTA3?AVbad_array_new_length@std@@
xdata$x	ENDS
;	COMDAT _CT??_R0?AVexception@std@@@8??0exception@std@@QEAA@AEBV01@@Z24
xdata$x	SEGMENT
_CT??_R0?AVexception@std@@@8??0exception@std@@QEAA@AEBV01@@Z24 DD 00H
	DD	imagerel ??_R0?AVexception@std@@@8
	DD	00H
	DD	0ffffffffH
	ORG $+4
	DD	018H
	DD	imagerel ??0exception@std@@QEAA@AEBV01@@Z
xdata$x	ENDS
;	COMDAT ??_R1A@?0A@EA@bad_array_new_length@std@@8
rdata$r	SEGMENT
??_R1A@?0A@EA@bad_array_new_length@std@@8 DD imagerel ??_R0?AVbad_array_new_length@std@@@8 ; std::bad_array_new_length::`RTTI Base Class Descriptor at (0,-1,0,64)'
	DD	02H
	DD	00H
	DD	0ffffffffH
	DD	00H
	DD	040H
	DD	imagerel ??_R3bad_array_new_length@std@@8
rdata$r	ENDS
;	COMDAT ??_R4bad_array_new_length@std@@6B@
rdata$r	SEGMENT
??_R4bad_array_new_length@std@@6B@ DD 01H		; std::bad_array_new_length::`RTTI Complete Object Locator'
	DD	00H
	DD	00H
	DD	imagerel ??_R0?AVbad_array_new_length@std@@@8
	DD	imagerel ??_R3bad_array_new_length@std@@8
	DD	imagerel ??_R4bad_array_new_length@std@@6B@
rdata$r	ENDS
;	COMDAT ??_R3bad_alloc@std@@8
rdata$r	SEGMENT
??_R3bad_alloc@std@@8 DD 00H				; std::bad_alloc::`RTTI Class Hierarchy Descriptor'
	DD	00H
	DD	02H
	DD	imagerel ??_R2bad_alloc@std@@8
rdata$r	ENDS
;	COMDAT _CT??_R0?AVbad_alloc@std@@@8??0bad_alloc@std@@QEAA@AEBV01@@Z24
xdata$x	SEGMENT
_CT??_R0?AVbad_alloc@std@@@8??0bad_alloc@std@@QEAA@AEBV01@@Z24 DD 010H
	DD	imagerel ??_R0?AVbad_alloc@std@@@8
	DD	00H
	DD	0ffffffffH
	ORG $+4
	DD	018H
	DD	imagerel ??0bad_alloc@std@@QEAA@AEBV01@@Z
xdata$x	ENDS
;	COMDAT ??_R3bad_array_new_length@std@@8
rdata$r	SEGMENT
??_R3bad_array_new_length@std@@8 DD 00H			; std::bad_array_new_length::`RTTI Class Hierarchy Descriptor'
	DD	00H
	DD	03H
	DD	imagerel ??_R2bad_array_new_length@std@@8
rdata$r	ENDS
;	COMDAT ??_R4bad_alloc@std@@6B@
rdata$r	SEGMENT
??_R4bad_alloc@std@@6B@ DD 01H				; std::bad_alloc::`RTTI Complete Object Locator'
	DD	00H
	DD	00H
	DD	imagerel ??_R0?AVbad_alloc@std@@@8
	DD	imagerel ??_R3bad_alloc@std@@8
	DD	imagerel ??_R4bad_alloc@std@@6B@
rdata$r	ENDS
;	COMDAT ?_Fake_alloc@std@@3U_Fake_allocator@1@B
CONST	SEGMENT
?_Fake_alloc@std@@3U_Fake_allocator@1@B	ORG $+1		; std::_Fake_alloc
CONST	ENDS
;	COMDAT _CT??_R0?AVbad_array_new_length@std@@@8??0bad_array_new_length@std@@QEAA@AEBV01@@Z24
xdata$x	SEGMENT
_CT??_R0?AVbad_array_new_length@std@@@8??0bad_array_new_length@std@@QEAA@AEBV01@@Z24 DD 00H
	DD	imagerel ??_R0?AVbad_array_new_length@std@@@8
	DD	00H
	DD	0ffffffffH
	ORG $+4
	DD	018H
	DD	imagerel ??0bad_array_new_length@std@@QEAA@AEBV01@@Z
xdata$x	ENDS
;	COMDAT ??_R3exception@std@@8
rdata$r	SEGMENT
??_R3exception@std@@8 DD 00H				; std::exception::`RTTI Class Hierarchy Descriptor'
	DD	00H
	DD	01H
	DD	imagerel ??_R2exception@std@@8
rdata$r	ENDS
;	COMDAT ??_7exception@std@@6B@
CONST	SEGMENT
??_7exception@std@@6B@ DQ FLAT:??_R4exception@std@@6B@	; std::exception::`vftable'
	DQ	FLAT:??_Eexception@std@@UEAAPEAXI@Z
	DQ	FLAT:?what@exception@std@@UEBAPEBDXZ
CONST	ENDS
;	COMDAT ??_R2exception@std@@8
rdata$r	SEGMENT
??_R2exception@std@@8 DD imagerel ??_R1A@?0A@EA@exception@std@@8 ; std::exception::`RTTI Base Class Array'
	ORG $+3
rdata$r	ENDS
;	COMDAT ??_7bad_alloc@std@@6B@
CONST	SEGMENT
??_7bad_alloc@std@@6B@ DQ FLAT:??_R4bad_alloc@std@@6B@	; std::bad_alloc::`vftable'
	DQ	FLAT:??_Ebad_alloc@std@@UEAAPEAXI@Z
	DQ	FLAT:?what@exception@std@@UEBAPEBDXZ
CONST	ENDS
;	COMDAT ??_R1A@?0A@EA@bad_alloc@std@@8
rdata$r	SEGMENT
??_R1A@?0A@EA@bad_alloc@std@@8 DD imagerel ??_R0?AVbad_alloc@std@@@8 ; std::bad_alloc::`RTTI Base Class Descriptor at (0,-1,0,64)'
	DD	01H
	DD	00H
	DD	0ffffffffH
	DD	00H
	DD	040H
	DD	imagerel ??_R3bad_alloc@std@@8
rdata$r	ENDS
;	COMDAT ??_R1A@?0A@EA@exception@std@@8
rdata$r	SEGMENT
??_R1A@?0A@EA@exception@std@@8 DD imagerel ??_R0?AVexception@std@@@8 ; std::exception::`RTTI Base Class Descriptor at (0,-1,0,64)'
	DD	00H
	DD	00H
	DD	0ffffffffH
	DD	00H
	DD	040H
	DD	imagerel ??_R3exception@std@@8
rdata$r	ENDS
;	COMDAT ??_7bad_array_new_length@std@@6B@
CONST	SEGMENT
??_7bad_array_new_length@std@@6B@ DQ FLAT:??_R4bad_array_new_length@std@@6B@ ; std::bad_array_new_length::`vftable'
	DQ	FLAT:??_Ebad_array_new_length@std@@UEAAPEAXI@Z
	DQ	FLAT:?what@exception@std@@UEBAPEBDXZ
CONST	ENDS
;	COMDAT _CTA3?AVbad_array_new_length@std@@
xdata$x	SEGMENT
_CTA3?AVbad_array_new_length@std@@ DD 03H
	DD	imagerel _CT??_R0?AVbad_array_new_length@std@@@8??0bad_array_new_length@std@@QEAA@AEBV01@@Z24
	DD	imagerel _CT??_R0?AVbad_alloc@std@@@8??0bad_alloc@std@@QEAA@AEBV01@@Z24
	DD	imagerel _CT??_R0?AVexception@std@@@8??0exception@std@@QEAA@AEBV01@@Z24
xdata$x	ENDS
;	COMDAT ??_R2bad_alloc@std@@8
rdata$r	SEGMENT
??_R2bad_alloc@std@@8 DD imagerel ??_R1A@?0A@EA@bad_alloc@std@@8 ; std::bad_alloc::`RTTI Base Class Array'
	DD	imagerel ??_R1A@?0A@EA@exception@std@@8
	ORG $+3
rdata$r	ENDS
;	COMDAT ??_R0?AVbad_alloc@std@@@8
data$r	SEGMENT
??_R0?AVbad_alloc@std@@@8 DQ FLAT:??_7type_info@@6B@	; std::bad_alloc `RTTI Type Descriptor'
	DQ	0000000000000000H
	DB	'.?AVbad_alloc@std@@', 00H
data$r	ENDS
;	COMDAT ??_R2bad_array_new_length@std@@8
rdata$r	SEGMENT
??_R2bad_array_new_length@std@@8 DD imagerel ??_R1A@?0A@EA@bad_array_new_length@std@@8 ; std::bad_array_new_length::`RTTI Base Class Array'
	DD	imagerel ??_R1A@?0A@EA@bad_alloc@std@@8
	DD	imagerel ??_R1A@?0A@EA@exception@std@@8
	ORG $+3
rdata$r	ENDS
;	COMDAT ??_R4exception@std@@6B@
rdata$r	SEGMENT
??_R4exception@std@@6B@ DD 01H				; std::exception::`RTTI Complete Object Locator'
	DD	00H
	DD	00H
	DD	imagerel ??_R0?AVexception@std@@@8
	DD	imagerel ??_R3exception@std@@8
	DD	imagerel ??_R4exception@std@@6B@
rdata$r	ENDS
;	COMDAT ??_C@_05PEENBMOG@color@
CONST	SEGMENT
??_C@_05PEENBMOG@color@ DB 'color', 00H			; `string'
CONST	ENDS
;	COMDAT ??_C@_0L@PPHAJBEH@projection@
CONST	SEGMENT
??_C@_0L@PPHAJBEH@projection@ DB 'projection', 00H	; `string'
CONST	ENDS
;	COMDAT ??_C@_04CHADEDPO@view@
CONST	SEGMENT
??_C@_04CHADEDPO@view@ DB 'view', 00H			; `string'
CONST	ENDS
;	COMDAT ??_C@_05NCCFOPHA@model@
CONST	SEGMENT
??_C@_05NCCFOPHA@model@ DB 'model', 00H			; `string'
CONST	ENDS
;	COMDAT ??_C@_0BA@JFNIOLAK@string?5too?5long@
CONST	SEGMENT
??_C@_0BA@JFNIOLAK@string?5too?5long@ DB 'string too long', 00H ; `string'
CONST	ENDS
;	COMDAT ??_C@_0BF@KINCDENJ@bad?5array?5new?5length@
CONST	SEGMENT
??_C@_0BF@KINCDENJ@bad?5array?5new?5length@ DB 'bad array new length', 00H ; `string'
CONST	ENDS
;	COMDAT ??_C@_0BC@EOODALEL@Unknown?5exception@
CONST	SEGMENT
??_C@_0BC@EOODALEL@Unknown?5exception@ DB 'Unknown exception', 00H ; `string'
PUBLIC	?call@?$compute_vec4_add@M$0A@$0A@@detail@glm@@SA?AU?$vec@$03M$0A@@3@AEBU43@0@Z ; glm::detail::compute_vec4_add<float,0,0>::call
PUBLIC	??$construct_at@PEADAEBQEAD$0A@@std@@YAPEAPEADQEAPEADAEBQEAD@Z ; std::construct_at<char *,char * const &,0>
PUBLIC	??$forward@AEBQEAD@std@@YAAEBQEADAEBQEAD@Z	; std::forward<char * const &>
PUBLIC	??$?YM@?$vec@$03M$0A@@glm@@QEAAAEAU01@AEBU01@@Z	; glm::vec<4,float,0>::operator+=<float>
PUBLIC	?call@?$compute_vec4_mul@M$0A@$0A@@detail@glm@@SA?AU?$vec@$03M$0A@@3@AEBU43@0@Z ; glm::detail::compute_vec4_mul<float,0,0>::call
PUBLIC	??$construct_at@D$$V$0A@@std@@YAPEADQEAD@Z	; std::construct_at<char,0>
PUBLIC	??$_Get_size_of_n@$00@std@@YA_K_K@Z		; std::_Get_size_of_n<1>
PUBLIC	??$_Allocate_manually_vector_aligned@U_Default_allocate_traits@std@@@std@@YAPEAX_K@Z ; std::_Allocate_manually_vector_aligned<std::_Default_allocate_traits>
PUBLIC	??$move@AEAPEAV_Ref_count_base@std@@@std@@YA$$QEAPEAV_Ref_count_base@0@AEAPEAV10@@Z ; std::move<std::_Ref_count_base * &>
PUBLIC	??$move@AEAPEAVLayer@@@std@@YA$$QEAPEAVLayer@@AEAPEAV1@@Z ; std::move<Layer * &>
PUBLIC	??$_Voidify_iter@PEAPEAD@std@@YAPEAXPEAPEAD@Z	; std::_Voidify_iter<char * *>
PUBLIC	??$addressof@PEAD@std@@YAPEAPEADAEAPEAD@Z	; std::addressof<char *>
PUBLIC	??$_Construct_in_place@PEADAEBQEAD@std@@YAXAEAPEADAEBQEAD@Z ; std::_Construct_in_place<char *,char * const &>
PUBLIC	??$?HM$0A@@glm@@YA?AU?$vec@$03M$0A@@0@AEBU10@0@Z ; glm::operator+<float,0>
PUBLIC	??$?XM@?$vec@$03M$0A@@glm@@QEAAAEAU01@M@Z	; glm::vec<4,float,0>::operator*=<float>
PUBLIC	??$?0HHHM@?$vec@$03M$0A@@glm@@QEAA@HHHM@Z	; glm::vec<4,float,0>::vec<4,float,0><int,int,int,float>
PUBLIC	??$?0HHMH@?$vec@$03M$0A@@glm@@QEAA@HHMH@Z	; glm::vec<4,float,0>::vec<4,float,0><int,int,float,int>
PUBLIC	??$?0HMHH@?$vec@$03M$0A@@glm@@QEAA@HMHH@Z	; glm::vec<4,float,0>::vec<4,float,0><int,float,int,int>
PUBLIC	??$?0MHHH@?$vec@$03M$0A@@glm@@QEAA@MHHH@Z	; glm::vec<4,float,0>::vec<4,float,0><float,int,int,int>
PUBLIC	??$forward@AEBD@std@@YAAEBDAEBD@Z		; std::forward<char const &>
PUBLIC	??$_Voidify_iter@PEAD@std@@YAPEAXPEAD@Z		; std::_Voidify_iter<char *>
PUBLIC	??A?$mat@$03$03M$0A@@glm@@QEAAAEAU?$vec@$03M$0A@@1@H@Z ; glm::mat<4,4,float,0>::operator[]
PUBLIC	??A?$mat@$03$03M$0A@@glm@@QEBAAEBU?$vec@$03M$0A@@1@H@Z ; glm::mat<4,4,float,0>::operator[]
PUBLIC	??0?$vec@$03M$0A@@glm@@QEAA@M@Z			; glm::vec<4,float,0>::vec<4,float,0>
PUBLIC	??A?$vec@$03M$0A@@glm@@QEAAAEAMH@Z		; glm::vec<4,float,0>::operator[]
PUBLIC	??A?$vec@$02M$0A@@glm@@QEBAAEBMH@Z		; glm::vec<3,float,0>::operator[]
PUBLIC	?max_size@?$_Default_allocator_traits@V?$allocator@D@std@@@std@@SA_KAEBV?$allocator@D@2@@Z ; std::_Default_allocator_traits<std::allocator<char> >::max_size
PUBLIC	??0_Bxty@?$_String_val@U?$_Simple_types@D@std@@@std@@QEAA@XZ ; std::_String_val<std::_Simple_types<char> >::_Bxty::_Bxty
PUBLIC	?_Calculate_growth@?$basic_string@DU?$char_traits@D@std@@V?$allocator@D@2@@std@@CA_K_K00@Z ; std::basic_string<char,std::char_traits<char>,std::allocator<char> >::_Calculate_growth
PUBLIC	??0?$allocator@D@std@@QEAA@XZ			; std::allocator<char>::allocator<char>
PUBLIC	?allocate@?$allocator@D@std@@QEAAPEAD_K@Z	; std::allocator<char>::allocate
PUBLIC	??0?$_String_val@U?$_Simple_types@D@std@@@std@@QEAA@XZ ; std::_String_val<std::_Simple_types<char> >::_String_val<std::_Simple_types<char> >
PUBLIC	?_Start_element_lifetimes@?$basic_string@DU?$char_traits@D@std@@V?$allocator@D@2@@std@@CAXQEAD_K@Z ; std::basic_string<char,std::char_traits<char>,std::allocator<char> >::_Start_element_lifetimes
PUBLIC	?max_size@?$basic_string@DU?$char_traits@D@std@@V?$allocator@D@2@@std@@QEBA_KXZ ; std::basic_string<char,std::char_traits<char>,std::allocator<char> >::max_size
PUBLIC	?_Calculate_growth@?$basic_string@DU?$char_traits@D@std@@V?$allocator@D@2@@std@@AEBA_K_K@Z ; std::basic_string<char,std::char_traits<char>,std::allocator<char> >::_Calculate_growth
PUBLIC	?_Incref@?$_Ptr_base@VLayer@@@std@@IEBAXXZ	; std::_Ptr_base<Layer>::_Incref
PUBLIC	?call@?$compute_equal@M$00@detail@glm@@SA_NMM@Z	; glm::detail::compute_equal<float,1>::call
PUBLIC	??$construct_at@DAEBD$0A@@std@@YAPEADQEADAEBD@Z	; std::construct_at<char,char const &,0>
PUBLIC	??$addressof@D@std@@YAPEADAEAD@Z		; std::addressof<char>
PUBLIC	??$_Allocate@$0BA@U_Default_allocate_traits@std@@$0A@@std@@YAPEAX_K@Z ; std::_Allocate<16,std::_Default_allocate_traits,0>
PUBLIC	??$_Deallocate@$0BA@$0A@@std@@YAXPEAX_K@Z	; std::_Deallocate<16,0>
PUBLIC	??$swap@PEAV_Ref_count_base@std@@$0A@@std@@YAXAEAPEAV_Ref_count_base@0@0@Z ; std::swap<std::_Ref_count_base *,0>
PUBLIC	??$swap@PEAVLayer@@$0A@@std@@YAXAEAPEAVLayer@@0@Z ; std::swap<Layer *,0>
PUBLIC	??$_Destroy_in_place@PEAD@std@@YAXAEAPEAD@Z	; std::_Destroy_in_place<char *>
PUBLIC	??$_Copy_construct_from@VLayer@@@?$_Ptr_base@VLayer@@@std@@IEAAXAEBV?$shared_ptr@VLayer@@@1@@Z ; std::_Ptr_base<Layer>::_Copy_construct_from<Layer>
PUBLIC	??$_Construct@$00PEBD@?$basic_string@DU?$char_traits@D@std@@V?$allocator@D@2@@std@@AEAAXQEBD_K@Z ; std::basic_string<char,std::char_traits<char>,std::allocator<char> >::_Construct<1,char const *>
PUBLIC	??$?0$$V@?$_Compressed_pair@V?$allocator@D@std@@V?$_String_val@U?$_Simple_types@D@std@@@2@$00@std@@QEAA@U_Zero_then_variadic_args_t@1@@Z ; std::_Compressed_pair<std::allocator<char>,std::_String_val<std::_Simple_types<char> >,1>::_Compressed_pair<std::allocator<char>,std::_String_val<std::_Simple_types<char> >,1><>
PUBLIC	??$_Convert_size@_K_K@std@@YA_K_K@Z		; std::_Convert_size<unsigned __int64,unsigned __int64>
PUBLIC	??$min@_K@std@@YAAEB_KAEB_K0@Z			; std::min<unsigned __int64>
PUBLIC	??$_Unfancy@D@std@@YAPEADPEAD@Z			; std::_Unfancy<char>
PUBLIC	??$ortho@M@glm@@YA?AU?$mat@$03$03M$0A@@0@MMMM@Z	; glm::ortho<float>
PUBLIC	??$?0HHH@?$vec@$02M$0A@@glm@@QEAA@HHH@Z		; glm::vec<3,float,0>::vec<3,float,0><int,int,int>
PUBLIC	??$scale@M$0A@@glm@@YA?AU?$mat@$03$03M$0A@@0@AEBU10@AEBU?$vec@$02M$0A@@0@@Z ; glm::scale<float,0>
PUBLIC	??$?0MMH@?$vec@$02M$0A@@glm@@QEAA@MMH@Z		; glm::vec<3,float,0>::vec<3,float,0><float,float,int>
PUBLIC	??$translate@M$0A@@glm@@YA?AU?$mat@$03$03M$0A@@0@AEBU10@AEBU?$vec@$02M$0A@@0@@Z ; glm::translate<float,0>
PUBLIC	??$?8M$0A@@glm@@YA_NAEBU?$vec@$01M$0A@@0@0@Z	; glm::operator==<float,0>
PUBLIC	??$?0M$0A@@?$vec@$01M$0A@@glm@@QEAA@AEBU?$vec@$02M$0A@@1@@Z ; glm::vec<2,float,0>::vec<2,float,0><float,0>
PUBLIC	??$?DM$0A@@glm@@YA?AU?$vec@$03M$0A@@0@AEBU10@AEBM@Z ; glm::operator*<float,0>
PUBLIC	??0?$mat@$03$03M$0A@@glm@@QEAA@AEBM@Z		; glm::mat<4,4,float,0>::mat<4,4,float,0>
PUBLIC	??0?$vec@$03M$0A@@glm@@QEAA@MMMM@Z		; glm::vec<4,float,0>::vec<4,float,0>
PUBLIC	??0?$vec@$02M$0A@@glm@@QEAA@MMM@Z		; glm::vec<3,float,0>::vec<3,float,0>
PUBLIC	?assign@?$_Char_traits@DH@std@@SAXAEADAEBD@Z	; std::_Char_traits<char,int>::assign
PUBLIC	?assign@?$_Narrow_char_traits@DH@std@@SAXAEADAEBD@Z ; std::_Narrow_char_traits<char,int>::assign
PUBLIC	?deallocate@?$allocator@D@std@@QEAAXQEAD_K@Z	; std::allocator<char>::deallocate
PUBLIC	?_Activate_SSO_buffer@?$_String_val@U?$_Simple_types@D@std@@@std@@QEAAXXZ ; std::_String_val<std::_Simple_types<char> >::_Activate_SSO_buffer
PUBLIC	?_Get_first@?$_Compressed_pair@V?$allocator@D@std@@V?$_String_val@U?$_Simple_types@D@std@@@2@$00@std@@QEAAAEAV?$allocator@D@2@XZ ; std::_Compressed_pair<std::allocator<char>,std::_String_val<std::_Simple_types<char> >,1>::_Get_first
PUBLIC	?_Get_first@?$_Compressed_pair@V?$allocator@D@std@@V?$_String_val@U?$_Simple_types@D@std@@@2@$00@std@@QEBAAEBV?$allocator@D@2@XZ ; std::_Compressed_pair<std::allocator<char>,std::_String_val<std::_Simple_types<char> >,1>::_Get_first
PUBLIC	??$max@_K@std@@YAAEB_KAEB_K0@Z			; std::max<unsigned __int64>
PUBLIC	?_Swap@?$_Ptr_base@VLayer@@@std@@IEAAXAEAV12@@Z	; std::_Ptr_base<Layer>::_Swap
PUBLIC	??_GCanvasObject@@QEAAPEAXI@Z			; CanvasObject::`scalar deleting destructor'
PUBLIC	??_GShader@@QEAAPEAXI@Z				; Shader::`scalar deleting destructor'
PUBLIC	?copy@?$_Char_traits@DH@std@@SAPEADQEADQEBD_K@Z	; std::_Char_traits<char,int>::copy
PUBLIC	?length@?$_Narrow_char_traits@DH@std@@SA_KQEBD@Z ; std::_Narrow_char_traits<char,int>::length
PUBLIC	??1_Bxty@?$_String_val@U?$_Simple_types@D@std@@@std@@QEAA@XZ ; std::_String_val<std::_Simple_types<char> >::_Bxty::~_Bxty
PUBLIC	?_Tidy_deallocate@?$basic_string@DU?$char_traits@D@std@@V?$allocator@D@2@@std@@AEAAXXZ ; std::basic_string<char,std::char_traits<char>,std::allocator<char> >::_Tidy_deallocate
PUBLIC	?_Getal@?$basic_string@DU?$char_traits@D@std@@V?$allocator@D@2@@std@@AEAAAEAV?$allocator@D@2@XZ ; std::basic_string<char,std::char_traits<char>,std::allocator<char> >::_Getal
PUBLIC	?_Getal@?$basic_string@DU?$char_traits@D@std@@V?$allocator@D@2@@std@@AEBAAEBV?$allocator@D@2@XZ ; std::basic_string<char,std::char_traits<char>,std::allocator<char> >::_Getal
PUBLIC	??R?$default_delete@VCanvasObject@@@std@@QEBAXPEAVCanvasObject@@@Z ; std::default_delete<CanvasObject>::operator()
PUBLIC	?_Get_first@?$_Compressed_pair@U?$default_delete@VCanvasObject@@@std@@PEAVCanvasObject@@$00@std@@QEAAAEAU?$default_delete@VCanvasObject@@@2@XZ ; std::_Compressed_pair<std::default_delete<CanvasObject>,CanvasObject *,1>::_Get_first
PUBLIC	??R?$default_delete@VShader@@@std@@QEBAXPEAVShader@@@Z ; std::default_delete<Shader>::operator()
PUBLIC	?_Get_first@?$_Compressed_pair@U?$default_delete@VShader@@@std@@PEAVShader@@$00@std@@QEAAAEAU?$default_delete@VShader@@@2@XZ ; std::_Compressed_pair<std::default_delete<Shader>,Shader *,1>::_Get_first
PUBLIC	??0?$shared_ptr@VLayer@@@std@@QEAA@AEBV01@@Z	; std::shared_ptr<Layer>::shared_ptr<Layer>
PUBLIC	?swap@?$shared_ptr@VLayer@@@std@@QEAAXAEAV12@@Z	; std::shared_ptr<Layer>::swap
PUBLIC	??0?$basic_string@DU?$char_traits@D@std@@V?$allocator@D@2@@std@@QEAA@QEBD@Z ; std::basic_string<char,std::char_traits<char>,std::allocator<char> >::basic_string<char,std::char_traits<char>,std::allocator<char> >
PUBLIC	??1?$_String_val@U?$_Simple_types@D@std@@@std@@QEAA@XZ ; std::_String_val<std::_Simple_types<char> >::~_String_val<std::_Simple_types<char> >
PUBLIC	??1?$_Compressed_pair@V?$allocator@D@std@@V?$_String_val@U?$_Simple_types@D@std@@@2@$00@std@@QEAA@XZ ; std::_Compressed_pair<std::allocator<char>,std::_String_val<std::_Simple_types<char> >,1>::~_Compressed_pair<std::allocator<char>,std::_String_val<std::_Simple_types<char> >,1>
PUBLIC	??1?$basic_string@DU?$char_traits@D@std@@V?$allocator@D@2@@std@@QEAA@XZ ; std::basic_string<char,std::char_traits<char>,std::allocator<char> >::~basic_string<char,std::char_traits<char>,std::allocator<char> >
PUBLIC	?_Large_string_engaged@?$_String_val@U?$_Simple_types@D@std@@@std@@QEBA_NXZ ; std::_String_val<std::_Simple_types<char> >::_Large_string_engaged
PUBLIC	??1?$unique_ptr@VCanvasObject@@U?$default_delete@VCanvasObject@@@std@@@std@@QEAA@XZ ; std::unique_ptr<CanvasObject,std::default_delete<CanvasObject> >::~unique_ptr<CanvasObject,std::default_delete<CanvasObject> >
PUBLIC	??C?$unique_ptr@VCanvasObject@@U?$default_delete@VCanvasObject@@@std@@@std@@QEBAPEAVCanvasObject@@XZ ; std::unique_ptr<CanvasObject,std::default_delete<CanvasObject> >::operator->
PUBLIC	??1?$unique_ptr@VShader@@U?$default_delete@VShader@@@std@@@std@@QEAA@XZ ; std::unique_ptr<Shader,std::default_delete<Shader> >::~unique_ptr<Shader,std::default_delete<Shader> >
PUBLIC	??C?$unique_ptr@VShader@@U?$default_delete@VShader@@@std@@@std@@QEBAPEAVShader@@XZ ; std::unique_ptr<Shader,std::default_delete<Shader> >::operator->
PUBLIC	??4?$shared_ptr@VLayer@@@std@@QEAAAEAV01@AEBV01@@Z ; std::shared_ptr<Layer>::operator=
PUBLIC	??B?$shared_ptr@VLayer@@@std@@QEBA_NXZ		; std::shared_ptr<Layer>::operator bool
PUBLIC	?DrawRectangularSelect@RectangularSelect@@QEAAXXZ ; RectangularSelect::DrawRectangularSelect
PUBLIC	?RectangularSelectStep@RectangularSelect@@QEAAXV?$shared_ptr@VLayer@@@std@@@Z ; RectangularSelect::RectangularSelectStep
PUBLIC	??1RectangularSelect@@QEAA@XZ			; RectangularSelect::~RectangularSelect
PUBLIC	??0?$_Ptr_base@VLayer@@@std@@IEAA@XZ		; std::_Ptr_base<Layer>::_Ptr_base<Layer>
PUBLIC	??0?$shared_ptr@VLayer@@@std@@QEAA@XZ		; std::shared_ptr<Layer>::shared_ptr<Layer>
PUBLIC	??0RectangularSelect@@QEAA@XZ			; RectangularSelect::RectangularSelect
PUBLIC	??_H@YAXPEAX_K1P6APEAX0@Z@Z			; `vector constructor iterator'
PUBLIC	?_Xlen_string@std@@YAXXZ			; std::_Xlen_string
PUBLIC	?_Incref@_Ref_count_base@std@@QEAAXXZ		; std::_Ref_count_base::_Incref
PUBLIC	?_Release@_Fake_proxy_ptr_impl@std@@QEAAXXZ	; std::_Fake_proxy_ptr_impl::_Release
PUBLIC	??0_Fake_proxy_ptr_impl@std@@QEAA@AEBU_Fake_allocator@1@AEBU_Container_base0@1@@Z ; std::_Fake_proxy_ptr_impl::_Fake_proxy_ptr_impl
PUBLIC	?_Orphan_all@_Container_base0@std@@QEAAXXZ	; std::_Container_base0::_Orphan_all
PUBLIC	?_Adjust_manually_vector_aligned@std@@YAXAEAPEAXAEA_K@Z ; std::_Adjust_manually_vector_aligned
PUBLIC	?_Allocate@_Default_allocate_traits@std@@SAPEAX_K@Z ; std::_Default_allocate_traits::_Allocate
PUBLIC	?max@?$numeric_limits@_J@std@@SA_JXZ		; std::numeric_limits<__int64>::max
PUBLIC	??0bad_alloc@std@@QEAA@AEBV01@@Z		; std::bad_alloc::bad_alloc
PUBLIC	??0bad_array_new_length@std@@QEAA@AEBV01@@Z	; std::bad_array_new_length::bad_array_new_length
PUBLIC	?_Throw_bad_array_new_length@std@@YAXXZ		; std::_Throw_bad_array_new_length
PUBLIC	??1bad_array_new_length@std@@UEAA@XZ		; std::bad_array_new_length::~bad_array_new_length
PUBLIC	??_Gbad_array_new_length@std@@UEAAPEAXI@Z	; std::bad_array_new_length::`scalar deleting destructor'
PUBLIC	??0bad_array_new_length@std@@QEAA@XZ		; std::bad_array_new_length::bad_array_new_length
PUBLIC	??1bad_alloc@std@@UEAA@XZ			; std::bad_alloc::~bad_alloc
PUBLIC	??_Gbad_alloc@std@@UEAAPEAXI@Z			; std::bad_alloc::`scalar deleting destructor'
PUBLIC	??0bad_alloc@std@@AEAA@QEBD@Z			; std::bad_alloc::bad_alloc
PUBLIC	??_Gexception@std@@UEAAPEAXI@Z			; std::exception::`scalar deleting destructor'
PUBLIC	?what@exception@std@@UEBAPEBDXZ			; std::exception::what
PUBLIC	??1exception@std@@UEAA@XZ			; std::exception::~exception
PUBLIC	??0exception@std@@QEAA@AEBV01@@Z		; std::exception::exception
PUBLIC	??0exception@std@@QEAA@QEBDH@Z			; std::exception::exception
PUBLIC	?is_constant_evaluated@std@@YA_NXZ		; std::is_constant_evaluated
PUBLIC	??2@YAPEAX_KPEAX@Z				; operator new
PUBLIC	?m_CanvasObject@Primitive@@2V?$unique_ptr@VCanvasObject@@U?$default_delete@VCanvasObject@@@std@@@std@@A ; Primitive::m_CanvasObject
PUBLIC	?m_RectShader@Primitive@@2V?$unique_ptr@VShader@@U?$default_delete@VShader@@@std@@@std@@A ; Primitive::m_RectShader
PUBLIC	?m_CanvasShader@Primitive@@2V?$unique_ptr@VShader@@U?$default_delete@VShader@@@std@@@std@@A ; Primitive::m_CanvasShader
PUBLIC	?m_BrushObject@Primitive@@2V?$unique_ptr@VCanvasObject@@U?$default_delete@VCanvasObject@@@std@@@std@@A ; Primitive::m_BrushObject
EXTRN	??_Eexception@std@@UEAAPEAXI@Z:PROC		; std::exception::`vector deleting destructor'
EXTRN	??_Ebad_alloc@std@@UEAAPEAXI@Z:PROC		; std::bad_alloc::`vector deleting destructor'
EXTRN	??_Ebad_array_new_length@std@@UEAAPEAXI@Z:PROC	; std::bad_array_new_length::`vector deleting destructor'
;	COMDAT pdata
pdata	SEGMENT
$pdata$??$_Allocate_manually_vector_aligned@U_Default_allocate_traits@std@@@std@@YAPEAX_K@Z DD imagerel $LN17@Allocate_m
	DD	imagerel $LN17@Allocate_m+59
	DD	imagerel $unwind$??$_Allocate_manually_vector_aligned@U_Default_allocate_traits@std@@@std@@YAPEAX_K@Z
pdata	ENDS
;	COMDAT pdata
pdata	SEGMENT
$pdata$?allocate@?$allocator@D@std@@QEAAPEAD_K@Z DD imagerel $LN28@allocate
	DD	imagerel $LN28@allocate+89
	DD	imagerel $unwind$?allocate@?$allocator@D@std@@QEAAPEAD_K@Z
pdata	ENDS
;	COMDAT pdata
pdata	SEGMENT
$pdata$??$_Allocate@$0BA@U_Default_allocate_traits@std@@$0A@@std@@YAPEAX_K@Z DD imagerel $LN25@Allocate
	DD	imagerel $LN25@Allocate+89
	DD	imagerel $unwind$??$_Allocate@$0BA@U_Default_allocate_traits@std@@$0A@@std@@YAPEAX_K@Z
pdata	ENDS
;	COMDAT pdata
pdata	SEGMENT
$pdata$??$_Deallocate@$0BA@$0A@@std@@YAXPEAX_K@Z DD imagerel $LN20@Deallocate
	DD	imagerel $LN20@Deallocate+53
	DD	imagerel $unwind$??$_Deallocate@$0BA@$0A@@std@@YAXPEAX_K@Z
pdata	ENDS
;	COMDAT pdata
pdata	SEGMENT
$pdata$??$_Construct@$00PEBD@?$basic_string@DU?$char_traits@D@std@@V?$allocator@D@2@@std@@AEAAXQEBD_K@Z DD imagerel $LN76@Construct
	DD	imagerel $LN76@Construct+79
	DD	imagerel $unwind$??$_Construct@$00PEBD@?$basic_string@DU?$char_traits@D@std@@V?$allocator@D@2@@std@@AEAAXQEBD_K@Z
pdata	ENDS
;	COMDAT pdata
pdata	SEGMENT
$pdata$0$??$_Construct@$00PEBD@?$basic_string@DU?$char_traits@D@std@@V?$allocator@D@2@@std@@AEAAXQEBD_K@Z DD imagerel $LN76@Construct+79
	DD	imagerel $LN76@Construct+241
	DD	imagerel $chain$0$??$_Construct@$00PEBD@?$basic_string@DU?$char_traits@D@std@@V?$allocator@D@2@@std@@AEAAXQEBD_K@Z
pdata	ENDS
;	COMDAT pdata
pdata	SEGMENT
$pdata$1$??$_Construct@$00PEBD@?$basic_string@DU?$char_traits@D@std@@V?$allocator@D@2@@std@@AEAAXQEBD_K@Z DD imagerel $LN76@Construct+241
	DD	imagerel $LN76@Construct+247
	DD	imagerel $chain$1$??$_Construct@$00PEBD@?$basic_string@DU?$char_traits@D@std@@V?$allocator@D@2@@std@@AEAAXQEBD_K@Z
pdata	ENDS
;	COMDAT pdata
pdata	SEGMENT
$pdata$2$??$_Construct@$00PEBD@?$basic_string@DU?$char_traits@D@std@@V?$allocator@D@2@@std@@AEAAXQEBD_K@Z DD imagerel $LN76@Construct+247
	DD	imagerel $LN76@Construct+253
	DD	imagerel $chain$2$??$_Construct@$00PEBD@?$basic_string@DU?$char_traits@D@std@@V?$allocator@D@2@@std@@AEAAXQEBD_K@Z
pdata	ENDS
;	COMDAT pdata
pdata	SEGMENT
$pdata$??$ortho@M@glm@@YA?AU?$mat@$03$03M$0A@@0@MMMM@Z DD imagerel $LN69@ortho
	DD	imagerel $LN69@ortho+178
	DD	imagerel $unwind$??$ortho@M@glm@@YA?AU?$mat@$03$03M$0A@@0@MMMM@Z
pdata	ENDS
;	COMDAT pdata
pdata	SEGMENT
$pdata$??$scale@M$0A@@glm@@YA?AU?$mat@$03$03M$0A@@0@AEBU10@AEBU?$vec@$02M$0A@@0@@Z DD imagerel $LN98@scale
	DD	imagerel $LN98@scale+282
	DD	imagerel $unwind$??$scale@M$0A@@glm@@YA?AU?$mat@$03$03M$0A@@0@AEBU10@AEBU?$vec@$02M$0A@@0@@Z
pdata	ENDS
;	COMDAT pdata
pdata	SEGMENT
$pdata$??$translate@M$0A@@glm@@YA?AU?$mat@$03$03M$0A@@0@AEBU10@AEBU?$vec@$02M$0A@@0@@Z DD imagerel $LN140@translate
	DD	imagerel $LN140@translate+375
	DD	imagerel $unwind$??$translate@M$0A@@glm@@YA?AU?$mat@$03$03M$0A@@0@AEBU10@AEBU?$vec@$02M$0A@@0@@Z
pdata	ENDS
;	COMDAT pdata
pdata	SEGMENT
$pdata$?deallocate@?$allocator@D@std@@QEAAXQEAD_K@Z DD imagerel $LN23@deallocate
	DD	imagerel $LN23@deallocate+62
	DD	imagerel $unwind$?deallocate@?$allocator@D@std@@QEAAXQEAD_K@Z
pdata	ENDS
;	COMDAT pdata
pdata	SEGMENT
$pdata$??_GCanvasObject@@QEAAPEAXI@Z DD imagerel $LN70@scalar
	DD	imagerel $LN70@scalar+189
	DD	imagerel $unwind$??_GCanvasObject@@QEAAPEAXI@Z
pdata	ENDS
;	COMDAT pdata
pdata	SEGMENT
$pdata$??_GShader@@QEAAPEAXI@Z DD imagerel $LN12@scalar
	DD	imagerel $LN12@scalar+50
	DD	imagerel $unwind$??_GShader@@QEAAPEAXI@Z
pdata	ENDS
;	COMDAT pdata
pdata	SEGMENT
$pdata$?copy@?$_Char_traits@DH@std@@SAPEADQEADQEBD_K@Z DD imagerel $LN15@copy
	DD	imagerel $LN15@copy+23
	DD	imagerel $unwind$?copy@?$_Char_traits@DH@std@@SAPEADQEADQEBD_K@Z
pdata	ENDS
;	COMDAT pdata
pdata	SEGMENT
$pdata$?_Tidy_deallocate@?$basic_string@DU?$char_traits@D@std@@V?$allocator@D@2@@std@@AEAAXXZ DD imagerel $LN32@Tidy_deall
	DD	imagerel $LN32@Tidy_deall+95
	DD	imagerel $unwind$?_Tidy_deallocate@?$basic_string@DU?$char_traits@D@std@@V?$allocator@D@2@@std@@AEAAXXZ
pdata	ENDS
;	COMDAT pdata
pdata	SEGMENT
$pdata$??R?$default_delete@VCanvasObject@@@std@@QEBAXPEAVCanvasObject@@@Z DD imagerel $LN78@operator
	DD	imagerel $LN78@operator+21
	DD	imagerel $unwind$??R?$default_delete@VCanvasObject@@@std@@QEBAXPEAVCanvasObject@@@Z
pdata	ENDS
;	COMDAT pdata
pdata	SEGMENT
$pdata$0$??R?$default_delete@VCanvasObject@@@std@@QEBAXPEAVCanvasObject@@@Z DD imagerel $LN78@operator+21
	DD	imagerel $LN78@operator+187
	DD	imagerel $chain$0$??R?$default_delete@VCanvasObject@@@std@@QEBAXPEAVCanvasObject@@@Z
pdata	ENDS
;	COMDAT pdata
pdata	SEGMENT
$pdata$1$??R?$default_delete@VCanvasObject@@@std@@QEBAXPEAVCanvasObject@@@Z DD imagerel $LN78@operator+187
	DD	imagerel $LN78@operator+188
	DD	imagerel $chain$1$??R?$default_delete@VCanvasObject@@@std@@QEBAXPEAVCanvasObject@@@Z
pdata	ENDS
;	COMDAT pdata
pdata	SEGMENT
$pdata$2$??R?$default_delete@VCanvasObject@@@std@@QEBAXPEAVCanvasObject@@@Z DD imagerel $LN78@operator+188
	DD	imagerel $LN78@operator+195
	DD	imagerel $chain$2$??R?$default_delete@VCanvasObject@@@std@@QEBAXPEAVCanvasObject@@@Z
pdata	ENDS
;	COMDAT pdata
pdata	SEGMENT
$pdata$??R?$default_delete@VShader@@@std@@QEBAXPEAVShader@@@Z DD imagerel $LN17@operator
	DD	imagerel $LN17@operator+52
	DD	imagerel $unwind$??R?$default_delete@VShader@@@std@@QEBAXPEAVShader@@@Z
pdata	ENDS
;	COMDAT pdata
pdata	SEGMENT
$pdata$??0?$basic_string@DU?$char_traits@D@std@@V?$allocator@D@2@@std@@QEAA@QEBD@Z DD imagerel $LN90@basic_stri
	DD	imagerel $LN90@basic_stri+287
	DD	imagerel $unwind$??0?$basic_string@DU?$char_traits@D@std@@V?$allocator@D@2@@std@@QEAA@QEBD@Z
pdata	ENDS
;	COMDAT pdata
pdata	SEGMENT
$pdata$??1?$basic_string@DU?$char_traits@D@std@@V?$allocator@D@2@@std@@QEAA@XZ DD imagerel $LN35@basic_stri
	DD	imagerel $LN35@basic_stri+95
	DD	imagerel $unwind$??1?$basic_string@DU?$char_traits@D@std@@V?$allocator@D@2@@std@@QEAA@XZ
pdata	ENDS
;	COMDAT pdata
pdata	SEGMENT
$pdata$??1?$unique_ptr@VShader@@U?$default_delete@VShader@@@std@@@std@@QEAA@XZ DD imagerel $LN19@unique_ptr
	DD	imagerel $LN19@unique_ptr+57
	DD	imagerel $unwind$??1?$unique_ptr@VShader@@U?$default_delete@VShader@@@std@@@std@@QEAA@XZ
pdata	ENDS
;	COMDAT pdata
pdata	SEGMENT
$pdata$??4?$shared_ptr@VLayer@@@std@@QEAAAEAV01@AEBV01@@Z DD imagerel $LN43@operator
	DD	imagerel $LN43@operator+49
	DD	imagerel $unwind$??4?$shared_ptr@VLayer@@@std@@QEAAAEAV01@AEBV01@@Z
pdata	ENDS
;	COMDAT pdata
pdata	SEGMENT
$pdata$0$??4?$shared_ptr@VLayer@@@std@@QEAAAEAV01@AEBV01@@Z DD imagerel $LN43@operator+49
	DD	imagerel $LN43@operator+117
	DD	imagerel $chain$0$??4?$shared_ptr@VLayer@@@std@@QEAAAEAV01@AEBV01@@Z
pdata	ENDS
;	COMDAT pdata
pdata	SEGMENT
$pdata$1$??4?$shared_ptr@VLayer@@@std@@QEAAAEAV01@AEBV01@@Z DD imagerel $LN43@operator+117
	DD	imagerel $LN43@operator+131
	DD	imagerel $chain$1$??4?$shared_ptr@VLayer@@@std@@QEAAAEAV01@AEBV01@@Z
pdata	ENDS
;	COMDAT pdata
pdata	SEGMENT
$pdata$?DrawRectangularSelect@RectangularSelect@@QEAAXXZ DD imagerel $LN667@DrawRectan
	DD	imagerel $LN667@DrawRectan+1281
	DD	imagerel $unwind$?DrawRectangularSelect@RectangularSelect@@QEAAXXZ
pdata	ENDS
;	COMDAT pdata
pdata	SEGMENT
$pdata$?RectangularSelectStep@RectangularSelect@@QEAAXV?$shared_ptr@VLayer@@@std@@@Z DD imagerel $LN94@Rectangula
	DD	imagerel $LN94@Rectangula+20
	DD	imagerel $unwind$?RectangularSelectStep@RectangularSelect@@QEAAXV?$shared_ptr@VLayer@@@std@@@Z
pdata	ENDS
;	COMDAT pdata
pdata	SEGMENT
$pdata$0$?RectangularSelectStep@RectangularSelect@@QEAAXV?$shared_ptr@VLayer@@@std@@@Z DD imagerel $LN94@Rectangula+20
	DD	imagerel $LN94@Rectangula+71
	DD	imagerel $chain$0$?RectangularSelectStep@RectangularSelect@@QEAAXV?$shared_ptr@VLayer@@@std@@@Z
pdata	ENDS
;	COMDAT pdata
pdata	SEGMENT
$pdata$1$?RectangularSelectStep@RectangularSelect@@QEAAXV?$shared_ptr@VLayer@@@std@@@Z DD imagerel $LN94@Rectangula+71
	DD	imagerel $LN94@Rectangula+195
	DD	imagerel $chain$1$?RectangularSelectStep@RectangularSelect@@QEAAXV?$shared_ptr@VLayer@@@std@@@Z
pdata	ENDS
;	COMDAT pdata
pdata	SEGMENT
$pdata$2$?RectangularSelectStep@RectangularSelect@@QEAAXV?$shared_ptr@VLayer@@@std@@@Z DD imagerel $LN94@Rectangula+195
	DD	imagerel $LN94@Rectangula+328
	DD	imagerel $chain$2$?RectangularSelectStep@RectangularSelect@@QEAAXV?$shared_ptr@VLayer@@@std@@@Z
pdata	ENDS
;	COMDAT pdata
pdata	SEGMENT
$pdata$3$?RectangularSelectStep@RectangularSelect@@QEAAXV?$shared_ptr@VLayer@@@std@@@Z DD imagerel $LN94@Rectangula+328
	DD	imagerel $LN94@Rectangula+378
	DD	imagerel $chain$3$?RectangularSelectStep@RectangularSelect@@QEAAXV?$shared_ptr@VLayer@@@std@@@Z
pdata	ENDS
;	COMDAT pdata
pdata	SEGMENT
$pdata$??1RectangularSelect@@QEAA@XZ DD imagerel $LN20@Rectangula
	DD	imagerel $LN20@Rectangula+15
	DD	imagerel $unwind$??1RectangularSelect@@QEAA@XZ
pdata	ENDS
;	COMDAT pdata
pdata	SEGMENT
$pdata$0$??1RectangularSelect@@QEAA@XZ DD imagerel $LN20@Rectangula+15
	DD	imagerel $LN20@Rectangula+69
	DD	imagerel $chain$0$??1RectangularSelect@@QEAA@XZ
pdata	ENDS
;	COMDAT pdata
pdata	SEGMENT
$pdata$1$??1RectangularSelect@@QEAA@XZ DD imagerel $LN20@Rectangula+69
	DD	imagerel $LN20@Rectangula+75
	DD	imagerel $chain$1$??1RectangularSelect@@QEAA@XZ
pdata	ENDS
;	COMDAT pdata
pdata	SEGMENT
$pdata$??__F?m_CanvasShader@Primitive@@2V?$unique_ptr@VShader@@U?$default_delete@VShader@@@std@@@std@@A@@YAXXZ DD imagerel ??__F?m_CanvasShader@Primitive@@2V?$unique_ptr@VShader@@U?$default_delete@VShader@@@std@@@std@@A@@YAXXZ
	DD	imagerel ??__F?m_CanvasShader@Primitive@@2V?$unique_ptr@VShader@@U?$default_delete@VShader@@@std@@@std@@A@@YAXXZ+61
	DD	imagerel $unwind$??__F?m_CanvasShader@Primitive@@2V?$unique_ptr@VShader@@U?$default_delete@VShader@@@std@@@std@@A@@YAXXZ
pdata	ENDS
;	COMDAT pdata
pdata	SEGMENT
$pdata$??__F?m_RectShader@Primitive@@2V?$unique_ptr@VShader@@U?$default_delete@VShader@@@std@@@std@@A@@YAXXZ DD imagerel ??__F?m_RectShader@Primitive@@2V?$unique_ptr@VShader@@U?$default_delete@VShader@@@std@@@std@@A@@YAXXZ
	DD	imagerel ??__F?m_RectShader@Primitive@@2V?$unique_ptr@VShader@@U?$default_delete@VShader@@@std@@@std@@A@@YAXXZ+61
	DD	imagerel $unwind$??__F?m_RectShader@Primitive@@2V?$unique_ptr@VShader@@U?$default_delete@VShader@@@std@@@std@@A@@YAXXZ
pdata	ENDS
;	COMDAT pdata
pdata	SEGMENT
$pdata$??_H@YAXPEAX_K1P6APEAX0@Z@Z DD imagerel $LN12@vector
	DD	imagerel $LN12@vector+67
	DD	imagerel $unwind$??_H@YAXPEAX_K1P6APEAX0@Z@Z
pdata	ENDS
;	COMDAT pdata
pdata	SEGMENT
$pdata$?_Xlen_string@std@@YAXXZ DD imagerel $LN4@Xlen_strin
	DD	imagerel $LN4@Xlen_strin+18
	DD	imagerel $unwind$?_Xlen_string@std@@YAXXZ
pdata	ENDS
;	COMDAT pdata
pdata	SEGMENT
$pdata$?_Adjust_manually_vector_aligned@std@@YAXAEAPEAXAEA_K@Z DD imagerel $LN13@Adjust_man
	DD	imagerel $LN13@Adjust_man+43
	DD	imagerel $unwind$?_Adjust_manually_vector_aligned@std@@YAXAEAPEAXAEA_K@Z
pdata	ENDS
;	COMDAT pdata
pdata	SEGMENT
$pdata$??0bad_alloc@std@@QEAA@AEBV01@@Z DD imagerel $LN7@bad_alloc
	DD	imagerel $LN7@bad_alloc+61
	DD	imagerel $unwind$??0bad_alloc@std@@QEAA@AEBV01@@Z
pdata	ENDS
;	COMDAT pdata
pdata	SEGMENT
$pdata$??0bad_array_new_length@std@@QEAA@AEBV01@@Z DD imagerel $LN10@bad_array_
	DD	imagerel $LN10@bad_array_+61
	DD	imagerel $unwind$??0bad_array_new_length@std@@QEAA@AEBV01@@Z
pdata	ENDS
;	COMDAT pdata
pdata	SEGMENT
$pdata$?_Throw_bad_array_new_length@std@@YAXXZ DD imagerel $LN4@Throw_bad_
	DD	imagerel $LN4@Throw_bad_+32
	DD	imagerel $unwind$?_Throw_bad_array_new_length@std@@YAXXZ
pdata	ENDS
;	COMDAT pdata
pdata	SEGMENT
$pdata$??_Gbad_array_new_length@std@@UEAAPEAXI@Z DD imagerel $LN16@scalar
	DD	imagerel $LN16@scalar+67
	DD	imagerel $unwind$??_Gbad_array_new_length@std@@UEAAPEAXI@Z
pdata	ENDS
;	COMDAT pdata
pdata	SEGMENT
$pdata$??_Gbad_alloc@std@@UEAAPEAXI@Z DD imagerel $LN13@scalar
	DD	imagerel $LN13@scalar+67
	DD	imagerel $unwind$??_Gbad_alloc@std@@UEAAPEAXI@Z
pdata	ENDS
;	COMDAT pdata
pdata	SEGMENT
$pdata$??_Gexception@std@@UEAAPEAXI@Z DD imagerel $LN10@scalar
	DD	imagerel $LN10@scalar+67
	DD	imagerel $unwind$??_Gexception@std@@UEAAPEAXI@Z
pdata	ENDS
;	COMDAT pdata
pdata	SEGMENT
$pdata$??0exception@std@@QEAA@AEBV01@@Z DD imagerel $LN5@exception
	DD	imagerel $LN5@exception+51
	DD	imagerel $unwind$??0exception@std@@QEAA@AEBV01@@Z
pdata	ENDS
;	COMDAT CRT$XCU
CRT$XCU	SEGMENT
??m_CanvasObject$initializer$@Primitive@@2P6AXXZEA@@3P6AXXZEA DQ FLAT:??__F?m_CanvasObject@Primitive@@2V?$unique_ptr@VCanvasObject@@U?$default_delete@VCanvasObject@@@std@@@std@@A@@YAXXZ ; ??m_CanvasObject$initializer$@Primitive@@2P6AXXZEA@@3P6AXXZEA
;	COMDAT ?m_BrushObject@Primitive@@2V?$unique_ptr@VCanvasObject@@U?$default_delete@VCanvasObject@@@std@@@std@@A
_DATA	SEGMENT
?m_BrushObject@Primitive@@2V?$unique_ptr@VCanvasObject@@U?$default_delete@VCanvasObject@@@std@@@std@@A DQ 0000000000000000H ; Primitive::m_BrushObject
_DATA	ENDS
;	COMDAT ?m_CanvasShader@Primitive@@2V?$unique_ptr@VShader@@U?$default_delete@VShader@@@std@@@std@@A
_DATA	SEGMENT
?m_CanvasShader@Primitive@@2V?$unique_ptr@VShader@@U?$default_delete@VShader@@@std@@@std@@A DQ 0000000000000000H ; Primitive::m_CanvasShader
_DATA	ENDS
;	COMDAT ?m_RectShader@Primitive@@2V?$unique_ptr@VShader@@U?$default_delete@VShader@@@std@@@std@@A
_DATA	SEGMENT
?m_RectShader@Primitive@@2V?$unique_ptr@VShader@@U?$default_delete@VShader@@@std@@@std@@A DQ 0000000000000000H ; Primitive::m_RectShader
_DATA	ENDS
;	COMDAT ?m_CanvasObject@Primitive@@2V?$unique_ptr@VCanvasObject@@U?$default_delete@VCanvasObject@@@std@@@std@@A
_DATA	SEGMENT
?m_CanvasObject@Primitive@@2V?$unique_ptr@VCanvasObject@@U?$default_delete@VCanvasObject@@@std@@@std@@A DQ 0000000000000000H ; Primitive::m_CanvasObject
_DATA	ENDS
;	COMDAT xdata
xdata	SEGMENT
$unwind$??0exception@std@@QEAA@AEBV01@@Z DQ 03002320600020601r ; 1.96423e-77
xdata	ENDS
;	COMDAT xdata
xdata	SEGMENT
$unwind$??_Gexception@std@@UEAAPEAXI@Z DQ 00006340a00040a01r ; 8.62672e-309
	DD	07006320aH
xdata	ENDS
;	COMDAT xdata
xdata	SEGMENT
$unwind$??_Gbad_alloc@std@@UEAAPEAXI@Z DQ 00006340a00040a01r ; 8.62672e-309
	DD	07006320aH
xdata	ENDS
;	COMDAT xdata
xdata	SEGMENT
$unwind$??_Gbad_array_new_length@std@@UEAAPEAXI@Z DQ 00006340a00040a01r ; 8.62672e-309
	DD	07006320aH
xdata	ENDS
;	COMDAT xdata
xdata	SEGMENT
$unwind$?_Throw_bad_array_new_length@std@@YAXXZ DQ 00000820400010401r ; 7.06285e-310
xdata	ENDS
;	COMDAT xdata
xdata	SEGMENT
$unwind$??0bad_array_new_length@std@@QEAA@AEBV01@@Z DQ 03002320600020601r ; 1.96423e-77
xdata	ENDS
;	COMDAT xdata
xdata	SEGMENT
$unwind$??0bad_alloc@std@@QEAA@AEBV01@@Z DQ 03002320600020601r ; 1.96423e-77
xdata	ENDS
;	COMDAT xdata
xdata	SEGMENT
$unwind$?_Adjust_manually_vector_aligned@std@@YAXAEAPEAXAEA_K@Z DQ 00000420400010401r ; 3.58617e-310
xdata	ENDS
;	COMDAT xdata
xdata	SEGMENT
$unwind$?_Xlen_string@std@@YAXXZ DQ 00000420400010401r ; 3.58617e-310
xdata	ENDS
;	COMDAT xdata
xdata	SEGMENT
$unwind$??_H@YAXPEAX_K1P6APEAX0@Z@Z DQ 00008641400081401r ; 1.1669e-308
	DQ	00006341400075414r		; 8.62693e-309
	DD	070103214H
xdata	ENDS
;	COMDAT xdata
xdata	SEGMENT
$ip2state$??__F?m_RectShader@Primitive@@2V?$unique_ptr@VShader@@U?$default_delete@VShader@@@std@@@std@@A@@YAXXZ DW 02a02H
	DB	02H
xdata	ENDS
;	COMDAT xdata
xdata	SEGMENT
$stateUnwindMap$??__F?m_RectShader@Primitive@@2V?$unique_ptr@VShader@@U?$default_delete@VShader@@@std@@@std@@A@@YAXXZ DW 0e02H
	DD	imagerel __std_terminate
xdata	ENDS
;	COMDAT xdata
xdata	SEGMENT
$cppxdata$??__F?m_RectShader@Primitive@@2V?$unique_ptr@VShader@@U?$default_delete@VShader@@@std@@@std@@A@@YAXXZ DB 028H
	DD	imagerel $stateUnwindMap$??__F?m_RectShader@Primitive@@2V?$unique_ptr@VShader@@U?$default_delete@VShader@@@std@@@std@@A@@YAXXZ
	DD	imagerel $ip2state$??__F?m_RectShader@Primitive@@2V?$unique_ptr@VShader@@U?$default_delete@VShader@@@std@@@std@@A@@YAXXZ
xdata	ENDS
;	COMDAT xdata
xdata	SEGMENT
$unwind$??__F?m_RectShader@Primitive@@2V?$unique_ptr@VShader@@U?$default_delete@VShader@@@std@@@std@@A@@YAXXZ DQ 03002320600020611r ; 1.96423e-77
	DD	imagerel __CxxFrameHandler4
	DD	imagerel $cppxdata$??__F?m_RectShader@Primitive@@2V?$unique_ptr@VShader@@U?$default_delete@VShader@@@std@@@std@@A@@YAXXZ
xdata	ENDS
;	COMDAT xdata
xdata	SEGMENT
$ip2state$??__F?m_CanvasShader@Primitive@@2V?$unique_ptr@VShader@@U?$default_delete@VShader@@@std@@@std@@A@@YAXXZ DW 02a02H
	DB	02H
xdata	ENDS
;	COMDAT xdata
xdata	SEGMENT
$stateUnwindMap$??__F?m_CanvasShader@Primitive@@2V?$unique_ptr@VShader@@U?$default_delete@VShader@@@std@@@std@@A@@YAXXZ DW 0e02H
	DD	imagerel __std_terminate
xdata	ENDS
;	COMDAT xdata
xdata	SEGMENT
$cppxdata$??__F?m_CanvasShader@Primitive@@2V?$unique_ptr@VShader@@U?$default_delete@VShader@@@std@@@std@@A@@YAXXZ DB 028H
	DD	imagerel $stateUnwindMap$??__F?m_CanvasShader@Primitive@@2V?$unique_ptr@VShader@@U?$default_delete@VShader@@@std@@@std@@A@@YAXXZ
	DD	imagerel $ip2state$??__F?m_CanvasShader@Primitive@@2V?$unique_ptr@VShader@@U?$default_delete@VShader@@@std@@@std@@A@@YAXXZ
xdata	ENDS
;	COMDAT xdata
xdata	SEGMENT
$unwind$??__F?m_CanvasShader@Primitive@@2V?$unique_ptr@VShader@@U?$default_delete@VShader@@@std@@@std@@A@@YAXXZ DQ 03002320600020611r ; 1.96423e-77
	DD	imagerel __CxxFrameHandler4
	DD	imagerel $cppxdata$??__F?m_CanvasShader@Primitive@@2V?$unique_ptr@VShader@@U?$default_delete@VShader@@@std@@@std@@A@@YAXXZ
xdata	ENDS
;	COMDAT xdata
xdata	SEGMENT
$chain$1$??1RectangularSelect@@QEAA@XZ DD 021H
	DD	imagerel $LN20@Rectangula
	DD	imagerel $LN20@Rectangula+15
	DD	imagerel $unwind$??1RectangularSelect@@QEAA@XZ
xdata	ENDS
;	COMDAT xdata
xdata	SEGMENT
$chain$0$??1RectangularSelect@@QEAA@XZ DQ 00006740500020521r ; 8.97428e-309
	DD	imagerel $LN20@Rectangula
	DD	imagerel $LN20@Rectangula+15
	DD	imagerel $unwind$??1RectangularSelect@@QEAA@XZ
xdata	ENDS
;	COMDAT xdata
xdata	SEGMENT
$unwind$??1RectangularSelect@@QEAA@XZ DQ 03002320600020601r ; 1.96423e-77
xdata	ENDS
;	COMDAT xdata
xdata	SEGMENT
$chain$3$?RectangularSelectStep@RectangularSelect@@QEAAXV?$shared_ptr@VLayer@@@std@@@Z DD 021H
	DD	imagerel $LN94@Rectangula
	DD	imagerel $LN94@Rectangula+20
	DD	imagerel $unwind$?RectangularSelectStep@RectangularSelect@@QEAAXV?$shared_ptr@VLayer@@@std@@@Z
xdata	ENDS
;	COMDAT xdata
xdata	SEGMENT
$chain$2$?RectangularSelectStep@RectangularSelect@@QEAAXV?$shared_ptr@VLayer@@@std@@@Z DD 021H
	DD	imagerel $LN94@Rectangula+20
	DD	imagerel $LN94@Rectangula+71
	DD	imagerel $chain$0$?RectangularSelectStep@RectangularSelect@@QEAAXV?$shared_ptr@VLayer@@@std@@@Z
xdata	ENDS
;	COMDAT xdata
xdata	SEGMENT
$chain$1$?RectangularSelectStep@RectangularSelect@@QEAAXV?$shared_ptr@VLayer@@@std@@@Z DQ 00006740500020521r ; 8.97428e-309
	DD	imagerel $LN94@Rectangula+20
	DD	imagerel $LN94@Rectangula+71
	DD	imagerel $chain$0$?RectangularSelectStep@RectangularSelect@@QEAAXV?$shared_ptr@VLayer@@@std@@@Z
xdata	ENDS
;	COMDAT xdata
xdata	SEGMENT
$chain$0$?RectangularSelectStep@RectangularSelect@@QEAAXV?$shared_ptr@VLayer@@@std@@@Z DQ 00008e40500020521r ; 1.2364e-308
	DD	imagerel $LN94@Rectangula
	DD	imagerel $LN94@Rectangula+20
	DD	imagerel $unwind$?RectangularSelectStep@RectangularSelect@@QEAAXV?$shared_ptr@VLayer@@@std@@@Z
xdata	ENDS
;	COMDAT xdata
xdata	SEGMENT
$unwind$?RectangularSelectStep@RectangularSelect@@QEAAXV?$shared_ptr@VLayer@@@std@@@Z DQ 00009340a00040a01r ; 1.27987e-308
	DD	06006320aH
xdata	ENDS
;	COMDAT xdata
xdata	SEGMENT
$ip2state$?DrawRectangularSelect@RectangularSelect@@QEAAXXZ DQ 0300203dd00020112r ; 1.94477e-77
	DQ	004a5003002032100r		; 2.75834e-286
	DQ	0003a020201003402r		; 1.44673e-307
xdata	ENDS
;	COMDAT xdata
xdata	SEGMENT
$stateUnwindMap$?DrawRectangularSelect@RectangularSelect@@QEAAXXZ DW 0a02H
	DD	imagerel ??1?$basic_string@DU?$char_traits@D@std@@V?$allocator@D@2@@std@@QEAA@XZ
	DB	060H
xdata	ENDS
;	COMDAT xdata
xdata	SEGMENT
$cppxdata$?DrawRectangularSelect@RectangularSelect@@QEAAXXZ DB 028H
	DD	imagerel $stateUnwindMap$?DrawRectangularSelect@RectangularSelect@@QEAAXXZ
	DD	imagerel $ip2state$?DrawRectangularSelect@RectangularSelect@@QEAAXXZ
xdata	ENDS
;	COMDAT xdata
xdata	SEGMENT
$unwind$?DrawRectangularSelect@RectangularSelect@@QEAAXXZ DQ 000139825000d2511r ; 2.72492e-308
	DQ	00015781b00148820r		; 2.98565e-308
	DQ	00031341300166817r		; 9.56972e-308
	DQ	000005008002e0113r		; 4.34755e-310
	DD	imagerel __CxxFrameHandler4
	DD	imagerel $cppxdata$?DrawRectangularSelect@RectangularSelect@@QEAAXXZ
xdata	ENDS
;	COMDAT xdata
xdata	SEGMENT
$chain$1$??4?$shared_ptr@VLayer@@@std@@QEAAAEAV01@AEBV01@@Z DD 021H
	DD	imagerel $LN43@operator
	DD	imagerel $LN43@operator+49
	DD	imagerel $unwind$??4?$shared_ptr@VLayer@@@std@@QEAAAEAV01@AEBV01@@Z
xdata	ENDS
;	COMDAT xdata
xdata	SEGMENT
$chain$0$??4?$shared_ptr@VLayer@@@std@@QEAAAEAV01@AEBV01@@Z DQ 00006640500020521r ; 8.88736e-309
	DD	imagerel $LN43@operator
	DD	imagerel $LN43@operator+49
	DD	imagerel $unwind$??4?$shared_ptr@VLayer@@@std@@QEAAAEAV01@AEBV01@@Z
xdata	ENDS
;	COMDAT xdata
xdata	SEGMENT
$unwind$??4?$shared_ptr@VLayer@@@std@@QEAAAEAV01@AEBV01@@Z DQ 00007340a00040a01r ; 1.00174e-308
	DD	07006320aH
xdata	ENDS
;	COMDAT xdata
xdata	SEGMENT
$ip2state$??1?$unique_ptr@VShader@@U?$default_delete@VShader@@@std@@@std@@QEAA@XZ DW 02202H
	DB	02H
xdata	ENDS
;	COMDAT xdata
xdata	SEGMENT
$stateUnwindMap$??1?$unique_ptr@VShader@@U?$default_delete@VShader@@@std@@@std@@QEAA@XZ DW 0e02H
	DD	imagerel __std_terminate
xdata	ENDS
;	COMDAT xdata
xdata	SEGMENT
$cppxdata$??1?$unique_ptr@VShader@@U?$default_delete@VShader@@@std@@@std@@QEAA@XZ DB 068H
	DD	imagerel $stateUnwindMap$??1?$unique_ptr@VShader@@U?$default_delete@VShader@@@std@@@std@@QEAA@XZ
	DD	imagerel $ip2state$??1?$unique_ptr@VShader@@U?$default_delete@VShader@@@std@@@std@@QEAA@XZ
xdata	ENDS
;	COMDAT xdata
xdata	SEGMENT
$unwind$??1?$unique_ptr@VShader@@U?$default_delete@VShader@@@std@@@std@@QEAA@XZ DQ 03002320600020619r ; 1.96423e-77
	DD	imagerel __CxxFrameHandler4
	DD	imagerel $cppxdata$??1?$unique_ptr@VShader@@U?$default_delete@VShader@@@std@@@std@@QEAA@XZ
xdata	ENDS
;	COMDAT xdata
xdata	SEGMENT
$unwind$??1?$basic_string@DU?$char_traits@D@std@@V?$allocator@D@2@@std@@QEAA@XZ DQ 03002320600020601r ; 1.96423e-77
xdata	ENDS
;	COMDAT xdata
xdata	SEGMENT
$unwind$??0?$basic_string@DU?$char_traits@D@std@@V?$allocator@D@2@@std@@QEAA@QEBD@Z DQ 0000b541200081201r ; 1.57541e-308
	DQ	0e00e3212000a3412r		; -5.06071e+154
	DD	0600b700cH
xdata	ENDS
;	COMDAT xdata
xdata	SEGMENT
$ip2state$??R?$default_delete@VShader@@@std@@QEBAXPEAVShader@@@Z DW 02002H
	DB	02H
xdata	ENDS
;	COMDAT xdata
xdata	SEGMENT
$stateUnwindMap$??R?$default_delete@VShader@@@std@@QEBAXPEAVShader@@@Z DW 0e02H
	DD	imagerel __std_terminate
xdata	ENDS
;	COMDAT xdata
xdata	SEGMENT
$cppxdata$??R?$default_delete@VShader@@@std@@QEBAXPEAVShader@@@Z DB 068H
	DD	imagerel $stateUnwindMap$??R?$default_delete@VShader@@@std@@QEBAXPEAVShader@@@Z
	DD	imagerel $ip2state$??R?$default_delete@VShader@@@std@@QEBAXPEAVShader@@@Z
xdata	ENDS
;	COMDAT xdata
xdata	SEGMENT
$unwind$??R?$default_delete@VShader@@@std@@QEBAXPEAVShader@@@Z DQ 03006320a00020a19r ; 2.39605e-77
	DD	imagerel __CxxFrameHandler4
	DD	imagerel $cppxdata$??R?$default_delete@VShader@@@std@@QEBAXPEAVShader@@@Z
xdata	ENDS
;	COMDAT xdata
xdata	SEGMENT
$chain$2$??R?$default_delete@VCanvasObject@@@std@@QEBAXPEAVCanvasObject@@@Z DQ 00006740000020021r ; 8.97417e-309
	DD	imagerel $LN78@operator
	DD	imagerel $LN78@operator+21
	DD	imagerel $unwind$??R?$default_delete@VCanvasObject@@@std@@QEBAXPEAVCanvasObject@@@Z
xdata	ENDS
;	COMDAT xdata
xdata	SEGMENT
$chain$1$??R?$default_delete@VCanvasObject@@@std@@QEBAXPEAVCanvasObject@@@Z DD 021H
	DD	imagerel $LN78@operator
	DD	imagerel $LN78@operator+21
	DD	imagerel $unwind$??R?$default_delete@VCanvasObject@@@std@@QEBAXPEAVCanvasObject@@@Z
xdata	ENDS
;	COMDAT xdata
xdata	SEGMENT
$chain$0$??R?$default_delete@VCanvasObject@@@std@@QEBAXPEAVCanvasObject@@@Z DQ 00006740500020521r ; 8.97428e-309
	DD	imagerel $LN78@operator
	DD	imagerel $LN78@operator+21
	DD	imagerel $unwind$??R?$default_delete@VCanvasObject@@@std@@QEBAXPEAVCanvasObject@@@Z
xdata	ENDS
;	COMDAT xdata
xdata	SEGMENT
$unwind$??R?$default_delete@VCanvasObject@@@std@@QEBAXPEAVCanvasObject@@@Z DQ 0300a320e00020e01r ; 2.82786e-77
xdata	ENDS
;	COMDAT xdata
xdata	SEGMENT
$unwind$?_Tidy_deallocate@?$basic_string@DU?$char_traits@D@std@@V?$allocator@D@2@@std@@AEAAXXZ DQ 03002320600020601r ; 1.96423e-77
xdata	ENDS
;	COMDAT xdata
xdata	SEGMENT
$unwind$?copy@?$_Char_traits@DH@std@@SAPEADQEADQEBD_K@Z DQ 03002320600020601r ; 1.96423e-77
xdata	ENDS
;	COMDAT xdata
xdata	SEGMENT
$ip2state$??_GShader@@QEAAPEAXI@Z DW 01802H
	DB	02H
xdata	ENDS
;	COMDAT xdata
xdata	SEGMENT
$stateUnwindMap$??_GShader@@QEAAPEAXI@Z DW 0e02H
	DD	imagerel __std_terminate
xdata	ENDS
;	COMDAT xdata
xdata	SEGMENT
$cppxdata$??_GShader@@QEAAPEAXI@Z DB 068H
	DD	imagerel $stateUnwindMap$??_GShader@@QEAAPEAXI@Z
	DD	imagerel $ip2state$??_GShader@@QEAAPEAXI@Z
xdata	ENDS
;	COMDAT xdata
xdata	SEGMENT
$unwind$??_GShader@@QEAAPEAXI@Z DQ 03002320600020619r ; 1.96423e-77
	DD	imagerel __CxxFrameHandler4
	DD	imagerel $cppxdata$??_GShader@@QEAAPEAXI@Z
xdata	ENDS
;	COMDAT xdata
xdata	SEGMENT
$unwind$??_GCanvasObject@@QEAAPEAXI@Z DQ 00007340a00040a01r ; 1.00174e-308
	DD	07006320aH
xdata	ENDS
;	COMDAT xdata
xdata	SEGMENT
$unwind$?deallocate@?$allocator@D@std@@QEAAXQEAD_K@Z DQ 00000420400010401r ; 3.58617e-310
xdata	ENDS
;	COMDAT xdata
xdata	SEGMENT
$unwind$??$translate@M$0A@@glm@@YA?AU?$mat@$03$03M$0A@@0@AEBU10@AEBU?$vec@$02M$0A@@0@@Z DQ 00001b86e000d6e01r ; 2.39255e-309
	DQ	0000398400002a849r		; 4.99908e-309
	DQ	00005782d00048836r		; 7.60619e-309
	DQ	00000e20700066822r		; 1.22785e-309
xdata	ENDS
;	COMDAT xdata
xdata	SEGMENT
$unwind$??$scale@M$0A@@glm@@YA?AU?$mat@$03$03M$0A@@0@AEBU10@AEBU?$vec@$02M$0A@@0@@Z DQ 00001681400031401r ; 1.95606e-309
	DD	04204H
xdata	ENDS
;	COMDAT xdata
xdata	SEGMENT
$unwind$??$ortho@M@glm@@YA?AU?$mat@$03$03M$0A@@0@MMMM@Z DQ 00000780f00050f01r ; 6.52195e-310
	DQ	00000420400016809r		; 3.58617e-310
xdata	ENDS
;	COMDAT xdata
xdata	SEGMENT
$chain$2$??$_Construct@$00PEBD@?$basic_string@DU?$char_traits@D@std@@V?$allocator@D@2@@std@@AEAAXQEBD_K@Z DQ 00004640000020021r ; 6.10592e-309
	DD	imagerel $LN76@Construct
	DD	imagerel $LN76@Construct+79
	DD	imagerel $unwind$??$_Construct@$00PEBD@?$basic_string@DU?$char_traits@D@std@@V?$allocator@D@2@@std@@AEAAXQEBD_K@Z
xdata	ENDS
;	COMDAT xdata
xdata	SEGMENT
$chain$1$??$_Construct@$00PEBD@?$basic_string@DU?$char_traits@D@std@@V?$allocator@D@2@@std@@AEAAXQEBD_K@Z DD 021H
	DD	imagerel $LN76@Construct
	DD	imagerel $LN76@Construct+79
	DD	imagerel $unwind$??$_Construct@$00PEBD@?$basic_string@DU?$char_traits@D@std@@V?$allocator@D@2@@std@@AEAAXQEBD_K@Z
xdata	ENDS
;	COMDAT xdata
xdata	SEGMENT
$chain$0$??$_Construct@$00PEBD@?$basic_string@DU?$char_traits@D@std@@V?$allocator@D@2@@std@@AEAAXQEBD_K@Z DQ 00004640500020521r ; 6.10602e-309
	DD	imagerel $LN76@Construct
	DD	imagerel $LN76@Construct+79
	DD	imagerel $unwind$??$_Construct@$00PEBD@?$basic_string@DU?$char_traits@D@std@@V?$allocator@D@2@@std@@AEAAXQEBD_K@Z
xdata	ENDS
;	COMDAT xdata
xdata	SEGMENT
$unwind$??$_Construct@$00PEBD@?$basic_string@DU?$char_traits@D@std@@V?$allocator@D@2@@std@@AEAAXQEBD_K@Z DQ 0e006420a00050a01r ; -3.73038e+154
	DQ	00000300250037004r		; 2.608e-310
xdata	ENDS
;	COMDAT xdata
xdata	SEGMENT
$unwind$??$_Deallocate@$0BA@$0A@@std@@YAXPEAX_K@Z DQ 00000420400010401r ; 3.58617e-310
xdata	ENDS
;	COMDAT xdata
xdata	SEGMENT
$unwind$??$_Allocate@$0BA@U_Default_allocate_traits@std@@$0A@@std@@YAPEAX_K@Z DQ 00000420400010401r ; 3.58617e-310
xdata	ENDS
;	COMDAT xdata
xdata	SEGMENT
$unwind$?allocate@?$allocator@D@std@@QEAAPEAD_K@Z DQ 00000420400010401r ; 3.58617e-310
xdata	ENDS
;	COMDAT xdata
xdata	SEGMENT
$unwind$??$_Allocate_manually_vector_aligned@U_Default_allocate_traits@std@@@std@@YAPEAX_K@Z DQ 00000420400010401r ; 3.58617e-310
;	COMDAT CRT$XCU
CRT$XCU	SEGMENT
??m_BrushObject$initializer$@Primitive@@2P6AXXZEA@@3P6AXXZEA DQ FLAT:??__F?m_BrushObject@Primitive@@2V?$unique_ptr@VCanvasObject@@U?$default_delete@VCanvasObject@@@std@@@std@@A@@YAXXZ ; ??m_BrushObject$initializer$@Primitive@@2P6AXXZEA@@3P6AXXZEA
CRT$XCU	ENDS
;	COMDAT CRT$XCU
CRT$XCU	SEGMENT
??m_CanvasShader$initializer$@Primitive@@2P6AXXZEA@@3P6AXXZEA DQ FLAT:??__F?m_CanvasShader@Primitive@@2V?$unique_ptr@VShader@@U?$default_delete@VShader@@@std@@@std@@A@@YAXXZ ; ??m_CanvasShader$initializer$@Primitive@@2P6AXXZEA@@3P6AXXZEA
CRT$XCU	ENDS
;	COMDAT CRT$XCU
CRT$XCU	SEGMENT
??m_RectShader$initializer$@Primitive@@2P6AXXZEA@@3P6AXXZEA DQ FLAT:??__F?m_RectShader@Primitive@@2V?$unique_ptr@VShader@@U?$default_delete@VShader@@@std@@@std@@A@@YAXXZ ; ??m_RectShader$initializer$@Primitive@@2P6AXXZEA@@3P6AXXZEA
CRT$XCU	ENDS
CRT$XCU	ENDS
CRT$XCU	ENDS
CRT$XCU	ENDS
CRT$XCU	ENDS
END
