; Listing generated by Microsoft (R) Optimizing Compiler Version 19.32.31332.0 

include listing.inc

INCLUDELIB OLDNAMES

PUBLIC	??_C@_0BC@EOODALEL@Unknown?5exception@		; `string'
PUBLIC	??_C@_0BF@KINCDENJ@bad?5array?5new?5length@	; `string'
PUBLIC	??_C@_0BA@JFNIOLAK@string?5too?5long@		; `string'
PUBLIC	??_C@_05FPMBMOMC@test?6@			; `string'
PUBLIC	??_C@_05NCCFOPHA@model@				; `string'
PUBLIC	??_C@_04CHADEDPO@view@				; `string'
PUBLIC	??_C@_0L@PPHAJBEH@projection@			; `string'
PUBLIC	??_C@_05PEENBMOG@color@				; `string'
PUBLIC	??_R4exception@std@@6B@				; std::exception::`RTTI Complete Object Locator'
PUBLIC	??_R2bad_array_new_length@std@@8		; std::bad_array_new_length::`RTTI Base Class Array'
PUBLIC	??_R0?AVbad_alloc@std@@@8			; std::bad_alloc `RTTI Type Descriptor'
PUBLIC	??_R2bad_alloc@std@@8				; std::bad_alloc::`RTTI Base Class Array'
PUBLIC	_CTA3?AVbad_array_new_length@std@@
PUBLIC	??_7bad_array_new_length@std@@6B@		; std::bad_array_new_length::`vftable'
PUBLIC	??_R1A@?0A@EA@exception@std@@8			; std::exception::`RTTI Base Class Descriptor at (0,-1,0,64)'
PUBLIC	??_R1A@?0A@EA@bad_alloc@std@@8			; std::bad_alloc::`RTTI Base Class Descriptor at (0,-1,0,64)'
PUBLIC	??_7bad_alloc@std@@6B@				; std::bad_alloc::`vftable'
PUBLIC	??_R2exception@std@@8				; std::exception::`RTTI Base Class Array'
PUBLIC	?m_CanvasSize@CanvasData@@2U?$vec@$01M$0A@@glm@@A ; CanvasData::m_CanvasSize
PUBLIC	??_7exception@std@@6B@				; std::exception::`vftable'
PUBLIC	?CanvasPos@Mouse@Input@@2U?$vec@$02M$0A@@glm@@A	; Input::Mouse::CanvasPos
PUBLIC	??_R3exception@std@@8				; std::exception::`RTTI Class Hierarchy Descriptor'
PUBLIC	_CT??_R0?AVbad_array_new_length@std@@@8??0bad_array_new_length@std@@QEAA@AEBV01@@Z24
PUBLIC	?_Fake_alloc@std@@3U_Fake_allocator@1@B		; std::_Fake_alloc
PUBLIC	??_R4bad_alloc@std@@6B@				; std::bad_alloc::`RTTI Complete Object Locator'
PUBLIC	?State@Mouse@Input@@2EA				; Input::Mouse::State
PUBLIC	??_R3bad_array_new_length@std@@8		; std::bad_array_new_length::`RTTI Class Hierarchy Descriptor'
PUBLIC	_CT??_R0?AVbad_alloc@std@@@8??0bad_alloc@std@@QEAA@AEBV01@@Z24
PUBLIC	?Button@Mouse@Input@@2EA			; Input::Mouse::Button
PUBLIC	??_R3bad_alloc@std@@8				; std::bad_alloc::`RTTI Class Hierarchy Descriptor'
PUBLIC	??_R4bad_array_new_length@std@@6B@		; std::bad_array_new_length::`RTTI Complete Object Locator'
PUBLIC	??_R1A@?0A@EA@bad_array_new_length@std@@8	; std::bad_array_new_length::`RTTI Base Class Descriptor at (0,-1,0,64)'
PUBLIC	?m_InitialClick@Mouse@Input@@2_NA		; Input::Mouse::m_InitialClick
PUBLIC	_CT??_R0?AVexception@std@@@8??0exception@std@@QEAA@AEBV01@@Z24
PUBLIC	_TI3?AVbad_array_new_length@std@@
PUBLIC	??_R0?AVexception@std@@@8			; std::exception `RTTI Type Descriptor'
PUBLIC	??_R0?AVbad_array_new_length@std@@@8		; std::bad_array_new_length `RTTI Type Descriptor'
EXTRN	__imp_?rdstate@ios_base@std@@QEBAHXZ:PROC
EXTRN	__imp_?good@ios_base@std@@QEBA_NXZ:PROC
EXTRN	__imp_?flags@ios_base@std@@QEBAHXZ:PROC
EXTRN	__imp_?width@ios_base@std@@QEBA_JXZ:PROC
EXTRN	__imp_?width@ios_base@std@@QEAA_J_J@Z:PROC
EXTRN	__imp_?sputc@?$basic_streambuf@DU?$char_traits@D@std@@@std@@QEAAHD@Z:PROC
EXTRN	__imp_?fill@?$basic_ios@DU?$char_traits@D@std@@@std@@QEBADXZ:PROC
EXTRN	__imp_?rdbuf@?$basic_ios@DU?$char_traits@D@std@@@std@@QEBAPEAV?$basic_streambuf@DU?$char_traits@D@std@@@2@XZ:PROC
EXTRN	__imp_?setstate@?$basic_ios@DU?$char_traits@D@std@@@std@@QEAAXH_N@Z:PROC
EXTRN	__imp_?sputn@?$basic_streambuf@DU?$char_traits@D@std@@@std@@QEAA_JPEBD_J@Z:PROC
EXTRN	__imp_?flush@?$basic_ostream@DU?$char_traits@D@std@@@std@@QEAAAEAV12@XZ:PROC
EXTRN	__imp_?_Osfx@?$basic_ostream@DU?$char_traits@D@std@@@std@@QEAAXXZ:PROC
EXTRN	__imp_?tie@?$basic_ios@DU?$char_traits@D@std@@@std@@QEBAPEAV?$basic_ostream@DU?$char_traits@D@std@@@2@XZ:PROC
EXTRN	__imp__invalid_parameter_noinfo_noreturn:PROC
EXTRN	??_7type_info@@6B@:BYTE				; type_info::`vftable'
EXTRN	__imp___std_terminate:PROC
EXTRN	??3@YAXPEAX_K@Z:PROC				; operator delete
EXTRN	??3@YAXPEAX@Z:PROC				; operator delete
EXTRN	atexit:PROC
EXTRN	__imp___std_exception_copy:PROC
EXTRN	__imp_?_Xlength_error@std@@YAXPEBD@Z:PROC
EXTRN	__imp_?cout@std@@3V?$basic_ostream@DU?$char_traits@D@std@@@1@A:BYTE
EXTRN	__imp_?uncaught_exceptions@std@@YAHXZ:PROC
EXTRN	??2@YAPEAX_K@Z:PROC				; operator new
EXTRN	__imp___std_exception_destroy:PROC
EXTRN	__security_check_cookie:PROC
EXTRN	__imp___CxxFrameHandler4:PROC
;	COMDAT ?m_CanvasSize@CanvasData@@2U?$vec@$01M$0A@@glm@@A
_BSS	SEGMENT
?m_CanvasSize@CanvasData@@2U?$vec@$01M$0A@@glm@@A DQ 01H DUP (?) ; CanvasData::m_CanvasSize
_BSS	ENDS
;	COMDAT ?CanvasPos@Mouse@Input@@2U?$vec@$02M$0A@@glm@@A
_BSS	SEGMENT
?CanvasPos@Mouse@Input@@2U?$vec@$02M$0A@@glm@@A DB 0cH DUP (?) ; Input::Mouse::CanvasPos
_BSS	ENDS
;	COMDAT ?State@Mouse@Input@@2EA
_BSS	SEGMENT
?State@Mouse@Input@@2EA DB 01H DUP (?)			; Input::Mouse::State
_BSS	ENDS
;	COMDAT ?Button@Mouse@Input@@2EA
_BSS	SEGMENT
?Button@Mouse@Input@@2EA DB 01H DUP (?)			; Input::Mouse::Button
_BSS	ENDS
;	COMDAT ?m_InitialClick@Mouse@Input@@2_NA
_BSS	SEGMENT
?m_InitialClick@Mouse@Input@@2_NA DB 01H DUP (?)	; Input::Mouse::m_InitialClick
_BSS	ENDS
;	COMDAT ??_R0?AVbad_array_new_length@std@@@8
data$r	SEGMENT
??_R0?AVbad_array_new_length@std@@@8 DQ FLAT:??_7type_info@@6B@ ; std::bad_array_new_length `RTTI Type Descriptor'
	DQ	0000000000000000H
	DB	'.?AVbad_array_new_length@std@@', 00H
data$r	ENDS
;	COMDAT ??_R0?AVexception@std@@@8
data$r	SEGMENT
??_R0?AVexception@std@@@8 DQ FLAT:??_7type_info@@6B@	; std::exception `RTTI Type Descriptor'
	DQ	0000000000000000H
	DB	'.?AVexception@std@@', 00H
data$r	ENDS
;	COMDAT _TI3?AVbad_array_new_length@std@@
xdata$x	SEGMENT
_TI3?AVbad_array_new_length@std@@ DD 00H
	DD	imagerel ??1bad_array_new_length@std@@UEAA@XZ
	DD	00H
	DD	imagerel _CTA3?AVbad_array_new_length@std@@
xdata$x	ENDS
;	COMDAT _CT??_R0?AVexception@std@@@8??0exception@std@@QEAA@AEBV01@@Z24
xdata$x	SEGMENT
_CT??_R0?AVexception@std@@@8??0exception@std@@QEAA@AEBV01@@Z24 DD 00H
	DD	imagerel ??_R0?AVexception@std@@@8
	DD	00H
	DD	0ffffffffH
	ORG $+4
	DD	018H
	DD	imagerel ??0exception@std@@QEAA@AEBV01@@Z
xdata$x	ENDS
;	COMDAT ??_R1A@?0A@EA@bad_array_new_length@std@@8
rdata$r	SEGMENT
??_R1A@?0A@EA@bad_array_new_length@std@@8 DD imagerel ??_R0?AVbad_array_new_length@std@@@8 ; std::bad_array_new_length::`RTTI Base Class Descriptor at (0,-1,0,64)'
	DD	02H
	DD	00H
	DD	0ffffffffH
	DD	00H
	DD	040H
	DD	imagerel ??_R3bad_array_new_length@std@@8
rdata$r	ENDS
;	COMDAT ??_R4bad_array_new_length@std@@6B@
rdata$r	SEGMENT
??_R4bad_array_new_length@std@@6B@ DD 01H		; std::bad_array_new_length::`RTTI Complete Object Locator'
	DD	00H
	DD	00H
	DD	imagerel ??_R0?AVbad_array_new_length@std@@@8
	DD	imagerel ??_R3bad_array_new_length@std@@8
	DD	imagerel ??_R4bad_array_new_length@std@@6B@
rdata$r	ENDS
;	COMDAT ??_R3bad_alloc@std@@8
rdata$r	SEGMENT
??_R3bad_alloc@std@@8 DD 00H				; std::bad_alloc::`RTTI Class Hierarchy Descriptor'
	DD	00H
	DD	02H
	DD	imagerel ??_R2bad_alloc@std@@8
rdata$r	ENDS
;	COMDAT _CT??_R0?AVbad_alloc@std@@@8??0bad_alloc@std@@QEAA@AEBV01@@Z24
xdata$x	SEGMENT
_CT??_R0?AVbad_alloc@std@@@8??0bad_alloc@std@@QEAA@AEBV01@@Z24 DD 010H
	DD	imagerel ??_R0?AVbad_alloc@std@@@8
	DD	00H
	DD	0ffffffffH
	ORG $+4
	DD	018H
	DD	imagerel ??0bad_alloc@std@@QEAA@AEBV01@@Z
xdata$x	ENDS
;	COMDAT ??_R3bad_array_new_length@std@@8
rdata$r	SEGMENT
??_R3bad_array_new_length@std@@8 DD 00H			; std::bad_array_new_length::`RTTI Class Hierarchy Descriptor'
	DD	00H
	DD	03H
	DD	imagerel ??_R2bad_array_new_length@std@@8
rdata$r	ENDS
;	COMDAT ??_R4bad_alloc@std@@6B@
rdata$r	SEGMENT
??_R4bad_alloc@std@@6B@ DD 01H				; std::bad_alloc::`RTTI Complete Object Locator'
	DD	00H
	DD	00H
	DD	imagerel ??_R0?AVbad_alloc@std@@@8
	DD	imagerel ??_R3bad_alloc@std@@8
	DD	imagerel ??_R4bad_alloc@std@@6B@
rdata$r	ENDS
;	COMDAT ?_Fake_alloc@std@@3U_Fake_allocator@1@B
CONST	SEGMENT
?_Fake_alloc@std@@3U_Fake_allocator@1@B	ORG $+1		; std::_Fake_alloc
CONST	ENDS
;	COMDAT _CT??_R0?AVbad_array_new_length@std@@@8??0bad_array_new_length@std@@QEAA@AEBV01@@Z24
xdata$x	SEGMENT
_CT??_R0?AVbad_array_new_length@std@@@8??0bad_array_new_length@std@@QEAA@AEBV01@@Z24 DD 00H
	DD	imagerel ??_R0?AVbad_array_new_length@std@@@8
	DD	00H
	DD	0ffffffffH
	ORG $+4
	DD	018H
	DD	imagerel ??0bad_array_new_length@std@@QEAA@AEBV01@@Z
xdata$x	ENDS
;	COMDAT ??_R3exception@std@@8
rdata$r	SEGMENT
??_R3exception@std@@8 DD 00H				; std::exception::`RTTI Class Hierarchy Descriptor'
	DD	00H
	DD	01H
	DD	imagerel ??_R2exception@std@@8
rdata$r	ENDS
;	COMDAT ??_7exception@std@@6B@
CONST	SEGMENT
??_7exception@std@@6B@ DQ FLAT:??_R4exception@std@@6B@	; std::exception::`vftable'
	DQ	FLAT:??_Eexception@std@@UEAAPEAXI@Z
	DQ	FLAT:?what@exception@std@@UEBAPEBDXZ
CONST	ENDS
;	COMDAT ??_R2exception@std@@8
rdata$r	SEGMENT
??_R2exception@std@@8 DD imagerel ??_R1A@?0A@EA@exception@std@@8 ; std::exception::`RTTI Base Class Array'
	ORG $+3
rdata$r	ENDS
;	COMDAT ??_7bad_alloc@std@@6B@
CONST	SEGMENT
??_7bad_alloc@std@@6B@ DQ FLAT:??_R4bad_alloc@std@@6B@	; std::bad_alloc::`vftable'
	DQ	FLAT:??_Ebad_alloc@std@@UEAAPEAXI@Z
	DQ	FLAT:?what@exception@std@@UEBAPEBDXZ
CONST	ENDS
;	COMDAT ??_R1A@?0A@EA@bad_alloc@std@@8
rdata$r	SEGMENT
??_R1A@?0A@EA@bad_alloc@std@@8 DD imagerel ??_R0?AVbad_alloc@std@@@8 ; std::bad_alloc::`RTTI Base Class Descriptor at (0,-1,0,64)'
	DD	01H
	DD	00H
	DD	0ffffffffH
	DD	00H
	DD	040H
	DD	imagerel ??_R3bad_alloc@std@@8
rdata$r	ENDS
;	COMDAT ??_R1A@?0A@EA@exception@std@@8
rdata$r	SEGMENT
??_R1A@?0A@EA@exception@std@@8 DD imagerel ??_R0?AVexception@std@@@8 ; std::exception::`RTTI Base Class Descriptor at (0,-1,0,64)'
	DD	00H
	DD	00H
	DD	0ffffffffH
	DD	00H
	DD	040H
	DD	imagerel ??_R3exception@std@@8
rdata$r	ENDS
;	COMDAT ??_7bad_array_new_length@std@@6B@
CONST	SEGMENT
??_7bad_array_new_length@std@@6B@ DQ FLAT:??_R4bad_array_new_length@std@@6B@ ; std::bad_array_new_length::`vftable'
	DQ	FLAT:??_Ebad_array_new_length@std@@UEAAPEAXI@Z
	DQ	FLAT:?what@exception@std@@UEBAPEBDXZ
CONST	ENDS
;	COMDAT _CTA3?AVbad_array_new_length@std@@
xdata$x	SEGMENT
_CTA3?AVbad_array_new_length@std@@ DD 03H
	DD	imagerel _CT??_R0?AVbad_array_new_length@std@@@8??0bad_array_new_length@std@@QEAA@AEBV01@@Z24
	DD	imagerel _CT??_R0?AVbad_alloc@std@@@8??0bad_alloc@std@@QEAA@AEBV01@@Z24
	DD	imagerel _CT??_R0?AVexception@std@@@8??0exception@std@@QEAA@AEBV01@@Z24
xdata$x	ENDS
;	COMDAT ??_R2bad_alloc@std@@8
rdata$r	SEGMENT
??_R2bad_alloc@std@@8 DD imagerel ??_R1A@?0A@EA@bad_alloc@std@@8 ; std::bad_alloc::`RTTI Base Class Array'
	DD	imagerel ??_R1A@?0A@EA@exception@std@@8
	ORG $+3
rdata$r	ENDS
;	COMDAT ??_R0?AVbad_alloc@std@@@8
data$r	SEGMENT
??_R0?AVbad_alloc@std@@@8 DQ FLAT:??_7type_info@@6B@	; std::bad_alloc `RTTI Type Descriptor'
	DQ	0000000000000000H
	DB	'.?AVbad_alloc@std@@', 00H
data$r	ENDS
;	COMDAT ??_R2bad_array_new_length@std@@8
rdata$r	SEGMENT
??_R2bad_array_new_length@std@@8 DD imagerel ??_R1A@?0A@EA@bad_array_new_length@std@@8 ; std::bad_array_new_length::`RTTI Base Class Array'
	DD	imagerel ??_R1A@?0A@EA@bad_alloc@std@@8
	DD	imagerel ??_R1A@?0A@EA@exception@std@@8
	ORG $+3
rdata$r	ENDS
;	COMDAT ??_R4exception@std@@6B@
rdata$r	SEGMENT
??_R4exception@std@@6B@ DD 01H				; std::exception::`RTTI Complete Object Locator'
	DD	00H
	DD	00H
	DD	imagerel ??_R0?AVexception@std@@@8
	DD	imagerel ??_R3exception@std@@8
	DD	imagerel ??_R4exception@std@@6B@
rdata$r	ENDS
;	COMDAT ??_C@_05PEENBMOG@color@
CONST	SEGMENT
??_C@_05PEENBMOG@color@ DB 'color', 00H			; `string'
CONST	ENDS
;	COMDAT ??_C@_0L@PPHAJBEH@projection@
CONST	SEGMENT
??_C@_0L@PPHAJBEH@projection@ DB 'projection', 00H	; `string'
CONST	ENDS
;	COMDAT ??_C@_04CHADEDPO@view@
CONST	SEGMENT
??_C@_04CHADEDPO@view@ DB 'view', 00H			; `string'
CONST	ENDS
;	COMDAT ??_C@_05NCCFOPHA@model@
CONST	SEGMENT
??_C@_05NCCFOPHA@model@ DB 'model', 00H			; `string'
CONST	ENDS
;	COMDAT ??_C@_05FPMBMOMC@test?6@
CONST	SEGMENT
??_C@_05FPMBMOMC@test?6@ DB 'test', 0aH, 00H		; `string'
CONST	ENDS
;	COMDAT ??_C@_0BA@JFNIOLAK@string?5too?5long@
CONST	SEGMENT
??_C@_0BA@JFNIOLAK@string?5too?5long@ DB 'string too long', 00H ; `string'
CONST	ENDS
;	COMDAT ??_C@_0BF@KINCDENJ@bad?5array?5new?5length@
CONST	SEGMENT
??_C@_0BF@KINCDENJ@bad?5array?5new?5length@ DB 'bad array new length', 00H ; `string'
CONST	ENDS
;	COMDAT ??_C@_0BC@EOODALEL@Unknown?5exception@
CONST	SEGMENT
??_C@_0BC@EOODALEL@Unknown?5exception@ DB 'Unknown exception', 00H ; `string'
CONST	ENDS
PUBLIC	?call@?$compute_vec4_add@M$0A@$0A@@detail@glm@@SA?AU?$vec@$03M$0A@@3@AEBU43@0@Z ; glm::detail::compute_vec4_add<float,0,0>::call
PUBLIC	??$?YM@?$vec@$03M$0A@@glm@@QEAAAEAU01@AEBU01@@Z	; glm::vec<4,float,0>::operator+=<float>
PUBLIC	?call@?$compute_vec4_mul@M$0A@$0A@@detail@glm@@SA?AU?$vec@$03M$0A@@3@AEBU43@0@Z ; glm::detail::compute_vec4_mul<float,0,0>::call
PUBLIC	??$_Allocate_manually_vector_aligned@U_Default_allocate_traits@std@@@std@@YAPEAX_K@Z ; std::_Allocate_manually_vector_aligned<std::_Default_allocate_traits>
PUBLIC	??$_Voidify_iter@PEAPEAD@std@@YAPEAXPEAPEAD@Z	; std::_Voidify_iter<char * *>
PUBLIC	??$construct_at@PEADAEBQEADX@std@@YAPEAPEADQEAPEADAEBQEAD@Z ; std::construct_at<char *,char * const &,void>
PUBLIC	??$forward@AEBQEAD@std@@YAAEBQEADAEBQEAD@Z	; std::forward<char * const &>
PUBLIC	??$addressof@PEAD@std@@YAPEAPEADAEAPEAD@Z	; std::addressof<char *>
PUBLIC	??$?HM$0A@@glm@@YA?AU?$vec@$03M$0A@@0@AEBU10@0@Z ; glm::operator+<float,0>
PUBLIC	??$?XM@?$vec@$03M$0A@@glm@@QEAAAEAU01@M@Z	; glm::vec<4,float,0>::operator*=<float>
PUBLIC	??$?0HHHM@?$vec@$03M$0A@@glm@@QEAA@HHHM@Z	; glm::vec<4,float,0>::vec<4,float,0><int,int,int,float>
PUBLIC	??$?0HHMH@?$vec@$03M$0A@@glm@@QEAA@HHMH@Z	; glm::vec<4,float,0>::vec<4,float,0><int,int,float,int>
PUBLIC	??$?0HMHH@?$vec@$03M$0A@@glm@@QEAA@HMHH@Z	; glm::vec<4,float,0>::vec<4,float,0><int,float,int,int>
PUBLIC	??$?0MHHH@?$vec@$03M$0A@@glm@@QEAA@MHHH@Z	; glm::vec<4,float,0>::vec<4,float,0><float,int,int,int>
PUBLIC	??$forward@AEBD@std@@YAAEBDAEBD@Z		; std::forward<char const &>
PUBLIC	??$_Voidify_iter@PEAD@std@@YAPEAXPEAD@Z		; std::_Voidify_iter<char *>
PUBLIC	??A?$mat@$03$03M$0A@@glm@@QEAAAEAU?$vec@$03M$0A@@1@H@Z ; glm::mat<4,4,float,0>::operator[]
PUBLIC	??A?$mat@$03$03M$0A@@glm@@QEBAAEBU?$vec@$03M$0A@@1@H@Z ; glm::mat<4,4,float,0>::operator[]
PUBLIC	??0?$vec@$03M$0A@@glm@@QEAA@M@Z			; glm::vec<4,float,0>::vec<4,float,0>
PUBLIC	??A?$vec@$03M$0A@@glm@@QEAAAEAMH@Z		; glm::vec<4,float,0>::operator[]
PUBLIC	??A?$vec@$02M$0A@@glm@@QEBAAEBMH@Z		; glm::vec<3,float,0>::operator[]
PUBLIC	??0_Bxty@?$_String_val@U?$_Simple_types@D@std@@@std@@QEAA@XZ ; std::_String_val<std::_Simple_types<char> >::_Bxty::_Bxty
PUBLIC	?_Calculate_growth@?$basic_string@DU?$char_traits@D@std@@V?$allocator@D@2@@std@@CA_K_K00@Z ; std::basic_string<char,std::char_traits<char>,std::allocator<char> >::_Calculate_growth
PUBLIC	??0_Sentry_base@?$basic_ostream@DU?$char_traits@D@std@@@std@@QEAA@AEAV12@@Z ; std::basic_ostream<char,std::char_traits<char> >::_Sentry_base::_Sentry_base
PUBLIC	??1_Sentry_base@?$basic_ostream@DU?$char_traits@D@std@@@std@@QEAA@XZ ; std::basic_ostream<char,std::char_traits<char> >::_Sentry_base::~_Sentry_base
PUBLIC	??0?$allocator@D@std@@QEAA@XZ			; std::allocator<char>::allocator<char>
PUBLIC	??0?$_String_val@U?$_Simple_types@D@std@@@std@@QEAA@XZ ; std::_String_val<std::_Simple_types<char> >::_String_val<std::_Simple_types<char> >
PUBLIC	?_Calculate_growth@?$basic_string@DU?$char_traits@D@std@@V?$allocator@D@2@@std@@AEBA_K_K@Z ; std::basic_string<char,std::char_traits<char>,std::allocator<char> >::_Calculate_growth
PUBLIC	?call@?$compute_equal@M$00@detail@glm@@SA_NMM@Z	; glm::detail::compute_equal<float,1>::call
PUBLIC	??0sentry@?$basic_ostream@DU?$char_traits@D@std@@@std@@QEAA@AEAV12@@Z ; std::basic_ostream<char,std::char_traits<char> >::sentry::sentry
PUBLIC	??1sentry@?$basic_ostream@DU?$char_traits@D@std@@@std@@QEAA@XZ ; std::basic_ostream<char,std::char_traits<char> >::sentry::~sentry
PUBLIC	??Bsentry@?$basic_ostream@DU?$char_traits@D@std@@@std@@QEBA_NXZ ; std::basic_ostream<char,std::char_traits<char> >::sentry::operator bool
PUBLIC	??$construct_at@DAEBDX@std@@YAPEADQEADAEBD@Z	; std::construct_at<char,char const &,void>
PUBLIC	??$addressof@D@std@@YAPEADAEAD@Z		; std::addressof<char>
PUBLIC	??$_Get_size_of_n@$00@std@@YA_K_K@Z		; std::_Get_size_of_n<1>
PUBLIC	??$_Allocate@$0BA@U_Default_allocate_traits@std@@$0A@@std@@YAPEAX_K@Z ; std::_Allocate<16,std::_Default_allocate_traits,0>
PUBLIC	??$_Deallocate@$0BA@$0A@@std@@YAXPEAX_K@Z	; std::_Deallocate<16,0>
PUBLIC	??$_Construct_in_place@PEADAEBQEAD@std@@YAXAEAPEADAEBQEAD@Z ; std::_Construct_in_place<char *,char * const &>
PUBLIC	??$_Reallocate_for@V<lambda_1>@?1??assign@?$basic_string@DU?$char_traits@D@std@@V?$allocator@D@2@@std@@QEAAAEAV34@QEBD_K@Z@PEBD@?$basic_string@DU?$char_traits@D@std@@V?$allocator@D@2@@std@@AEAAAEAV01@_KV<lambda_1>@?1??assign@01@QEAAAEAV01@QEBD0@Z@PEBD@Z ; std::basic_string<char,std::char_traits<char>,std::allocator<char> >::_Reallocate_for<`std::basic_string<char,std::char_traits<char>,std::allocator<char> >::assign'::`2'::<lambda_1>,char const *>
PUBLIC	??$_Destroy_in_place@PEAD@std@@YAXAEAPEAD@Z	; std::_Destroy_in_place<char *>
PUBLIC	??$?0$$V@?$_Compressed_pair@V?$allocator@D@std@@V?$_String_val@U?$_Simple_types@D@std@@@2@$00@std@@QEAA@U_Zero_then_variadic_args_t@1@@Z ; std::_Compressed_pair<std::allocator<char>,std::_String_val<std::_Simple_types<char> >,1>::_Compressed_pair<std::allocator<char>,std::_String_val<std::_Simple_types<char> >,1><>
PUBLIC	??$_Convert_size@_K@std@@YA_K_K@Z		; std::_Convert_size<unsigned __int64>
PUBLIC	??$min@_K@std@@YAAEB_KAEB_K0@Z			; std::min<unsigned __int64>
PUBLIC	??$_Unfancy@D@std@@YAPEADPEAD@Z			; std::_Unfancy<char>
PUBLIC	??$ortho@M@glm@@YA?AU?$mat@$03$03M$0A@@0@MMMM@Z	; glm::ortho<float>
PUBLIC	??$?0HHH@?$vec@$02M$0A@@glm@@QEAA@HHH@Z		; glm::vec<3,float,0>::vec<3,float,0><int,int,int>
PUBLIC	??$scale@M$0A@@glm@@YA?AU?$mat@$03$03M$0A@@0@AEBU10@AEBU?$vec@$02M$0A@@0@@Z ; glm::scale<float,0>
PUBLIC	??$?0MMH@?$vec@$02M$0A@@glm@@QEAA@MMH@Z		; glm::vec<3,float,0>::vec<3,float,0><float,float,int>
PUBLIC	??$translate@M$0A@@glm@@YA?AU?$mat@$03$03M$0A@@0@AEBU10@AEBU?$vec@$02M$0A@@0@@Z ; glm::translate<float,0>
PUBLIC	??$?6U?$char_traits@D@std@@@std@@YAAEAV?$basic_ostream@DU?$char_traits@D@std@@@0@AEAV10@PEBD@Z ; std::operator<<<std::char_traits<char> >
PUBLIC	??$?8M$0A@@glm@@YA_NAEBU?$vec@$01M$0A@@0@0@Z	; glm::operator==<float,0>
PUBLIC	??$?0M$0A@@?$vec@$01M$0A@@glm@@QEAA@AEBU?$vec@$02M$0A@@1@@Z ; glm::vec<2,float,0>::vec<2,float,0><float,0>
PUBLIC	??$?DM$0A@@glm@@YA?AU?$vec@$03M$0A@@0@AEBU10@AEBM@Z ; glm::operator*<float,0>
PUBLIC	??0?$mat@$03$03M$0A@@glm@@QEAA@AEBM@Z		; glm::mat<4,4,float,0>::mat<4,4,float,0>
PUBLIC	??0?$vec@$03M$0A@@glm@@QEAA@MMMM@Z		; glm::vec<4,float,0>::vec<4,float,0>
PUBLIC	??0?$vec@$02M$0A@@glm@@QEAA@MMM@Z		; glm::vec<3,float,0>::vec<3,float,0>
PUBLIC	?assign@?$_Char_traits@DH@std@@SAPEADQEAD_KD@Z	; std::_Char_traits<char,int>::assign
PUBLIC	?assign@?$_Char_traits@DH@std@@SAXAEADAEBD@Z	; std::_Char_traits<char,int>::assign
PUBLIC	?max_size@?$_Default_allocator_traits@V?$allocator@D@std@@@std@@SA_KAEBV?$allocator@D@2@@Z ; std::_Default_allocator_traits<std::allocator<char> >::max_size
PUBLIC	?move@?$_Char_traits@DH@std@@SAPEADQEADQEBD_K@Z	; std::_Char_traits<char,int>::move
PUBLIC	?assign@?$_Narrow_char_traits@DH@std@@SAPEADQEAD_KD@Z ; std::_Narrow_char_traits<char,int>::assign
PUBLIC	?assign@?$_Narrow_char_traits@DH@std@@SAXAEADAEBD@Z ; std::_Narrow_char_traits<char,int>::assign
PUBLIC	?deallocate@?$allocator@D@std@@QEAAXQEAD_K@Z	; std::allocator<char>::deallocate
PUBLIC	?allocate@?$allocator@D@std@@QEAAPEAD_K@Z	; std::allocator<char>::allocate
PUBLIC	?max_size@?$basic_string@DU?$char_traits@D@std@@V?$allocator@D@2@@std@@QEBA_KXZ ; std::basic_string<char,std::char_traits<char>,std::allocator<char> >::max_size
PUBLIC	?_Get_first@?$_Compressed_pair@V?$allocator@D@std@@V?$_String_val@U?$_Simple_types@D@std@@@2@$00@std@@QEAAAEAV?$allocator@D@2@XZ ; std::_Compressed_pair<std::allocator<char>,std::_String_val<std::_Simple_types<char> >,1>::_Get_first
PUBLIC	?_Get_first@?$_Compressed_pair@V?$allocator@D@std@@V?$_String_val@U?$_Simple_types@D@std@@@2@$00@std@@QEBAAEBV?$allocator@D@2@XZ ; std::_Compressed_pair<std::allocator<char>,std::_String_val<std::_Simple_types<char> >,1>::_Get_first
PUBLIC	??$max@_K@std@@YAAEB_KAEB_K0@Z			; std::max<unsigned __int64>
PUBLIC	??_GCanvasObject@@QEAAPEAXI@Z			; CanvasObject::`scalar deleting destructor'
PUBLIC	??_GShader@@QEAAPEAXI@Z				; Shader::`scalar deleting destructor'
PUBLIC	?copy@?$_Char_traits@DH@std@@SAPEADQEADQEBD_K@Z	; std::_Char_traits<char,int>::copy
PUBLIC	?length@?$_Narrow_char_traits@DH@std@@SA_KQEBD@Z ; std::_Narrow_char_traits<char,int>::length
PUBLIC	?eq_int_type@?$_Narrow_char_traits@DH@std@@SA_NAEBH0@Z ; std::_Narrow_char_traits<char,int>::eq_int_type
PUBLIC	?eof@?$_Narrow_char_traits@DH@std@@SAHXZ	; std::_Narrow_char_traits<char,int>::eof
PUBLIC	??1_Bxty@?$_String_val@U?$_Simple_types@D@std@@@std@@QEAA@XZ ; std::_String_val<std::_Simple_types<char> >::_Bxty::~_Bxty
PUBLIC	??R<lambda_1>@?1??assign@?$basic_string@DU?$char_traits@D@std@@V?$allocator@D@2@@std@@QEAAAEAV23@QEBD_K@Z@QEBA@QEAD10@Z ; `std::basic_string<char,std::char_traits<char>,std::allocator<char> >::assign'::`2'::<lambda_1>::operator()
PUBLIC	?assign@?$basic_string@DU?$char_traits@D@std@@V?$allocator@D@2@@std@@QEAAAEAV12@QEBD_K@Z ; std::basic_string<char,std::char_traits<char>,std::allocator<char> >::assign
PUBLIC	?assign@?$basic_string@DU?$char_traits@D@std@@V?$allocator@D@2@@std@@QEAAAEAV12@QEBD@Z ; std::basic_string<char,std::char_traits<char>,std::allocator<char> >::assign
PUBLIC	?_Tidy_init@?$basic_string@DU?$char_traits@D@std@@V?$allocator@D@2@@std@@AEAAXXZ ; std::basic_string<char,std::char_traits<char>,std::allocator<char> >::_Tidy_init
PUBLIC	?_Tidy_deallocate@?$basic_string@DU?$char_traits@D@std@@V?$allocator@D@2@@std@@AEAAXXZ ; std::basic_string<char,std::char_traits<char>,std::allocator<char> >::_Tidy_deallocate
PUBLIC	?_Getal@?$basic_string@DU?$char_traits@D@std@@V?$allocator@D@2@@std@@AEAAAEAV?$allocator@D@2@XZ ; std::basic_string<char,std::char_traits<char>,std::allocator<char> >::_Getal
PUBLIC	?_Getal@?$basic_string@DU?$char_traits@D@std@@V?$allocator@D@2@@std@@AEBAAEBV?$allocator@D@2@XZ ; std::basic_string<char,std::char_traits<char>,std::allocator<char> >::_Getal
PUBLIC	??R?$default_delete@VCanvasObject@@@std@@QEBAXPEAVCanvasObject@@@Z ; std::default_delete<CanvasObject>::operator()
PUBLIC	?_Get_first@?$_Compressed_pair@U?$default_delete@VCanvasObject@@@std@@PEAVCanvasObject@@$00@std@@QEAAAEAU?$default_delete@VCanvasObject@@@2@XZ ; std::_Compressed_pair<std::default_delete<CanvasObject>,CanvasObject *,1>::_Get_first
PUBLIC	??R?$default_delete@VShader@@@std@@QEBAXPEAVShader@@@Z ; std::default_delete<Shader>::operator()
PUBLIC	?_Get_first@?$_Compressed_pair@U?$default_delete@VShader@@@std@@PEAVShader@@$00@std@@QEAAAEAU?$default_delete@VShader@@@2@XZ ; std::_Compressed_pair<std::default_delete<Shader>,Shader *,1>::_Get_first
PUBLIC	??0?$basic_string@DU?$char_traits@D@std@@V?$allocator@D@2@@std@@QEAA@QEBD@Z ; std::basic_string<char,std::char_traits<char>,std::allocator<char> >::basic_string<char,std::char_traits<char>,std::allocator<char> >
PUBLIC	??1?$_String_val@U?$_Simple_types@D@std@@@std@@QEAA@XZ ; std::_String_val<std::_Simple_types<char> >::~_String_val<std::_Simple_types<char> >
PUBLIC	??1?$_Compressed_pair@V?$allocator@D@std@@V?$_String_val@U?$_Simple_types@D@std@@@2@$00@std@@QEAA@XZ ; std::_Compressed_pair<std::allocator<char>,std::_String_val<std::_Simple_types<char> >,1>::~_Compressed_pair<std::allocator<char>,std::_String_val<std::_Simple_types<char> >,1>
PUBLIC	??1?$basic_string@DU?$char_traits@D@std@@V?$allocator@D@2@@std@@QEAA@XZ ; std::basic_string<char,std::char_traits<char>,std::allocator<char> >::~basic_string<char,std::char_traits<char>,std::allocator<char> >
PUBLIC	?_Large_string_engaged@?$_String_val@U?$_Simple_types@D@std@@@std@@QEBA_NXZ ; std::_String_val<std::_Simple_types<char> >::_Large_string_engaged
PUBLIC	?_Myptr@?$_String_val@U?$_Simple_types@D@std@@@std@@QEAAPEADXZ ; std::_String_val<std::_Simple_types<char> >::_Myptr
PUBLIC	??1?$unique_ptr@VCanvasObject@@U?$default_delete@VCanvasObject@@@std@@@std@@QEAA@XZ ; std::unique_ptr<CanvasObject,std::default_delete<CanvasObject> >::~unique_ptr<CanvasObject,std::default_delete<CanvasObject> >
PUBLIC	??C?$unique_ptr@VCanvasObject@@U?$default_delete@VCanvasObject@@@std@@@std@@QEBAPEAVCanvasObject@@XZ ; std::unique_ptr<CanvasObject,std::default_delete<CanvasObject> >::operator->
PUBLIC	??1?$unique_ptr@VShader@@U?$default_delete@VShader@@@std@@@std@@QEAA@XZ ; std::unique_ptr<Shader,std::default_delete<Shader> >::~unique_ptr<Shader,std::default_delete<Shader> >
PUBLIC	??C?$unique_ptr@VShader@@U?$default_delete@VShader@@@std@@@std@@QEBAPEAVShader@@XZ ; std::unique_ptr<Shader,std::default_delete<Shader> >::operator->
PUBLIC	?DrawRectangularSelect@RectangularSelect@@QEAAXXZ ; RectangularSelect::DrawRectangularSelect
PUBLIC	?RectangularSelectStep@RectangularSelect@@QEAAXXZ ; RectangularSelect::RectangularSelectStep
PUBLIC	??1RectangularSelect@@QEAA@XZ			; RectangularSelect::~RectangularSelect
PUBLIC	??0RectangularSelect@@QEAA@XZ			; RectangularSelect::RectangularSelect
PUBLIC	??$?0HH@?$vec@$01M$0A@@glm@@QEAA@HH@Z		; glm::vec<2,float,0>::vec<2,float,0><int,int>
PUBLIC	??_H@YAXPEAX_K1P6APEAX0@Z@Z			; `vector constructor iterator'
PUBLIC	?_Xlen_string@std@@YAXXZ			; std::_Xlen_string
PUBLIC	?_Release@_Fake_proxy_ptr_impl@std@@QEAAXXZ	; std::_Fake_proxy_ptr_impl::_Release
PUBLIC	??0_Fake_proxy_ptr_impl@std@@QEAA@AEBU_Fake_allocator@1@AEBU_Container_base0@1@@Z ; std::_Fake_proxy_ptr_impl::_Fake_proxy_ptr_impl
PUBLIC	?_Orphan_all@_Container_base0@std@@QEAAXXZ	; std::_Container_base0::_Orphan_all
PUBLIC	?_Adjust_manually_vector_aligned@std@@YAXAEAPEAXAEA_K@Z ; std::_Adjust_manually_vector_aligned
PUBLIC	?_Allocate@_Default_allocate_traits@std@@SAPEAX_K@Z ; std::_Default_allocate_traits::_Allocate
PUBLIC	?max@?$numeric_limits@_J@std@@SA_JXZ		; std::numeric_limits<__int64>::max
PUBLIC	??0bad_alloc@std@@QEAA@AEBV01@@Z		; std::bad_alloc::bad_alloc
PUBLIC	??0bad_array_new_length@std@@QEAA@AEBV01@@Z	; std::bad_array_new_length::bad_array_new_length
PUBLIC	?_Throw_bad_array_new_length@std@@YAXXZ		; std::_Throw_bad_array_new_length
PUBLIC	??1bad_array_new_length@std@@UEAA@XZ		; std::bad_array_new_length::~bad_array_new_length
PUBLIC	??_Gbad_array_new_length@std@@UEAAPEAXI@Z	; std::bad_array_new_length::`scalar deleting destructor'
PUBLIC	??0bad_array_new_length@std@@QEAA@XZ		; std::bad_array_new_length::bad_array_new_length
PUBLIC	??1bad_alloc@std@@UEAA@XZ			; std::bad_alloc::~bad_alloc
PUBLIC	??_Gbad_alloc@std@@UEAAPEAXI@Z			; std::bad_alloc::`scalar deleting destructor'
PUBLIC	??0bad_alloc@std@@AEAA@QEBD@Z			; std::bad_alloc::bad_alloc
PUBLIC	??_Gexception@std@@UEAAPEAXI@Z			; std::exception::`scalar deleting destructor'
PUBLIC	?what@exception@std@@UEBAPEBDXZ			; std::exception::what
PUBLIC	??1exception@std@@UEAA@XZ			; std::exception::~exception
PUBLIC	??0exception@std@@QEAA@AEBV01@@Z		; std::exception::exception
PUBLIC	??0exception@std@@QEAA@QEBDH@Z			; std::exception::exception
PUBLIC	?is_constant_evaluated@std@@YA_NXZ		; std::is_constant_evaluated
PUBLIC	??2@YAPEAX_KPEAX@Z				; operator new
PUBLIC	?m_CanvasObject@Primitive@@2V?$unique_ptr@VCanvasObject@@U?$default_delete@VCanvasObject@@@std@@@std@@A ; Primitive::m_CanvasObject
PUBLIC	?m_RectShader@Primitive@@2V?$unique_ptr@VShader@@U?$default_delete@VShader@@@std@@@std@@A ; Primitive::m_RectShader
PUBLIC	?m_CanvasShader@Primitive@@2V?$unique_ptr@VShader@@U?$default_delete@VShader@@@std@@@std@@A ; Primitive::m_CanvasShader
PUBLIC	?m_BrushObject@Primitive@@2V?$unique_ptr@VCanvasObject@@U?$default_delete@VCanvasObject@@@std@@@std@@A ; Primitive::m_BrushObject
PUBLIC	__isa_available_default
PUBLIC	__real@00800000
PUBLIC	__real@1e3ce508
PUBLIC	__real@358637bd
PUBLIC	__real@3727c5ac
PUBLIC	__real@37800000
PUBLIC	__real@38800000
PUBLIC	__real@38d1b717
PUBLIC	__real@3a83126f
PUBLIC	__real@3b808081
PUBLIC	__real@3c23d70a
PUBLIC	__real@3c888889
PUBLIC	__real@3cdd2f1b
PUBLIC	__real@3d23d70a
PUBLIC	__real@3d4ccccd
PUBLIC	__real@3d860a92
PUBLIC	__real@3da3d70a
PUBLIC	__real@3dcccccd
PUBLIC	__real@3e000000
PUBLIC	__real@3e09374c
PUBLIC	__real@3e19999a
PUBLIC	__real@3e2aaaab
PUBLIC	__real@3e4ccccd
PUBLIC	__real@3e800000
PUBLIC	__real@3e99999a
PUBLIC	__real@3eb33333
PUBLIC	__real@3ecccccd
PUBLIC	__real@3ee4f8b580000000
PUBLIC	__real@3efae148
PUBLIC	__real@3f000000
PUBLIC	__real@3f0ccccd
PUBLIC	__real@3f19999a
PUBLIC	__real@3f266666
PUBLIC	__real@3f2b851f
PUBLIC	__real@3f333333
PUBLIC	__real@3f350481
PUBLIC	__real@3f3851ec
PUBLIC	__real@3f400000
PUBLIC	__real@3f490fdb
PUBLIC	__real@3f4ccccd
PUBLIC	__real@3f59999a
PUBLIC	__real@3f5db22d
PUBLIC	__real@3f5db3d0
PUBLIC	__real@3f666666
PUBLIC	__real@3f7d70a4
PUBLIC	__real@3f7fff58
PUBLIC	__real@3f7fffef
PUBLIC	__real@3f800000
PUBLIC	__real@3f8ccccd
PUBLIC	__real@3f99999a
PUBLIC	__real@3faccccd
PUBLIC	__real@3fb33333
PUBLIC	__real@3fc00000
PUBLIC	__real@3fe0000000000000
PUBLIC	__real@40000000
PUBLIC	__real@4000000000000000
PUBLIC	__real@400ccccd
PUBLIC	__real@4019999a
PUBLIC	__real@40200000
PUBLIC	__real@40266666
PUBLIC	__real@403f5c29
PUBLIC	__real@40400000
PUBLIC	__real@40490fdb
PUBLIC	__real@40600000
PUBLIC	__real@40666666
PUBLIC	__real@40800000
PUBLIC	__real@40a00000
PUBLIC	__real@40afede0
PUBLIC	__real@40c00000
PUBLIC	__real@40c90fdb
PUBLIC	__real@41000000
PUBLIC	__real@41200000
PUBLIC	__real@41300000
PUBLIC	__real@41400000
PUBLIC	__real@41500000
PUBLIC	__real@41800000
PUBLIC	__real@41a00000
PUBLIC	__real@41c00000
PUBLIC	__real@41c80000
PUBLIC	__real@41f00000
PUBLIC	__real@42040000
PUBLIC	__real@420c0000
PUBLIC	__real@42140000
PUBLIC	__real@42280000
PUBLIC	__real@42400000
PUBLIC	__real@42440000
PUBLIC	__real@42480000
PUBLIC	__real@424c0000
PUBLIC	__real@42540000
PUBLIC	__real@425c0000
PUBLIC	__real@42700000
PUBLIC	__real@428c0000
PUBLIC	__real@42c00000
PUBLIC	__real@42c80000
PUBLIC	__real@42f60000
PUBLIC	__real@43000000
PUBLIC	__real@434c0000
PUBLIC	__real@437f0000
PUBLIC	__real@43960000
PUBLIC	__real@43e0000000000000
PUBLIC	__real@44160000
PUBLIC	__real@44333333
PUBLIC	__real@443b8000
PUBLIC	__real@44480000
PUBLIC	__real@447a0000
PUBLIC	__real@44b33333
PUBLIC	__real@45333333
PUBLIC	__real@45fa0000
PUBLIC	__real@46fffe00
PUBLIC	__real@47efffffe0000000
PUBLIC	__real@5f000000
PUBLIC	__real@7f7fffff
PUBLIC	__real@7fefffffffffffff
PUBLIC	__real@bc23d70a
PUBLIC	__real@be800000
PUBLIC	__real@beaaaaab
PUBLIC	__real@bf000000
PUBLIC	__real@bf400000
PUBLIC	__real@bf5db22d
PUBLIC	__real@bf5db3d0
PUBLIC	__real@bf800000
PUBLIC	__real@bfe0000000000000
PUBLIC	__real@c0000000
PUBLIC	__real@c2c80000
PUBLIC	__real@c5fa0000
PUBLIC	__real@c7000000
PUBLIC	__real@c87a0000
PUBLIC	__real@ff7fffff
PUBLIC	__real@ffefffffffffffff
PUBLIC	__xmm@0000000000000000000000003f800000
PUBLIC	__xmm@00000000000000003f80000000000000
PUBLIC	__xmm@00000000000000020000000300000001
PUBLIC	__xmm@000000000000000f0000000000000000
PUBLIC	__xmm@000000003f000000bf00000000000000
PUBLIC	__xmm@000000003f8000000000000000000000
PUBLIC	__xmm@000000003f800000bf80000000000000
PUBLIC	__xmm@00000000bf8000000000000000000000
PUBLIC	__xmm@00000001000000010000000100000001
PUBLIC	__xmm@00000002000000000000000100000003
PUBLIC	__xmm@00000003000000020000000100000000
PUBLIC	__xmm@000002020000020e0000020d0000020c
PUBLIC	__xmm@0000027c0000027b000002790000027a
PUBLIC	__xmm@000002800000027f0000027d0000027e
PUBLIC	__xmm@3d75c28f3f8000003f8000003f800000
PUBLIC	__xmm@3e4ccccd3f4ccccd3f4ccccd3f4ccccd
PUBLIC	__xmm@3e4ccccd3f7ae1483f170a3d3e851eb8
PUBLIC	__xmm@3e9eb8523f7ae1483f170a3d3e851eb8
PUBLIC	__xmm@3eb333333f4ccccd3f4ccccd3f4ccccd
PUBLIC	__xmm@3eb333333f7ae1483f170a3d3e851eb8
PUBLIC	__xmm@3ec8c8c93ec8c8c93ec8c8c93ec8c8c9
PUBLIC	__xmm@3ec8c8c93f1696973f1696973f169697
PUBLIC	__xmm@3ecccccd3f7ae1483f170a3d3e851eb8
PUBLIC	__xmm@3f000000000000003f0000003f000000
PUBLIC	__xmm@3f0000003e99999a3e99999a3e99999a
PUBLIC	__xmm@3f0000003ecccccd3ecccccd3ecccccd
PUBLIC	__xmm@3f0000003f0000003edc28f63edc28f6
PUBLIC	__xmm@3f028f5c000000000000000000000000
PUBLIC	__xmm@3f07ae143ca3d70a3ca3d70a3ca3d70a
PUBLIC	__xmm@3f0a3d713ef5c28f3e947ae13e23d70a
PUBLIC	__xmm@3f2b851f3f7ae1483f170a3d3e851eb8
PUBLIC	__xmm@3f3333333f8000003f8000003f800000
PUBLIC	__xmm@3f47ae143f4000003ecccccd3dcccccd
PUBLIC	__xmm@3f4ccccd3f7ae1483f170a3d3e851eb8
PUBLIC	__xmm@3f666666000000003f8000003f800000
PUBLIC	__xmm@3f70a3d73d75c28f3d75c28f3d75c28f
PUBLIC	__xmm@3f70a3d73da3d70a3da3d70a3da3d70a
PUBLIC	__xmm@3f7333333f7ae1483f170a3d3e851eb8
PUBLIC	__xmm@3f800000000000000000000000000000
PUBLIC	__xmm@3f80000000000000000000003f800000
PUBLIC	__xmm@3f800000000000003f19999a3f800000
PUBLIC	__xmm@3f800000000000003f3333333f666666
PUBLIC	__xmm@3f800000000000003f8000003f800000
PUBLIC	__xmm@3f8000003d23d70a3d23d70a3d23d70a
PUBLIC	__xmm@3f8000003d8080813d8080813d808081
PUBLIC	__xmm@3f8000003db851ec3db851ec3db851ec
PUBLIC	__xmm@3f8000003e0080813e0080813e008081
PUBLIC	__xmm@3f8000003e0f5c293e0f5c293e0f5c29
PUBLIC	__xmm@3f8000003e1090913e1090913e109091
PUBLIC	__xmm@3f8000003e4ccccd3e428f5c3e428f5c
PUBLIC	__xmm@3f8000003e4ccccd3e4ccccd3e4ccccd
PUBLIC	__xmm@3f8000003e8000003e6b851f3e6b851f
PUBLIC	__xmm@3f8000003e9eb8523e9eb8523e9eb852
PUBLIC	__xmm@3f8000003eb333333e9eb8523e9eb852
PUBLIC	__xmm@3f8000003eb333333edc28f63f800000
PUBLIC	__xmm@3f8000003ec8c8c93ec8c8c93ec8c8c9
PUBLIC	__xmm@3f8000003ecccccd3ecccccd3ecccccd
PUBLIC	__xmm@3f8000003ed1eb853ed1eb853ed1eb85
PUBLIC	__xmm@3f8000003ef0f0f13ef0f0f13ef0f0f1
PUBLIC	__xmm@3f8000003ef5c28f3e947ae13e23d70a
PUBLIC	__xmm@3f8000003f0000003f0000003f000000
PUBLIC	__xmm@3f8000003f028f5c3f028f5c3f028f5c
PUBLIC	__xmm@3f8000003f0ccccd3f0ccccd3f0ccccd
PUBLIC	__xmm@3f8000003f1696973f1696973f169697
PUBLIC	__xmm@3f8000003f19999a3f19999a3f19999a
PUBLIC	__xmm@3f8000003f1c28f63f1c28f63f1c28f6
PUBLIC	__xmm@3f8000003f4000003ecccccd3dcccccd
PUBLIC	__xmm@3f8000003f6147ae3f051eb83e75c28f
PUBLIC	__xmm@3f8000003f7ae1483f07ae143d75c28f
PUBLIC	__xmm@3f8000003f7ae1483f170a3d3e851eb8
PUBLIC	__xmm@3f8000003f8000003f8000003f800000
PUBLIC	__xmm@3ff0000000000000bff0000000000000
PUBLIC	__xmm@437f0000437f0000437f0000437f0000
PUBLIC	__xmm@7fffffff7fffffff7fffffff7fffffff
PUBLIC	__xmm@7fffffffffffffff7fffffffffffffff
PUBLIC	__xmm@80000000800000008000000080000000
PUBLIC	__xmm@bf000000bf00000000000000bf000000
PUBLIC	__xmm@bf800000bf80000000000000bf800000
PUBLIC	__xmm@ff7fffffff7fffff7f7fffff7f7fffff
EXTRN	__std_terminate:PROC
EXTRN	??_Eexception@std@@UEAAPEAXI@Z:PROC		; std::exception::`vector deleting destructor'
EXTRN	??_Ebad_alloc@std@@UEAAPEAXI@Z:PROC		; std::bad_alloc::`vector deleting destructor'
EXTRN	??_Ebad_array_new_length@std@@UEAAPEAXI@Z:PROC	; std::bad_array_new_length::`vector deleting destructor'
EXTRN	_CxxThrowException:PROC
EXTRN	__CxxFrameHandler4:PROC
EXTRN	__GSHandlerCheck:PROC
EXTRN	__GSHandlerCheck_EH4:PROC
EXTRN	acosf:PROC
EXTRN	atan2f:PROC
EXTRN	ceilf:PROC
EXTRN	cosf:PROC
EXTRN	fmodf:PROC
EXTRN	log:PROC
EXTRN	logf:PROC
EXTRN	memchr:PROC
EXTRN	memcmp:PROC
EXTRN	memcpy:PROC
EXTRN	memmove:PROC
EXTRN	memset:PROC
EXTRN	pow:PROC
EXTRN	powf:PROC
EXTRN	sinf:PROC
EXTRN	sqrtf:PROC
EXTRN	strcmp:PROC
EXTRN	__ImageBase:BYTE
EXTRN	__isa_available:DWORD
EXTRN	__security_cookie:QWORD
EXTRN	_fltused:DWORD
EXTRN	_tls_index:DWORD
;	COMDAT __isa_available_default
_BSS	SEGMENT
__isa_available_default DD 01H DUP (?)
_BSS	ENDS
;	COMDAT pdata
pdata	SEGMENT
$pdata$??$_Allocate_manually_vector_aligned@U_Default_allocate_traits@std@@@std@@YAPEAX_K@Z DD imagerel $LN17@Allocate_m
	DD	imagerel $LN17@Allocate_m+59
	DD	imagerel $unwind$??$_Allocate_manually_vector_aligned@U_Default_allocate_traits@std@@@std@@YAPEAX_K@Z
pdata	ENDS
;	COMDAT pdata
pdata	SEGMENT
$pdata$??0_Sentry_base@?$basic_ostream@DU?$char_traits@D@std@@@std@@QEAA@AEAV12@@Z DD imagerel $LN8@Sentry_bas
	DD	imagerel $LN8@Sentry_bas+44
	DD	imagerel $unwind$??0_Sentry_base@?$basic_ostream@DU?$char_traits@D@std@@@std@@QEAA@AEAV12@@Z
pdata	ENDS
;	COMDAT pdata
pdata	SEGMENT
$pdata$??1_Sentry_base@?$basic_ostream@DU?$char_traits@D@std@@@std@@QEAA@XZ DD imagerel $LN8@Sentry_bas
	DD	imagerel $LN8@Sentry_bas+36
	DD	imagerel $unwind$??1_Sentry_base@?$basic_ostream@DU?$char_traits@D@std@@@std@@QEAA@XZ
pdata	ENDS
;	COMDAT pdata
pdata	SEGMENT
$pdata$??0sentry@?$basic_ostream@DU?$char_traits@D@std@@@std@@QEAA@AEAV12@@Z DD imagerel $LN24@sentry
	DD	imagerel $LN24@sentry+123
	DD	imagerel $unwind$??0sentry@?$basic_ostream@DU?$char_traits@D@std@@@std@@QEAA@AEAV12@@Z
pdata	ENDS
;	COMDAT pdata
pdata	SEGMENT
$pdata$??1sentry@?$basic_ostream@DU?$char_traits@D@std@@@std@@QEAA@XZ DD imagerel $LN13@sentry
	DD	imagerel $LN13@sentry+62
	DD	imagerel $unwind$??1sentry@?$basic_ostream@DU?$char_traits@D@std@@@std@@QEAA@XZ
pdata	ENDS
;	COMDAT pdata
pdata	SEGMENT
$pdata$??$_Allocate@$0BA@U_Default_allocate_traits@std@@$0A@@std@@YAPEAX_K@Z DD imagerel $LN25@Allocate
	DD	imagerel $LN25@Allocate+89
	DD	imagerel $unwind$??$_Allocate@$0BA@U_Default_allocate_traits@std@@$0A@@std@@YAPEAX_K@Z
pdata	ENDS
;	COMDAT pdata
pdata	SEGMENT
$pdata$??$_Deallocate@$0BA@$0A@@std@@YAXPEAX_K@Z DD imagerel $LN20@Deallocate
	DD	imagerel $LN20@Deallocate+53
	DD	imagerel $unwind$??$_Deallocate@$0BA@$0A@@std@@YAXPEAX_K@Z
pdata	ENDS
;	COMDAT pdata
pdata	SEGMENT
$pdata$??$_Reallocate_for@V<lambda_1>@?1??assign@?$basic_string@DU?$char_traits@D@std@@V?$allocator@D@2@@std@@QEAAAEAV34@QEBD_K@Z@PEBD@?$basic_string@DU?$char_traits@D@std@@V?$allocator@D@2@@std@@AEAAAEAV01@_KV<lambda_1>@?1??assign@01@QEAAAEAV01@QEBD0@Z@PEBD@Z DD imagerel $LN103@Reallocate
	DD	imagerel $LN103@Reallocate+43
	DD	imagerel $unwind$??$_Reallocate_for@V<lambda_1>@?1??assign@?$basic_string@DU?$char_traits@D@std@@V?$allocator@D@2@@std@@QEAAAEAV34@QEBD_K@Z@PEBD@?$basic_string@DU?$char_traits@D@std@@V?$allocator@D@2@@std@@AEAAAEAV01@_KV<lambda_1>@?1??assign@01@QEAAAEAV01@QEBD0@Z@PEBD@Z
pdata	ENDS
;	COMDAT pdata
pdata	SEGMENT
$pdata$1$??$_Reallocate_for@V<lambda_1>@?1??assign@?$basic_string@DU?$char_traits@D@std@@V?$allocator@D@2@@std@@QEAAAEAV34@QEBD_K@Z@PEBD@?$basic_string@DU?$char_traits@D@std@@V?$allocator@D@2@@std@@AEAAAEAV01@_KV<lambda_1>@?1??assign@01@QEAAAEAV01@QEBD0@Z@PEBD@Z DD imagerel $LN103@Reallocate+43
	DD	imagerel $LN103@Reallocate+286
	DD	imagerel $chain$1$??$_Reallocate_for@V<lambda_1>@?1??assign@?$basic_string@DU?$char_traits@D@std@@V?$allocator@D@2@@std@@QEAAAEAV34@QEBD_K@Z@PEBD@?$basic_string@DU?$char_traits@D@std@@V?$allocator@D@2@@std@@AEAAAEAV01@_KV<lambda_1>@?1??assign@01@QEAAAEAV01@QEBD0@Z@PEBD@Z
pdata	ENDS
;	COMDAT pdata
pdata	SEGMENT
$pdata$3$??$_Reallocate_for@V<lambda_1>@?1??assign@?$basic_string@DU?$char_traits@D@std@@V?$allocator@D@2@@std@@QEAAAEAV34@QEBD_K@Z@PEBD@?$basic_string@DU?$char_traits@D@std@@V?$allocator@D@2@@std@@AEAAAEAV01@_KV<lambda_1>@?1??assign@01@QEAAAEAV01@QEBD0@Z@PEBD@Z DD imagerel $LN103@Reallocate+286
	DD	imagerel $LN103@Reallocate+299
	DD	imagerel $chain$3$??$_Reallocate_for@V<lambda_1>@?1??assign@?$basic_string@DU?$char_traits@D@std@@V?$allocator@D@2@@std@@QEAAAEAV34@QEBD_K@Z@PEBD@?$basic_string@DU?$char_traits@D@std@@V?$allocator@D@2@@std@@AEAAAEAV01@_KV<lambda_1>@?1??assign@01@QEAAAEAV01@QEBD0@Z@PEBD@Z
pdata	ENDS
;	COMDAT pdata
pdata	SEGMENT
$pdata$4$??$_Reallocate_for@V<lambda_1>@?1??assign@?$basic_string@DU?$char_traits@D@std@@V?$allocator@D@2@@std@@QEAAAEAV34@QEBD_K@Z@PEBD@?$basic_string@DU?$char_traits@D@std@@V?$allocator@D@2@@std@@AEAAAEAV01@_KV<lambda_1>@?1??assign@01@QEAAAEAV01@QEBD0@Z@PEBD@Z DD imagerel $LN103@Reallocate+299
	DD	imagerel $LN103@Reallocate+305
	DD	imagerel $chain$4$??$_Reallocate_for@V<lambda_1>@?1??assign@?$basic_string@DU?$char_traits@D@std@@V?$allocator@D@2@@std@@QEAAAEAV34@QEBD_K@Z@PEBD@?$basic_string@DU?$char_traits@D@std@@V?$allocator@D@2@@std@@AEAAAEAV01@_KV<lambda_1>@?1??assign@01@QEAAAEAV01@QEBD0@Z@PEBD@Z
pdata	ENDS
;	COMDAT pdata
pdata	SEGMENT
$pdata$??$ortho@M@glm@@YA?AU?$mat@$03$03M$0A@@0@MMMM@Z DD imagerel $LN69@ortho
	DD	imagerel $LN69@ortho+178
	DD	imagerel $unwind$??$ortho@M@glm@@YA?AU?$mat@$03$03M$0A@@0@MMMM@Z
pdata	ENDS
;	COMDAT pdata
pdata	SEGMENT
$pdata$??$scale@M$0A@@glm@@YA?AU?$mat@$03$03M$0A@@0@AEBU10@AEBU?$vec@$02M$0A@@0@@Z DD imagerel $LN98@scale
	DD	imagerel $LN98@scale+282
	DD	imagerel $unwind$??$scale@M$0A@@glm@@YA?AU?$mat@$03$03M$0A@@0@AEBU10@AEBU?$vec@$02M$0A@@0@@Z
pdata	ENDS
;	COMDAT pdata
pdata	SEGMENT
$pdata$??$translate@M$0A@@glm@@YA?AU?$mat@$03$03M$0A@@0@AEBU10@AEBU?$vec@$02M$0A@@0@@Z DD imagerel $LN140@translate
	DD	imagerel $LN140@translate+376
	DD	imagerel $unwind$??$translate@M$0A@@glm@@YA?AU?$mat@$03$03M$0A@@0@AEBU10@AEBU?$vec@$02M$0A@@0@@Z
pdata	ENDS
;	COMDAT pdata
pdata	SEGMENT
$pdata$??$?6U?$char_traits@D@std@@@std@@YAAEAV?$basic_ostream@DU?$char_traits@D@std@@@0@AEAV10@PEBD@Z DD imagerel $LN99@operator
	DD	imagerel $LN99@operator+452
	DD	imagerel $unwind$??$?6U?$char_traits@D@std@@@std@@YAAEAV?$basic_ostream@DU?$char_traits@D@std@@@0@AEAV10@PEBD@Z
pdata	ENDS
;	COMDAT pdata
pdata	SEGMENT
$pdata$?catch$4@?0???$?6U?$char_traits@D@std@@@std@@YAAEAV?$basic_ostream@DU?$char_traits@D@std@@@0@AEAV10@PEBD@Z@4HA DD imagerel ?catch$4@?0???$?6U?$char_traits@D@std@@@std@@YAAEAV?$basic_ostream@DU?$char_traits@D@std@@@0@AEAV10@PEBD@Z@4HA
	DD	imagerel ?catch$4@?0???$?6U?$char_traits@D@std@@@std@@YAAEAV?$basic_ostream@DU?$char_traits@D@std@@@0@AEAV10@PEBD@Z@4HA+59
	DD	imagerel $unwind$?catch$4@?0???$?6U?$char_traits@D@std@@@std@@YAAEAV?$basic_ostream@DU?$char_traits@D@std@@@0@AEAV10@PEBD@Z@4HA
pdata	ENDS
;	COMDAT pdata
pdata	SEGMENT
$pdata$?assign@?$_Char_traits@DH@std@@SAPEADQEAD_KD@Z DD imagerel $LN24@assign
	DD	imagerel $LN24@assign+33
	DD	imagerel $unwind$?assign@?$_Char_traits@DH@std@@SAPEADQEAD_KD@Z
pdata	ENDS
;	COMDAT pdata
pdata	SEGMENT
$pdata$?move@?$_Char_traits@DH@std@@SAPEADQEADQEBD_K@Z DD imagerel $LN33@move
	DD	imagerel $LN33@move+23
	DD	imagerel $unwind$?move@?$_Char_traits@DH@std@@SAPEADQEADQEBD_K@Z
pdata	ENDS
;	COMDAT pdata
pdata	SEGMENT
$pdata$?deallocate@?$allocator@D@std@@QEAAXQEAD_K@Z DD imagerel $LN23@deallocate
	DD	imagerel $LN23@deallocate+62
	DD	imagerel $unwind$?deallocate@?$allocator@D@std@@QEAAXQEAD_K@Z
pdata	ENDS
;	COMDAT pdata
pdata	SEGMENT
$pdata$?allocate@?$allocator@D@std@@QEAAPEAD_K@Z DD imagerel $LN28@allocate
	DD	imagerel $LN28@allocate+89
	DD	imagerel $unwind$?allocate@?$allocator@D@std@@QEAAPEAD_K@Z
pdata	ENDS
;	COMDAT pdata
pdata	SEGMENT
$pdata$??_GCanvasObject@@QEAAPEAXI@Z DD imagerel $LN64@scalar
	DD	imagerel $LN64@scalar+189
	DD	imagerel $unwind$??_GCanvasObject@@QEAAPEAXI@Z
pdata	ENDS
;	COMDAT pdata
pdata	SEGMENT
$pdata$??_GShader@@QEAAPEAXI@Z DD imagerel $LN12@scalar
	DD	imagerel $LN12@scalar+50
	DD	imagerel $unwind$??_GShader@@QEAAPEAXI@Z
pdata	ENDS
;	COMDAT pdata
pdata	SEGMENT
$pdata$?copy@?$_Char_traits@DH@std@@SAPEADQEADQEBD_K@Z DD imagerel $LN15@copy
	DD	imagerel $LN15@copy+23
	DD	imagerel $unwind$?copy@?$_Char_traits@DH@std@@SAPEADQEADQEBD_K@Z
pdata	ENDS
;	COMDAT pdata
pdata	SEGMENT
$pdata$??R<lambda_1>@?1??assign@?$basic_string@DU?$char_traits@D@std@@V?$allocator@D@2@@std@@QEAAAEAV23@QEBD_K@Z@QEBA@QEAD10@Z DD imagerel $LN17@operator
	DD	imagerel $LN17@operator+42
	DD	imagerel $unwind$??R<lambda_1>@?1??assign@?$basic_string@DU?$char_traits@D@std@@V?$allocator@D@2@@std@@QEAAAEAV23@QEBD_K@Z@QEBA@QEAD10@Z
pdata	ENDS
;	COMDAT pdata
pdata	SEGMENT
$pdata$?assign@?$basic_string@DU?$char_traits@D@std@@V?$allocator@D@2@@std@@QEAAAEAV12@QEBD_K@Z DD imagerel $LN143@assign
	DD	imagerel $LN143@assign+139
	DD	imagerel $unwind$?assign@?$basic_string@DU?$char_traits@D@std@@V?$allocator@D@2@@std@@QEAAAEAV12@QEBD_K@Z
pdata	ENDS
;	COMDAT pdata
pdata	SEGMENT
$pdata$0$?assign@?$basic_string@DU?$char_traits@D@std@@V?$allocator@D@2@@std@@QEAAAEAV12@QEBD_K@Z DD imagerel $LN143@assign+139
	DD	imagerel $LN143@assign+330
	DD	imagerel $chain$0$?assign@?$basic_string@DU?$char_traits@D@std@@V?$allocator@D@2@@std@@QEAAAEAV12@QEBD_K@Z
pdata	ENDS
;	COMDAT pdata
pdata	SEGMENT
$pdata$2$?assign@?$basic_string@DU?$char_traits@D@std@@V?$allocator@D@2@@std@@QEAAAEAV12@QEBD_K@Z DD imagerel $LN143@assign+330
	DD	imagerel $LN143@assign+343
	DD	imagerel $chain$2$?assign@?$basic_string@DU?$char_traits@D@std@@V?$allocator@D@2@@std@@QEAAAEAV12@QEBD_K@Z
pdata	ENDS
;	COMDAT pdata
pdata	SEGMENT
$pdata$3$?assign@?$basic_string@DU?$char_traits@D@std@@V?$allocator@D@2@@std@@QEAAAEAV12@QEBD_K@Z DD imagerel $LN143@assign+343
	DD	imagerel $LN143@assign+349
	DD	imagerel $chain$3$?assign@?$basic_string@DU?$char_traits@D@std@@V?$allocator@D@2@@std@@QEAAAEAV12@QEBD_K@Z
pdata	ENDS
;	COMDAT pdata
pdata	SEGMENT
$pdata$?_Tidy_init@?$basic_string@DU?$char_traits@D@std@@V?$allocator@D@2@@std@@AEAAXXZ DD imagerel $LN88@Tidy_init
	DD	imagerel $LN88@Tidy_init+20
	DD	imagerel $unwind$?_Tidy_init@?$basic_string@DU?$char_traits@D@std@@V?$allocator@D@2@@std@@AEAAXXZ
pdata	ENDS
;	COMDAT pdata
pdata	SEGMENT
$pdata$?_Tidy_deallocate@?$basic_string@DU?$char_traits@D@std@@V?$allocator@D@2@@std@@AEAAXXZ DD imagerel $LN32@Tidy_deall
	DD	imagerel $LN32@Tidy_deall+95
	DD	imagerel $unwind$?_Tidy_deallocate@?$basic_string@DU?$char_traits@D@std@@V?$allocator@D@2@@std@@AEAAXXZ
pdata	ENDS
;	COMDAT pdata
pdata	SEGMENT
$pdata$??R?$default_delete@VCanvasObject@@@std@@QEBAXPEAVCanvasObject@@@Z DD imagerel $LN71@operator
	DD	imagerel $LN71@operator+21
	DD	imagerel $unwind$??R?$default_delete@VCanvasObject@@@std@@QEBAXPEAVCanvasObject@@@Z
pdata	ENDS
;	COMDAT pdata
pdata	SEGMENT
$pdata$0$??R?$default_delete@VCanvasObject@@@std@@QEBAXPEAVCanvasObject@@@Z DD imagerel $LN71@operator+21
	DD	imagerel $LN71@operator+187
	DD	imagerel $chain$0$??R?$default_delete@VCanvasObject@@@std@@QEBAXPEAVCanvasObject@@@Z
pdata	ENDS
;	COMDAT pdata
pdata	SEGMENT
$pdata$1$??R?$default_delete@VCanvasObject@@@std@@QEBAXPEAVCanvasObject@@@Z DD imagerel $LN71@operator+187
	DD	imagerel $LN71@operator+188
	DD	imagerel $chain$1$??R?$default_delete@VCanvasObject@@@std@@QEBAXPEAVCanvasObject@@@Z
pdata	ENDS
;	COMDAT pdata
pdata	SEGMENT
$pdata$2$??R?$default_delete@VCanvasObject@@@std@@QEBAXPEAVCanvasObject@@@Z DD imagerel $LN71@operator+188
	DD	imagerel $LN71@operator+195
	DD	imagerel $chain$2$??R?$default_delete@VCanvasObject@@@std@@QEBAXPEAVCanvasObject@@@Z
pdata	ENDS
;	COMDAT pdata
pdata	SEGMENT
$pdata$??R?$default_delete@VShader@@@std@@QEBAXPEAVShader@@@Z DD imagerel $LN17@operator
	DD	imagerel $LN17@operator+52
	DD	imagerel $unwind$??R?$default_delete@VShader@@@std@@QEBAXPEAVShader@@@Z
pdata	ENDS
;	COMDAT pdata
pdata	SEGMENT
$pdata$??0?$basic_string@DU?$char_traits@D@std@@V?$allocator@D@2@@std@@QEAA@QEBD@Z DD imagerel $LN105@basic_stri
	DD	imagerel $LN105@basic_stri+57
	DD	imagerel $unwind$??0?$basic_string@DU?$char_traits@D@std@@V?$allocator@D@2@@std@@QEAA@QEBD@Z
pdata	ENDS
;	COMDAT pdata
pdata	SEGMENT
$pdata$??1?$basic_string@DU?$char_traits@D@std@@V?$allocator@D@2@@std@@QEAA@XZ DD imagerel $LN35@basic_stri
	DD	imagerel $LN35@basic_stri+95
	DD	imagerel $unwind$??1?$basic_string@DU?$char_traits@D@std@@V?$allocator@D@2@@std@@QEAA@XZ
pdata	ENDS
;	COMDAT pdata
pdata	SEGMENT
$pdata$??1?$unique_ptr@VShader@@U?$default_delete@VShader@@@std@@@std@@QEAA@XZ DD imagerel $LN19@unique_ptr
	DD	imagerel $LN19@unique_ptr+57
	DD	imagerel $unwind$??1?$unique_ptr@VShader@@U?$default_delete@VShader@@@std@@@std@@QEAA@XZ
pdata	ENDS
;	COMDAT pdata
pdata	SEGMENT
$pdata$?DrawRectangularSelect@RectangularSelect@@QEAAXXZ DD imagerel $LN756
	DD	imagerel $LN756+1249
	DD	imagerel $unwind$?DrawRectangularSelect@RectangularSelect@@QEAAXXZ
pdata	ENDS
;	COMDAT pdata
pdata	SEGMENT
$pdata$??__F?m_CanvasShader@Primitive@@2V?$unique_ptr@VShader@@U?$default_delete@VShader@@@std@@@std@@A@@YAXXZ DD imagerel ??__F?m_CanvasShader@Primitive@@2V?$unique_ptr@VShader@@U?$default_delete@VShader@@@std@@@std@@A@@YAXXZ
	DD	imagerel ??__F?m_CanvasShader@Primitive@@2V?$unique_ptr@VShader@@U?$default_delete@VShader@@@std@@@std@@A@@YAXXZ+61
	DD	imagerel $unwind$??__F?m_CanvasShader@Primitive@@2V?$unique_ptr@VShader@@U?$default_delete@VShader@@@std@@@std@@A@@YAXXZ
pdata	ENDS
;	COMDAT pdata
pdata	SEGMENT
$pdata$??__F?m_RectShader@Primitive@@2V?$unique_ptr@VShader@@U?$default_delete@VShader@@@std@@@std@@A@@YAXXZ DD imagerel ??__F?m_RectShader@Primitive@@2V?$unique_ptr@VShader@@U?$default_delete@VShader@@@std@@@std@@A@@YAXXZ
	DD	imagerel ??__F?m_RectShader@Primitive@@2V?$unique_ptr@VShader@@U?$default_delete@VShader@@@std@@@std@@A@@YAXXZ+61
	DD	imagerel $unwind$??__F?m_RectShader@Primitive@@2V?$unique_ptr@VShader@@U?$default_delete@VShader@@@std@@@std@@A@@YAXXZ
pdata	ENDS
;	COMDAT pdata
pdata	SEGMENT
$pdata$??_H@YAXPEAX_K1P6APEAX0@Z@Z DD imagerel $LN11@vector
	DD	imagerel $LN11@vector+67
	DD	imagerel $unwind$??_H@YAXPEAX_K1P6APEAX0@Z@Z
pdata	ENDS
;	COMDAT pdata
pdata	SEGMENT
$pdata$?_Xlen_string@std@@YAXXZ DD imagerel $LN4@Xlen_strin
	DD	imagerel $LN4@Xlen_strin+18
	DD	imagerel $unwind$?_Xlen_string@std@@YAXXZ
pdata	ENDS
;	COMDAT pdata
pdata	SEGMENT
$pdata$?_Adjust_manually_vector_aligned@std@@YAXAEAPEAXAEA_K@Z DD imagerel $LN13@Adjust_man
	DD	imagerel $LN13@Adjust_man+43
	DD	imagerel $unwind$?_Adjust_manually_vector_aligned@std@@YAXAEAPEAXAEA_K@Z
pdata	ENDS
;	COMDAT pdata
pdata	SEGMENT
$pdata$??0bad_alloc@std@@QEAA@AEBV01@@Z DD imagerel $LN7@bad_alloc
	DD	imagerel $LN7@bad_alloc+61
	DD	imagerel $unwind$??0bad_alloc@std@@QEAA@AEBV01@@Z
pdata	ENDS
;	COMDAT pdata
pdata	SEGMENT
$pdata$??0bad_array_new_length@std@@QEAA@AEBV01@@Z DD imagerel $LN10@bad_array_
	DD	imagerel $LN10@bad_array_+61
	DD	imagerel $unwind$??0bad_array_new_length@std@@QEAA@AEBV01@@Z
pdata	ENDS
;	COMDAT pdata
pdata	SEGMENT
$pdata$?_Throw_bad_array_new_length@std@@YAXXZ DD imagerel $LN4@Throw_bad_
	DD	imagerel $LN4@Throw_bad_+32
	DD	imagerel $unwind$?_Throw_bad_array_new_length@std@@YAXXZ
pdata	ENDS
;	COMDAT pdata
pdata	SEGMENT
$pdata$??_Gbad_array_new_length@std@@UEAAPEAXI@Z DD imagerel $LN15@scalar
	DD	imagerel $LN15@scalar+67
	DD	imagerel $unwind$??_Gbad_array_new_length@std@@UEAAPEAXI@Z
pdata	ENDS
;	COMDAT pdata
pdata	SEGMENT
$pdata$??_Gbad_alloc@std@@UEAAPEAXI@Z DD imagerel $LN12@scalar
	DD	imagerel $LN12@scalar+67
	DD	imagerel $unwind$??_Gbad_alloc@std@@UEAAPEAXI@Z
pdata	ENDS
;	COMDAT pdata
pdata	SEGMENT
$pdata$??_Gexception@std@@UEAAPEAXI@Z DD imagerel $LN9@scalar
	DD	imagerel $LN9@scalar+67
	DD	imagerel $unwind$??_Gexception@std@@UEAAPEAXI@Z
pdata	ENDS
;	COMDAT pdata
pdata	SEGMENT
$pdata$??0exception@std@@QEAA@AEBV01@@Z DD imagerel $LN5@exception
	DD	imagerel $LN5@exception+51
	DD	imagerel $unwind$??0exception@std@@QEAA@AEBV01@@Z
pdata	ENDS
;	COMDAT CRT$XCU
CRT$XCU	SEGMENT
??m_CanvasObject$initializer$@Primitive@@2P6AXXZEA@@3P6AXXZEA DQ FLAT:??__F?m_CanvasObject@Primitive@@2V?$unique_ptr@VCanvasObject@@U?$default_delete@VCanvasObject@@@std@@@std@@A@@YAXXZ ; ??m_CanvasObject$initializer$@Primitive@@2P6AXXZEA@@3P6AXXZEA
;	COMDAT __xmm@ff7fffffff7fffff7f7fffff7f7fffff
CONST	SEGMENT
__xmm@ff7fffffff7fffff7f7fffff7f7fffff DB 0ffH, 0ffH, 07fH, 07fH, 0ffH, 0ffH
	DB	07fH, 07fH, 0ffH, 0ffH, 07fH, 0ffH, 0ffH, 0ffH, 07fH, 0ffH
CONST	ENDS
;	COMDAT __xmm@bf800000bf80000000000000bf800000
CONST	SEGMENT
__xmm@bf800000bf80000000000000bf800000 DB 00H, 00H, 080H, 0bfH, 00H, 00H, 00H
	DB	00H, 00H, 00H, 080H, 0bfH, 00H, 00H, 080H, 0bfH
CONST	ENDS
;	COMDAT __xmm@bf000000bf00000000000000bf000000
CONST	SEGMENT
__xmm@bf000000bf00000000000000bf000000 DB 00H, 00H, 00H, 0bfH, 00H, 00H, 00H
	DB	00H, 00H, 00H, 00H, 0bfH, 00H, 00H, 00H, 0bfH
CONST	ENDS
;	COMDAT __xmm@80000000800000008000000080000000
CONST	SEGMENT
__xmm@80000000800000008000000080000000 DB 00H, 00H, 00H, 080H, 00H, 00H, 00H
	DB	080H, 00H, 00H, 00H, 080H, 00H, 00H, 00H, 080H
CONST	ENDS
;	COMDAT __xmm@7fffffffffffffff7fffffffffffffff
CONST	SEGMENT
__xmm@7fffffffffffffff7fffffffffffffff DB 0ffH, 0ffH, 0ffH, 0ffH, 0ffH, 0ffH
	DB	0ffH, 07fH, 0ffH, 0ffH, 0ffH, 0ffH, 0ffH, 0ffH, 0ffH, 07fH
CONST	ENDS
;	COMDAT __xmm@7fffffff7fffffff7fffffff7fffffff
CONST	SEGMENT
__xmm@7fffffff7fffffff7fffffff7fffffff DB 0ffH, 0ffH, 0ffH, 07fH, 0ffH, 0ffH
	DB	0ffH, 07fH, 0ffH, 0ffH, 0ffH, 07fH, 0ffH, 0ffH, 0ffH, 07fH
CONST	ENDS
;	COMDAT __xmm@437f0000437f0000437f0000437f0000
CONST	SEGMENT
__xmm@437f0000437f0000437f0000437f0000 DB 00H, 00H, 07fH, 'C', 00H, 00H, 07fH
	DB	'C', 00H, 00H, 07fH, 'C', 00H, 00H, 07fH, 'C'
CONST	ENDS
;	COMDAT __xmm@3ff0000000000000bff0000000000000
CONST	SEGMENT
__xmm@3ff0000000000000bff0000000000000 DB 00H, 00H, 00H, 00H, 00H, 00H, 0f0H
	DB	0bfH, 00H, 00H, 00H, 00H, 00H, 00H, 0f0H, '?'
CONST	ENDS
;	COMDAT __xmm@3f8000003f8000003f8000003f800000
CONST	SEGMENT
__xmm@3f8000003f8000003f8000003f800000 DB 00H, 00H, 080H, '?', 00H, 00H, 080H
	DB	'?', 00H, 00H, 080H, '?', 00H, 00H, 080H, '?'
CONST	ENDS
;	COMDAT __xmm@3f8000003f7ae1483f170a3d3e851eb8
CONST	SEGMENT
__xmm@3f8000003f7ae1483f170a3d3e851eb8 DB 0b8H, 01eH, 085H, '>=', 0aH, 017H
	DB	'?H', 0e1H, 'z?', 00H, 00H, 080H, '?'
CONST	ENDS
;	COMDAT __xmm@3f8000003f7ae1483f07ae143d75c28f
CONST	SEGMENT
__xmm@3f8000003f7ae1483f07ae143d75c28f DB 08fH, 0c2H, 'u=', 014H, 0aeH, 07H
	DB	'?H', 0e1H, 'z?', 00H, 00H, 080H, '?'
CONST	ENDS
;	COMDAT __xmm@3f8000003f6147ae3f051eb83e75c28f
CONST	SEGMENT
__xmm@3f8000003f6147ae3f051eb83e75c28f DB 08fH, 0c2H, 'u>', 0b8H, 01eH, 05H
	DB	'?', 0aeH, 'Ga?', 00H, 00H, 080H, '?'
CONST	ENDS
;	COMDAT __xmm@3f8000003f4000003ecccccd3dcccccd
CONST	SEGMENT
__xmm@3f8000003f4000003ecccccd3dcccccd DB 0cdH, 0ccH, 0ccH, '=', 0cdH, 0ccH
	DB	0ccH, '>', 00H, 00H, '@?', 00H, 00H, 080H, '?'
CONST	ENDS
;	COMDAT __xmm@3f8000003f1c28f63f1c28f63f1c28f6
CONST	SEGMENT
__xmm@3f8000003f1c28f63f1c28f63f1c28f6 DB 0f6H, '(', 01cH, '?', 0f6H, '(', 01cH
	DB	'?', 0f6H, '(', 01cH, '?', 00H, 00H, 080H, '?'
CONST	ENDS
;	COMDAT __xmm@3f8000003f19999a3f19999a3f19999a
CONST	SEGMENT
__xmm@3f8000003f19999a3f19999a3f19999a DB 09aH, 099H, 019H, '?', 09aH, 099H
	DB	019H, '?', 09aH, 099H, 019H, '?', 00H, 00H, 080H, '?'
CONST	ENDS
;	COMDAT __xmm@3f8000003f1696973f1696973f169697
CONST	SEGMENT
__xmm@3f8000003f1696973f1696973f169697 DB 097H, 096H, 016H, '?', 097H, 096H
	DB	016H, '?', 097H, 096H, 016H, '?', 00H, 00H, 080H, '?'
CONST	ENDS
;	COMDAT __xmm@3f8000003f0ccccd3f0ccccd3f0ccccd
CONST	SEGMENT
__xmm@3f8000003f0ccccd3f0ccccd3f0ccccd DB 0cdH, 0ccH, 0cH, '?', 0cdH, 0ccH
	DB	0cH, '?', 0cdH, 0ccH, 0cH, '?', 00H, 00H, 080H, '?'
CONST	ENDS
;	COMDAT __xmm@3f8000003f028f5c3f028f5c3f028f5c
CONST	SEGMENT
__xmm@3f8000003f028f5c3f028f5c3f028f5c DB '\', 08fH, 02H, '?\', 08fH, 02H
	DB	'?\', 08fH, 02H, '?', 00H, 00H, 080H, '?'
CONST	ENDS
;	COMDAT __xmm@3f8000003f0000003f0000003f000000
CONST	SEGMENT
__xmm@3f8000003f0000003f0000003f000000 DB 00H, 00H, 00H, '?', 00H, 00H, 00H
	DB	'?', 00H, 00H, 00H, '?', 00H, 00H, 080H, '?'
CONST	ENDS
;	COMDAT __xmm@3f8000003ef5c28f3e947ae13e23d70a
CONST	SEGMENT
__xmm@3f8000003ef5c28f3e947ae13e23d70a DB 0aH, 0d7H, '#>', 0e1H, 'z', 094H
	DB	'>', 08fH, 0c2H, 0f5H, '>', 00H, 00H, 080H, '?'
CONST	ENDS
;	COMDAT __xmm@3f8000003ef0f0f13ef0f0f13ef0f0f1
CONST	SEGMENT
__xmm@3f8000003ef0f0f13ef0f0f13ef0f0f1 DB 0f1H, 0f0H, 0f0H, '>', 0f1H, 0f0H
	DB	0f0H, '>', 0f1H, 0f0H, 0f0H, '>', 00H, 00H, 080H, '?'
CONST	ENDS
;	COMDAT __xmm@3f8000003ed1eb853ed1eb853ed1eb85
CONST	SEGMENT
__xmm@3f8000003ed1eb853ed1eb853ed1eb85 DB 085H, 0ebH, 0d1H, '>', 085H, 0ebH
	DB	0d1H, '>', 085H, 0ebH, 0d1H, '>', 00H, 00H, 080H, '?'
CONST	ENDS
;	COMDAT __xmm@3f8000003ecccccd3ecccccd3ecccccd
CONST	SEGMENT
__xmm@3f8000003ecccccd3ecccccd3ecccccd DB 0cdH, 0ccH, 0ccH, '>', 0cdH, 0ccH
	DB	0ccH, '>', 0cdH, 0ccH, 0ccH, '>', 00H, 00H, 080H, '?'
CONST	ENDS
;	COMDAT __xmm@3f8000003ec8c8c93ec8c8c93ec8c8c9
CONST	SEGMENT
__xmm@3f8000003ec8c8c93ec8c8c93ec8c8c9 DB 0c9H, 0c8H, 0c8H, '>', 0c9H, 0c8H
	DB	0c8H, '>', 0c9H, 0c8H, 0c8H, '>', 00H, 00H, 080H, '?'
CONST	ENDS
;	COMDAT __xmm@3f8000003eb333333edc28f63f800000
CONST	SEGMENT
__xmm@3f8000003eb333333edc28f63f800000 DB 00H, 00H, 080H, '?', 0f6H, '(', 0dcH
	DB	'>33', 0b3H, '>', 00H, 00H, 080H, '?'
CONST	ENDS
;	COMDAT __xmm@3f8000003eb333333e9eb8523e9eb852
CONST	SEGMENT
__xmm@3f8000003eb333333e9eb8523e9eb852 DB 'R', 0b8H, 09eH, '>R', 0b8H, 09eH
	DB	'>33', 0b3H, '>', 00H, 00H, 080H, '?'
CONST	ENDS
;	COMDAT __xmm@3f8000003e9eb8523e9eb8523e9eb852
CONST	SEGMENT
__xmm@3f8000003e9eb8523e9eb8523e9eb852 DB 'R', 0b8H, 09eH, '>R', 0b8H, 09eH
	DB	'>R', 0b8H, 09eH, '>', 00H, 00H, 080H, '?'
CONST	ENDS
;	COMDAT __xmm@3f8000003e8000003e6b851f3e6b851f
CONST	SEGMENT
__xmm@3f8000003e8000003e6b851f3e6b851f DB 01fH, 085H, 'k>', 01fH, 085H, 'k'
	DB	'>', 00H, 00H, 080H, '>', 00H, 00H, 080H, '?'
CONST	ENDS
;	COMDAT __xmm@3f8000003e4ccccd3e4ccccd3e4ccccd
CONST	SEGMENT
__xmm@3f8000003e4ccccd3e4ccccd3e4ccccd DB 0cdH, 0ccH, 'L>', 0cdH, 0ccH, 'L'
	DB	'>', 0cdH, 0ccH, 'L>', 00H, 00H, 080H, '?'
CONST	ENDS
;	COMDAT __xmm@3f8000003e4ccccd3e428f5c3e428f5c
CONST	SEGMENT
__xmm@3f8000003e4ccccd3e428f5c3e428f5c DB '\', 08fH, 'B>\', 08fH, 'B>', 0cdH
	DB	0ccH, 'L>', 00H, 00H, 080H, '?'
CONST	ENDS
;	COMDAT __xmm@3f8000003e1090913e1090913e109091
CONST	SEGMENT
__xmm@3f8000003e1090913e1090913e109091 DB 091H, 090H, 010H, '>', 091H, 090H
	DB	010H, '>', 091H, 090H, 010H, '>', 00H, 00H, 080H, '?'
CONST	ENDS
;	COMDAT __xmm@3f8000003e0f5c293e0f5c293e0f5c29
CONST	SEGMENT
__xmm@3f8000003e0f5c293e0f5c293e0f5c29 DB ')\', 0fH, '>)\', 0fH, '>)\', 0fH
	DB	'>', 00H, 00H, 080H, '?'
CONST	ENDS
;	COMDAT __xmm@3f8000003e0080813e0080813e008081
CONST	SEGMENT
__xmm@3f8000003e0080813e0080813e008081 DB 081H, 080H, 00H, '>', 081H, 080H
	DB	00H, '>', 081H, 080H, 00H, '>', 00H, 00H, 080H, '?'
CONST	ENDS
;	COMDAT __xmm@3f8000003db851ec3db851ec3db851ec
CONST	SEGMENT
__xmm@3f8000003db851ec3db851ec3db851ec DB 0ecH, 'Q', 0b8H, '=', 0ecH, 'Q', 0b8H
	DB	'=', 0ecH, 'Q', 0b8H, '=', 00H, 00H, 080H, '?'
CONST	ENDS
;	COMDAT __xmm@3f8000003d8080813d8080813d808081
CONST	SEGMENT
__xmm@3f8000003d8080813d8080813d808081 DB 081H, 080H, 080H, '=', 081H, 080H
	DB	080H, '=', 081H, 080H, 080H, '=', 00H, 00H, 080H, '?'
CONST	ENDS
;	COMDAT __xmm@3f8000003d23d70a3d23d70a3d23d70a
CONST	SEGMENT
__xmm@3f8000003d23d70a3d23d70a3d23d70a DB 0aH, 0d7H, '#=', 0aH, 0d7H, '#='
	DB	0aH, 0d7H, '#=', 00H, 00H, 080H, '?'
CONST	ENDS
;	COMDAT __xmm@3f800000000000003f8000003f800000
CONST	SEGMENT
__xmm@3f800000000000003f8000003f800000 DB 00H, 00H, 080H, '?', 00H, 00H, 080H
	DB	'?', 00H, 00H, 00H, 00H, 00H, 00H, 080H, '?'
CONST	ENDS
;	COMDAT __xmm@3f800000000000003f3333333f666666
CONST	SEGMENT
__xmm@3f800000000000003f3333333f666666 DB 'fff?333?', 00H, 00H, 00H, 00H, 00H
	DB	00H, 080H, '?'
CONST	ENDS
;	COMDAT __xmm@3f800000000000003f19999a3f800000
CONST	SEGMENT
__xmm@3f800000000000003f19999a3f800000 DB 00H, 00H, 080H, '?', 09aH, 099H
	DB	019H, '?', 00H, 00H, 00H, 00H, 00H, 00H, 080H, '?'
CONST	ENDS
;	COMDAT __xmm@3f80000000000000000000003f800000
CONST	SEGMENT
__xmm@3f80000000000000000000003f800000 DB 00H, 00H, 080H, '?', 00H, 00H, 00H
	DB	00H, 00H, 00H, 00H, 00H, 00H, 00H, 080H, '?'
CONST	ENDS
;	COMDAT __xmm@3f800000000000000000000000000000
CONST	SEGMENT
__xmm@3f800000000000000000000000000000 DB 00H, 00H, 00H, 00H, 00H, 00H, 00H
	DB	00H, 00H, 00H, 00H, 00H, 00H, 00H, 080H, '?'
CONST	ENDS
;	COMDAT __xmm@3f7333333f7ae1483f170a3d3e851eb8
CONST	SEGMENT
__xmm@3f7333333f7ae1483f170a3d3e851eb8 DB 0b8H, 01eH, 085H, '>=', 0aH, 017H
	DB	'?H', 0e1H, 'z?33s?'
CONST	ENDS
;	COMDAT __xmm@3f70a3d73da3d70a3da3d70a3da3d70a
CONST	SEGMENT
__xmm@3f70a3d73da3d70a3da3d70a3da3d70a DB 0aH, 0d7H, 0a3H, '=', 0aH, 0d7H
	DB	0a3H, '=', 0aH, 0d7H, 0a3H, '=', 0d7H, 0a3H, 'p?'
CONST	ENDS
;	COMDAT __xmm@3f70a3d73d75c28f3d75c28f3d75c28f
CONST	SEGMENT
__xmm@3f70a3d73d75c28f3d75c28f3d75c28f DB 08fH, 0c2H, 'u=', 08fH, 0c2H, 'u'
	DB	'=', 08fH, 0c2H, 'u=', 0d7H, 0a3H, 'p?'
CONST	ENDS
;	COMDAT __xmm@3f666666000000003f8000003f800000
CONST	SEGMENT
__xmm@3f666666000000003f8000003f800000 DB 00H, 00H, 080H, '?', 00H, 00H, 080H
	DB	'?', 00H, 00H, 00H, 00H, 'fff?'
CONST	ENDS
;	COMDAT __xmm@3f4ccccd3f7ae1483f170a3d3e851eb8
CONST	SEGMENT
__xmm@3f4ccccd3f7ae1483f170a3d3e851eb8 DB 0b8H, 01eH, 085H, '>=', 0aH, 017H
	DB	'?H', 0e1H, 'z?', 0cdH, 0ccH, 'L?'
CONST	ENDS
;	COMDAT __xmm@3f47ae143f4000003ecccccd3dcccccd
CONST	SEGMENT
__xmm@3f47ae143f4000003ecccccd3dcccccd DB 0cdH, 0ccH, 0ccH, '=', 0cdH, 0ccH
	DB	0ccH, '>', 00H, 00H, '@?', 014H, 0aeH, 'G?'
CONST	ENDS
;	COMDAT __xmm@3f3333333f8000003f8000003f800000
CONST	SEGMENT
__xmm@3f3333333f8000003f8000003f800000 DB 00H, 00H, 080H, '?', 00H, 00H, 080H
	DB	'?', 00H, 00H, 080H, '?333?'
CONST	ENDS
;	COMDAT __xmm@3f2b851f3f7ae1483f170a3d3e851eb8
CONST	SEGMENT
__xmm@3f2b851f3f7ae1483f170a3d3e851eb8 DB 0b8H, 01eH, 085H, '>=', 0aH, 017H
	DB	'?H', 0e1H, 'z?', 01fH, 085H, '+?'
CONST	ENDS
;	COMDAT __xmm@3f0a3d713ef5c28f3e947ae13e23d70a
CONST	SEGMENT
__xmm@3f0a3d713ef5c28f3e947ae13e23d70a DB 0aH, 0d7H, '#>', 0e1H, 'z', 094H
	DB	'>', 08fH, 0c2H, 0f5H, '>q=', 0aH, '?'
CONST	ENDS
;	COMDAT __xmm@3f07ae143ca3d70a3ca3d70a3ca3d70a
CONST	SEGMENT
__xmm@3f07ae143ca3d70a3ca3d70a3ca3d70a DB 0aH, 0d7H, 0a3H, '<', 0aH, 0d7H
	DB	0a3H, '<', 0aH, 0d7H, 0a3H, '<', 014H, 0aeH, 07H, '?'
CONST	ENDS
;	COMDAT __xmm@3f028f5c000000000000000000000000
CONST	SEGMENT
__xmm@3f028f5c000000000000000000000000 DB 00H, 00H, 00H, 00H, 00H, 00H, 00H
	DB	00H, 00H, 00H, 00H, 00H, '\', 08fH, 02H, '?'
CONST	ENDS
;	COMDAT __xmm@3f0000003f0000003edc28f63edc28f6
CONST	SEGMENT
__xmm@3f0000003f0000003edc28f63edc28f6 DB 0f6H, '(', 0dcH, '>', 0f6H, '(', 0dcH
	DB	'>', 00H, 00H, 00H, '?', 00H, 00H, 00H, '?'
CONST	ENDS
;	COMDAT __xmm@3f0000003ecccccd3ecccccd3ecccccd
CONST	SEGMENT
__xmm@3f0000003ecccccd3ecccccd3ecccccd DB 0cdH, 0ccH, 0ccH, '>', 0cdH, 0ccH
	DB	0ccH, '>', 0cdH, 0ccH, 0ccH, '>', 00H, 00H, 00H, '?'
CONST	ENDS
;	COMDAT __xmm@3f0000003e99999a3e99999a3e99999a
CONST	SEGMENT
__xmm@3f0000003e99999a3e99999a3e99999a DB 09aH, 099H, 099H, '>', 09aH, 099H
	DB	099H, '>', 09aH, 099H, 099H, '>', 00H, 00H, 00H, '?'
CONST	ENDS
;	COMDAT __xmm@3f000000000000003f0000003f000000
CONST	SEGMENT
__xmm@3f000000000000003f0000003f000000 DB 00H, 00H, 00H, '?', 00H, 00H, 00H
	DB	'?', 00H, 00H, 00H, 00H, 00H, 00H, 00H, '?'
CONST	ENDS
;	COMDAT __xmm@3ecccccd3f7ae1483f170a3d3e851eb8
CONST	SEGMENT
__xmm@3ecccccd3f7ae1483f170a3d3e851eb8 DB 0b8H, 01eH, 085H, '>=', 0aH, 017H
	DB	'?H', 0e1H, 'z?', 0cdH, 0ccH, 0ccH, '>'
CONST	ENDS
;	COMDAT __xmm@3ec8c8c93f1696973f1696973f169697
CONST	SEGMENT
__xmm@3ec8c8c93f1696973f1696973f169697 DB 097H, 096H, 016H, '?', 097H, 096H
	DB	016H, '?', 097H, 096H, 016H, '?', 0c9H, 0c8H, 0c8H, '>'
CONST	ENDS
;	COMDAT __xmm@3ec8c8c93ec8c8c93ec8c8c93ec8c8c9
CONST	SEGMENT
__xmm@3ec8c8c93ec8c8c93ec8c8c93ec8c8c9 DB 0c9H, 0c8H, 0c8H, '>', 0c9H, 0c8H
	DB	0c8H, '>', 0c9H, 0c8H, 0c8H, '>', 0c9H, 0c8H, 0c8H, '>'
CONST	ENDS
;	COMDAT __xmm@3eb333333f7ae1483f170a3d3e851eb8
CONST	SEGMENT
__xmm@3eb333333f7ae1483f170a3d3e851eb8 DB 0b8H, 01eH, 085H, '>=', 0aH, 017H
	DB	'?H', 0e1H, 'z?33', 0b3H, '>'
CONST	ENDS
;	COMDAT __xmm@3eb333333f4ccccd3f4ccccd3f4ccccd
CONST	SEGMENT
__xmm@3eb333333f4ccccd3f4ccccd3f4ccccd DB 0cdH, 0ccH, 'L?', 0cdH, 0ccH, 'L'
	DB	'?', 0cdH, 0ccH, 'L?33', 0b3H, '>'
CONST	ENDS
;	COMDAT __xmm@3e9eb8523f7ae1483f170a3d3e851eb8
CONST	SEGMENT
__xmm@3e9eb8523f7ae1483f170a3d3e851eb8 DB 0b8H, 01eH, 085H, '>=', 0aH, 017H
	DB	'?H', 0e1H, 'z?R', 0b8H, 09eH, '>'
CONST	ENDS
;	COMDAT __xmm@3e4ccccd3f7ae1483f170a3d3e851eb8
CONST	SEGMENT
__xmm@3e4ccccd3f7ae1483f170a3d3e851eb8 DB 0b8H, 01eH, 085H, '>=', 0aH, 017H
	DB	'?H', 0e1H, 'z?', 0cdH, 0ccH, 'L>'
CONST	ENDS
;	COMDAT __xmm@3e4ccccd3f4ccccd3f4ccccd3f4ccccd
CONST	SEGMENT
__xmm@3e4ccccd3f4ccccd3f4ccccd3f4ccccd DB 0cdH, 0ccH, 'L?', 0cdH, 0ccH, 'L'
	DB	'?', 0cdH, 0ccH, 'L?', 0cdH, 0ccH, 'L>'
CONST	ENDS
;	COMDAT __xmm@3d75c28f3f8000003f8000003f800000
CONST	SEGMENT
__xmm@3d75c28f3f8000003f8000003f800000 DB 00H, 00H, 080H, '?', 00H, 00H, 080H
	DB	'?', 00H, 00H, 080H, '?', 08fH, 0c2H, 'u='
CONST	ENDS
;	COMDAT __xmm@000002800000027f0000027d0000027e
CONST	SEGMENT
__xmm@000002800000027f0000027d0000027e DB '~', 02H, 00H, 00H, '}', 02H, 00H
	DB	00H, 07fH, 02H, 00H, 00H, 080H, 02H, 00H, 00H
CONST	ENDS
;	COMDAT __xmm@0000027c0000027b000002790000027a
CONST	SEGMENT
__xmm@0000027c0000027b000002790000027a DB 'z', 02H, 00H, 00H, 'y', 02H, 00H
	DB	00H, '{', 02H, 00H, 00H, '|', 02H, 00H, 00H
CONST	ENDS
;	COMDAT __xmm@000002020000020e0000020d0000020c
CONST	SEGMENT
__xmm@000002020000020e0000020d0000020c DB 0cH, 02H, 00H, 00H, 0dH, 02H, 00H
	DB	00H, 0eH, 02H, 00H, 00H, 02H, 02H, 00H, 00H
CONST	ENDS
;	COMDAT __xmm@00000003000000020000000100000000
CONST	SEGMENT
__xmm@00000003000000020000000100000000 DB 00H, 00H, 00H, 00H, 01H, 00H, 00H
	DB	00H, 02H, 00H, 00H, 00H, 03H, 00H, 00H, 00H
CONST	ENDS
;	COMDAT __xmm@00000002000000000000000100000003
CONST	SEGMENT
__xmm@00000002000000000000000100000003 DB 03H, 00H, 00H, 00H, 01H, 00H, 00H
	DB	00H, 00H, 00H, 00H, 00H, 02H, 00H, 00H, 00H
CONST	ENDS
;	COMDAT __xmm@00000001000000010000000100000001
CONST	SEGMENT
__xmm@00000001000000010000000100000001 DB 01H, 00H, 00H, 00H, 01H, 00H, 00H
	DB	00H, 01H, 00H, 00H, 00H, 01H, 00H, 00H, 00H
CONST	ENDS
;	COMDAT __xmm@00000000bf8000000000000000000000
CONST	SEGMENT
__xmm@00000000bf8000000000000000000000 DB 00H, 00H, 00H, 00H, 00H, 00H, 00H
	DB	00H, 00H, 00H, 080H, 0bfH, 00H, 00H, 00H, 00H
CONST	ENDS
;	COMDAT __xmm@000000003f800000bf80000000000000
CONST	SEGMENT
__xmm@000000003f800000bf80000000000000 DB 00H, 00H, 00H, 00H, 00H, 00H, 080H
	DB	0bfH, 00H, 00H, 080H, '?', 00H, 00H, 00H, 00H
CONST	ENDS
;	COMDAT __xmm@000000003f8000000000000000000000
CONST	SEGMENT
__xmm@000000003f8000000000000000000000 DB 00H, 00H, 00H, 00H, 00H, 00H, 00H
	DB	00H, 00H, 00H, 080H, '?', 00H, 00H, 00H, 00H
CONST	ENDS
;	COMDAT __xmm@000000003f000000bf00000000000000
CONST	SEGMENT
__xmm@000000003f000000bf00000000000000 DB 00H, 00H, 00H, 00H, 00H, 00H, 00H
	DB	0bfH, 00H, 00H, 00H, '?', 00H, 00H, 00H, 00H
CONST	ENDS
;	COMDAT __xmm@000000000000000f0000000000000000
CONST	SEGMENT
__xmm@000000000000000f0000000000000000 DB 00H, 00H, 00H, 00H, 00H, 00H, 00H
	DB	00H, 0fH, 00H, 00H, 00H, 00H, 00H, 00H, 00H
CONST	ENDS
;	COMDAT __xmm@00000000000000020000000300000001
CONST	SEGMENT
__xmm@00000000000000020000000300000001 DB 01H, 00H, 00H, 00H, 03H, 00H, 00H
	DB	00H, 02H, 00H, 00H, 00H, 00H, 00H, 00H, 00H
CONST	ENDS
;	COMDAT __xmm@00000000000000003f80000000000000
CONST	SEGMENT
__xmm@00000000000000003f80000000000000 DB 00H, 00H, 00H, 00H, 00H, 00H, 080H
	DB	'?', 00H, 00H, 00H, 00H, 00H, 00H, 00H, 00H
CONST	ENDS
;	COMDAT __xmm@0000000000000000000000003f800000
CONST	SEGMENT
__xmm@0000000000000000000000003f800000 DB 00H, 00H, 080H, '?', 00H, 00H, 00H
	DB	00H, 00H, 00H, 00H, 00H, 00H, 00H, 00H, 00H
CONST	ENDS
;	COMDAT __real@ffefffffffffffff
CONST	SEGMENT
__real@ffefffffffffffff DQ 0ffefffffffffffffr	; -1.79769e+308
CONST	ENDS
;	COMDAT __real@ff7fffff
CONST	SEGMENT
__real@ff7fffff DD 0ff7fffffr			; -3.40282e+38
CONST	ENDS
;	COMDAT __real@c87a0000
CONST	SEGMENT
__real@c87a0000 DD 0c87a0000r			; -256000
CONST	ENDS
;	COMDAT __real@c7000000
CONST	SEGMENT
__real@c7000000 DD 0c7000000r			; -32768
CONST	ENDS
;	COMDAT __real@c5fa0000
CONST	SEGMENT
__real@c5fa0000 DD 0c5fa0000r			; -8000
CONST	ENDS
;	COMDAT __real@c2c80000
CONST	SEGMENT
__real@c2c80000 DD 0c2c80000r			; -100
CONST	ENDS
;	COMDAT __real@c0000000
CONST	SEGMENT
__real@c0000000 DD 0c0000000r			; -2
CONST	ENDS
;	COMDAT __real@bfe0000000000000
CONST	SEGMENT
__real@bfe0000000000000 DQ 0bfe0000000000000r	; -0.5
CONST	ENDS
;	COMDAT __real@bf800000
CONST	SEGMENT
__real@bf800000 DD 0bf800000r			; -1
CONST	ENDS
;	COMDAT __real@bf5db3d0
CONST	SEGMENT
__real@bf5db3d0 DD 0bf5db3d0r			; -0.866025
CONST	ENDS
;	COMDAT __real@bf5db22d
CONST	SEGMENT
__real@bf5db22d DD 0bf5db22dr			; -0.866
CONST	ENDS
;	COMDAT __real@bf400000
CONST	SEGMENT
__real@bf400000 DD 0bf400000r			; -0.75
CONST	ENDS
;	COMDAT __real@bf000000
CONST	SEGMENT
__real@bf000000 DD 0bf000000r			; -0.5
CONST	ENDS
;	COMDAT __real@beaaaaab
CONST	SEGMENT
__real@beaaaaab DD 0beaaaaabr			; -0.333333
CONST	ENDS
;	COMDAT __real@be800000
CONST	SEGMENT
__real@be800000 DD 0be800000r			; -0.25
CONST	ENDS
;	COMDAT __real@bc23d70a
CONST	SEGMENT
__real@bc23d70a DD 0bc23d70ar			; -0.01
CONST	ENDS
;	COMDAT __real@7fefffffffffffff
CONST	SEGMENT
__real@7fefffffffffffff DQ 07fefffffffffffffr	; 1.79769e+308
CONST	ENDS
;	COMDAT __real@7f7fffff
CONST	SEGMENT
__real@7f7fffff DD 07f7fffffr			; 3.40282e+38
CONST	ENDS
;	COMDAT __real@5f000000
CONST	SEGMENT
__real@5f000000 DD 05f000000r			; 9.22337e+18
CONST	ENDS
;	COMDAT __real@47efffffe0000000
CONST	SEGMENT
__real@47efffffe0000000 DQ 047efffffe0000000r	; 3.40282e+38
CONST	ENDS
;	COMDAT __real@46fffe00
CONST	SEGMENT
__real@46fffe00 DD 046fffe00r			; 32767
CONST	ENDS
;	COMDAT __real@45fa0000
CONST	SEGMENT
__real@45fa0000 DD 045fa0000r			; 8000
CONST	ENDS
;	COMDAT __real@45333333
CONST	SEGMENT
__real@45333333 DD 045333333r			; 2867.2
CONST	ENDS
;	COMDAT __real@44b33333
CONST	SEGMENT
__real@44b33333 DD 044b33333r			; 1433.6
CONST	ENDS
;	COMDAT __real@447a0000
CONST	SEGMENT
__real@447a0000 DD 0447a0000r			; 1000
CONST	ENDS
;	COMDAT __real@44480000
CONST	SEGMENT
__real@44480000 DD 044480000r			; 800
CONST	ENDS
;	COMDAT __real@443b8000
CONST	SEGMENT
__real@443b8000 DD 0443b8000r			; 750
CONST	ENDS
;	COMDAT __real@44333333
CONST	SEGMENT
__real@44333333 DD 044333333r			; 716.8
CONST	ENDS
;	COMDAT __real@44160000
CONST	SEGMENT
__real@44160000 DD 044160000r			; 600
CONST	ENDS
;	COMDAT __real@43e0000000000000
CONST	SEGMENT
__real@43e0000000000000 DQ 043e0000000000000r	; 9.22337e+18
CONST	ENDS
;	COMDAT __real@43960000
CONST	SEGMENT
__real@43960000 DD 043960000r			; 300
CONST	ENDS
;	COMDAT __real@437f0000
CONST	SEGMENT
__real@437f0000 DD 0437f0000r			; 255
CONST	ENDS
;	COMDAT __real@434c0000
CONST	SEGMENT
__real@434c0000 DD 0434c0000r			; 204
CONST	ENDS
;	COMDAT __real@43000000
CONST	SEGMENT
__real@43000000 DD 043000000r			; 128
CONST	ENDS
;	COMDAT __real@42f60000
CONST	SEGMENT
__real@42f60000 DD 042f60000r			; 123
CONST	ENDS
;	COMDAT __real@42c80000
CONST	SEGMENT
__real@42c80000 DD 042c80000r			; 100
CONST	ENDS
;	COMDAT __real@42c00000
CONST	SEGMENT
__real@42c00000 DD 042c00000r			; 96
CONST	ENDS
;	COMDAT __real@428c0000
CONST	SEGMENT
__real@428c0000 DD 0428c0000r			; 70
CONST	ENDS
;	COMDAT __real@42700000
CONST	SEGMENT
__real@42700000 DD 042700000r			; 60
CONST	ENDS
;	COMDAT __real@425c0000
CONST	SEGMENT
__real@425c0000 DD 0425c0000r			; 55
CONST	ENDS
;	COMDAT __real@42540000
CONST	SEGMENT
__real@42540000 DD 042540000r			; 53
CONST	ENDS
;	COMDAT __real@424c0000
CONST	SEGMENT
__real@424c0000 DD 0424c0000r			; 51
CONST	ENDS
;	COMDAT __real@42480000
CONST	SEGMENT
__real@42480000 DD 042480000r			; 50
CONST	ENDS
;	COMDAT __real@42440000
CONST	SEGMENT
__real@42440000 DD 042440000r			; 49
CONST	ENDS
;	COMDAT __real@42400000
CONST	SEGMENT
__real@42400000 DD 042400000r			; 48
CONST	ENDS
;	COMDAT __real@42280000
CONST	SEGMENT
__real@42280000 DD 042280000r			; 42
CONST	ENDS
;	COMDAT __real@42140000
CONST	SEGMENT
__real@42140000 DD 042140000r			; 37
CONST	ENDS
;	COMDAT __real@420c0000
CONST	SEGMENT
__real@420c0000 DD 0420c0000r			; 35
CONST	ENDS
;	COMDAT __real@42040000
CONST	SEGMENT
__real@42040000 DD 042040000r			; 33
CONST	ENDS
;	COMDAT __real@41f00000
CONST	SEGMENT
__real@41f00000 DD 041f00000r			; 30
CONST	ENDS
;	COMDAT __real@41c80000
CONST	SEGMENT
__real@41c80000 DD 041c80000r			; 25
CONST	ENDS
;	COMDAT __real@41c00000
CONST	SEGMENT
__real@41c00000 DD 041c00000r			; 24
CONST	ENDS
;	COMDAT __real@41a00000
CONST	SEGMENT
__real@41a00000 DD 041a00000r			; 20
CONST	ENDS
;	COMDAT __real@41800000
CONST	SEGMENT
__real@41800000 DD 041800000r			; 16
CONST	ENDS
;	COMDAT __real@41500000
CONST	SEGMENT
__real@41500000 DD 041500000r			; 13
CONST	ENDS
;	COMDAT __real@41400000
CONST	SEGMENT
__real@41400000 DD 041400000r			; 12
CONST	ENDS
;	COMDAT __real@41300000
CONST	SEGMENT
__real@41300000 DD 041300000r			; 11
CONST	ENDS
;	COMDAT __real@41200000
CONST	SEGMENT
__real@41200000 DD 041200000r			; 10
CONST	ENDS
;	COMDAT __real@41000000
CONST	SEGMENT
__real@41000000 DD 041000000r			; 8
CONST	ENDS
;	COMDAT __real@40c90fdb
CONST	SEGMENT
__real@40c90fdb DD 040c90fdbr			; 6.28319
CONST	ENDS
;	COMDAT __real@40c00000
CONST	SEGMENT
__real@40c00000 DD 040c00000r			; 6
CONST	ENDS
;	COMDAT __real@40afede0
CONST	SEGMENT
__real@40afede0 DD 040afede0r			; 5.49779
CONST	ENDS
;	COMDAT __real@40a00000
CONST	SEGMENT
__real@40a00000 DD 040a00000r			; 5
CONST	ENDS
;	COMDAT __real@40800000
CONST	SEGMENT
__real@40800000 DD 040800000r			; 4
CONST	ENDS
;	COMDAT __real@40666666
CONST	SEGMENT
__real@40666666 DD 040666666r			; 3.6
CONST	ENDS
;	COMDAT __real@40600000
CONST	SEGMENT
__real@40600000 DD 040600000r			; 3.5
CONST	ENDS
;	COMDAT __real@40490fdb
CONST	SEGMENT
__real@40490fdb DD 040490fdbr			; 3.14159
CONST	ENDS
;	COMDAT __real@40400000
CONST	SEGMENT
__real@40400000 DD 040400000r			; 3
CONST	ENDS
;	COMDAT __real@403f5c29
CONST	SEGMENT
__real@403f5c29 DD 0403f5c29r			; 2.99
CONST	ENDS
;	COMDAT __real@40266666
CONST	SEGMENT
__real@40266666 DD 040266666r			; 2.6
CONST	ENDS
;	COMDAT __real@40200000
CONST	SEGMENT
__real@40200000 DD 040200000r			; 2.5
CONST	ENDS
;	COMDAT __real@4019999a
CONST	SEGMENT
__real@4019999a DD 04019999ar			; 2.4
CONST	ENDS
;	COMDAT __real@400ccccd
CONST	SEGMENT
__real@400ccccd DD 0400ccccdr			; 2.2
CONST	ENDS
;	COMDAT __real@4000000000000000
CONST	SEGMENT
__real@4000000000000000 DQ 04000000000000000r	; 2
CONST	ENDS
;	COMDAT __real@40000000
CONST	SEGMENT
__real@40000000 DD 040000000r			; 2
CONST	ENDS
;	COMDAT __real@3fe0000000000000
CONST	SEGMENT
__real@3fe0000000000000 DQ 03fe0000000000000r	; 0.5
CONST	ENDS
;	COMDAT __real@3fc00000
CONST	SEGMENT
__real@3fc00000 DD 03fc00000r			; 1.5
CONST	ENDS
;	COMDAT __real@3fb33333
CONST	SEGMENT
__real@3fb33333 DD 03fb33333r			; 1.4
CONST	ENDS
;	COMDAT __real@3faccccd
CONST	SEGMENT
__real@3faccccd DD 03faccccdr			; 1.35
CONST	ENDS
;	COMDAT __real@3f99999a
CONST	SEGMENT
__real@3f99999a DD 03f99999ar			; 1.2
CONST	ENDS
;	COMDAT __real@3f8ccccd
CONST	SEGMENT
__real@3f8ccccd DD 03f8ccccdr			; 1.1
CONST	ENDS
;	COMDAT __real@3f800000
CONST	SEGMENT
__real@3f800000 DD 03f800000r			; 1
CONST	ENDS
;	COMDAT __real@3f7fffef
CONST	SEGMENT
__real@3f7fffef DD 03f7fffefr			; 0.999999
CONST	ENDS
;	COMDAT __real@3f7fff58
CONST	SEGMENT
__real@3f7fff58 DD 03f7fff58r			; 0.99999
CONST	ENDS
;	COMDAT __real@3f7d70a4
CONST	SEGMENT
__real@3f7d70a4 DD 03f7d70a4r			; 0.99
CONST	ENDS
;	COMDAT __real@3f666666
CONST	SEGMENT
__real@3f666666 DD 03f666666r			; 0.9
CONST	ENDS
;	COMDAT __real@3f5db3d0
CONST	SEGMENT
__real@3f5db3d0 DD 03f5db3d0r			; 0.866025
CONST	ENDS
;	COMDAT __real@3f5db22d
CONST	SEGMENT
__real@3f5db22d DD 03f5db22dr			; 0.866
CONST	ENDS
;	COMDAT __real@3f59999a
CONST	SEGMENT
__real@3f59999a DD 03f59999ar			; 0.85
CONST	ENDS
;	COMDAT __real@3f4ccccd
CONST	SEGMENT
__real@3f4ccccd DD 03f4ccccdr			; 0.8
CONST	ENDS
;	COMDAT __real@3f490fdb
CONST	SEGMENT
__real@3f490fdb DD 03f490fdbr			; 0.785398
CONST	ENDS
;	COMDAT __real@3f400000
CONST	SEGMENT
__real@3f400000 DD 03f400000r			; 0.75
CONST	ENDS
;	COMDAT __real@3f3851ec
CONST	SEGMENT
__real@3f3851ec DD 03f3851ecr			; 0.72
CONST	ENDS
;	COMDAT __real@3f350481
CONST	SEGMENT
__real@3f350481 DD 03f350481r			; 0.7071
CONST	ENDS
;	COMDAT __real@3f333333
CONST	SEGMENT
__real@3f333333 DD 03f333333r			; 0.7
CONST	ENDS
;	COMDAT __real@3f2b851f
CONST	SEGMENT
__real@3f2b851f DD 03f2b851fr			; 0.67
CONST	ENDS
;	COMDAT __real@3f266666
CONST	SEGMENT
__real@3f266666 DD 03f266666r			; 0.65
CONST	ENDS
;	COMDAT __real@3f19999a
CONST	SEGMENT
__real@3f19999a DD 03f19999ar			; 0.6
CONST	ENDS
;	COMDAT __real@3f0ccccd
CONST	SEGMENT
__real@3f0ccccd DD 03f0ccccdr			; 0.55
CONST	ENDS
;	COMDAT __real@3f000000
CONST	SEGMENT
__real@3f000000 DD 03f000000r			; 0.5
CONST	ENDS
;	COMDAT __real@3efae148
CONST	SEGMENT
__real@3efae148 DD 03efae148r			; 0.49
CONST	ENDS
;	COMDAT __real@3ee4f8b580000000
CONST	SEGMENT
__real@3ee4f8b580000000 DQ 03ee4f8b580000000r	; 1e-05
CONST	ENDS
;	COMDAT __real@3ecccccd
CONST	SEGMENT
__real@3ecccccd DD 03ecccccdr			; 0.4
CONST	ENDS
;	COMDAT __real@3eb33333
CONST	SEGMENT
__real@3eb33333 DD 03eb33333r			; 0.35
CONST	ENDS
;	COMDAT __real@3e99999a
CONST	SEGMENT
__real@3e99999a DD 03e99999ar			; 0.3
CONST	ENDS
;	COMDAT __real@3e800000
CONST	SEGMENT
__real@3e800000 DD 03e800000r			; 0.25
CONST	ENDS
;	COMDAT __real@3e4ccccd
CONST	SEGMENT
__real@3e4ccccd DD 03e4ccccdr			; 0.2
CONST	ENDS
;	COMDAT __real@3e2aaaab
CONST	SEGMENT
__real@3e2aaaab DD 03e2aaaabr			; 0.166667
CONST	ENDS
;	COMDAT __real@3e19999a
CONST	SEGMENT
__real@3e19999a DD 03e19999ar			; 0.15
CONST	ENDS
;	COMDAT __real@3e09374c
CONST	SEGMENT
__real@3e09374c DD 03e09374cr			; 0.134
CONST	ENDS
;	COMDAT __real@3e000000
CONST	SEGMENT
__real@3e000000 DD 03e000000r			; 0.125
CONST	ENDS
;	COMDAT __real@3dcccccd
CONST	SEGMENT
__real@3dcccccd DD 03dcccccdr			; 0.1
CONST	ENDS
;	COMDAT __real@3da3d70a
CONST	SEGMENT
__real@3da3d70a DD 03da3d70ar			; 0.08
CONST	ENDS
;	COMDAT __real@3d860a92
CONST	SEGMENT
__real@3d860a92 DD 03d860a92r			; 0.0654498
CONST	ENDS
;	COMDAT __real@3d4ccccd
CONST	SEGMENT
__real@3d4ccccd DD 03d4ccccdr			; 0.05
CONST	ENDS
;	COMDAT __real@3d23d70a
CONST	SEGMENT
__real@3d23d70a DD 03d23d70ar			; 0.04
CONST	ENDS
;	COMDAT __real@3cdd2f1b
CONST	SEGMENT
__real@3cdd2f1b DD 03cdd2f1br			; 0.027
CONST	ENDS
;	COMDAT __real@3c888889
CONST	SEGMENT
__real@3c888889 DD 03c888889r			; 0.0166667
CONST	ENDS
;	COMDAT __real@3c23d70a
CONST	SEGMENT
__real@3c23d70a DD 03c23d70ar			; 0.01
CONST	ENDS
;	COMDAT __real@3b808081
CONST	SEGMENT
__real@3b808081 DD 03b808081r			; 0.00392157
CONST	ENDS
;	COMDAT __real@3a83126f
CONST	SEGMENT
__real@3a83126f DD 03a83126fr			; 0.001
CONST	ENDS
;	COMDAT __real@38d1b717
CONST	SEGMENT
__real@38d1b717 DD 038d1b717r			; 0.0001
CONST	ENDS
;	COMDAT __real@38800000
CONST	SEGMENT
__real@38800000 DD 038800000r			; 6.10352e-05
CONST	ENDS
;	COMDAT __real@37800000
CONST	SEGMENT
__real@37800000 DD 037800000r			; 1.52588e-05
CONST	ENDS
;	COMDAT __real@3727c5ac
CONST	SEGMENT
__real@3727c5ac DD 03727c5acr			; 1e-05
CONST	ENDS
;	COMDAT __real@358637bd
CONST	SEGMENT
__real@358637bd DD 0358637bdr			; 1e-06
CONST	ENDS
;	COMDAT __real@1e3ce508
CONST	SEGMENT
__real@1e3ce508 DD 01e3ce508r			; 1e-20
CONST	ENDS
;	COMDAT __real@00800000
CONST	SEGMENT
__real@00800000 DD 000800000r			; 1.17549e-38
CONST	ENDS
;	COMDAT ?m_BrushObject@Primitive@@2V?$unique_ptr@VCanvasObject@@U?$default_delete@VCanvasObject@@@std@@@std@@A
_DATA	SEGMENT
?m_BrushObject@Primitive@@2V?$unique_ptr@VCanvasObject@@U?$default_delete@VCanvasObject@@@std@@@std@@A DQ 0000000000000000H ; Primitive::m_BrushObject
_DATA	ENDS
;	COMDAT ?m_CanvasShader@Primitive@@2V?$unique_ptr@VShader@@U?$default_delete@VShader@@@std@@@std@@A
_DATA	SEGMENT
?m_CanvasShader@Primitive@@2V?$unique_ptr@VShader@@U?$default_delete@VShader@@@std@@@std@@A DQ 0000000000000000H ; Primitive::m_CanvasShader
_DATA	ENDS
;	COMDAT ?m_RectShader@Primitive@@2V?$unique_ptr@VShader@@U?$default_delete@VShader@@@std@@@std@@A
_DATA	SEGMENT
?m_RectShader@Primitive@@2V?$unique_ptr@VShader@@U?$default_delete@VShader@@@std@@@std@@A DQ 0000000000000000H ; Primitive::m_RectShader
_DATA	ENDS
;	COMDAT ?m_CanvasObject@Primitive@@2V?$unique_ptr@VCanvasObject@@U?$default_delete@VCanvasObject@@@std@@@std@@A
_DATA	SEGMENT
?m_CanvasObject@Primitive@@2V?$unique_ptr@VCanvasObject@@U?$default_delete@VCanvasObject@@@std@@@std@@A DQ 0000000000000000H ; Primitive::m_CanvasObject
_DATA	ENDS
;	COMDAT xdata
xdata	SEGMENT
$unwind$??0exception@std@@QEAA@AEBV01@@Z DQ 03002320600020601r ; 1.96423e-77
xdata	ENDS
;	COMDAT xdata
xdata	SEGMENT
$unwind$??_Gexception@std@@UEAAPEAXI@Z DQ 00006340a00040a01r ; 8.62672e-309
	DD	07006320aH
xdata	ENDS
;	COMDAT xdata
xdata	SEGMENT
$unwind$??_Gbad_alloc@std@@UEAAPEAXI@Z DQ 00006340a00040a01r ; 8.62672e-309
	DD	07006320aH
xdata	ENDS
;	COMDAT xdata
xdata	SEGMENT
$unwind$??_Gbad_array_new_length@std@@UEAAPEAXI@Z DQ 00006340a00040a01r ; 8.62672e-309
	DD	07006320aH
xdata	ENDS
;	COMDAT xdata
xdata	SEGMENT
$unwind$?_Throw_bad_array_new_length@std@@YAXXZ DQ 00000820400010401r ; 7.06285e-310
xdata	ENDS
;	COMDAT xdata
xdata	SEGMENT
$unwind$??0bad_array_new_length@std@@QEAA@AEBV01@@Z DQ 03002320600020601r ; 1.96423e-77
xdata	ENDS
;	COMDAT xdata
xdata	SEGMENT
$unwind$??0bad_alloc@std@@QEAA@AEBV01@@Z DQ 03002320600020601r ; 1.96423e-77
xdata	ENDS
;	COMDAT xdata
xdata	SEGMENT
$unwind$?_Adjust_manually_vector_aligned@std@@YAXAEAPEAXAEA_K@Z DQ 00000420400010401r ; 3.58617e-310
xdata	ENDS
;	COMDAT xdata
xdata	SEGMENT
$unwind$?_Xlen_string@std@@YAXXZ DQ 00000420400010401r ; 3.58617e-310
xdata	ENDS
;	COMDAT xdata
xdata	SEGMENT
$unwind$??_H@YAXPEAX_K1P6APEAX0@Z@Z DQ 00008641400081401r ; 1.1669e-308
	DQ	00006341400075414r		; 8.62693e-309
	DD	070103214H
xdata	ENDS
;	COMDAT xdata
xdata	SEGMENT
$ip2state$??__F?m_RectShader@Primitive@@2V?$unique_ptr@VShader@@U?$default_delete@VShader@@@std@@@std@@A@@YAXXZ DW 02a02H
	DB	02H
xdata	ENDS
;	COMDAT xdata
xdata	SEGMENT
$stateUnwindMap$??__F?m_RectShader@Primitive@@2V?$unique_ptr@VShader@@U?$default_delete@VShader@@@std@@@std@@A@@YAXXZ DW 0e02H
	DD	imagerel __std_terminate
xdata	ENDS
;	COMDAT xdata
xdata	SEGMENT
$cppxdata$??__F?m_RectShader@Primitive@@2V?$unique_ptr@VShader@@U?$default_delete@VShader@@@std@@@std@@A@@YAXXZ DB 028H
	DD	imagerel $stateUnwindMap$??__F?m_RectShader@Primitive@@2V?$unique_ptr@VShader@@U?$default_delete@VShader@@@std@@@std@@A@@YAXXZ
	DD	imagerel $ip2state$??__F?m_RectShader@Primitive@@2V?$unique_ptr@VShader@@U?$default_delete@VShader@@@std@@@std@@A@@YAXXZ
xdata	ENDS
;	COMDAT xdata
xdata	SEGMENT
$unwind$??__F?m_RectShader@Primitive@@2V?$unique_ptr@VShader@@U?$default_delete@VShader@@@std@@@std@@A@@YAXXZ DQ 03002320600020611r ; 1.96423e-77
	DD	imagerel __CxxFrameHandler4
	DD	imagerel $cppxdata$??__F?m_RectShader@Primitive@@2V?$unique_ptr@VShader@@U?$default_delete@VShader@@@std@@@std@@A@@YAXXZ
xdata	ENDS
;	COMDAT xdata
xdata	SEGMENT
$ip2state$??__F?m_CanvasShader@Primitive@@2V?$unique_ptr@VShader@@U?$default_delete@VShader@@@std@@@std@@A@@YAXXZ DW 02a02H
	DB	02H
xdata	ENDS
;	COMDAT xdata
xdata	SEGMENT
$stateUnwindMap$??__F?m_CanvasShader@Primitive@@2V?$unique_ptr@VShader@@U?$default_delete@VShader@@@std@@@std@@A@@YAXXZ DW 0e02H
	DD	imagerel __std_terminate
xdata	ENDS
;	COMDAT xdata
xdata	SEGMENT
$cppxdata$??__F?m_CanvasShader@Primitive@@2V?$unique_ptr@VShader@@U?$default_delete@VShader@@@std@@@std@@A@@YAXXZ DB 028H
	DD	imagerel $stateUnwindMap$??__F?m_CanvasShader@Primitive@@2V?$unique_ptr@VShader@@U?$default_delete@VShader@@@std@@@std@@A@@YAXXZ
	DD	imagerel $ip2state$??__F?m_CanvasShader@Primitive@@2V?$unique_ptr@VShader@@U?$default_delete@VShader@@@std@@@std@@A@@YAXXZ
xdata	ENDS
;	COMDAT xdata
xdata	SEGMENT
$unwind$??__F?m_CanvasShader@Primitive@@2V?$unique_ptr@VShader@@U?$default_delete@VShader@@@std@@@std@@A@@YAXXZ DQ 03002320600020611r ; 1.96423e-77
	DD	imagerel __CxxFrameHandler4
	DD	imagerel $cppxdata$??__F?m_CanvasShader@Primitive@@2V?$unique_ptr@VShader@@U?$default_delete@VShader@@@std@@@std@@A@@YAXXZ
xdata	ENDS
;	COMDAT xdata
xdata	SEGMENT
$ip2state$?DrawRectangularSelect@RectangularSelect@@QEAAXXZ DB 016H
	DB	0a2H
	DB	00H
	DB	'-', 03H
	DB	02H
	DB	'F'
	DB	00H
	DB	01cH
	DB	04H
	DB	'.'
	DB	00H
	DB	'1', 03H
	DB	04H
	DB	'@'
	DB	00H
	DB	09dH, 04H
	DB	04H
	DB	'D'
	DB	00H
	DB	0eeH
	DB	04H
	DB	'J'
	DB	00H
xdata	ENDS
;	COMDAT xdata
xdata	SEGMENT
$stateUnwindMap$?DrawRectangularSelect@RectangularSelect@@QEAAXXZ DB 04H
	DB	0eH
	DD	imagerel __imp___std_terminate
	DB	032H
	DD	imagerel ??1?$basic_string@DU?$char_traits@D@std@@V?$allocator@D@2@@std@@QEAA@XZ
	DB	060H
xdata	ENDS
;	COMDAT xdata
xdata	SEGMENT
$cppxdata$?DrawRectangularSelect@RectangularSelect@@QEAAXXZ DB 028H
	DD	imagerel $stateUnwindMap$?DrawRectangularSelect@RectangularSelect@@QEAAXXZ
	DD	imagerel $ip2state$?DrawRectangularSelect@RectangularSelect@@QEAAXXZ
xdata	ENDS
;	COMDAT xdata
xdata	SEGMENT
$unwind$?DrawRectangularSelect@RectangularSelect@@QEAAXXZ DD 0d2311H
	DD	0137823H
	DD	014681fH
	DD	02e741bH
	DD	02d641bH
	DD	02c341bH
	DD	02a011bH
	DD	05010H
	DD	imagerel __CxxFrameHandler4
	DD	imagerel $cppxdata$?DrawRectangularSelect@RectangularSelect@@QEAAXXZ
xdata	ENDS
;	COMDAT xdata
xdata	SEGMENT
$ip2state$??1?$unique_ptr@VShader@@U?$default_delete@VShader@@@std@@@std@@QEAA@XZ DW 02202H
	DB	02H
xdata	ENDS
;	COMDAT xdata
xdata	SEGMENT
$stateUnwindMap$??1?$unique_ptr@VShader@@U?$default_delete@VShader@@@std@@@std@@QEAA@XZ DW 0e02H
	DD	imagerel __std_terminate
xdata	ENDS
;	COMDAT xdata
xdata	SEGMENT
$cppxdata$??1?$unique_ptr@VShader@@U?$default_delete@VShader@@@std@@@std@@QEAA@XZ DB 068H
	DD	imagerel $stateUnwindMap$??1?$unique_ptr@VShader@@U?$default_delete@VShader@@@std@@@std@@QEAA@XZ
	DD	imagerel $ip2state$??1?$unique_ptr@VShader@@U?$default_delete@VShader@@@std@@@std@@QEAA@XZ
xdata	ENDS
;	COMDAT xdata
xdata	SEGMENT
$unwind$??1?$unique_ptr@VShader@@U?$default_delete@VShader@@@std@@@std@@QEAA@XZ DQ 03002320600020619r ; 1.96423e-77
	DD	imagerel __CxxFrameHandler4
	DD	imagerel $cppxdata$??1?$unique_ptr@VShader@@U?$default_delete@VShader@@@std@@@std@@QEAA@XZ
xdata	ENDS
;	COMDAT xdata
xdata	SEGMENT
$unwind$??1?$basic_string@DU?$char_traits@D@std@@V?$allocator@D@2@@std@@QEAA@XZ DQ 03002320600020601r ; 1.96423e-77
xdata	ENDS
;	COMDAT xdata
xdata	SEGMENT
$ip2state$??0?$basic_string@DU?$char_traits@D@std@@V?$allocator@D@2@@std@@QEAA@QEBD@Z DW 05602H
	DB	00H
xdata	ENDS
;	COMDAT xdata
xdata	SEGMENT
$stateUnwindMap$??0?$basic_string@DU?$char_traits@D@std@@V?$allocator@D@2@@std@@QEAA@QEBD@Z DW 0e02H
	DD	imagerel __std_terminate
xdata	ENDS
;	COMDAT xdata
xdata	SEGMENT
$cppxdata$??0?$basic_string@DU?$char_traits@D@std@@V?$allocator@D@2@@std@@QEAA@QEBD@Z DB 028H
	DD	imagerel $stateUnwindMap$??0?$basic_string@DU?$char_traits@D@std@@V?$allocator@D@2@@std@@QEAA@QEBD@Z
	DD	imagerel $ip2state$??0?$basic_string@DU?$char_traits@D@std@@V?$allocator@D@2@@std@@QEAA@QEBD@Z
xdata	ENDS
;	COMDAT xdata
xdata	SEGMENT
$unwind$??0?$basic_string@DU?$char_traits@D@std@@V?$allocator@D@2@@std@@QEAA@QEBD@Z DQ 03002320600020611r ; 1.96423e-77
	DD	imagerel __CxxFrameHandler4
	DD	imagerel $cppxdata$??0?$basic_string@DU?$char_traits@D@std@@V?$allocator@D@2@@std@@QEAA@QEBD@Z
xdata	ENDS
;	COMDAT xdata
xdata	SEGMENT
$ip2state$??R?$default_delete@VShader@@@std@@QEBAXPEAVShader@@@Z DW 02002H
	DB	02H
xdata	ENDS
;	COMDAT xdata
xdata	SEGMENT
$stateUnwindMap$??R?$default_delete@VShader@@@std@@QEBAXPEAVShader@@@Z DW 0e02H
	DD	imagerel __std_terminate
xdata	ENDS
;	COMDAT xdata
xdata	SEGMENT
$cppxdata$??R?$default_delete@VShader@@@std@@QEBAXPEAVShader@@@Z DB 068H
	DD	imagerel $stateUnwindMap$??R?$default_delete@VShader@@@std@@QEBAXPEAVShader@@@Z
	DD	imagerel $ip2state$??R?$default_delete@VShader@@@std@@QEBAXPEAVShader@@@Z
xdata	ENDS
;	COMDAT xdata
xdata	SEGMENT
$unwind$??R?$default_delete@VShader@@@std@@QEBAXPEAVShader@@@Z DQ 03006320a00020a19r ; 2.39605e-77
	DD	imagerel __CxxFrameHandler4
	DD	imagerel $cppxdata$??R?$default_delete@VShader@@@std@@QEBAXPEAVShader@@@Z
xdata	ENDS
;	COMDAT xdata
xdata	SEGMENT
$chain$2$??R?$default_delete@VCanvasObject@@@std@@QEBAXPEAVCanvasObject@@@Z DQ 00006740000020021r ; 8.97417e-309
	DD	imagerel $LN71@operator
	DD	imagerel $LN71@operator+21
	DD	imagerel $unwind$??R?$default_delete@VCanvasObject@@@std@@QEBAXPEAVCanvasObject@@@Z
xdata	ENDS
;	COMDAT xdata
xdata	SEGMENT
$chain$1$??R?$default_delete@VCanvasObject@@@std@@QEBAXPEAVCanvasObject@@@Z DD 021H
	DD	imagerel $LN71@operator
	DD	imagerel $LN71@operator+21
	DD	imagerel $unwind$??R?$default_delete@VCanvasObject@@@std@@QEBAXPEAVCanvasObject@@@Z
xdata	ENDS
;	COMDAT xdata
xdata	SEGMENT
$chain$0$??R?$default_delete@VCanvasObject@@@std@@QEBAXPEAVCanvasObject@@@Z DQ 00006740500020521r ; 8.97428e-309
	DD	imagerel $LN71@operator
	DD	imagerel $LN71@operator+21
	DD	imagerel $unwind$??R?$default_delete@VCanvasObject@@@std@@QEBAXPEAVCanvasObject@@@Z
xdata	ENDS
;	COMDAT xdata
xdata	SEGMENT
$unwind$??R?$default_delete@VCanvasObject@@@std@@QEBAXPEAVCanvasObject@@@Z DQ 0300a320e00020e01r ; 2.82786e-77
xdata	ENDS
;	COMDAT xdata
xdata	SEGMENT
$unwind$?_Tidy_deallocate@?$basic_string@DU?$char_traits@D@std@@V?$allocator@D@2@@std@@AEAAXXZ DQ 03002320600020601r ; 1.96423e-77
xdata	ENDS
;	COMDAT xdata
xdata	SEGMENT
$ip2state$?_Tidy_init@?$basic_string@DU?$char_traits@D@std@@V?$allocator@D@2@@std@@AEAAXXZ DB 00H
xdata	ENDS
;	COMDAT xdata
xdata	SEGMENT
$cppxdata$?_Tidy_init@?$basic_string@DU?$char_traits@D@std@@V?$allocator@D@2@@std@@AEAAXXZ DB 060H
	DD	imagerel $ip2state$?_Tidy_init@?$basic_string@DU?$char_traits@D@std@@V?$allocator@D@2@@std@@AEAAXXZ
xdata	ENDS
;	COMDAT xdata
xdata	SEGMENT
$unwind$?_Tidy_init@?$basic_string@DU?$char_traits@D@std@@V?$allocator@D@2@@std@@AEAAXXZ DD 019H
	DD	imagerel __CxxFrameHandler4
	DD	imagerel $cppxdata$?_Tidy_init@?$basic_string@DU?$char_traits@D@std@@V?$allocator@D@2@@std@@AEAAXXZ
xdata	ENDS
;	COMDAT xdata
xdata	SEGMENT
$chain$3$?assign@?$basic_string@DU?$char_traits@D@std@@V?$allocator@D@2@@std@@QEAAAEAV12@QEBD_K@Z DD 021H
	DD	imagerel $LN143@assign
	DD	imagerel $LN143@assign+139
	DD	imagerel $unwind$?assign@?$basic_string@DU?$char_traits@D@std@@V?$allocator@D@2@@std@@QEAAAEAV12@QEBD_K@Z
xdata	ENDS
;	COMDAT xdata
xdata	SEGMENT
$chain$2$?assign@?$basic_string@DU?$char_traits@D@std@@V?$allocator@D@2@@std@@QEAAAEAV12@QEBD_K@Z DQ 0000d640000020021r ; 1.8622e-308
	DD	imagerel $LN143@assign
	DD	imagerel $LN143@assign+139
	DD	imagerel $unwind$?assign@?$basic_string@DU?$char_traits@D@std@@V?$allocator@D@2@@std@@QEAAAEAV12@QEBD_K@Z
xdata	ENDS
;	COMDAT xdata
xdata	SEGMENT
$chain$0$?assign@?$basic_string@DU?$char_traits@D@std@@V?$allocator@D@2@@std@@QEAAAEAV12@QEBD_K@Z DQ 0000d640500020521r ; 1.86221e-308
	DD	imagerel $LN143@assign
	DD	imagerel $LN143@assign+139
	DD	imagerel $unwind$?assign@?$basic_string@DU?$char_traits@D@std@@V?$allocator@D@2@@std@@QEAAAEAV12@QEBD_K@Z
xdata	ENDS
;	COMDAT xdata
xdata	SEGMENT
$unwind$?assign@?$basic_string@DU?$char_traits@D@std@@V?$allocator@D@2@@std@@QEAAAEAV12@QEBD_K@Z DQ 0f008320c00060c01r ; -4.69549e+231
	DQ	0300250037004e006r		; 1.97688e-77
xdata	ENDS
;	COMDAT xdata
xdata	SEGMENT
$unwind$??R<lambda_1>@?1??assign@?$basic_string@DU?$char_traits@D@std@@V?$allocator@D@2@@std@@QEAAAEAV23@QEBD_K@Z@QEBA@QEAD10@Z DQ 00006340a00040a01r ; 8.62672e-309
	DD	07006320aH
xdata	ENDS
;	COMDAT xdata
xdata	SEGMENT
$unwind$?copy@?$_Char_traits@DH@std@@SAPEADQEADQEBD_K@Z DQ 03002320600020601r ; 1.96423e-77
xdata	ENDS
;	COMDAT xdata
xdata	SEGMENT
$ip2state$??_GShader@@QEAAPEAXI@Z DW 01802H
	DB	02H
xdata	ENDS
;	COMDAT xdata
xdata	SEGMENT
$stateUnwindMap$??_GShader@@QEAAPEAXI@Z DW 0e02H
	DD	imagerel __std_terminate
xdata	ENDS
;	COMDAT xdata
xdata	SEGMENT
$cppxdata$??_GShader@@QEAAPEAXI@Z DB 068H
	DD	imagerel $stateUnwindMap$??_GShader@@QEAAPEAXI@Z
	DD	imagerel $ip2state$??_GShader@@QEAAPEAXI@Z
xdata	ENDS
;	COMDAT xdata
xdata	SEGMENT
$unwind$??_GShader@@QEAAPEAXI@Z DQ 03002320600020619r ; 1.96423e-77
	DD	imagerel __CxxFrameHandler4
	DD	imagerel $cppxdata$??_GShader@@QEAAPEAXI@Z
xdata	ENDS
;	COMDAT xdata
xdata	SEGMENT
$unwind$??_GCanvasObject@@QEAAPEAXI@Z DQ 00007340a00040a01r ; 1.00174e-308
	DD	07006320aH
xdata	ENDS
;	COMDAT xdata
xdata	SEGMENT
$unwind$?allocate@?$allocator@D@std@@QEAAPEAD_K@Z DQ 00000420400010401r ; 3.58617e-310
xdata	ENDS
;	COMDAT xdata
xdata	SEGMENT
$unwind$?deallocate@?$allocator@D@std@@QEAAXQEAD_K@Z DQ 00000420400010401r ; 3.58617e-310
xdata	ENDS
;	COMDAT xdata
xdata	SEGMENT
$unwind$?move@?$_Char_traits@DH@std@@SAPEADQEADQEBD_K@Z DQ 03002320600020601r ; 1.96423e-77
xdata	ENDS
;	COMDAT xdata
xdata	SEGMENT
$unwind$?assign@?$_Char_traits@DH@std@@SAPEADQEAD_KD@Z DQ 03002320600020601r ; 1.96423e-77
xdata	ENDS
;	COMDAT xdata
xdata	SEGMENT
$unwind$?catch$4@?0???$?6U?$char_traits@D@std@@@std@@YAAEAV?$basic_ostream@DU?$char_traits@D@std@@@0@AEAV10@PEBD@Z@4HA DQ 05006320a00020a01r ; 3.21257e+77
xdata	ENDS
;	COMDAT xdata
xdata	SEGMENT
$ip2state$??$?6U?$char_traits@D@std@@@std@@YAAEAV?$basic_ostream@DU?$char_traits@D@std@@@0@AEAV10@PEBD@Z DQ 0ec06a8025000d60er ; -2.3835e+212
	DD	0280a4c04H
	DW	0300cH
	DB	00H
xdata	ENDS
;	COMDAT xdata
xdata	SEGMENT
$handlerMap$??$?6U?$char_traits@D@std@@@std@@YAAEAV?$basic_ostream@DU?$char_traits@D@std@@@0@AEAV10@PEBD@Z DW 01102H
	DB	080H
	DD	imagerel ?catch$4@?0???$?6U?$char_traits@D@std@@@std@@YAAEAV?$basic_ostream@DU?$char_traits@D@std@@@0@AEAV10@PEBD@Z@4HA
	DW	057dH
xdata	ENDS
;	COMDAT xdata
xdata	SEGMENT
$tryMap$??$?6U?$char_traits@D@std@@@std@@YAAEAV?$basic_ostream@DU?$char_traits@D@std@@@0@AEAV10@PEBD@Z DD 06040402H
	DD	imagerel $handlerMap$??$?6U?$char_traits@D@std@@@std@@YAAEAV?$basic_ostream@DU?$char_traits@D@std@@@0@AEAV10@PEBD@Z
xdata	ENDS
;	COMDAT xdata
xdata	SEGMENT
$stateUnwindMap$??$?6U?$char_traits@D@std@@@std@@YAAEAV?$basic_ostream@DU?$char_traits@D@std@@@0@AEAV10@PEBD@Z DW 0a0cH
	DD	imagerel ??1_Sentry_base@?$basic_ostream@DU?$char_traits@D@std@@@std@@QEAA@XZ
	DW	03a40H
	DD	imagerel ??1sentry@?$basic_ostream@DU?$char_traits@D@std@@@std@@QEAA@XZ
	DD	07e383040H
	DD	imagerel __std_terminate
	DB	02eH
	DD	imagerel __std_terminate
xdata	ENDS
;	COMDAT xdata
xdata	SEGMENT
$cppxdata$??$?6U?$char_traits@D@std@@@std@@YAAEAV?$basic_ostream@DU?$char_traits@D@std@@@0@AEAV10@PEBD@Z DB 038H
	DD	imagerel $stateUnwindMap$??$?6U?$char_traits@D@std@@@std@@YAAEAV?$basic_ostream@DU?$char_traits@D@std@@@0@AEAV10@PEBD@Z
	DD	imagerel $tryMap$??$?6U?$char_traits@D@std@@@std@@YAAEAV?$basic_ostream@DU?$char_traits@D@std@@@0@AEAV10@PEBD@Z
	DD	imagerel $ip2state$??$?6U?$char_traits@D@std@@@std@@YAAEAV?$basic_ostream@DU?$char_traits@D@std@@@0@AEAV10@PEBD@Z
xdata	ENDS
;	COMDAT xdata
xdata	SEGMENT
$unwind$??$?6U?$char_traits@D@std@@@std@@YAAEAV?$basic_ostream@DU?$char_traits@D@std@@@0@AEAV10@PEBD@Z DQ 0000d341600081619r ; 1.83617e-308
	DQ	0c00ee010f0125216r		; -3.85941
	DD	0600b700cH
	DD	imagerel __CxxFrameHandler4
	DD	imagerel $cppxdata$??$?6U?$char_traits@D@std@@@std@@YAAEAV?$basic_ostream@DU?$char_traits@D@std@@@0@AEAV10@PEBD@Z
xdata	ENDS
;	COMDAT xdata
xdata	SEGMENT
$unwind$??$translate@M$0A@@glm@@YA?AU?$mat@$03$03M$0A@@0@AEBU10@AEBU?$vec@$02M$0A@@0@@Z DQ 00001b856000d5601r ; 2.39204e-309
	DQ	0000398400002a845r		; 4.99908e-309
	DQ	00005782d00048836r		; 7.60619e-309
	DQ	00000e20700066822r		; 1.22785e-309
xdata	ENDS
;	COMDAT xdata
xdata	SEGMENT
$unwind$??$scale@M$0A@@glm@@YA?AU?$mat@$03$03M$0A@@0@AEBU10@AEBU?$vec@$02M$0A@@0@@Z DQ 00001681400031401r ; 1.95606e-309
	DD	04204H
xdata	ENDS
;	COMDAT xdata
xdata	SEGMENT
$unwind$??$ortho@M@glm@@YA?AU?$mat@$03$03M$0A@@0@MMMM@Z DQ 00000780f00050f01r ; 6.52195e-310
	DQ	00000420400016809r		; 3.58617e-310
xdata	ENDS
;	COMDAT xdata
xdata	SEGMENT
$chain$4$??$_Reallocate_for@V<lambda_1>@?1??assign@?$basic_string@DU?$char_traits@D@std@@V?$allocator@D@2@@std@@QEAAAEAV34@QEBD_K@Z@PEBD@?$basic_string@DU?$char_traits@D@std@@V?$allocator@D@2@@std@@AEAAAEAV01@_KV<lambda_1>@?1??assign@01@QEAAAEAV01@QEBD0@Z@PEBD@Z DD 021H
	DD	imagerel $LN103@Reallocate
	DD	imagerel $LN103@Reallocate+43
	DD	imagerel $unwind$??$_Reallocate_for@V<lambda_1>@?1??assign@?$basic_string@DU?$char_traits@D@std@@V?$allocator@D@2@@std@@QEAAAEAV34@QEBD_K@Z@PEBD@?$basic_string@DU?$char_traits@D@std@@V?$allocator@D@2@@std@@AEAAAEAV01@_KV<lambda_1>@?1??assign@01@QEAAAEAV01@QEBD0@Z@PEBD@Z
xdata	ENDS
;	COMDAT xdata
xdata	SEGMENT
$chain$3$??$_Reallocate_for@V<lambda_1>@?1??assign@?$basic_string@DU?$char_traits@D@std@@V?$allocator@D@2@@std@@QEAAAEAV34@QEBD_K@Z@PEBD@?$basic_string@DU?$char_traits@D@std@@V?$allocator@D@2@@std@@AEAAAEAV01@_KV<lambda_1>@?1??assign@01@QEAAAEAV01@QEBD0@Z@PEBD@Z DQ 00004540000040021r ; 6.019e-309
	DD	0c3400H
	DD	imagerel $LN103@Reallocate
	DD	imagerel $LN103@Reallocate+43
	DD	imagerel $unwind$??$_Reallocate_for@V<lambda_1>@?1??assign@?$basic_string@DU?$char_traits@D@std@@V?$allocator@D@2@@std@@QEAAAEAV34@QEBD_K@Z@PEBD@?$basic_string@DU?$char_traits@D@std@@V?$allocator@D@2@@std@@AEAAAEAV01@_KV<lambda_1>@?1??assign@01@QEAAAEAV01@QEBD0@Z@PEBD@Z
xdata	ENDS
;	COMDAT xdata
xdata	SEGMENT
$chain$1$??$_Reallocate_for@V<lambda_1>@?1??assign@?$basic_string@DU?$char_traits@D@std@@V?$allocator@D@2@@std@@QEAAAEAV34@QEBD_K@Z@PEBD@?$basic_string@DU?$char_traits@D@std@@V?$allocator@D@2@@std@@AEAAAEAV01@_KV<lambda_1>@?1??assign@01@QEAAAEAV01@QEBD0@Z@PEBD@Z DQ 0000c343500043521r ; 1.69717e-308
	DD	045405H
	DD	imagerel $LN103@Reallocate
	DD	imagerel $LN103@Reallocate+43
	DD	imagerel $unwind$??$_Reallocate_for@V<lambda_1>@?1??assign@?$basic_string@DU?$char_traits@D@std@@V?$allocator@D@2@@std@@QEAAAEAV34@QEBD_K@Z@PEBD@?$basic_string@DU?$char_traits@D@std@@V?$allocator@D@2@@std@@AEAAAEAV01@_KV<lambda_1>@?1??assign@01@QEAAAEAV01@QEBD0@Z@PEBD@Z
xdata	ENDS
;	COMDAT xdata
xdata	SEGMENT
$unwind$??$_Reallocate_for@V<lambda_1>@?1??assign@?$basic_string@DU?$char_traits@D@std@@V?$allocator@D@2@@std@@QEAAAEAV34@QEBD_K@Z@PEBD@?$basic_string@DU?$char_traits@D@std@@V?$allocator@D@2@@std@@AEAAAEAV01@_KV<lambda_1>@?1??assign@01@QEAAAEAV01@QEBD0@Z@PEBD@Z DQ 0f007420b00050b01r ; -4.51355e+231
	DQ	0000060027003e005r		; 5.21553e-310
xdata	ENDS
;	COMDAT xdata
xdata	SEGMENT
$unwind$??$_Deallocate@$0BA@$0A@@std@@YAXPEAX_K@Z DQ 00000420400010401r ; 3.58617e-310
xdata	ENDS
;	COMDAT xdata
xdata	SEGMENT
$unwind$??$_Allocate@$0BA@U_Default_allocate_traits@std@@$0A@@std@@YAPEAX_K@Z DQ 00000420400010401r ; 3.58617e-310
xdata	ENDS
;	COMDAT xdata
xdata	SEGMENT
$ip2state$??1sentry@?$basic_ostream@DU?$char_traits@D@std@@@std@@QEAA@XZ DD 03c002c04H
	DB	02H
xdata	ENDS
;	COMDAT xdata
xdata	SEGMENT
$stateUnwindMap$??1sentry@?$basic_ostream@DU?$char_traits@D@std@@@std@@QEAA@XZ DW 0e02H
	DD	imagerel __std_terminate
xdata	ENDS
;	COMDAT xdata
xdata	SEGMENT
$cppxdata$??1sentry@?$basic_ostream@DU?$char_traits@D@std@@@std@@QEAA@XZ DB 068H
	DD	imagerel $stateUnwindMap$??1sentry@?$basic_ostream@DU?$char_traits@D@std@@@std@@QEAA@XZ
	DD	imagerel $ip2state$??1sentry@?$basic_ostream@DU?$char_traits@D@std@@@std@@QEAA@XZ
xdata	ENDS
;	COMDAT xdata
xdata	SEGMENT
$unwind$??1sentry@?$basic_ostream@DU?$char_traits@D@std@@@std@@QEAA@XZ DQ 03002320600020619r ; 1.96423e-77
	DD	imagerel __CxxFrameHandler4
	DD	imagerel $cppxdata$??1sentry@?$basic_ostream@DU?$char_traits@D@std@@@std@@QEAA@XZ
xdata	ENDS
;	COMDAT xdata
xdata	SEGMENT
$ip2state$??0sentry@?$basic_ostream@DU?$char_traits@D@std@@@std@@QEAA@AEAV12@@Z DD 04a005804H
	DB	02H
xdata	ENDS
;	COMDAT xdata
xdata	SEGMENT
$stateUnwindMap$??0sentry@?$basic_ostream@DU?$char_traits@D@std@@@std@@QEAA@AEAV12@@Z DW 0c02H
	DD	imagerel ??1_Sentry_base@?$basic_ostream@DU?$char_traits@D@std@@@std@@QEAA@XZ
	DB	060H
xdata	ENDS
;	COMDAT xdata
xdata	SEGMENT
$cppxdata$??0sentry@?$basic_ostream@DU?$char_traits@D@std@@@std@@QEAA@AEAV12@@Z DB 028H
	DD	imagerel $stateUnwindMap$??0sentry@?$basic_ostream@DU?$char_traits@D@std@@@std@@QEAA@AEAV12@@Z
	DD	imagerel $ip2state$??0sentry@?$basic_ostream@DU?$char_traits@D@std@@@std@@QEAA@AEAV12@@Z
xdata	ENDS
;	COMDAT xdata
xdata	SEGMENT
$unwind$??0sentry@?$basic_ostream@DU?$char_traits@D@std@@@std@@QEAA@AEAV12@@Z DQ 00007340f00040f11r ; 1.00175e-308
	DD	0700b320fH
	DD	imagerel __CxxFrameHandler4
	DD	imagerel $cppxdata$??0sentry@?$basic_ostream@DU?$char_traits@D@std@@@std@@QEAA@AEAV12@@Z
xdata	ENDS
;	COMDAT xdata
xdata	SEGMENT
$ip2state$??1_Sentry_base@?$basic_ostream@DU?$char_traits@D@std@@@std@@QEAA@XZ DW 03602H
	DB	00H
xdata	ENDS
;	COMDAT xdata
xdata	SEGMENT
$cppxdata$??1_Sentry_base@?$basic_ostream@DU?$char_traits@D@std@@@std@@QEAA@XZ DB 060H
	DD	imagerel $ip2state$??1_Sentry_base@?$basic_ostream@DU?$char_traits@D@std@@@std@@QEAA@XZ
xdata	ENDS
;	COMDAT xdata
xdata	SEGMENT
$unwind$??1_Sentry_base@?$basic_ostream@DU?$char_traits@D@std@@@std@@QEAA@XZ DQ 00000420400010419r ; 3.58617e-310
	DD	imagerel __CxxFrameHandler4
	DD	imagerel $cppxdata$??1_Sentry_base@?$basic_ostream@DU?$char_traits@D@std@@@std@@QEAA@XZ
xdata	ENDS
;	COMDAT xdata
xdata	SEGMENT
$unwind$??0_Sentry_base@?$basic_ostream@DU?$char_traits@D@std@@@std@@QEAA@AEAV12@@Z DQ 03002320600020601r ; 1.96423e-77
xdata	ENDS
;	COMDAT xdata
xdata	SEGMENT
$unwind$??$_Allocate_manually_vector_aligned@U_Default_allocate_traits@std@@@std@@YAPEAX_K@Z DQ 00000420400010401r ; 3.58617e-310
xdata	ENDS
;	COMDAT CRT$XCU
CRT$XCU	SEGMENT
??m_BrushObject$initializer$@Primitive@@2P6AXXZEA@@3P6AXXZEA DQ FLAT:??__F?m_BrushObject@Primitive@@2V?$unique_ptr@VCanvasObject@@U?$default_delete@VCanvasObject@@@std@@@std@@A@@YAXXZ ; ??m_BrushObject$initializer$@Primitive@@2P6AXXZEA@@3P6AXXZEA
CRT$XCU	ENDS
;	COMDAT CRT$XCU
CRT$XCU	SEGMENT
??m_CanvasShader$initializer$@Primitive@@2P6AXXZEA@@3P6AXXZEA DQ FLAT:??__F?m_CanvasShader@Primitive@@2V?$unique_ptr@VShader@@U?$default_delete@VShader@@@std@@@std@@A@@YAXXZ ; ??m_CanvasShader$initializer$@Primitive@@2P6AXXZEA@@3P6AXXZEA
CRT$XCU	ENDS
;	COMDAT CRT$XCU
CRT$XCU	SEGMENT
??m_RectShader$initializer$@Primitive@@2P6AXXZEA@@3P6AXXZEA DQ FLAT:??__F?m_RectShader@Primitive@@2V?$unique_ptr@VShader@@U?$default_delete@VShader@@@std@@@std@@A@@YAXXZ ; ??m_RectShader$initializer$@Primitive@@2P6AXXZEA@@3P6AXXZEA
CRT$XCU	ENDS
CRT$XCU	ENDS
CRT$XCU	ENDS
CRT$XCU	ENDS
CRT$XCU	ENDS
; Function compile flags: /Ogtpy
; File H:\Downloads\Photo Studio\Photo Studio\Source\Tools\RectangularSelect.cpp
; File H:\Downloads\Photo Studio\Photo Studio\Dependencies\glm\detail\compute_vector_relational.hpp
; File H:\Downloads\Photo Studio\Photo Studio\Source\Tools\RectangularSelect.cpp
; File H:\Downloads\Photo Studio\Photo Studio\Source\Shader.cpp
; File H:\Downloads\Photo Studio\Photo Studio\Source\Tools\RectangularSelect.cpp
; File H:\Downloads\Photo Studio\Photo Studio\Dependencies\glm\detail\type_vec3.inl
; File H:\Downloads\Photo Studio\Photo Studio\Source\Tools\RectangularSelect.cpp
; File H:\Downloads\Photo Studio\Photo Studio\Dependencies\glm\detail\type_vec3.inl
; File H:\Downloads\Photo Studio\Photo Studio\Dependencies\glm\detail\type_vec4.inl
; File H:\Downloads\Photo Studio\Photo Studio\Source\Tools\RectangularSelect.cpp
; File C:\Program Files\Microsoft Visual Studio\2022\Community\VC\Tools\MSVC\14.32.31326\include\xstring
; File H:\Downloads\Photo Studio\Photo Studio\Source\Shader.cpp
; File C:\Program Files\Microsoft Visual Studio\2022\Community\VC\Tools\MSVC\14.32.31326\include\xstring
; File C:\Program Files\Microsoft Visual Studio\2022\Community\VC\Tools\MSVC\14.32.31326\include\xmemory
; File H:\Downloads\Photo Studio\Photo Studio\Source\Tools\RectangularSelect.cpp
; File H:\Downloads\Photo Studio\Photo Studio\Dependencies\glm\detail\type_vec3.inl
; File H:\Downloads\Photo Studio\Photo Studio\Dependencies\glm\detail\type_vec4.inl
; File H:\Downloads\Photo Studio\Photo Studio\Source\Tools\RectangularSelect.cpp
; File C:\Program Files\Microsoft Visual Studio\2022\Community\VC\Tools\MSVC\14.32.31326\include\xstring
; File H:\Downloads\Photo Studio\Photo Studio\Source\Shader.cpp
; File C:\Program Files\Microsoft Visual Studio\2022\Community\VC\Tools\MSVC\14.32.31326\include\xstring
; File C:\Program Files\Microsoft Visual Studio\2022\Community\VC\Tools\MSVC\14.32.31326\include\xmemory
; File H:\Downloads\Photo Studio\Photo Studio\Source\Tools\RectangularSelect.cpp
; File H:\Downloads\Photo Studio\Photo Studio\Dependencies\glm\detail\type_vec4.inl
; File H:\Downloads\Photo Studio\Photo Studio\Dependencies\glm\ext\matrix_clip_space.inl
; File C:\Program Files\Microsoft Visual Studio\2022\Community\VC\Tools\MSVC\14.32.31326\include\xstring
; File H:\Downloads\Photo Studio\Photo Studio\Source\Shader.cpp
; File C:\Program Files\Microsoft Visual Studio\2022\Community\VC\Tools\MSVC\14.32.31326\include\xstring
; File C:\Program Files\Microsoft Visual Studio\2022\Community\VC\Tools\MSVC\14.32.31326\include\xmemory
; File H:\Downloads\Photo Studio\Photo Studio\Source\Tools\RectangularSelect.cpp
; File C:\Program Files\Microsoft Visual Studio\2022\Community\VC\Tools\MSVC\14.32.31326\include\xstring
; File H:\Downloads\Photo Studio\Photo Studio\Source\Shader.cpp
; File C:\Program Files\Microsoft Visual Studio\2022\Community\VC\Tools\MSVC\14.32.31326\include\xstring
; File C:\Program Files\Microsoft Visual Studio\2022\Community\VC\Tools\MSVC\14.32.31326\include\xmemory
; File C:\Program Files\Microsoft Visual Studio\2022\Community\VC\Tools\MSVC\14.32.31326\include\xstring
; File H:\Downloads\Photo Studio\Photo Studio\Source\Tools\RectangularSelect.cpp
; File H:\Downloads\Photo Studio\Photo Studio\Source\CanvasObject.cpp
; File C:\Program Files\Microsoft Visual Studio\2022\Community\VC\Tools\MSVC\14.32.31326\include\vector
; File H:\Downloads\Photo Studio\Photo Studio\Source\CanvasObject.cpp
; File H:\Downloads\Photo Studio\Photo Studio\Source\Tools\RectangularSelect.cpp
;	COMDAT ?DrawRectangularSelect@RectangularSelect@@QEAAXXZ
_TEXT	SEGMENT
$T79 = 48
$T65 = 48
$T35 = 48
$T13 = 48
$T26 = 80
$T2 = 80
$T49 = 96
$T28 = 96
$T5 = 96
$T3 = 160
$T33 = 176
$T11 = 176
$T10 = 240
this$ = 352
?DrawRectangularSelect@RectangularSelect@@QEAAXXZ PROC	; RectangularSelect::DrawRectangularSelect, COMDAT

; 35   : {

$LN756:
	mov	rax, rsp
	mov	QWORD PTR [rax+8], rbx
	mov	QWORD PTR [rax+16], rsi
	mov	QWORD PTR [rax+24], rdi
	push	rbp
	lea	rbp, QWORD PTR [rax-88]
	sub	rsp, 336				; 00000150H
	movaps	XMMWORD PTR [rax-24], xmm6
	movaps	XMMWORD PTR [rax-40], xmm7
	mov	rbx, rcx
; File H:\Downloads\Photo Studio\Photo Studio\Dependencies\glm\detail\compute_vector_relational.hpp

; 15   : 			return a == b;

	movss	xmm0, DWORD PTR [rcx]
	ucomiss	xmm0, DWORD PTR [rcx+8]
	jp	SHORT $LN734@DrawRectan
	jne	SHORT $LN734@DrawRectan
	movss	xmm0, DWORD PTR [rcx+4]
	ucomiss	xmm0, DWORD PTR [rcx+12]
	jp	SHORT $LN734@DrawRectan
	je	$LN1@DrawRectan
$LN734@DrawRectan:
; File H:\Downloads\Photo Studio\Photo Studio\Source\Tools\RectangularSelect.cpp

; 39   : 	std::cout << "test\n";

	lea	rdx, OFFSET FLAT:??_C@_05FPMBMOMC@test?6@
	mov	rcx, QWORD PTR __imp_?cout@std@@3V?$basic_ostream@DU?$char_traits@D@std@@@1@A
	call	??$?6U?$char_traits@D@std@@@std@@YAAEAV?$basic_ostream@DU?$char_traits@D@std@@@0@AEAV10@PEBD@Z ; std::operator<<<std::char_traits<char> >
; File H:\Downloads\Photo Studio\Photo Studio\Source\Shader.cpp

; 125  :     glUseProgram(this->Program);

	mov	rax, QWORD PTR ?m_RectShader@Primitive@@2V?$unique_ptr@VShader@@U?$default_delete@VShader@@@std@@@std@@A ; Primitive::m_RectShader
	mov	ecx, DWORD PTR [rax+8]
	call	QWORD PTR glad_glUseProgram
; File H:\Downloads\Photo Studio\Photo Studio\Source\Tools\RectangularSelect.cpp

; 41   : 	Primitive::m_RectShader->Uniform<glm::mat4>("model",

	mov	rdi, QWORD PTR ?m_RectShader@Primitive@@2V?$unique_ptr@VShader@@U?$default_delete@VShader@@@std@@@std@@A ; Primitive::m_RectShader
	movss	xmm3, DWORD PTR [rbx+12]
	subss	xmm3, DWORD PTR [rbx+4]
	movss	xmm2, DWORD PTR [rbx+8]
	subss	xmm2, DWORD PTR [rbx]
; File H:\Downloads\Photo Studio\Photo Studio\Dependencies\glm\detail\type_vec3.inl

; 54   : 		: x(static_cast<T>(_x))

	movss	DWORD PTR $T2[rsp], xmm2

; 55   : 		, y(static_cast<T>(_y))

	movss	DWORD PTR $T2[rsp+4], xmm3
	xorps	xmm7, xmm7

; 56   : 		, z(static_cast<T>(_z))

	mov	DWORD PTR $T2[rsp+8], 0
; File H:\Downloads\Photo Studio\Photo Studio\Source\Tools\RectangularSelect.cpp

; 41   : 	Primitive::m_RectShader->Uniform<glm::mat4>("model",

	movss	xmm6, DWORD PTR __real@3f000000
	mulss	xmm3, xmm6
	addss	xmm3, DWORD PTR [rbx+4]
	mulss	xmm2, xmm6
	addss	xmm2, DWORD PTR [rbx]
; File H:\Downloads\Photo Studio\Photo Studio\Dependencies\glm\detail\type_vec3.inl

; 38   : 		: x(_x), y(_y), z(_z)

	movss	DWORD PTR $T3[rbp-256], xmm2
	movss	DWORD PTR $T3[rbp-252], xmm3
	mov	DWORD PTR $T3[rbp-248], 0
; File H:\Downloads\Photo Studio\Photo Studio\Dependencies\glm\detail\type_vec4.inl

; 178  : 		: x(static_cast<T>(_x))

	movaps	xmm0, XMMWORD PTR __xmm@0000000000000000000000003f800000
	movaps	XMMWORD PTR $T5[rsp], xmm0
	movaps	xmm1, XMMWORD PTR __xmm@00000000000000003f80000000000000
	movaps	XMMWORD PTR $T5[rsp+16], xmm1
	movaps	xmm0, XMMWORD PTR __xmm@000000003f8000000000000000000000
	movaps	XMMWORD PTR $T5[rbp-224], xmm0
	movaps	xmm1, XMMWORD PTR __xmm@3f800000000000000000000000000000
	movaps	XMMWORD PTR $T5[rbp-208], xmm1
; File H:\Downloads\Photo Studio\Photo Studio\Source\Tools\RectangularSelect.cpp

; 41   : 	Primitive::m_RectShader->Uniform<glm::mat4>("model",

	lea	r8, QWORD PTR $T3[rbp-256]
	lea	rdx, QWORD PTR $T5[rsp]
	lea	rcx, QWORD PTR $T10[rbp-256]
	call	??$translate@M$0A@@glm@@YA?AU?$mat@$03$03M$0A@@0@AEBU10@AEBU?$vec@$02M$0A@@0@@Z ; glm::translate<float,0>
	lea	r8, QWORD PTR $T2[rsp]
	mov	rdx, rax
	lea	rcx, QWORD PTR $T11[rbp-256]
	call	??$scale@M$0A@@glm@@YA?AU?$mat@$03$03M$0A@@0@AEBU10@AEBU?$vec@$02M$0A@@0@@Z ; glm::scale<float,0>
	mov	rbx, rax
; File C:\Program Files\Microsoft Visual Studio\2022\Community\VC\Tools\MSVC\14.32.31326\include\xstring

; 2364 :         _CONSTEXPR20 _Bxty() noexcept : _Ptr() {} // user-provided, for fancy pointers

	xor	esi, esi
	mov	QWORD PTR $T13[rsp], rsi

; 4610 :         _My_data._Mysize = 0;

	mov	QWORD PTR $T13[rsp+16], rsi

; 4611 : 
; 4612 : #if _HAS_CXX20
; 4613 :         if (_STD is_constant_evaluated()) {
; 4614 :             _My_data._Myres        = _BUF_SIZE; // SSO disabled in constexpr context
; 4615 :             auto& _Al              = _Getal();
; 4616 :             const pointer _New_ptr = _Al.allocate(_BUF_SIZE + 1); // throws
; 4617 :             _My_data._Bx._Ptr      = _New_ptr;
; 4618 : 
; 4619 :             _Elem* const _Raw_new = _Unfancy(_New_ptr);
; 4620 :             _Traits::assign(_Raw_new, _BUF_SIZE + 1, _Elem());
; 4621 :         } else
; 4622 : #endif // _HAS_CXX20
; 4623 :         {
; 4624 :             _My_data._Myres = _BUF_SIZE - 1;

	mov	QWORD PTR $T13[rsp+24], 15

; 4625 :             // the _Traits::assign is last so the codegen doesn't think the char write can alias this
; 4626 :             _Traits::assign(_My_data._Bx._Buf[0], _Elem());

	mov	BYTE PTR $T13[rsp], sil

; 3258 :         return assign(_Ptr, _Convert_size<size_type>(_Traits::length(_Ptr)));

	lea	r8d, QWORD PTR [rsi+5]
	lea	rdx, OFFSET FLAT:??_C@_05NCCFOPHA@model@
	lea	rcx, QWORD PTR $T13[rsp]
	call	?assign@?$basic_string@DU?$char_traits@D@std@@V?$allocator@D@2@@std@@QEAAAEAV12@QEBD_K@Z ; std::basic_string<char,std::char_traits<char>,std::allocator<char> >::assign
	npad	1
; File H:\Downloads\Photo Studio\Photo Studio\Source\Shader.cpp

; 94   :     unsigned int Location = this->GetUniformLocation(UniformName);

	lea	rdx, QWORD PTR $T13[rsp]
	mov	rcx, rdi
	call	?GetUniformLocation@Shader@@QEAAIAEBV?$basic_string@DU?$char_traits@D@std@@V?$allocator@D@2@@std@@@Z ; Shader::GetUniformLocation

; 95   :     glUniformMatrix4fv(Location, 1, GL_FALSE, &Value[0][0]);

	mov	r9, rbx
	xor	r8d, r8d
	lea	edx, QWORD PTR [rsi+1]
	mov	ecx, eax
	call	QWORD PTR glad_glUniformMatrix4fv
	npad	1
; File C:\Program Files\Microsoft Visual Studio\2022\Community\VC\Tools\MSVC\14.32.31326\include\xstring

; 4632 :         if (_Mypair._Myval2._Large_string_engaged()) {

	mov	rdx, QWORD PTR $T13[rsp+24]
	cmp	rdx, 16
	jb	SHORT $LN125@DrawRectan

; 4633 :             const pointer _Ptr = _Mypair._Myval2._Bx._Ptr;
; 4634 :             auto& _Al          = _Getal();
; 4635 :             _Destroy_in_place(_Mypair._Myval2._Bx._Ptr);
; 4636 :             _Al.deallocate(_Ptr, _Mypair._Myval2._Myres + 1);

	inc	rdx
; File C:\Program Files\Microsoft Visual Studio\2022\Community\VC\Tools\MSVC\14.32.31326\include\xmemory

; 830  :         _Deallocate<_New_alignof<_Ty>>(_Ptr, sizeof(_Ty) * _Count);

	mov	rcx, QWORD PTR $T13[rsp]
	mov	rax, rcx

; 251  :         if (_Bytes >= _Big_allocation_threshold) { // boost the alignment of big allocations to help autovectorization

	cmp	rdx, 4096				; 00001000H
	jb	SHORT $LN137@DrawRectan

; 147  :     _Bytes += _Non_user_size;

	add	rdx, 39					; 00000027H

; 148  : 
; 149  :     const uintptr_t* const _Ptr_user = static_cast<uintptr_t*>(_Ptr);
; 150  :     const uintptr_t _Ptr_container   = _Ptr_user[-1];

	mov	rcx, QWORD PTR [rcx-8]
	sub	rax, rcx

; 151  : 
; 152  :     // If the following asserts, it likely means that we are performing
; 153  :     // an aligned delete on memory coming from an unaligned allocation.
; 154  :     _STL_ASSERT(_Ptr_user[-2] == _Big_allocation_sentinel, "invalid argument");
; 155  : 
; 156  :     // Extra paranoia on aligned allocation/deallocation; ensure _Ptr_container is
; 157  :     // in range [_Min_back_shift, _Non_user_size]
; 158  : #ifdef _DEBUG
; 159  :     constexpr uintptr_t _Min_back_shift = 2 * sizeof(void*);
; 160  : #else // ^^^ _DEBUG ^^^ // vvv !_DEBUG vvv
; 161  :     constexpr uintptr_t _Min_back_shift = sizeof(void*);
; 162  : #endif // _DEBUG
; 163  :     const uintptr_t _Back_shift = reinterpret_cast<uintptr_t>(_Ptr) - _Ptr_container;
; 164  :     _STL_VERIFY(_Back_shift >= _Min_back_shift && _Back_shift <= _Non_user_size, "invalid argument");

	add	rax, -8
	cmp	rax, 31
	jbe	SHORT $LN137@DrawRectan
	call	QWORD PTR __imp__invalid_parameter_noinfo_noreturn
	int	3
$LN137@DrawRectan:

; 255  :         ::operator delete(_Ptr, _Bytes);

	call	??3@YAXPEAX_K@Z				; operator delete
$LN125@DrawRectan:
; File H:\Downloads\Photo Studio\Photo Studio\Source\Tools\RectangularSelect.cpp

; 46   : 	Primitive::m_RectShader->Uniform<glm::mat4>("view", glm::translate(glm::mat4(1.0f), glm::vec3(0, 0, 0)));

	mov	rdi, QWORD PTR ?m_RectShader@Primitive@@2V?$unique_ptr@VShader@@U?$default_delete@VShader@@@std@@@std@@A ; Primitive::m_RectShader
; File H:\Downloads\Photo Studio\Photo Studio\Dependencies\glm\detail\type_vec3.inl

; 54   : 		: x(static_cast<T>(_x))

	mov	QWORD PTR $T26[rsp], 0

; 56   : 		, z(static_cast<T>(_z))

	mov	DWORD PTR $T26[rsp+8], 0
; File H:\Downloads\Photo Studio\Photo Studio\Dependencies\glm\detail\type_vec4.inl

; 178  : 		: x(static_cast<T>(_x))

	movaps	xmm0, XMMWORD PTR __xmm@0000000000000000000000003f800000
	movaps	XMMWORD PTR $T28[rsp], xmm0
	movaps	xmm1, XMMWORD PTR __xmm@00000000000000003f80000000000000
	movaps	XMMWORD PTR $T28[rsp+16], xmm1
	movaps	xmm0, XMMWORD PTR __xmm@000000003f8000000000000000000000
	movaps	XMMWORD PTR $T28[rbp-224], xmm0
	movaps	xmm1, XMMWORD PTR __xmm@3f800000000000000000000000000000
	movaps	XMMWORD PTR $T28[rbp-208], xmm1
; File H:\Downloads\Photo Studio\Photo Studio\Source\Tools\RectangularSelect.cpp

; 46   : 	Primitive::m_RectShader->Uniform<glm::mat4>("view", glm::translate(glm::mat4(1.0f), glm::vec3(0, 0, 0)));

	lea	r8, QWORD PTR $T26[rsp]
	lea	rdx, QWORD PTR $T28[rsp]
	lea	rcx, QWORD PTR $T33[rbp-256]
	call	??$translate@M$0A@@glm@@YA?AU?$mat@$03$03M$0A@@0@AEBU10@AEBU?$vec@$02M$0A@@0@@Z ; glm::translate<float,0>
	mov	rbx, rax
; File C:\Program Files\Microsoft Visual Studio\2022\Community\VC\Tools\MSVC\14.32.31326\include\xstring

; 2364 :         _CONSTEXPR20 _Bxty() noexcept : _Ptr() {} // user-provided, for fancy pointers

	mov	QWORD PTR $T35[rsp], rsi

; 4610 :         _My_data._Mysize = 0;

	mov	QWORD PTR $T35[rsp+16], rsi

; 4611 : 
; 4612 : #if _HAS_CXX20
; 4613 :         if (_STD is_constant_evaluated()) {
; 4614 :             _My_data._Myres        = _BUF_SIZE; // SSO disabled in constexpr context
; 4615 :             auto& _Al              = _Getal();
; 4616 :             const pointer _New_ptr = _Al.allocate(_BUF_SIZE + 1); // throws
; 4617 :             _My_data._Bx._Ptr      = _New_ptr;
; 4618 : 
; 4619 :             _Elem* const _Raw_new = _Unfancy(_New_ptr);
; 4620 :             _Traits::assign(_Raw_new, _BUF_SIZE + 1, _Elem());
; 4621 :         } else
; 4622 : #endif // _HAS_CXX20
; 4623 :         {
; 4624 :             _My_data._Myres = _BUF_SIZE - 1;

	mov	QWORD PTR $T35[rsp+24], 15

; 4625 :             // the _Traits::assign is last so the codegen doesn't think the char write can alias this
; 4626 :             _Traits::assign(_My_data._Bx._Buf[0], _Elem());

	mov	BYTE PTR $T35[rsp], 0

; 3258 :         return assign(_Ptr, _Convert_size<size_type>(_Traits::length(_Ptr)));

	mov	r8d, 4
	lea	rdx, OFFSET FLAT:??_C@_04CHADEDPO@view@
	lea	rcx, QWORD PTR $T35[rsp]
	call	?assign@?$basic_string@DU?$char_traits@D@std@@V?$allocator@D@2@@std@@QEAAAEAV12@QEBD_K@Z ; std::basic_string<char,std::char_traits<char>,std::allocator<char> >::assign
	npad	1
; File H:\Downloads\Photo Studio\Photo Studio\Source\Shader.cpp

; 94   :     unsigned int Location = this->GetUniformLocation(UniformName);

	lea	rdx, QWORD PTR $T35[rsp]
	mov	rcx, rdi
	call	?GetUniformLocation@Shader@@QEAAIAEBV?$basic_string@DU?$char_traits@D@std@@V?$allocator@D@2@@std@@@Z ; Shader::GetUniformLocation

; 95   :     glUniformMatrix4fv(Location, 1, GL_FALSE, &Value[0][0]);

	mov	r9, rbx
	xor	r8d, r8d
	lea	edx, QWORD PTR [r8+1]
	mov	ecx, eax
	call	QWORD PTR glad_glUniformMatrix4fv
	npad	1
; File C:\Program Files\Microsoft Visual Studio\2022\Community\VC\Tools\MSVC\14.32.31326\include\xstring

; 4632 :         if (_Mypair._Myval2._Large_string_engaged()) {

	mov	rdx, QWORD PTR $T35[rsp+24]
	cmp	rdx, 16
	jb	SHORT $LN242@DrawRectan

; 4633 :             const pointer _Ptr = _Mypair._Myval2._Bx._Ptr;
; 4634 :             auto& _Al          = _Getal();
; 4635 :             _Destroy_in_place(_Mypair._Myval2._Bx._Ptr);
; 4636 :             _Al.deallocate(_Ptr, _Mypair._Myval2._Myres + 1);

	inc	rdx
; File C:\Program Files\Microsoft Visual Studio\2022\Community\VC\Tools\MSVC\14.32.31326\include\xmemory

; 830  :         _Deallocate<_New_alignof<_Ty>>(_Ptr, sizeof(_Ty) * _Count);

	mov	rcx, QWORD PTR $T35[rsp]
	mov	rax, rcx

; 251  :         if (_Bytes >= _Big_allocation_threshold) { // boost the alignment of big allocations to help autovectorization

	cmp	rdx, 4096				; 00001000H
	jb	SHORT $LN254@DrawRectan

; 147  :     _Bytes += _Non_user_size;

	add	rdx, 39					; 00000027H

; 148  : 
; 149  :     const uintptr_t* const _Ptr_user = static_cast<uintptr_t*>(_Ptr);
; 150  :     const uintptr_t _Ptr_container   = _Ptr_user[-1];

	mov	rcx, QWORD PTR [rcx-8]
	sub	rax, rcx

; 151  : 
; 152  :     // If the following asserts, it likely means that we are performing
; 153  :     // an aligned delete on memory coming from an unaligned allocation.
; 154  :     _STL_ASSERT(_Ptr_user[-2] == _Big_allocation_sentinel, "invalid argument");
; 155  : 
; 156  :     // Extra paranoia on aligned allocation/deallocation; ensure _Ptr_container is
; 157  :     // in range [_Min_back_shift, _Non_user_size]
; 158  : #ifdef _DEBUG
; 159  :     constexpr uintptr_t _Min_back_shift = 2 * sizeof(void*);
; 160  : #else // ^^^ _DEBUG ^^^ // vvv !_DEBUG vvv
; 161  :     constexpr uintptr_t _Min_back_shift = sizeof(void*);
; 162  : #endif // _DEBUG
; 163  :     const uintptr_t _Back_shift = reinterpret_cast<uintptr_t>(_Ptr) - _Ptr_container;
; 164  :     _STL_VERIFY(_Back_shift >= _Min_back_shift && _Back_shift <= _Non_user_size, "invalid argument");

	add	rax, -8
	cmp	rax, 31
	jbe	SHORT $LN254@DrawRectan
	call	QWORD PTR __imp__invalid_parameter_noinfo_noreturn
	int	3
$LN254@DrawRectan:

; 255  :         ::operator delete(_Ptr, _Bytes);

	call	??3@YAXPEAX_K@Z				; operator delete
$LN242@DrawRectan:
; File H:\Downloads\Photo Studio\Photo Studio\Source\Tools\RectangularSelect.cpp

; 47   : 	Primitive::m_RectShader->Uniform<glm::mat4>("projection", glm::ortho(0.0f, CanvasData::m_CanvasSize.x, 0.0f, CanvasData::m_CanvasSize.y));

	mov	rbx, QWORD PTR ?m_RectShader@Primitive@@2V?$unique_ptr@VShader@@U?$default_delete@VShader@@@std@@@std@@A ; Primitive::m_RectShader
	movss	xmm5, DWORD PTR ?m_CanvasSize@CanvasData@@2U?$vec@$01M$0A@@glm@@A+4
	movss	xmm4, DWORD PTR ?m_CanvasSize@CanvasData@@2U?$vec@$01M$0A@@glm@@A
; File H:\Downloads\Photo Studio\Photo Studio\Dependencies\glm\detail\type_vec4.inl

; 179  : 		, y(static_cast<T>(_y))

	mov	QWORD PTR $T49[rsp+4], 0

; 181  : 		, w(static_cast<T>(_w))

	mov	QWORD PTR $T49[rsp+12], 0

; 180  : 		, z(static_cast<T>(_z))

	mov	QWORD PTR $T49[rsp+24], 0

; 178  : 		: x(static_cast<T>(_x))

	mov	QWORD PTR $T49[rbp-224], 0

; 181  : 		, w(static_cast<T>(_w))

	mov	DWORD PTR $T49[rbp-212], 0

; 180  : 		, z(static_cast<T>(_z))

	mov	DWORD PTR $T49[rbp-200], 0

; 181  : 		, w(static_cast<T>(_w))

	movss	xmm0, DWORD PTR __real@3f800000
	movss	DWORD PTR $T49[rbp-196], xmm0
; File H:\Downloads\Photo Studio\Photo Studio\Dependencies\glm\ext\matrix_clip_space.inl

; 7    : 		Result[0][0] = static_cast<T>(2) / (right - left);

	movaps	xmm2, xmm4
	subss	xmm2, xmm7
	movss	xmm1, DWORD PTR __real@40000000
	movaps	xmm0, xmm1
	divss	xmm0, xmm2
	movss	DWORD PTR $T49[rsp], xmm0

; 8    : 		Result[1][1] = static_cast<T>(2) / (top - bottom);

	movaps	xmm3, xmm5
	subss	xmm3, xmm7
	divss	xmm1, xmm3
	movss	DWORD PTR $T49[rsp+20], xmm1

; 9    : 		Result[2][2] = - static_cast<T>(1);

	movss	xmm0, DWORD PTR __real@bf800000
	movss	DWORD PTR $T49[rbp-216], xmm0

; 10   : 		Result[3][0] = - (right + left) / (right - left);

	addss	xmm4, xmm7
	xorps	xmm4, DWORD PTR __xmm@80000000800000008000000080000000
	divss	xmm4, xmm2
	movss	DWORD PTR $T49[rbp-208], xmm4

; 11   : 		Result[3][1] = - (top + bottom) / (top - bottom);

	addss	xmm5, xmm7
	xorps	xmm5, DWORD PTR __xmm@80000000800000008000000080000000
	divss	xmm5, xmm3
	movss	DWORD PTR $T49[rbp-204], xmm5
; File C:\Program Files\Microsoft Visual Studio\2022\Community\VC\Tools\MSVC\14.32.31326\include\xstring

; 2364 :         _CONSTEXPR20 _Bxty() noexcept : _Ptr() {} // user-provided, for fancy pointers

	mov	QWORD PTR $T65[rsp], rsi

; 4610 :         _My_data._Mysize = 0;

	mov	QWORD PTR $T65[rsp+16], rsi

; 4611 : 
; 4612 : #if _HAS_CXX20
; 4613 :         if (_STD is_constant_evaluated()) {
; 4614 :             _My_data._Myres        = _BUF_SIZE; // SSO disabled in constexpr context
; 4615 :             auto& _Al              = _Getal();
; 4616 :             const pointer _New_ptr = _Al.allocate(_BUF_SIZE + 1); // throws
; 4617 :             _My_data._Bx._Ptr      = _New_ptr;
; 4618 : 
; 4619 :             _Elem* const _Raw_new = _Unfancy(_New_ptr);
; 4620 :             _Traits::assign(_Raw_new, _BUF_SIZE + 1, _Elem());
; 4621 :         } else
; 4622 : #endif // _HAS_CXX20
; 4623 :         {
; 4624 :             _My_data._Myres = _BUF_SIZE - 1;

	mov	QWORD PTR $T65[rsp+24], 15

; 4625 :             // the _Traits::assign is last so the codegen doesn't think the char write can alias this
; 4626 :             _Traits::assign(_My_data._Bx._Buf[0], _Elem());

	mov	BYTE PTR $T65[rsp], 0

; 3258 :         return assign(_Ptr, _Convert_size<size_type>(_Traits::length(_Ptr)));

	mov	r8d, 10
	lea	rdx, OFFSET FLAT:??_C@_0L@PPHAJBEH@projection@
	lea	rcx, QWORD PTR $T65[rsp]
	call	?assign@?$basic_string@DU?$char_traits@D@std@@V?$allocator@D@2@@std@@QEAAAEAV12@QEBD_K@Z ; std::basic_string<char,std::char_traits<char>,std::allocator<char> >::assign
	npad	1
; File H:\Downloads\Photo Studio\Photo Studio\Source\Shader.cpp

; 94   :     unsigned int Location = this->GetUniformLocation(UniformName);

	lea	rdx, QWORD PTR $T65[rsp]
	mov	rcx, rbx
	call	?GetUniformLocation@Shader@@QEAAIAEBV?$basic_string@DU?$char_traits@D@std@@V?$allocator@D@2@@std@@@Z ; Shader::GetUniformLocation

; 95   :     glUniformMatrix4fv(Location, 1, GL_FALSE, &Value[0][0]);

	lea	r9, QWORD PTR $T49[rsp]
	xor	r8d, r8d
	lea	edx, QWORD PTR [r8+1]
	mov	ecx, eax
	call	QWORD PTR glad_glUniformMatrix4fv
	npad	1
; File C:\Program Files\Microsoft Visual Studio\2022\Community\VC\Tools\MSVC\14.32.31326\include\xstring

; 4632 :         if (_Mypair._Myval2._Large_string_engaged()) {

	mov	rdx, QWORD PTR $T65[rsp+24]
	cmp	rdx, 16
	jb	SHORT $LN414@DrawRectan

; 4633 :             const pointer _Ptr = _Mypair._Myval2._Bx._Ptr;
; 4634 :             auto& _Al          = _Getal();
; 4635 :             _Destroy_in_place(_Mypair._Myval2._Bx._Ptr);
; 4636 :             _Al.deallocate(_Ptr, _Mypair._Myval2._Myres + 1);

	inc	rdx
; File C:\Program Files\Microsoft Visual Studio\2022\Community\VC\Tools\MSVC\14.32.31326\include\xmemory

; 830  :         _Deallocate<_New_alignof<_Ty>>(_Ptr, sizeof(_Ty) * _Count);

	mov	rcx, QWORD PTR $T65[rsp]
	mov	rax, rcx

; 251  :         if (_Bytes >= _Big_allocation_threshold) { // boost the alignment of big allocations to help autovectorization

	cmp	rdx, 4096				; 00001000H
	jb	SHORT $LN426@DrawRectan

; 147  :     _Bytes += _Non_user_size;

	add	rdx, 39					; 00000027H

; 148  : 
; 149  :     const uintptr_t* const _Ptr_user = static_cast<uintptr_t*>(_Ptr);
; 150  :     const uintptr_t _Ptr_container   = _Ptr_user[-1];

	mov	rcx, QWORD PTR [rcx-8]
	sub	rax, rcx

; 151  : 
; 152  :     // If the following asserts, it likely means that we are performing
; 153  :     // an aligned delete on memory coming from an unaligned allocation.
; 154  :     _STL_ASSERT(_Ptr_user[-2] == _Big_allocation_sentinel, "invalid argument");
; 155  : 
; 156  :     // Extra paranoia on aligned allocation/deallocation; ensure _Ptr_container is
; 157  :     // in range [_Min_back_shift, _Non_user_size]
; 158  : #ifdef _DEBUG
; 159  :     constexpr uintptr_t _Min_back_shift = 2 * sizeof(void*);
; 160  : #else // ^^^ _DEBUG ^^^ // vvv !_DEBUG vvv
; 161  :     constexpr uintptr_t _Min_back_shift = sizeof(void*);
; 162  : #endif // _DEBUG
; 163  :     const uintptr_t _Back_shift = reinterpret_cast<uintptr_t>(_Ptr) - _Ptr_container;
; 164  :     _STL_VERIFY(_Back_shift >= _Min_back_shift && _Back_shift <= _Non_user_size, "invalid argument");

	add	rax, -8
	cmp	rax, 31
	jbe	SHORT $LN426@DrawRectan
	call	QWORD PTR __imp__invalid_parameter_noinfo_noreturn
	int	3
$LN426@DrawRectan:

; 255  :         ::operator delete(_Ptr, _Bytes);

	call	??3@YAXPEAX_K@Z				; operator delete
$LN414@DrawRectan:
; File H:\Downloads\Photo Studio\Photo Studio\Source\Tools\RectangularSelect.cpp

; 48   : 	Primitive::m_RectShader->Uniform<glm::vec4>("color", { 0.5f, 0.5f, 0.5f, 0.5f });

	mov	rbx, QWORD PTR ?m_RectShader@Primitive@@2V?$unique_ptr@VShader@@U?$default_delete@VShader@@@std@@@std@@A ; Primitive::m_RectShader
; File C:\Program Files\Microsoft Visual Studio\2022\Community\VC\Tools\MSVC\14.32.31326\include\xstring

; 2364 :         _CONSTEXPR20 _Bxty() noexcept : _Ptr() {} // user-provided, for fancy pointers

	mov	QWORD PTR $T79[rsp], rsi

; 4610 :         _My_data._Mysize = 0;

	mov	QWORD PTR $T79[rsp+16], rsi

; 4611 : 
; 4612 : #if _HAS_CXX20
; 4613 :         if (_STD is_constant_evaluated()) {
; 4614 :             _My_data._Myres        = _BUF_SIZE; // SSO disabled in constexpr context
; 4615 :             auto& _Al              = _Getal();
; 4616 :             const pointer _New_ptr = _Al.allocate(_BUF_SIZE + 1); // throws
; 4617 :             _My_data._Bx._Ptr      = _New_ptr;
; 4618 : 
; 4619 :             _Elem* const _Raw_new = _Unfancy(_New_ptr);
; 4620 :             _Traits::assign(_Raw_new, _BUF_SIZE + 1, _Elem());
; 4621 :         } else
; 4622 : #endif // _HAS_CXX20
; 4623 :         {
; 4624 :             _My_data._Myres = _BUF_SIZE - 1;

	mov	QWORD PTR $T79[rsp+24], 15

; 4625 :             // the _Traits::assign is last so the codegen doesn't think the char write can alias this
; 4626 :             _Traits::assign(_My_data._Bx._Buf[0], _Elem());

	mov	BYTE PTR $T79[rsp], 0

; 3258 :         return assign(_Ptr, _Convert_size<size_type>(_Traits::length(_Ptr)));

	mov	r8d, 5
	lea	rdx, OFFSET FLAT:??_C@_05PEENBMOG@color@
	lea	rcx, QWORD PTR $T79[rsp]
	call	?assign@?$basic_string@DU?$char_traits@D@std@@V?$allocator@D@2@@std@@QEAAAEAV12@QEBD_K@Z ; std::basic_string<char,std::char_traits<char>,std::allocator<char> >::assign
	npad	1
; File H:\Downloads\Photo Studio\Photo Studio\Source\Shader.cpp

; 118  :     unsigned int Location = this->GetUniformLocation(UniformName);

	lea	rdx, QWORD PTR $T79[rsp]
	mov	rcx, rbx
	call	?GetUniformLocation@Shader@@QEAAIAEBV?$basic_string@DU?$char_traits@D@std@@V?$allocator@D@2@@std@@@Z ; Shader::GetUniformLocation

; 119  :     glUniform4f(Location, Value[0], Value[1], Value[2], Value[3]);

	movss	DWORD PTR [rsp+32], xmm6
	movaps	xmm3, xmm6
	movaps	xmm2, xmm6
	movaps	xmm1, xmm6
	mov	ecx, eax
	call	QWORD PTR glad_glUniform4f
	npad	1
; File C:\Program Files\Microsoft Visual Studio\2022\Community\VC\Tools\MSVC\14.32.31326\include\xstring

; 4632 :         if (_Mypair._Myval2._Large_string_engaged()) {

	mov	rdx, QWORD PTR $T79[rsp+24]
	cmp	rdx, 16
	jb	SHORT $LN546@DrawRectan

; 4633 :             const pointer _Ptr = _Mypair._Myval2._Bx._Ptr;
; 4634 :             auto& _Al          = _Getal();
; 4635 :             _Destroy_in_place(_Mypair._Myval2._Bx._Ptr);
; 4636 :             _Al.deallocate(_Ptr, _Mypair._Myval2._Myres + 1);

	inc	rdx
; File C:\Program Files\Microsoft Visual Studio\2022\Community\VC\Tools\MSVC\14.32.31326\include\xmemory

; 830  :         _Deallocate<_New_alignof<_Ty>>(_Ptr, sizeof(_Ty) * _Count);

	mov	rcx, QWORD PTR $T79[rsp]
	mov	rax, rcx

; 251  :         if (_Bytes >= _Big_allocation_threshold) { // boost the alignment of big allocations to help autovectorization

	cmp	rdx, 4096				; 00001000H
	jb	SHORT $LN558@DrawRectan

; 147  :     _Bytes += _Non_user_size;

	add	rdx, 39					; 00000027H

; 148  : 
; 149  :     const uintptr_t* const _Ptr_user = static_cast<uintptr_t*>(_Ptr);
; 150  :     const uintptr_t _Ptr_container   = _Ptr_user[-1];

	mov	rcx, QWORD PTR [rcx-8]
	sub	rax, rcx

; 151  : 
; 152  :     // If the following asserts, it likely means that we are performing
; 153  :     // an aligned delete on memory coming from an unaligned allocation.
; 154  :     _STL_ASSERT(_Ptr_user[-2] == _Big_allocation_sentinel, "invalid argument");
; 155  : 
; 156  :     // Extra paranoia on aligned allocation/deallocation; ensure _Ptr_container is
; 157  :     // in range [_Min_back_shift, _Non_user_size]
; 158  : #ifdef _DEBUG
; 159  :     constexpr uintptr_t _Min_back_shift = 2 * sizeof(void*);
; 160  : #else // ^^^ _DEBUG ^^^ // vvv !_DEBUG vvv
; 161  :     constexpr uintptr_t _Min_back_shift = sizeof(void*);
; 162  : #endif // _DEBUG
; 163  :     const uintptr_t _Back_shift = reinterpret_cast<uintptr_t>(_Ptr) - _Ptr_container;
; 164  :     _STL_VERIFY(_Back_shift >= _Min_back_shift && _Back_shift <= _Non_user_size, "invalid argument");

	add	rax, -8
	cmp	rax, 31
	jbe	SHORT $LN558@DrawRectan
	call	QWORD PTR __imp__invalid_parameter_noinfo_noreturn
	int	3
$LN558@DrawRectan:

; 255  :         ::operator delete(_Ptr, _Bytes);

	call	??3@YAXPEAX_K@Z				; operator delete
$LN546@DrawRectan:
; File C:\Program Files\Microsoft Visual Studio\2022\Community\VC\Tools\MSVC\14.32.31326\include\xstring

; 4647 :             _Mypair._Myval2._Mysize = 0;

	mov	QWORD PTR $T79[rsp+16], rsi

; 4648 :             _Mypair._Myval2._Myres  = _BUF_SIZE - 1;

	mov	QWORD PTR $T79[rsp+24], 15

; 4649 :             // the _Traits::assign is last so the codegen doesn't think the char write can alias this
; 4650 :             _Traits::assign(_Mypair._Myval2._Bx._Buf[0], _Elem());

	mov	BYTE PTR $T79[rsp], 0
; File H:\Downloads\Photo Studio\Photo Studio\Source\Tools\RectangularSelect.cpp

; 50   : 	Primitive::m_CanvasObject->Draw();

	mov	rbx, QWORD PTR ?m_CanvasObject@Primitive@@2V?$unique_ptr@VCanvasObject@@U?$default_delete@VCanvasObject@@@std@@@std@@A ; Primitive::m_CanvasObject
; File H:\Downloads\Photo Studio\Photo Studio\Source\CanvasObject.cpp

; 32   : 	glBindVertexArray(m_VAO);

	mov	ecx, DWORD PTR [rbx]
	call	QWORD PTR glad_glBindVertexArray
; File C:\Program Files\Microsoft Visual Studio\2022\Community\VC\Tools\MSVC\14.32.31326\include\vector

; 1715 :         return static_cast<size_type>(_My_data._Mylast - _My_data._Myfirst);

	mov	rdx, QWORD PTR [rbx+24]
	sub	rdx, QWORD PTR [rbx+16]
	sar	rdx, 2
; File H:\Downloads\Photo Studio\Photo Studio\Source\CanvasObject.cpp

; 33   : 	glDrawElements(GL_TRIANGLES, m_Indices.size(), GL_UNSIGNED_INT, (void*)0);

	xor	r9d, r9d
	lea	ecx, QWORD PTR [r9+4]
	mov	r8d, 5125				; 00001405H
	call	QWORD PTR glad_glDrawElements

; 34   : 	glBindVertexArray(0);

	xor	ecx, ecx
	call	QWORD PTR glad_glBindVertexArray
$LN1@DrawRectan:
; File H:\Downloads\Photo Studio\Photo Studio\Source\Tools\RectangularSelect.cpp

; 51   : }

	lea	r11, QWORD PTR [rsp+336]
	mov	rbx, QWORD PTR [r11+16]
	mov	rsi, QWORD PTR [r11+24]
	mov	rdi, QWORD PTR [r11+32]
	movaps	xmm6, XMMWORD PTR [r11-16]
	movaps	xmm7, XMMWORD PTR [r11-32]
	mov	rsp, r11
	pop	rbp
	ret	0
$LN753@DrawRectan:
?DrawRectangularSelect@RectangularSelect@@QEAAXXZ ENDP	; RectangularSelect::DrawRectangularSelect
_TEXT	ENDS
; Function compile flags: /Ogtpy
;	COMDAT text$x
text$x	SEGMENT
$T79 = 48
$T65 = 48
$T35 = 48
$T13 = 48
$T26 = 80
$T2 = 80
$T49 = 96
$T28 = 96
$T5 = 96
$T3 = 160
$T33 = 176
$T11 = 176
$T10 = 240
this$ = 352
?dtor$0@?0??DrawRectangularSelect@RectangularSelect@@QEAAXXZ@4HA PROC ; `RectangularSelect::DrawRectangularSelect'::`1'::dtor$0
	lea	rcx, QWORD PTR $T13[rdx]
	jmp	??1?$basic_string@DU?$char_traits@D@std@@V?$allocator@D@2@@std@@QEAA@XZ ; std::basic_string<char,std::char_traits<char>,std::allocator<char> >::~basic_string<char,std::char_traits<char>,std::allocator<char> >
?dtor$0@?0??DrawRectangularSelect@RectangularSelect@@QEAAXXZ@4HA ENDP ; `RectangularSelect::DrawRectangularSelect'::`1'::dtor$0
text$x	ENDS
; Function compile flags: /Ogtpy
;	COMDAT text$x
text$x	SEGMENT
$T79 = 48
$T65 = 48
$T35 = 48
$T13 = 48
$T26 = 80
$T2 = 80
$T49 = 96
$T28 = 96
$T5 = 96
$T3 = 160
$T33 = 176
$T11 = 176
$T10 = 240
this$ = 352
?dtor$1@?0??DrawRectangularSelect@RectangularSelect@@QEAAXXZ@4HA PROC ; `RectangularSelect::DrawRectangularSelect'::`1'::dtor$1
	lea	rcx, QWORD PTR $T35[rdx]
	jmp	??1?$basic_string@DU?$char_traits@D@std@@V?$allocator@D@2@@std@@QEAA@XZ ; std::basic_string<char,std::char_traits<char>,std::allocator<char> >::~basic_string<char,std::char_traits<char>,std::allocator<char> >
?dtor$1@?0??DrawRectangularSelect@RectangularSelect@@QEAAXXZ@4HA ENDP ; `RectangularSelect::DrawRectangularSelect'::`1'::dtor$1
text$x	ENDS
; Function compile flags: /Ogtpy
;	COMDAT text$x
text$x	SEGMENT
$T79 = 48
$T65 = 48
$T35 = 48
$T13 = 48
$T26 = 80
$T2 = 80
$T49 = 96
$T28 = 96
$T5 = 96
$T3 = 160
$T33 = 176
$T11 = 176
$T10 = 240
this$ = 352
?dtor$2@?0??DrawRectangularSelect@RectangularSelect@@QEAAXXZ@4HA PROC ; `RectangularSelect::DrawRectangularSelect'::`1'::dtor$2
	lea	rcx, QWORD PTR $T65[rdx]
	jmp	??1?$basic_string@DU?$char_traits@D@std@@V?$allocator@D@2@@std@@QEAA@XZ ; std::basic_string<char,std::char_traits<char>,std::allocator<char> >::~basic_string<char,std::char_traits<char>,std::allocator<char> >
?dtor$2@?0??DrawRectangularSelect@RectangularSelect@@QEAAXXZ@4HA ENDP ; `RectangularSelect::DrawRectangularSelect'::`1'::dtor$2
text$x	ENDS
; Function compile flags: /Ogtpy
;	COMDAT text$x
text$x	SEGMENT
$T79 = 48
$T65 = 48
$T35 = 48
$T13 = 48
$T26 = 80
$T2 = 80
$T49 = 96
$T28 = 96
$T5 = 96
$T3 = 160
$T33 = 176
$T11 = 176
$T10 = 240
this$ = 352
?dtor$3@?0??DrawRectangularSelect@RectangularSelect@@QEAAXXZ@4HA PROC ; `RectangularSelect::DrawRectangularSelect'::`1'::dtor$3
	lea	rcx, QWORD PTR $T79[rdx]
	jmp	??1?$basic_string@DU?$char_traits@D@std@@V?$allocator@D@2@@std@@QEAA@XZ ; std::basic_string<char,std::char_traits<char>,std::allocator<char> >::~basic_string<char,std::char_traits<char>,std::allocator<char> >
?dtor$3@?0??DrawRectangularSelect@RectangularSelect@@QEAAXXZ@4HA ENDP ; `RectangularSelect::DrawRectangularSelect'::`1'::dtor$3
text$x	ENDS
END
